	.text
	.file	"c64dvd-glsl.c"
	.globl	ERROREXIT               # -- Begin function ERROREXIT
	.p2align	4, 0x90
	.type	ERROREXIT,@function
ERROREXIT:                              # @ERROREXIT
	.cfi_startproc
# %bb.0:
	pushq	%rbp
	.cfi_def_cfa_offset 16
	.cfi_offset %rbp, -16
	movq	%rsp, %rbp
	.cfi_def_cfa_register %rbp
	subq	$64, %rsp
	movq	%fs:40, %rax
	movq	%rax, -8(%rbp)
	movq	%rdi, -32(%rbp)
# %bb.1:
	callq	fb_GfxScreenPtr@PLT
	movq	%rax, -40(%rbp)
	cmpq	$0, -40(%rbp)
	jne	.LBB0_3
# %bb.2:
	jmp	.LBB0_4
.LBB0_3:
	xorl	%eax, %eax
	movl	%eax, %edi
	movl	$8, %esi
	movl	%eax, %edx
	movl	%eax, %ecx
	movl	%eax, %r8d
	callq	fb_GfxScreen@PLT
.LBB0_4:
	xorl	%eax, %eax
	leaq	-16(%rbp), %rcx
	movq	%rcx, %rdi
	movl	%eax, %esi
	movl	$8, %ecx
	movq	%rcx, %rdx
	movl	%eax, -52(%rbp)         # 4-byte Spill
	movq	%rcx, -64(%rbp)         # 8-byte Spill
	callq	memset@PLT
	leaq	-24(%rbp), %rcx
	movq	%rcx, %rdi
	movl	-52(%rbp), %esi         # 4-byte Reload
	movq	-64(%rbp), %rdx         # 8-byte Reload
	callq	memset@PLT
	movq	-32(%rbp), %rsi
	movl	-52(%rbp), %edi         # 4-byte Reload
	movl	$1, %edx
	callq	fb_PrintString@PLT
	xorl	%edi, %edi
	movl	$1, %esi
	callq	fb_PrintVoid@PLT
	leaq	.L.str(%rip), %rdi
	movl	$17, %esi
	callq	fb_StrAllocTempDescZEx@PLT
	xorl	%edi, %edi
	movq	%rax, -48(%rbp)
	movq	-48(%rbp), %rsi
	movl	$1, %edx
	callq	fb_PrintString@PLT
	callq	fb_Beep@PLT
	movl	$4294967295, %edi       # imm = 0xFFFFFFFF
	callq	fb_Sleep@PLT
	movl	$1, %edi
	callq	fb_End@PLT
# %bb.5:
	movq	%fs:40, %rax
	movq	-8(%rbp), %rcx
	cmpq	%rcx, %rax
	jne	.LBB0_7
# %bb.6:                                # %SP_return
	addq	$64, %rsp
	popq	%rbp
	.cfi_def_cfa %rsp, 8
	retq
.LBB0_7:                                # %CallStackCheckFailBlk
	.cfi_def_cfa %rbp, 16
	callq	__stack_chk_fail@PLT
.Lfunc_end0:
	.size	ERROREXIT, .Lfunc_end0-ERROREXIT
	.cfi_endproc
                                        # -- End function
	.section	.rodata.cst8,"aM",@progbits,8
	.p2align	3               # -- Begin function GLSCREEN
.LCPI1_0:
	.quad	4621256167635550208     # double 9
.LCPI1_1:
	.quad	4625196817309499392     # double 16
	.text
	.globl	GLSCREEN
	.p2align	4, 0x90
	.type	GLSCREEN,@function
GLSCREEN:                               # @GLSCREEN
	.cfi_startproc
# %bb.0:
	pushq	%rbp
	.cfi_def_cfa_offset 16
	.cfi_offset %rbp, -16
	movq	%rsp, %rbp
	.cfi_def_cfa_register %rbp
	subq	$1824, %rsp             # imm = 0x720
                                        # kill: def $r8b killed $r8b killed $r8d
	movq	%fs:40, %rax
	movq	%rax, -8(%rbp)
	movq	%rdi, -840(%rbp)
	movq	%rsi, -848(%rbp)
	movq	%rdx, -856(%rbp)
	movq	%rcx, -96(%rbp)
	movb	%r8b, -857(%rbp)
# %bb.1:
	xorl	%eax, %eax
	leaq	-152(%rbp), %rcx
	movq	%rcx, %rdi
	movl	%eax, %esi
	movl	$8, %ecx
	movq	%rcx, %rdx
	movl	%eax, -1380(%rbp)       # 4-byte Spill
	movq	%rcx, -1392(%rbp)       # 8-byte Spill
	callq	memset@PLT
	leaq	-160(%rbp), %rcx
	movq	%rcx, %rdi
	movl	-1380(%rbp), %esi       # 4-byte Reload
	movq	-1392(%rbp), %rdx       # 8-byte Reload
	callq	memset@PLT
	leaq	-168(%rbp), %rcx
	movq	%rcx, %rdi
	movl	-1380(%rbp), %esi       # 4-byte Reload
	movq	-1392(%rbp), %rdx       # 8-byte Reload
	callq	memset@PLT
	callq	fb_GfxScreenPtr@PLT
	movq	%rax, -904(%rbp)
	cmpq	$0, -904(%rbp)
	jne	.LBB1_3
# %bb.2:
	jmp	.LBB1_4
.LBB1_3:
	xorl	%eax, %eax
	movl	%eax, %edi
	movl	$8, %esi
	movl	%eax, %edx
	movl	%eax, %ecx
	movl	%eax, %r8d
	callq	fb_GfxScreen@PLT
.LBB1_4:
	xorl	%eax, %eax
	movl	%eax, %esi
	leaq	.L.str.1(%rip), %rdi
	callq	fb_StrAllocTempDescZEx@PLT
	movq	%rax, -912(%rbp)
	movq	$0, -120(%rbp)
	movq	$0, -112(%rbp)
	movq	$0, -104(%rbp)
	movq	-912(%rbp), %rax
	leaq	-152(%rbp), %rdi
	leaq	-160(%rbp), %rsi
	leaq	-168(%rbp), %rdx
	leaq	-104(%rbp), %rcx
	leaq	-112(%rbp), %r8
	leaq	-120(%rbp), %r9
	movq	%rax, (%rsp)
	callq	fb_GfxScreenInfo@PLT
	cmpq	$0, -840(%rbp)
	jle	.LBB1_6
# %bb.5:
	jmp	.LBB1_7
.LBB1_6:
	xorl	%eax, %eax
	cmpq	$0, -848(%rbp)
	setle	%cl
	andb	$1, %cl
	movzbl	%cl, %edx
	subl	%edx, %eax
	movslq	%eax, %rsi
	movq	%rsi, -872(%rbp)
	jmp	.LBB1_8
.LBB1_7:
	movq	$0, -872(%rbp)
.LBB1_8:
	cmpq	$0, -872(%rbp)
	jne	.LBB1_10
# %bb.9:
	jmp	.LBB1_11
.LBB1_10:
	movq	$640, -840(%rbp)        # imm = 0x280
	movq	$350, -848(%rbp)        # imm = 0x15E
	movb	$0, -857(%rbp)
	jmp	.LBB1_26
.LBB1_11:
	cmpq	$0, -840(%rbp)
	jg	.LBB1_13
# %bb.12:
	jmp	.LBB1_14
.LBB1_13:
	xorl	%eax, %eax
	cmpq	$0, -848(%rbp)
	setle	%cl
	andb	$1, %cl
	movzbl	%cl, %edx
	subl	%edx, %eax
	movslq	%eax, %rsi
	movq	%rsi, -880(%rbp)
	jmp	.LBB1_15
.LBB1_14:
	movq	$0, -880(%rbp)
.LBB1_15:
	cmpq	$0, -880(%rbp)
	jne	.LBB1_17
# %bb.16:
	jmp	.LBB1_18
.LBB1_17:
	movsd	.LCPI1_0(%rip), %xmm0   # xmm0 = mem[0],zero
	movsd	.LCPI1_1(%rip), %xmm1   # xmm1 = mem[0],zero
	cvtsi2sdq	-840(%rbp), %xmm2
	divsd	%xmm1, %xmm2
	mulsd	%xmm0, %xmm2
	movaps	%xmm2, %xmm0
	callq	nearbyint@PLT
	cvttsd2si	%xmm0, %rax
	movq	%rax, -848(%rbp)
	jmp	.LBB1_26
.LBB1_18:
	cmpq	$0, -840(%rbp)
	jle	.LBB1_20
# %bb.19:
	jmp	.LBB1_21
.LBB1_20:
	xorl	%eax, %eax
	cmpq	$0, -848(%rbp)
	setg	%cl
	andb	$1, %cl
	movzbl	%cl, %edx
	subl	%edx, %eax
	movslq	%eax, %rsi
	movq	%rsi, -888(%rbp)
	jmp	.LBB1_22
.LBB1_21:
	movq	$0, -888(%rbp)
.LBB1_22:
	cmpq	$0, -888(%rbp)
	jne	.LBB1_24
# %bb.23:
	jmp	.LBB1_25
.LBB1_24:
	movsd	.LCPI1_1(%rip), %xmm0   # xmm0 = mem[0],zero
	movsd	.LCPI1_0(%rip), %xmm1   # xmm1 = mem[0],zero
	cvtsi2sdq	-848(%rbp), %xmm2
	divsd	%xmm1, %xmm2
	mulsd	%xmm0, %xmm2
	movaps	%xmm2, %xmm0
	callq	nearbyint@PLT
	cvttsd2si	%xmm0, %rax
	movq	%rax, -840(%rbp)
.LBB1_25:
	jmp	.LBB1_26
.LBB1_26:
	cmpq	$16, -856(%rbp)
	jl	.LBB1_28
# %bb.27:
	jmp	.LBB1_29
.LBB1_28:
	movq	-168(%rbp), %rax
	movq	%rax, -856(%rbp)
	jmp	.LBB1_36
.LBB1_29:
	cmpq	$24, -856(%rbp)
	jl	.LBB1_31
# %bb.30:
	jmp	.LBB1_32
.LBB1_31:
	movq	$16, -856(%rbp)
	jmp	.LBB1_36
.LBB1_32:
	cmpq	$32, -856(%rbp)
	jl	.LBB1_34
# %bb.33:
	jmp	.LBB1_35
.LBB1_34:
	movq	$24, -856(%rbp)
	jmp	.LBB1_36
.LBB1_35:
	movq	$32, -856(%rbp)
.LBB1_36:
	cmpq	$0, -96(%rbp)
	jle	.LBB1_38
# %bb.37:
	jmp	.LBB1_39
.LBB1_38:
	movq	$0, -96(%rbp)
	jmp	.LBB1_46
.LBB1_39:
	cmpq	$16, -96(%rbp)
	jl	.LBB1_41
# %bb.40:
	jmp	.LBB1_42
.LBB1_41:
	movq	$16, -96(%rbp)
	jmp	.LBB1_46
.LBB1_42:
	cmpq	$32, -96(%rbp)
	jl	.LBB1_44
# %bb.43:
	jmp	.LBB1_45
.LBB1_44:
	movq	$24, -96(%rbp)
	jmp	.LBB1_46
.LBB1_45:
	movq	$32, -96(%rbp)
.LBB1_46:
	movl	$2147483648, %eax       # imm = 0x80000000
	movq	%rax, -144(%rbp)
	movq	%rax, -136(%rbp)
	movq	%rax, -128(%rbp)
	movl	$110, %edi
	leaq	-96(%rbp), %rsi
	leaq	-128(%rbp), %rdx
	leaq	-136(%rbp), %rcx
	leaq	-144(%rbp), %r8
	callq	fb_GfxControl_i@PLT
	movsbl	-857(%rbp), %edi
	cmpl	$0, %edi
	jne	.LBB1_48
# %bb.47:
	jmp	.LBB1_97
.LBB1_48:
	xorl	%eax, %eax
	cmpq	$640, -840(%rbp)        # imm = 0x280
	setl	%cl
	andb	$1, %cl
	movzbl	%cl, %edx
	movl	%eax, %esi
	subl	%edx, %esi
	movslq	%esi, %rdi
	cmpq	$480, -848(%rbp)        # imm = 0x1E0
	setl	%cl
	andb	$1, %cl
	movzbl	%cl, %edx
	subl	%edx, %eax
	movslq	%eax, %r8
	orq	%r8, %rdi
	cmpq	$0, %rdi
	jne	.LBB1_50
# %bb.49:
	jmp	.LBB1_51
.LBB1_50:
	movq	$640, -840(%rbp)        # imm = 0x280
	movq	$480, -848(%rbp)        # imm = 0x1E0
.LBB1_51:
	jmp	.LBB1_52
.LBB1_52:
	xorl	%esi, %esi
	leaq	-172(%rbp), %rax
	movq	%rax, %rdi
	movl	$4, %edx
	callq	memset@PLT
	movq	-856(%rbp), %rax
                                        # kill: def $eax killed $eax killed $rax
	movl	%eax, %edi
	callq	fb_GfxScreenList@PLT
	movl	%eax, -920(%rbp)
	movl	-920(%rbp), %eax
	movl	%eax, -916(%rbp)
	movslq	-916(%rbp), %rcx
	cmpq	$0, %rcx
	jne	.LBB1_54
# %bb.53:
	jmp	.LBB1_63
.LBB1_54:
	xorl	%eax, %eax
	movq	$1073741824, -928(%rbp) # imm = 0x40000000
	leaq	-184(%rbp), %rcx
	movq	%rcx, %rdi
	movl	%eax, %esi
	movl	$8, %ecx
	movq	%rcx, %rdx
	movl	%eax, -1396(%rbp)       # 4-byte Spill
	movq	%rcx, -1408(%rbp)       # 8-byte Spill
	callq	memset@PLT
	leaq	-192(%rbp), %rcx
	movq	%rcx, %rdi
	movl	-1396(%rbp), %esi       # 4-byte Reload
	movq	-1408(%rbp), %rdx       # 8-byte Reload
	callq	memset@PLT
.LBB1_55:                               # =>This Inner Loop Header: Depth=1
	movslq	-916(%rbp), %rax
	cmpq	$0, %rax
	jne	.LBB1_57
# %bb.56:
	jmp	.LBB1_62
.LBB1_57:                               #   in Loop: Header=BB1_55 Depth=1
	xorl	%eax, %eax
	movl	%eax, %ecx
	movslq	-916(%rbp), %rdx
	movl	$4294901760, %esi       # imm = 0xFFFF0000
	andq	%rsi, %rdx
	shrq	$16, %rdx
	subq	-840(%rbp), %rdx
	movq	%rcx, %rsi
	subq	%rdx, %rsi
	cmpq	$0, %rdx
	cmovlq	%rsi, %rdx
	movq	%rdx, -184(%rbp)
	movslq	-916(%rbp), %rdx
	andq	$65535, %rdx            # imm = 0xFFFF
	subq	-848(%rbp), %rdx
	subq	%rdx, %rcx
	cmpq	$0, %rdx
	cmovlq	%rcx, %rdx
	movq	%rdx, -192(%rbp)
	movq	-184(%rbp), %rcx
	addq	-192(%rbp), %rcx
	cmpq	-928(%rbp), %rcx
	jl	.LBB1_59
# %bb.58:                               #   in Loop: Header=BB1_55 Depth=1
	jmp	.LBB1_60
.LBB1_59:                               #   in Loop: Header=BB1_55 Depth=1
	movq	-184(%rbp), %rax
	addq	-192(%rbp), %rax
	movq	%rax, -928(%rbp)
	movl	-916(%rbp), %ecx
	movl	%ecx, -172(%rbp)
.LBB1_60:                               #   in Loop: Header=BB1_55 Depth=1
	jmp	.LBB1_61
.LBB1_61:                               #   in Loop: Header=BB1_55 Depth=1
	xorl	%edi, %edi
	callq	fb_GfxScreenList@PLT
	movl	%eax, -932(%rbp)
	movl	-932(%rbp), %eax
	movl	%eax, -916(%rbp)
	jmp	.LBB1_55
.LBB1_62:
	jmp	.LBB1_92
.LBB1_63:
	leaq	-16(%rbp), %rax
	xorl	%esi, %esi
	movq	%rax, %rcx
	movq	%rcx, %rdi
	movl	$8, %edx
	movq	%rax, -1416(%rbp)       # 8-byte Spill
	callq	memset@PLT
	movq	-1416(%rbp), %rax       # 8-byte Reload
	movq	%rax, -88(%rbp)
	movq	%rax, -80(%rbp)
	movq	$8, -72(%rbp)
	movq	$4, -64(%rbp)
	movq	$1, -56(%rbp)
	movq	$49, -48(%rbp)
	movq	$2, -40(%rbp)
	movq	$0, -32(%rbp)
	movq	$1, -24(%rbp)
	cmpq	$16, -856(%rbp)
	je	.LBB1_65
# %bb.64:
	jmp	.LBB1_66
.LBB1_65:
	movl	$32, -16(%rbp)
	movl	$24, -12(%rbp)
	jmp	.LBB1_70
.LBB1_66:
	cmpq	$24, -856(%rbp)
	je	.LBB1_68
# %bb.67:
	jmp	.LBB1_69
.LBB1_68:
	movl	$32, -16(%rbp)
	movl	$16, -12(%rbp)
	jmp	.LBB1_70
.LBB1_69:
	movl	$24, -16(%rbp)
	movl	$16, -12(%rbp)
.LBB1_70:
	movq	$0, -944(%rbp)
.LBB1_71:                               # =>This Loop Header: Depth=1
                                        #     Child Loop BB1_74 Depth 2
	movq	-944(%rbp), %rax
	shlq	$2, %rax
	movslq	-16(%rbp,%rax), %rax
	movq	%rax, -856(%rbp)
	movq	-856(%rbp), %rax
                                        # kill: def $eax killed $eax killed $rax
	movl	%eax, %edi
	callq	fb_GfxScreenList@PLT
	movl	%eax, -948(%rbp)
	movl	-948(%rbp), %eax
	movl	%eax, -916(%rbp)
	movslq	-916(%rbp), %rcx
	cmpq	$0, %rcx
	jne	.LBB1_73
# %bb.72:                               #   in Loop: Header=BB1_71 Depth=1
	jmp	.LBB1_82
.LBB1_73:                               #   in Loop: Header=BB1_71 Depth=1
	xorl	%eax, %eax
	movq	$1073741824, -960(%rbp) # imm = 0x40000000
	leaq	-200(%rbp), %rcx
	movq	%rcx, %rdi
	movl	%eax, %esi
	movl	$8, %ecx
	movq	%rcx, %rdx
	movl	%eax, -1420(%rbp)       # 4-byte Spill
	movq	%rcx, -1432(%rbp)       # 8-byte Spill
	callq	memset@PLT
	leaq	-208(%rbp), %rcx
	movq	%rcx, %rdi
	movl	-1420(%rbp), %esi       # 4-byte Reload
	movq	-1432(%rbp), %rdx       # 8-byte Reload
	callq	memset@PLT
.LBB1_74:                               #   Parent Loop BB1_71 Depth=1
                                        # =>  This Inner Loop Header: Depth=2
	movslq	-916(%rbp), %rax
	cmpq	$0, %rax
	jne	.LBB1_76
# %bb.75:                               #   in Loop: Header=BB1_71 Depth=1
	jmp	.LBB1_81
.LBB1_76:                               #   in Loop: Header=BB1_74 Depth=2
	xorl	%eax, %eax
	movl	%eax, %ecx
	movslq	-916(%rbp), %rdx
	movl	$4294901760, %esi       # imm = 0xFFFF0000
	andq	%rsi, %rdx
	shrq	$16, %rdx
	subq	-840(%rbp), %rdx
	movq	%rcx, %rsi
	subq	%rdx, %rsi
	cmpq	$0, %rdx
	cmovlq	%rsi, %rdx
	movq	%rdx, -200(%rbp)
	movslq	-916(%rbp), %rdx
	andq	$65535, %rdx            # imm = 0xFFFF
	subq	-848(%rbp), %rdx
	subq	%rdx, %rcx
	cmpq	$0, %rdx
	cmovlq	%rcx, %rdx
	movq	%rdx, -208(%rbp)
	movq	-200(%rbp), %rcx
	addq	-208(%rbp), %rcx
	cmpq	-960(%rbp), %rcx
	jl	.LBB1_78
# %bb.77:                               #   in Loop: Header=BB1_74 Depth=2
	jmp	.LBB1_79
.LBB1_78:                               #   in Loop: Header=BB1_74 Depth=2
	movq	-200(%rbp), %rax
	addq	-208(%rbp), %rax
	movq	%rax, -960(%rbp)
	movl	-916(%rbp), %ecx
	movl	%ecx, -172(%rbp)
.LBB1_79:                               #   in Loop: Header=BB1_74 Depth=2
	jmp	.LBB1_80
.LBB1_80:                               #   in Loop: Header=BB1_74 Depth=2
	xorl	%edi, %edi
	callq	fb_GfxScreenList@PLT
	movl	%eax, -964(%rbp)
	movl	-964(%rbp), %eax
	movl	%eax, -916(%rbp)
	jmp	.LBB1_74
.LBB1_81:                               #   in Loop: Header=BB1_71 Depth=1
	jmp	.LBB1_82
.LBB1_82:                               #   in Loop: Header=BB1_71 Depth=1
	jmp	.LBB1_83
.LBB1_83:                               #   in Loop: Header=BB1_71 Depth=1
	movslq	-172(%rbp), %rax
	cmpq	$0, %rax
	jne	.LBB1_85
# %bb.84:                               #   in Loop: Header=BB1_71 Depth=1
	jmp	.LBB1_86
.LBB1_85:
	jmp	.LBB1_91
.LBB1_86:                               #   in Loop: Header=BB1_71 Depth=1
	jmp	.LBB1_87
.LBB1_87:                               #   in Loop: Header=BB1_71 Depth=1
	movq	-944(%rbp), %rax
	addq	$1, %rax
	movq	%rax, -944(%rbp)
# %bb.88:                               #   in Loop: Header=BB1_71 Depth=1
	cmpq	$1, -944(%rbp)
	jg	.LBB1_90
# %bb.89:                               #   in Loop: Header=BB1_71 Depth=1
	jmp	.LBB1_71
.LBB1_90:
	jmp	.LBB1_91
.LBB1_91:
	jmp	.LBB1_92
.LBB1_92:
	movslq	-172(%rbp), %rax
	cmpq	$0, %rax
	jne	.LBB1_94
# %bb.93:
	jmp	.LBB1_95
.LBB1_94:
	movslq	-172(%rbp), %rax
	movl	$4294901760, %ecx       # imm = 0xFFFF0000
	andq	%rcx, %rax
	shrq	$16, %rax
	movq	%rax, -840(%rbp)
	movslq	-172(%rbp), %rax
	andq	$65535, %rax            # imm = 0xFFFF
	movq	%rax, -848(%rbp)
	jmp	.LBB1_96
.LBB1_95:
	movb	$0, -857(%rbp)
.LBB1_96:
	jmp	.LBB1_97
.LBB1_97:
	jmp	.LBB1_98
.LBB1_98:
	xorl	%eax, %eax
	movsbl	-857(%rbp), %ecx
	subl	%ecx, %eax
	movslq	%eax, %rdx
	cmpq	$0, %rdx
	jne	.LBB1_100
# %bb.99:
	jmp	.LBB1_101
.LBB1_100:
	movq	$1, -896(%rbp)
	jmp	.LBB1_102
.LBB1_101:
	movq	$0, -896(%rbp)
.LBB1_102:
	xorl	%r9d, %r9d
	movq	-840(%rbp), %rax
                                        # kill: def $eax killed $eax killed $rax
	movq	-848(%rbp), %rcx
                                        # kill: def $ecx killed $ecx killed $rcx
	movq	-856(%rbp), %rdx
                                        # kill: def $edx killed $edx killed $rdx
	movq	-896(%rbp), %rsi
	orq	$2, %rsi
                                        # kill: def $esi killed $esi killed $rsi
	movl	%eax, %edi
	movl	%esi, -1436(%rbp)       # 4-byte Spill
	movl	%ecx, %esi
	movl	$1, %ecx
	movl	-1436(%rbp), %r8d       # 4-byte Reload
	callq	fb_GfxScreenRes@PLT
	movl	%eax, -968(%rbp)
	movslq	-968(%rbp), %r10
	cmpq	$0, %r10
	jne	.LBB1_104
# %bb.103:
	jmp	.LBB1_109
.LBB1_104:
	xorl	%r9d, %r9d
	movb	$0, -857(%rbp)
	movq	-168(%rbp), %rax
                                        # kill: def $eax killed $eax killed $rax
	movl	$640, %edi              # imm = 0x280
	movl	$350, %esi              # imm = 0x15E
	movl	%eax, %edx
	movl	$1, %ecx
	movl	$2, %r8d
	callq	fb_GfxScreenRes@PLT
	movl	%eax, -972(%rbp)
	movslq	-972(%rbp), %r10
	cmpq	$0, %r10
	jne	.LBB1_106
# %bb.105:
	jmp	.LBB1_107
.LBB1_106:
	xorl	%esi, %esi
	leaq	-328(%rbp), %rax
	movq	%rax, %rdi
	movl	$24, %edx
	callq	memset@PLT
	movq	-160(%rbp), %rdi
	callq	fb_LongintToStr@PLT
	movq	%rax, -984(%rbp)
	movq	-152(%rbp), %rdi
	callq	fb_LongintToStr@PLT
	xorl	%esi, %esi
	movq	%rax, -992(%rbp)
	leaq	-232(%rbp), %rax
	movq	%rax, %rcx
	movq	%rcx, %rdi
	movl	$24, %edx
	movq	%rax, -1448(%rbp)       # 8-byte Spill
	callq	memset@PLT
	movq	-992(%rbp), %rax
	movq	-1448(%rbp), %rdi       # 8-byte Reload
	leaq	.L.str.2(%rip), %rsi
	movl	$11, %edx
	movq	%rax, %rcx
	movq	$-1, %r8
	callq	fb_StrConcat@PLT
	xorl	%esi, %esi
	movq	%rax, -1000(%rbp)
	leaq	-256(%rbp), %rax
	movq	%rax, %rcx
	movq	%rcx, %rdi
	movl	$24, %edx
	movq	%rax, -1456(%rbp)       # 8-byte Spill
	callq	memset@PLT
	movq	-1000(%rbp), %rax
	movq	-1456(%rbp), %rdi       # 8-byte Reload
	movq	%rax, %rsi
	movq	$-1, %rdx
	leaq	.L.str.3(%rip), %rcx
	movl	$2, %r8d
	callq	fb_StrConcat@PLT
	xorl	%esi, %esi
	movq	%rax, -1008(%rbp)
	leaq	-280(%rbp), %rax
	movq	%rax, %rcx
	movq	%rcx, %rdi
	movl	$24, %edx
	movq	%rax, -1464(%rbp)       # 8-byte Spill
	callq	memset@PLT
	movq	-1008(%rbp), %rax
	movq	-984(%rbp), %rcx
	movq	-1464(%rbp), %rdi       # 8-byte Reload
	movq	%rax, %rsi
	movq	$-1, %rax
	movq	%rax, %rdx
	movq	%rax, %r8
	callq	fb_StrConcat@PLT
	xorl	%esi, %esi
	movq	%rax, -1016(%rbp)
	leaq	-304(%rbp), %rax
	movq	%rax, %rcx
	movq	%rcx, %rdi
	movl	$24, %edx
	movq	%rax, -1472(%rbp)       # 8-byte Spill
	callq	memset@PLT
	movq	-1016(%rbp), %rax
	movq	-1472(%rbp), %rdi       # 8-byte Reload
	movq	%rax, %rsi
	movq	$-1, %rdx
	leaq	.L.str.4(%rip), %rcx
	movl	$11, %r8d
	callq	fb_StrConcat@PLT
	xorl	%r8d, %r8d
	movq	%rax, -1024(%rbp)
	leaq	-328(%rbp), %rax
	movq	-1024(%rbp), %rcx
	movq	%rax, %rdi
	movq	$-1, %rax
	movq	%rax, %rsi
	movq	%rcx, %rdx
	movq	%rax, %rcx
	callq	fb_StrAssign@PLT
	movq	%rax, -1032(%rbp)
	leaq	-328(%rbp), %rdi
	callq	ERROREXIT
	leaq	-328(%rbp), %rdi
	callq	fb_StrDelete@PLT
.LBB1_107:
	jmp	.LBB1_108
.LBB1_108:
	jmp	.LBB1_109
.LBB1_109:
	jmp	.LBB1_110
.LBB1_110:
	movl	$4294967295, %eax       # imm = 0xFFFFFFFF
	movl	%eax, %edi
	movl	%eax, %esi
	callq	fb_GfxFlip@PLT
	leaq	.L.str.5(%rip), %rdi
	movl	%eax, -1476(%rbp)       # 4-byte Spill
	callq	fb_GfxGetGLProcAddress@PLT
	movq	%rax, -1040(%rbp)
	movq	-1040(%rbp), %rax
	movq	%rax, GLCREATESHADER$(%rip)
	movq	GLCREATESHADER$(%rip), %rax
	cmpq	$0, %rax
	je	.LBB1_112
# %bb.111:
	jmp	.LBB1_113
.LBB1_112:
	xorl	%eax, %eax
	leaq	-352(%rbp), %rcx
	movq	%rcx, %rdx
	movq	%rdx, %rdi
	movl	%eax, %esi
	movl	$24, %edx
	movl	%eax, -1480(%rbp)       # 4-byte Spill
	movq	%rcx, -1488(%rbp)       # 8-byte Spill
	callq	memset@PLT
	movq	-1488(%rbp), %rcx       # 8-byte Reload
	movq	%rcx, %rdi
	movq	$-1, %rsi
	leaq	.L.str.5(%rip), %rdx
	movl	$15, %ecx
	movl	-1480(%rbp), %r8d       # 4-byte Reload
	callq	fb_StrAssign@PLT
	movq	%rax, -1048(%rbp)
	leaq	-352(%rbp), %rdi
	callq	ERROREXIT
	leaq	-352(%rbp), %rdi
	callq	fb_StrDelete@PLT
.LBB1_113:
	leaq	.L.str.6(%rip), %rdi
	callq	fb_GfxGetGLProcAddress@PLT
	movq	%rax, -1056(%rbp)
	movq	-1056(%rbp), %rax
	movq	%rax, GLDELETESHADER$(%rip)
	movq	GLDELETESHADER$(%rip), %rax
	cmpq	$0, %rax
	je	.LBB1_115
# %bb.114:
	jmp	.LBB1_116
.LBB1_115:
	xorl	%eax, %eax
	leaq	-376(%rbp), %rcx
	movq	%rcx, %rdx
	movq	%rdx, %rdi
	movl	%eax, %esi
	movl	$24, %edx
	movl	%eax, -1492(%rbp)       # 4-byte Spill
	movq	%rcx, -1504(%rbp)       # 8-byte Spill
	callq	memset@PLT
	movq	-1504(%rbp), %rcx       # 8-byte Reload
	movq	%rcx, %rdi
	movq	$-1, %rsi
	leaq	.L.str.6(%rip), %rdx
	movl	$15, %ecx
	movl	-1492(%rbp), %r8d       # 4-byte Reload
	callq	fb_StrAssign@PLT
	movq	%rax, -1064(%rbp)
	leaq	-376(%rbp), %rdi
	callq	ERROREXIT
	leaq	-376(%rbp), %rdi
	callq	fb_StrDelete@PLT
.LBB1_116:
	leaq	.L.str.7(%rip), %rdi
	callq	fb_GfxGetGLProcAddress@PLT
	movq	%rax, -1072(%rbp)
	movq	-1072(%rbp), %rax
	movq	%rax, GLSHADERSOURCE$(%rip)
	movq	GLSHADERSOURCE$(%rip), %rax
	cmpq	$0, %rax
	je	.LBB1_118
# %bb.117:
	jmp	.LBB1_119
.LBB1_118:
	xorl	%eax, %eax
	leaq	-400(%rbp), %rcx
	movq	%rcx, %rdx
	movq	%rdx, %rdi
	movl	%eax, %esi
	movl	$24, %edx
	movl	%eax, -1508(%rbp)       # 4-byte Spill
	movq	%rcx, -1520(%rbp)       # 8-byte Spill
	callq	memset@PLT
	movq	-1520(%rbp), %rcx       # 8-byte Reload
	movq	%rcx, %rdi
	movq	$-1, %rsi
	leaq	.L.str.7(%rip), %rdx
	movl	$15, %ecx
	movl	-1508(%rbp), %r8d       # 4-byte Reload
	callq	fb_StrAssign@PLT
	movq	%rax, -1080(%rbp)
	leaq	-400(%rbp), %rdi
	callq	ERROREXIT
	leaq	-400(%rbp), %rdi
	callq	fb_StrDelete@PLT
.LBB1_119:
	leaq	.L.str.8(%rip), %rdi
	callq	fb_GfxGetGLProcAddress@PLT
	movq	%rax, -1088(%rbp)
	movq	-1088(%rbp), %rax
	movq	%rax, GLCOMPILESHADER$(%rip)
	movq	GLCOMPILESHADER$(%rip), %rax
	cmpq	$0, %rax
	je	.LBB1_121
# %bb.120:
	jmp	.LBB1_122
.LBB1_121:
	xorl	%eax, %eax
	leaq	-424(%rbp), %rcx
	movq	%rcx, %rdx
	movq	%rdx, %rdi
	movl	%eax, %esi
	movl	$24, %edx
	movl	%eax, -1524(%rbp)       # 4-byte Spill
	movq	%rcx, -1536(%rbp)       # 8-byte Spill
	callq	memset@PLT
	movq	-1536(%rbp), %rcx       # 8-byte Reload
	movq	%rcx, %rdi
	movq	$-1, %rsi
	leaq	.L.str.8(%rip), %rdx
	movl	$16, %ecx
	movl	-1524(%rbp), %r8d       # 4-byte Reload
	callq	fb_StrAssign@PLT
	movq	%rax, -1096(%rbp)
	leaq	-424(%rbp), %rdi
	callq	ERROREXIT
	leaq	-424(%rbp), %rdi
	callq	fb_StrDelete@PLT
.LBB1_122:
	leaq	.L.str.9(%rip), %rdi
	callq	fb_GfxGetGLProcAddress@PLT
	movq	%rax, -1104(%rbp)
	movq	-1104(%rbp), %rax
	movq	%rax, GLGETSHADERIV$(%rip)
	movq	GLGETSHADERIV$(%rip), %rax
	cmpq	$0, %rax
	je	.LBB1_124
# %bb.123:
	jmp	.LBB1_125
.LBB1_124:
	xorl	%eax, %eax
	leaq	-448(%rbp), %rcx
	movq	%rcx, %rdx
	movq	%rdx, %rdi
	movl	%eax, %esi
	movl	$24, %edx
	movl	%eax, -1540(%rbp)       # 4-byte Spill
	movq	%rcx, -1552(%rbp)       # 8-byte Spill
	callq	memset@PLT
	movq	-1552(%rbp), %rcx       # 8-byte Reload
	movq	%rcx, %rdi
	movq	$-1, %rsi
	leaq	.L.str.9(%rip), %rdx
	movl	$14, %ecx
	movl	-1540(%rbp), %r8d       # 4-byte Reload
	callq	fb_StrAssign@PLT
	movq	%rax, -1112(%rbp)
	leaq	-448(%rbp), %rdi
	callq	ERROREXIT
	leaq	-448(%rbp), %rdi
	callq	fb_StrDelete@PLT
.LBB1_125:
	leaq	.L.str.10(%rip), %rdi
	callq	fb_GfxGetGLProcAddress@PLT
	movq	%rax, -1120(%rbp)
	movq	-1120(%rbp), %rax
	movq	%rax, GLGETSHADERINFOLOG$(%rip)
	movq	GLGETSHADERINFOLOG$(%rip), %rax
	cmpq	$0, %rax
	je	.LBB1_127
# %bb.126:
	jmp	.LBB1_128
.LBB1_127:
	xorl	%eax, %eax
	leaq	-472(%rbp), %rcx
	movq	%rcx, %rdx
	movq	%rdx, %rdi
	movl	%eax, %esi
	movl	$24, %edx
	movl	%eax, -1556(%rbp)       # 4-byte Spill
	movq	%rcx, -1568(%rbp)       # 8-byte Spill
	callq	memset@PLT
	movq	-1568(%rbp), %rcx       # 8-byte Reload
	movq	%rcx, %rdi
	movq	$-1, %rsi
	leaq	.L.str.10(%rip), %rdx
	movl	$19, %ecx
	movl	-1556(%rbp), %r8d       # 4-byte Reload
	callq	fb_StrAssign@PLT
	movq	%rax, -1128(%rbp)
	leaq	-472(%rbp), %rdi
	callq	ERROREXIT
	leaq	-472(%rbp), %rdi
	callq	fb_StrDelete@PLT
.LBB1_128:
	leaq	.L.str.11(%rip), %rdi
	callq	fb_GfxGetGLProcAddress@PLT
	movq	%rax, -1136(%rbp)
	movq	-1136(%rbp), %rax
	movq	%rax, GLCREATEPROGRAM$(%rip)
	movq	GLCREATEPROGRAM$(%rip), %rax
	cmpq	$0, %rax
	je	.LBB1_130
# %bb.129:
	jmp	.LBB1_131
.LBB1_130:
	xorl	%eax, %eax
	leaq	-496(%rbp), %rcx
	movq	%rcx, %rdx
	movq	%rdx, %rdi
	movl	%eax, %esi
	movl	$24, %edx
	movl	%eax, -1572(%rbp)       # 4-byte Spill
	movq	%rcx, -1584(%rbp)       # 8-byte Spill
	callq	memset@PLT
	movq	-1584(%rbp), %rcx       # 8-byte Reload
	movq	%rcx, %rdi
	movq	$-1, %rsi
	leaq	.L.str.11(%rip), %rdx
	movl	$16, %ecx
	movl	-1572(%rbp), %r8d       # 4-byte Reload
	callq	fb_StrAssign@PLT
	movq	%rax, -1144(%rbp)
	leaq	-496(%rbp), %rdi
	callq	ERROREXIT
	leaq	-496(%rbp), %rdi
	callq	fb_StrDelete@PLT
.LBB1_131:
	leaq	.L.str.12(%rip), %rdi
	callq	fb_GfxGetGLProcAddress@PLT
	movq	%rax, -1152(%rbp)
	movq	-1152(%rbp), %rax
	movq	%rax, GLDELETEPROGRAM$(%rip)
	movq	GLDELETEPROGRAM$(%rip), %rax
	cmpq	$0, %rax
	je	.LBB1_133
# %bb.132:
	jmp	.LBB1_134
.LBB1_133:
	xorl	%eax, %eax
	leaq	-520(%rbp), %rcx
	movq	%rcx, %rdx
	movq	%rdx, %rdi
	movl	%eax, %esi
	movl	$24, %edx
	movl	%eax, -1588(%rbp)       # 4-byte Spill
	movq	%rcx, -1600(%rbp)       # 8-byte Spill
	callq	memset@PLT
	movq	-1600(%rbp), %rcx       # 8-byte Reload
	movq	%rcx, %rdi
	movq	$-1, %rsi
	leaq	.L.str.12(%rip), %rdx
	movl	$16, %ecx
	movl	-1588(%rbp), %r8d       # 4-byte Reload
	callq	fb_StrAssign@PLT
	movq	%rax, -1160(%rbp)
	leaq	-520(%rbp), %rdi
	callq	ERROREXIT
	leaq	-520(%rbp), %rdi
	callq	fb_StrDelete@PLT
.LBB1_134:
	leaq	.L.str.13(%rip), %rdi
	callq	fb_GfxGetGLProcAddress@PLT
	movq	%rax, -1168(%rbp)
	movq	-1168(%rbp), %rax
	movq	%rax, GLATTACHSHADER$(%rip)
	movq	GLATTACHSHADER$(%rip), %rax
	cmpq	$0, %rax
	je	.LBB1_136
# %bb.135:
	jmp	.LBB1_137
.LBB1_136:
	xorl	%eax, %eax
	leaq	-544(%rbp), %rcx
	movq	%rcx, %rdx
	movq	%rdx, %rdi
	movl	%eax, %esi
	movl	$24, %edx
	movl	%eax, -1604(%rbp)       # 4-byte Spill
	movq	%rcx, -1616(%rbp)       # 8-byte Spill
	callq	memset@PLT
	movq	-1616(%rbp), %rcx       # 8-byte Reload
	movq	%rcx, %rdi
	movq	$-1, %rsi
	leaq	.L.str.13(%rip), %rdx
	movl	$15, %ecx
	movl	-1604(%rbp), %r8d       # 4-byte Reload
	callq	fb_StrAssign@PLT
	movq	%rax, -1176(%rbp)
	leaq	-544(%rbp), %rdi
	callq	ERROREXIT
	leaq	-544(%rbp), %rdi
	callq	fb_StrDelete@PLT
.LBB1_137:
	leaq	.L.str.14(%rip), %rdi
	callq	fb_GfxGetGLProcAddress@PLT
	movq	%rax, -1184(%rbp)
	movq	-1184(%rbp), %rax
	movq	%rax, GLDETACHSHADER$(%rip)
	movq	GLDETACHSHADER$(%rip), %rax
	cmpq	$0, %rax
	je	.LBB1_139
# %bb.138:
	jmp	.LBB1_140
.LBB1_139:
	xorl	%eax, %eax
	leaq	-568(%rbp), %rcx
	movq	%rcx, %rdx
	movq	%rdx, %rdi
	movl	%eax, %esi
	movl	$24, %edx
	movl	%eax, -1620(%rbp)       # 4-byte Spill
	movq	%rcx, -1632(%rbp)       # 8-byte Spill
	callq	memset@PLT
	movq	-1632(%rbp), %rcx       # 8-byte Reload
	movq	%rcx, %rdi
	movq	$-1, %rsi
	leaq	.L.str.14(%rip), %rdx
	movl	$15, %ecx
	movl	-1620(%rbp), %r8d       # 4-byte Reload
	callq	fb_StrAssign@PLT
	movq	%rax, -1192(%rbp)
	leaq	-568(%rbp), %rdi
	callq	ERROREXIT
	leaq	-568(%rbp), %rdi
	callq	fb_StrDelete@PLT
.LBB1_140:
	leaq	.L.str.15(%rip), %rdi
	callq	fb_GfxGetGLProcAddress@PLT
	movq	%rax, -1200(%rbp)
	movq	-1200(%rbp), %rax
	movq	%rax, GLLINKPROGRAM$(%rip)
	movq	GLLINKPROGRAM$(%rip), %rax
	cmpq	$0, %rax
	je	.LBB1_142
# %bb.141:
	jmp	.LBB1_143
.LBB1_142:
	xorl	%eax, %eax
	leaq	-592(%rbp), %rcx
	movq	%rcx, %rdx
	movq	%rdx, %rdi
	movl	%eax, %esi
	movl	$24, %edx
	movl	%eax, -1636(%rbp)       # 4-byte Spill
	movq	%rcx, -1648(%rbp)       # 8-byte Spill
	callq	memset@PLT
	movq	-1648(%rbp), %rcx       # 8-byte Reload
	movq	%rcx, %rdi
	movq	$-1, %rsi
	leaq	.L.str.15(%rip), %rdx
	movl	$14, %ecx
	movl	-1636(%rbp), %r8d       # 4-byte Reload
	callq	fb_StrAssign@PLT
	movq	%rax, -1208(%rbp)
	leaq	-592(%rbp), %rdi
	callq	ERROREXIT
	leaq	-592(%rbp), %rdi
	callq	fb_StrDelete@PLT
.LBB1_143:
	leaq	.L.str.16(%rip), %rdi
	callq	fb_GfxGetGLProcAddress@PLT
	movq	%rax, -1216(%rbp)
	movq	-1216(%rbp), %rax
	movq	%rax, GLGETPROGRAMIV$(%rip)
	movq	GLGETPROGRAMIV$(%rip), %rax
	cmpq	$0, %rax
	je	.LBB1_145
# %bb.144:
	jmp	.LBB1_146
.LBB1_145:
	xorl	%eax, %eax
	leaq	-616(%rbp), %rcx
	movq	%rcx, %rdx
	movq	%rdx, %rdi
	movl	%eax, %esi
	movl	$24, %edx
	movl	%eax, -1652(%rbp)       # 4-byte Spill
	movq	%rcx, -1664(%rbp)       # 8-byte Spill
	callq	memset@PLT
	movq	-1664(%rbp), %rcx       # 8-byte Reload
	movq	%rcx, %rdi
	movq	$-1, %rsi
	leaq	.L.str.16(%rip), %rdx
	movl	$15, %ecx
	movl	-1652(%rbp), %r8d       # 4-byte Reload
	callq	fb_StrAssign@PLT
	movq	%rax, -1224(%rbp)
	leaq	-616(%rbp), %rdi
	callq	ERROREXIT
	leaq	-616(%rbp), %rdi
	callq	fb_StrDelete@PLT
.LBB1_146:
	leaq	.L.str.17(%rip), %rdi
	callq	fb_GfxGetGLProcAddress@PLT
	movq	%rax, -1232(%rbp)
	movq	-1232(%rbp), %rax
	movq	%rax, GLGETPROGRAMINFOLOG$(%rip)
	movq	GLGETPROGRAMINFOLOG$(%rip), %rax
	cmpq	$0, %rax
	je	.LBB1_148
# %bb.147:
	jmp	.LBB1_149
.LBB1_148:
	xorl	%eax, %eax
	leaq	-640(%rbp), %rcx
	movq	%rcx, %rdx
	movq	%rdx, %rdi
	movl	%eax, %esi
	movl	$24, %edx
	movl	%eax, -1668(%rbp)       # 4-byte Spill
	movq	%rcx, -1680(%rbp)       # 8-byte Spill
	callq	memset@PLT
	movq	-1680(%rbp), %rcx       # 8-byte Reload
	movq	%rcx, %rdi
	movq	$-1, %rsi
	leaq	.L.str.17(%rip), %rdx
	movl	$20, %ecx
	movl	-1668(%rbp), %r8d       # 4-byte Reload
	callq	fb_StrAssign@PLT
	movq	%rax, -1240(%rbp)
	leaq	-640(%rbp), %rdi
	callq	ERROREXIT
	leaq	-640(%rbp), %rdi
	callq	fb_StrDelete@PLT
.LBB1_149:
	leaq	.L.str.18(%rip), %rdi
	callq	fb_GfxGetGLProcAddress@PLT
	movq	%rax, -1248(%rbp)
	movq	-1248(%rbp), %rax
	movq	%rax, GLUSEPROGRAM$(%rip)
	movq	GLUSEPROGRAM$(%rip), %rax
	cmpq	$0, %rax
	je	.LBB1_151
# %bb.150:
	jmp	.LBB1_152
.LBB1_151:
	xorl	%eax, %eax
	leaq	-664(%rbp), %rcx
	movq	%rcx, %rdx
	movq	%rdx, %rdi
	movl	%eax, %esi
	movl	$24, %edx
	movl	%eax, -1684(%rbp)       # 4-byte Spill
	movq	%rcx, -1696(%rbp)       # 8-byte Spill
	callq	memset@PLT
	movq	-1696(%rbp), %rcx       # 8-byte Reload
	movq	%rcx, %rdi
	movq	$-1, %rsi
	leaq	.L.str.18(%rip), %rdx
	movl	$13, %ecx
	movl	-1684(%rbp), %r8d       # 4-byte Reload
	callq	fb_StrAssign@PLT
	movq	%rax, -1256(%rbp)
	leaq	-664(%rbp), %rdi
	callq	ERROREXIT
	leaq	-664(%rbp), %rdi
	callq	fb_StrDelete@PLT
.LBB1_152:
	leaq	.L.str.19(%rip), %rdi
	callq	fb_GfxGetGLProcAddress@PLT
	movq	%rax, -1264(%rbp)
	movq	-1264(%rbp), %rax
	movq	%rax, GLGETUNIFORMLOCATION$(%rip)
	movq	GLGETUNIFORMLOCATION$(%rip), %rax
	cmpq	$0, %rax
	je	.LBB1_154
# %bb.153:
	jmp	.LBB1_155
.LBB1_154:
	xorl	%eax, %eax
	leaq	-688(%rbp), %rcx
	movq	%rcx, %rdx
	movq	%rdx, %rdi
	movl	%eax, %esi
	movl	$24, %edx
	movl	%eax, -1700(%rbp)       # 4-byte Spill
	movq	%rcx, -1712(%rbp)       # 8-byte Spill
	callq	memset@PLT
	movq	-1712(%rbp), %rcx       # 8-byte Reload
	movq	%rcx, %rdi
	movq	$-1, %rsi
	leaq	.L.str.19(%rip), %rdx
	movl	$21, %ecx
	movl	-1700(%rbp), %r8d       # 4-byte Reload
	callq	fb_StrAssign@PLT
	movq	%rax, -1272(%rbp)
	leaq	-688(%rbp), %rdi
	callq	ERROREXIT
	leaq	-688(%rbp), %rdi
	callq	fb_StrDelete@PLT
.LBB1_155:
	leaq	.L.str.20(%rip), %rdi
	callq	fb_GfxGetGLProcAddress@PLT
	movq	%rax, -1280(%rbp)
	movq	-1280(%rbp), %rax
	movq	%rax, GLUNIFORM1I$(%rip)
	movq	GLUNIFORM1I$(%rip), %rax
	cmpq	$0, %rax
	je	.LBB1_157
# %bb.156:
	jmp	.LBB1_158
.LBB1_157:
	xorl	%eax, %eax
	leaq	-712(%rbp), %rcx
	movq	%rcx, %rdx
	movq	%rdx, %rdi
	movl	%eax, %esi
	movl	$24, %edx
	movl	%eax, -1716(%rbp)       # 4-byte Spill
	movq	%rcx, -1728(%rbp)       # 8-byte Spill
	callq	memset@PLT
	movq	-1728(%rbp), %rcx       # 8-byte Reload
	movq	%rcx, %rdi
	movq	$-1, %rsi
	leaq	.L.str.20(%rip), %rdx
	movl	$12, %ecx
	movl	-1716(%rbp), %r8d       # 4-byte Reload
	callq	fb_StrAssign@PLT
	movq	%rax, -1288(%rbp)
	leaq	-712(%rbp), %rdi
	callq	ERROREXIT
	leaq	-712(%rbp), %rdi
	callq	fb_StrDelete@PLT
.LBB1_158:
	leaq	.L.str.21(%rip), %rdi
	callq	fb_GfxGetGLProcAddress@PLT
	movq	%rax, -1296(%rbp)
	movq	-1296(%rbp), %rax
	movq	%rax, GLUNIFORM1F$(%rip)
	movq	GLUNIFORM1F$(%rip), %rax
	cmpq	$0, %rax
	je	.LBB1_160
# %bb.159:
	jmp	.LBB1_161
.LBB1_160:
	xorl	%eax, %eax
	leaq	-736(%rbp), %rcx
	movq	%rcx, %rdx
	movq	%rdx, %rdi
	movl	%eax, %esi
	movl	$24, %edx
	movl	%eax, -1732(%rbp)       # 4-byte Spill
	movq	%rcx, -1744(%rbp)       # 8-byte Spill
	callq	memset@PLT
	movq	-1744(%rbp), %rcx       # 8-byte Reload
	movq	%rcx, %rdi
	movq	$-1, %rsi
	leaq	.L.str.21(%rip), %rdx
	movl	$12, %ecx
	movl	-1732(%rbp), %r8d       # 4-byte Reload
	callq	fb_StrAssign@PLT
	movq	%rax, -1304(%rbp)
	leaq	-736(%rbp), %rdi
	callq	ERROREXIT
	leaq	-736(%rbp), %rdi
	callq	fb_StrDelete@PLT
.LBB1_161:
	leaq	.L.str.22(%rip), %rdi
	callq	fb_GfxGetGLProcAddress@PLT
	movq	%rax, -1312(%rbp)
	movq	-1312(%rbp), %rax
	movq	%rax, GLUNIFORM3F$(%rip)
	movq	GLUNIFORM3F$(%rip), %rax
	cmpq	$0, %rax
	je	.LBB1_163
# %bb.162:
	jmp	.LBB1_164
.LBB1_163:
	xorl	%eax, %eax
	leaq	-760(%rbp), %rcx
	movq	%rcx, %rdx
	movq	%rdx, %rdi
	movl	%eax, %esi
	movl	$24, %edx
	movl	%eax, -1748(%rbp)       # 4-byte Spill
	movq	%rcx, -1760(%rbp)       # 8-byte Spill
	callq	memset@PLT
	movq	-1760(%rbp), %rcx       # 8-byte Reload
	movq	%rcx, %rdi
	movq	$-1, %rsi
	leaq	.L.str.22(%rip), %rdx
	movl	$12, %ecx
	movl	-1748(%rbp), %r8d       # 4-byte Reload
	callq	fb_StrAssign@PLT
	movq	%rax, -1320(%rbp)
	leaq	-760(%rbp), %rdi
	callq	ERROREXIT
	leaq	-760(%rbp), %rdi
	callq	fb_StrDelete@PLT
.LBB1_164:
	leaq	.L.str.23(%rip), %rdi
	callq	fb_GfxGetGLProcAddress@PLT
	movq	%rax, -1328(%rbp)
	movq	-1328(%rbp), %rax
	movq	%rax, GLUNIFORM3FV$(%rip)
	movq	GLUNIFORM3FV$(%rip), %rax
	cmpq	$0, %rax
	je	.LBB1_166
# %bb.165:
	jmp	.LBB1_167
.LBB1_166:
	xorl	%eax, %eax
	leaq	-784(%rbp), %rcx
	movq	%rcx, %rdx
	movq	%rdx, %rdi
	movl	%eax, %esi
	movl	$24, %edx
	movl	%eax, -1764(%rbp)       # 4-byte Spill
	movq	%rcx, -1776(%rbp)       # 8-byte Spill
	callq	memset@PLT
	movq	-1776(%rbp), %rcx       # 8-byte Reload
	movq	%rcx, %rdi
	movq	$-1, %rsi
	leaq	.L.str.23(%rip), %rdx
	movl	$13, %ecx
	movl	-1764(%rbp), %r8d       # 4-byte Reload
	callq	fb_StrAssign@PLT
	movq	%rax, -1336(%rbp)
	leaq	-784(%rbp), %rdi
	callq	ERROREXIT
	leaq	-784(%rbp), %rdi
	callq	fb_StrDelete@PLT
.LBB1_167:
	leaq	.L.str.24(%rip), %rdi
	callq	fb_GfxGetGLProcAddress@PLT
	movq	%rax, -1344(%rbp)
	movq	-1344(%rbp), %rax
	movq	%rax, GLUNIFORM4F$(%rip)
	movq	GLUNIFORM4F$(%rip), %rax
	cmpq	$0, %rax
	je	.LBB1_169
# %bb.168:
	jmp	.LBB1_170
.LBB1_169:
	xorl	%eax, %eax
	leaq	-808(%rbp), %rcx
	movq	%rcx, %rdx
	movq	%rdx, %rdi
	movl	%eax, %esi
	movl	$24, %edx
	movl	%eax, -1780(%rbp)       # 4-byte Spill
	movq	%rcx, -1792(%rbp)       # 8-byte Spill
	callq	memset@PLT
	movq	-1792(%rbp), %rcx       # 8-byte Reload
	movq	%rcx, %rdi
	movq	$-1, %rsi
	leaq	.L.str.24(%rip), %rdx
	movl	$12, %ecx
	movl	-1780(%rbp), %r8d       # 4-byte Reload
	callq	fb_StrAssign@PLT
	movq	%rax, -1352(%rbp)
	leaq	-808(%rbp), %rdi
	callq	ERROREXIT
	leaq	-808(%rbp), %rdi
	callq	fb_StrDelete@PLT
.LBB1_170:
	leaq	.L.str.25(%rip), %rdi
	callq	fb_GfxGetGLProcAddress@PLT
	movq	%rax, -1360(%rbp)
	movq	-1360(%rbp), %rax
	movq	%rax, GLUNIFORM4FV$(%rip)
	movq	GLUNIFORM4FV$(%rip), %rax
	cmpq	$0, %rax
	je	.LBB1_172
# %bb.171:
	jmp	.LBB1_173
.LBB1_172:
	xorl	%eax, %eax
	leaq	-832(%rbp), %rcx
	movq	%rcx, %rdx
	movq	%rdx, %rdi
	movl	%eax, %esi
	movl	$24, %edx
	movl	%eax, -1796(%rbp)       # 4-byte Spill
	movq	%rcx, -1808(%rbp)       # 8-byte Spill
	callq	memset@PLT
	movq	-1808(%rbp), %rcx       # 8-byte Reload
	movq	%rcx, %rdi
	movq	$-1, %rsi
	leaq	.L.str.25(%rip), %rdx
	movl	$13, %ecx
	movl	-1796(%rbp), %r8d       # 4-byte Reload
	callq	fb_StrAssign@PLT
	movq	%rax, -1368(%rbp)
	leaq	-832(%rbp), %rdi
	callq	ERROREXIT
	leaq	-832(%rbp), %rdi
	callq	fb_StrDelete@PLT
.LBB1_173:
	leaq	.L.str.26(%rip), %rdi
	movl	$37, %esi
	callq	fb_StrAllocTempDescZEx@PLT
	movq	%rax, -1376(%rbp)
	movq	-1376(%rbp), %rdi
	callq	fb_GfxSetWindowTitle@PLT
# %bb.174:
	movq	%fs:40, %rax
	movq	-8(%rbp), %rcx
	cmpq	%rcx, %rax
	jne	.LBB1_176
# %bb.175:                              # %SP_return
	addq	$1824, %rsp             # imm = 0x720
	popq	%rbp
	.cfi_def_cfa %rsp, 8
	retq
.LBB1_176:                              # %CallStackCheckFailBlk
	.cfi_def_cfa %rbp, 16
	callq	__stack_chk_fail@PLT
.Lfunc_end1:
	.size	GLSCREEN, .Lfunc_end1-GLSCREEN
	.cfi_endproc
                                        # -- End function
	.globl	_ZN9SHADERTOYD1Ev       # -- Begin function _ZN9SHADERTOYD1Ev
	.p2align	4, 0x90
	.type	_ZN9SHADERTOYD1Ev,@function
_ZN9SHADERTOYD1Ev:                      # @_ZN9SHADERTOYD1Ev
	.cfi_startproc
# %bb.0:
	pushq	%rbp
	.cfi_def_cfa_offset 16
	.cfi_offset %rbp, -16
	movq	%rsp, %rbp
	.cfi_def_cfa_register %rbp
	subq	$16, %rsp
	movq	%rdi, -8(%rbp)
# %bb.1:
	movq	-8(%rbp), %rax
	movl	4(%rax), %ecx
	movl	%ecx, %eax
	cmpq	$0, %rax
	jne	.LBB2_3
# %bb.2:
	jmp	.LBB2_8
.LBB2_3:
	xorl	%edi, %edi
	callq	*GLUSEPROGRAM$(%rip)
	movq	-8(%rbp), %rax
	movl	(%rax), %ecx
	movl	%ecx, %eax
	cmpq	$0, %rax
	jne	.LBB2_5
# %bb.4:
	jmp	.LBB2_6
.LBB2_5:
	movq	GLDETACHSHADER$(%rip), %rax
	movq	-8(%rbp), %rcx
	movl	4(%rcx), %edi
	movq	-8(%rbp), %rcx
	movl	(%rcx), %esi
	callq	*%rax
	movq	GLDELETESHADER$(%rip), %rax
	movq	-8(%rbp), %rcx
	movl	(%rcx), %edi
	callq	*%rax
.LBB2_6:
	jmp	.LBB2_7
.LBB2_7:
	movq	GLDELETEPROGRAM$(%rip), %rax
	movq	-8(%rbp), %rcx
	movl	4(%rcx), %edi
	callq	*%rax
.LBB2_8:
	jmp	.LBB2_9
.LBB2_9:
	jmp	.LBB2_10
.LBB2_10:
	movq	-8(%rbp), %rax
	addq	$8, %rax
	movq	%rax, %rdi
	callq	fb_StrDelete@PLT
	addq	$16, %rsp
	popq	%rbp
	.cfi_def_cfa %rsp, 8
	retq
.Lfunc_end2:
	.size	_ZN9SHADERTOYD1Ev, .Lfunc_end2-_ZN9SHADERTOYD1Ev
	.cfi_endproc
                                        # -- End function
	.globl	_ZN9SHADERTOY11COMPILEFILEER8FBSTRING # -- Begin function _ZN9SHADERTOY11COMPILEFILEER8FBSTRING
	.p2align	4, 0x90
	.type	_ZN9SHADERTOY11COMPILEFILEER8FBSTRING,@function
_ZN9SHADERTOY11COMPILEFILEER8FBSTRING:  # @_ZN9SHADERTOY11COMPILEFILEER8FBSTRING
	.cfi_startproc
# %bb.0:
	pushq	%rbp
	.cfi_def_cfa_offset 16
	.cfi_offset %rbp, -16
	movq	%rsp, %rbp
	.cfi_def_cfa_register %rbp
	subq	$304, %rsp              # imm = 0x130
	xorl	%eax, %eax
	movq	%fs:40, %rcx
	movq	%rcx, -8(%rbp)
	movq	%rdi, -144(%rbp)
	movq	%rsi, -152(%rbp)
	leaq	-9(%rbp), %rdi
	movl	%eax, %esi
	movl	$1, %edx
	callq	memset@PLT
# %bb.1:
	xorl	%esi, %esi
	leaq	-40(%rbp), %rax
	movq	%rax, %rdi
	movl	$24, %edx
	callq	memset@PLT
	callq	fb_FileFree@PLT
	xorl	%ecx, %ecx
	movl	%eax, -160(%rbp)
	movl	-160(%rbp), %eax
	movl	%eax, -156(%rbp)
	movq	-152(%rbp), %rdi
	movl	-156(%rbp), %r8d
	movl	$2, %esi
	movl	%ecx, %edx
	movl	%ecx, -232(%rbp)        # 4-byte Spill
	movl	-232(%rbp), %r9d        # 4-byte Reload
	callq	fb_FileOpen@PLT
	movl	%eax, -164(%rbp)
	movslq	-164(%rbp), %rdi
	cmpq	$0, %rdi
	jne	.LBB3_3
# %bb.2:
	jmp	.LBB3_4
.LBB3_3:
	xorl	%esi, %esi
	leaq	-64(%rbp), %rax
	movq	%rax, %rcx
	movq	%rcx, %rdi
	movl	$24, %edx
	movq	%rax, -240(%rbp)        # 8-byte Spill
	callq	memset@PLT
	movq	-152(%rbp), %rax
	movq	-240(%rbp), %rdi        # 8-byte Reload
	leaq	.L.str.27(%rip), %rsi
	movl	$21, %edx
	movq	%rax, %rcx
	movq	$-1, %r8
	callq	fb_StrConcat@PLT
	xorl	%esi, %esi
	movq	%rax, -176(%rbp)
	leaq	-88(%rbp), %rax
	movq	%rax, %rcx
	movq	%rcx, %rdi
	movl	$24, %edx
	movq	%rax, -248(%rbp)        # 8-byte Spill
	callq	memset@PLT
	movq	-176(%rbp), %rax
	movq	-248(%rbp), %rdi        # 8-byte Reload
	movq	%rax, %rsi
	movq	$-1, %rdx
	leaq	.L.str.28(%rip), %rcx
	movl	$2, %r8d
	callq	fb_StrConcat@PLT
	xorl	%esi, %esi
	movq	%rax, -184(%rbp)
	leaq	-112(%rbp), %rax
	movq	%rax, %rcx
	movq	%rcx, %rdi
	movl	$24, %edx
	movq	%rax, -256(%rbp)        # 8-byte Spill
	callq	memset@PLT
	movq	-184(%rbp), %rax
	movq	-256(%rbp), %rdi        # 8-byte Reload
	movq	%rax, %rsi
	movq	$-1, %rdx
	leaq	.L.str.29(%rip), %rcx
	movl	$3, %r8d
	callq	fb_StrConcat@PLT
	xorl	%r8d, %r8d
	movq	%rax, -192(%rbp)
	movq	-144(%rbp), %rax
	addq	$8, %rax
	movq	-192(%rbp), %rcx
	movq	%rax, %rdi
	movq	$-1, %rax
	movq	%rax, %rsi
	movq	%rcx, %rdx
	movq	%rax, %rcx
	callq	fb_StrAssign@PLT
	movq	%rax, -200(%rbp)
	movb	$0, -9(%rbp)
	leaq	-40(%rbp), %rdi
	callq	fb_StrDelete@PLT
	jmp	.LBB3_10
.LBB3_4:
	jmp	.LBB3_5
.LBB3_5:
	jmp	.LBB3_6
.LBB3_6:                                # =>This Inner Loop Header: Depth=1
	movl	-156(%rbp), %edi
	callq	fb_FileEof@PLT
	movl	%eax, -204(%rbp)
	movslq	-204(%rbp), %rcx
	xorq	$-1, %rcx
	cmpq	$0, %rcx
	jne	.LBB3_8
# %bb.7:
	jmp	.LBB3_9
.LBB3_8:                                #   in Loop: Header=BB3_6 Depth=1
	xorl	%eax, %eax
	leaq	-136(%rbp), %rcx
	movq	%rcx, %rdx
	movq	%rdx, %rdi
	movl	%eax, %esi
	movl	$24, %edx
	movl	%eax, -260(%rbp)        # 4-byte Spill
	movq	%rcx, -272(%rbp)        # 8-byte Spill
	callq	memset@PLT
	movl	-156(%rbp), %edi
	movq	-272(%rbp), %rcx        # 8-byte Reload
	movq	%rcx, %rsi
	movq	$-1, %rdx
	movl	-260(%rbp), %ecx        # 4-byte Reload
	callq	fb_FileLineInput@PLT
	xorl	%r8d, %r8d
	leaq	-40(%rbp), %rdx
	leaq	-136(%rbp), %rsi
	movq	%rdx, %rdi
	movq	$-1, %rdx
	movq	%rsi, -280(%rbp)        # 8-byte Spill
	movq	%rdx, %rsi
	movq	-280(%rbp), %r9         # 8-byte Reload
	movq	%rdx, -288(%rbp)        # 8-byte Spill
	movq	%r9, %rdx
	movq	-288(%rbp), %rcx        # 8-byte Reload
	movl	%eax, -292(%rbp)        # 4-byte Spill
	callq	fb_StrConcatAssign@PLT
	xorl	%r8d, %r8d
	movq	%rax, -216(%rbp)
	leaq	-40(%rbp), %rax
	movq	%rax, %rdi
	movq	$-1, %rsi
	leaq	.L.str.30(%rip), %rdx
	movl	$2, %ecx
	callq	fb_StrConcatAssign@PLT
	movq	%rax, -224(%rbp)
	leaq	-136(%rbp), %rdi
	callq	fb_StrDelete@PLT
	jmp	.LBB3_6
.LBB3_9:
	movl	-156(%rbp), %edi
	callq	fb_FileClose@PLT
	movq	-144(%rbp), %rdi
	leaq	-40(%rbp), %rsi
	movl	%eax, -296(%rbp)        # 4-byte Spill
	callq	_ZN9SHADERTOY11COMPILECODEER8FBSTRING
	movb	%al, -225(%rbp)
	movb	-225(%rbp), %al
	movb	%al, -9(%rbp)
	leaq	-40(%rbp), %rdi
	callq	fb_StrDelete@PLT
.LBB3_10:
	movb	-9(%rbp), %al
	movq	%fs:40, %rcx
	movq	-8(%rbp), %rdx
	cmpq	%rdx, %rcx
	movb	%al, -297(%rbp)         # 1-byte Spill
	jne	.LBB3_12
# %bb.11:                               # %SP_return
	movb	-297(%rbp), %al         # 1-byte Reload
	movsbl	%al, %eax
	addq	$304, %rsp              # imm = 0x130
	popq	%rbp
	.cfi_def_cfa %rsp, 8
	retq
.LBB3_12:                               # %CallStackCheckFailBlk
	.cfi_def_cfa %rbp, 16
	callq	__stack_chk_fail@PLT
.Lfunc_end3:
	.size	_ZN9SHADERTOY11COMPILEFILEER8FBSTRING, .Lfunc_end3-_ZN9SHADERTOY11COMPILEFILEER8FBSTRING
	.cfi_endproc
                                        # -- End function
	.globl	_ZN9SHADERTOY11COMPILECODEER8FBSTRING # -- Begin function _ZN9SHADERTOY11COMPILECODEER8FBSTRING
	.p2align	4, 0x90
	.type	_ZN9SHADERTOY11COMPILECODEER8FBSTRING,@function
_ZN9SHADERTOY11COMPILECODEER8FBSTRING:  # @_ZN9SHADERTOY11COMPILECODEER8FBSTRING
	.cfi_startproc
# %bb.0:
	pushq	%rbp
	.cfi_def_cfa_offset 16
	.cfi_offset %rbp, -16
	movq	%rsp, %rbp
	.cfi_def_cfa_register %rbp
	subq	$736, %rsp              # imm = 0x2E0
	xorl	%eax, %eax
	movq	%fs:40, %rcx
	movq	%rcx, -8(%rbp)
	movq	%rdi, -232(%rbp)
	movq	%rsi, -240(%rbp)
	leaq	-57(%rbp), %rdi
	movl	%eax, %esi
	movl	$1, %edx
	callq	memset@PLT
# %bb.1:
	xorl	%eax, %eax
	leaq	-64(%rbp), %rcx
	movq	%rcx, %rdi
	movl	%eax, %esi
	movl	$4, %ecx
	movq	%rcx, %rdx
	movl	%eax, -636(%rbp)        # 4-byte Spill
	movq	%rcx, -648(%rbp)        # 8-byte Spill
	callq	memset@PLT
	leaq	-68(%rbp), %rcx
	movq	%rcx, %rdi
	movl	-636(%rbp), %esi        # 4-byte Reload
	movq	-648(%rbp), %rdx        # 8-byte Reload
	callq	memset@PLT
	leaq	-96(%rbp), %rcx
	movq	%rcx, %rdi
	movl	-636(%rbp), %esi        # 4-byte Reload
	movl	$24, %ecx
	movq	%rcx, %rdx
	movq	%rcx, -656(%rbp)        # 8-byte Spill
	callq	memset@PLT
	leaq	-120(%rbp), %rcx
	movq	%rcx, %rdx
	movq	%rdx, %rdi
	movl	-636(%rbp), %esi        # 4-byte Reload
	movq	-656(%rbp), %rdx        # 8-byte Reload
	movq	%rcx, -664(%rbp)        # 8-byte Spill
	callq	memset@PLT
	movq	-664(%rbp), %rcx        # 8-byte Reload
	movq	%rcx, %rdi
	movq	$-1, %rsi
	leaq	.L.str.31(%rip), %rdx
	movl	$14, %ecx
	movl	-636(%rbp), %r8d        # 4-byte Reload
	callq	fb_StrAssign@PLT
	xorl	%r8d, %r8d
	leaq	-96(%rbp), %rcx
	leaq	-120(%rbp), %rdx
	movq	%rcx, %rdi
	movq	$-1, %rcx
	movq	%rcx, %rsi
	movq	%rax, -672(%rbp)        # 8-byte Spill
	callq	fb_StrAssign@PLT
	xorl	%r8d, %r8d
	movq	%rax, -248(%rbp)
	leaq	-96(%rbp), %rax
	movq	%rax, %rdi
	movq	$-1, %rsi
	leaq	.L.str.32(%rip), %rdx
	movl	$32, %ecx
	callq	fb_StrConcatAssign@PLT
	xorl	%r8d, %r8d
	movq	%rax, -256(%rbp)
	leaq	-96(%rbp), %rax
	movq	%rax, %rdi
	movq	$-1, %rsi
	leaq	.L.str.33(%rip), %rdx
	movl	$26, %ecx
	callq	fb_StrConcatAssign@PLT
	xorl	%r8d, %r8d
	movq	%rax, -264(%rbp)
	leaq	-96(%rbp), %rax
	movq	%rax, %rdi
	movq	$-1, %rsi
	leaq	.L.str.34(%rip), %rdx
	movl	$32, %ecx
	callq	fb_StrConcatAssign@PLT
	xorl	%r8d, %r8d
	movq	%rax, -272(%rbp)
	leaq	-96(%rbp), %rax
	movq	%rax, %rdi
	movq	$-1, %rsi
	leaq	.L.str.35(%rip), %rdx
	movl	$31, %ecx
	callq	fb_StrConcatAssign@PLT
	xorl	%r8d, %r8d
	movq	%rax, -280(%rbp)
	leaq	-96(%rbp), %rax
	movq	%rax, %rdi
	movq	$-1, %rsi
	leaq	.L.str.36(%rip), %rdx
	movl	$31, %ecx
	callq	fb_StrConcatAssign@PLT
	xorl	%r8d, %r8d
	movq	%rax, -288(%rbp)
	leaq	-96(%rbp), %rax
	movq	%rax, %rdi
	movq	$-1, %rsi
	leaq	.L.str.37(%rip), %rdx
	movl	$27, %ecx
	callq	fb_StrConcatAssign@PLT
	xorl	%r8d, %r8d
	movq	%rax, -296(%rbp)
	leaq	-96(%rbp), %rax
	movq	%rax, %rdi
	movq	$-1, %rsi
	leaq	.L.str.38(%rip), %rdx
	movl	$36, %ecx
	callq	fb_StrConcatAssign@PLT
	xorl	%r8d, %r8d
	movq	%rax, -304(%rbp)
	leaq	-96(%rbp), %rax
	movq	%rax, %rdi
	movq	$-1, %rsi
	leaq	.L.str.39(%rip), %rdx
	movl	$42, %ecx
	callq	fb_StrConcatAssign@PLT
	xorl	%r8d, %r8d
	movq	%rax, -312(%rbp)
	leaq	-96(%rbp), %rax
	movq	%rax, %rdi
	movq	$-1, %rsi
	leaq	.L.str.40(%rip), %rdx
	movl	$32, %ecx
	callq	fb_StrConcatAssign@PLT
	xorl	%r8d, %r8d
	movq	%rax, -320(%rbp)
	leaq	-96(%rbp), %rax
	movq	%rax, %rdi
	movq	$-1, %rsi
	leaq	.L.str.41(%rip), %rdx
	movl	$27, %ecx
	callq	fb_StrConcatAssign@PLT
	xorl	%r8d, %r8d
	movq	%rax, -328(%rbp)
	leaq	-96(%rbp), %rax
	movq	%rax, %rdi
	movq	$-1, %rsi
	leaq	.L.str.42(%rip), %rdx
	movl	$26, %ecx
	callq	fb_StrConcatAssign@PLT
	xorl	%r8d, %r8d
	movq	%rax, -336(%rbp)
	leaq	-96(%rbp), %rax
	movq	%rax, %rdi
	movq	$-1, %rsi
	leaq	.L.str.43(%rip), %rdx
	movl	$30, %ecx
	callq	fb_StrConcatAssign@PLT
	xorl	%r8d, %r8d
	movq	%rax, -344(%rbp)
	leaq	-96(%rbp), %rax
	movq	%rax, %rdi
	movq	$-1, %rsi
	leaq	.L.str.44(%rip), %rdx
	movl	$30, %ecx
	callq	fb_StrConcatAssign@PLT
	xorl	%r8d, %r8d
	movq	%rax, -352(%rbp)
	leaq	-96(%rbp), %rax
	movq	%rax, %rdi
	movq	$-1, %rsi
	leaq	.L.str.45(%rip), %rdx
	movl	$30, %ecx
	callq	fb_StrConcatAssign@PLT
	xorl	%r8d, %r8d
	movq	%rax, -360(%rbp)
	leaq	-96(%rbp), %rax
	movq	%rax, %rdi
	movq	$-1, %rsi
	leaq	.L.str.46(%rip), %rdx
	movl	$30, %ecx
	callq	fb_StrConcatAssign@PLT
	xorl	%r8d, %r8d
	movq	%rax, -368(%rbp)
	leaq	-96(%rbp), %rax
	movq	%rax, %rdi
	movq	$-1, %rsi
	leaq	.L.str.47(%rip), %rdx
	movl	$28, %ecx
	callq	fb_StrConcatAssign@PLT
	xorl	%esi, %esi
	movq	%rax, -376(%rbp)
	leaq	-144(%rbp), %rax
	movq	%rax, %rdi
	movl	$24, %edx
	callq	memset@PLT
	movsd	SWCH$(%rip), %xmm0      # xmm0 = mem[0],zero
	xorps	%xmm1, %xmm1
	ucomisd	%xmm1, %xmm0
	jne	.LBB4_2
	jp	.LBB4_2
	jmp	.LBB4_3
.LBB4_2:
	jmp	.LBB4_4
.LBB4_3:
	xorl	%r8d, %r8d
	leaq	-144(%rbp), %rax
	movq	%rax, %rdi
	movq	$-1, %rsi
	leaq	.L.str.48(%rip), %rdx
	movl	$15, %ecx
	callq	fb_StrConcatAssign@PLT
	xorl	%r8d, %r8d
	movq	%rax, -384(%rbp)
	leaq	-144(%rbp), %rax
	movq	%rax, %rdi
	movq	$-1, %rsi
	leaq	.L.str.49(%rip), %rdx
	movl	$15, %ecx
	callq	fb_StrConcatAssign@PLT
	xorl	%r8d, %r8d
	movq	%rax, -392(%rbp)
	leaq	-144(%rbp), %rax
	movq	%rax, %rdi
	movq	$-1, %rsi
	leaq	.L.str.50(%rip), %rdx
	movl	$23, %ecx
	callq	fb_StrConcatAssign@PLT
	xorl	%r8d, %r8d
	movq	%rax, -400(%rbp)
	leaq	-144(%rbp), %rax
	movq	%rax, %rdi
	movq	$-1, %rsi
	leaq	.L.str.51(%rip), %rdx
	movl	$38, %ecx
	callq	fb_StrConcatAssign@PLT
	xorl	%r8d, %r8d
	movq	%rax, -408(%rbp)
	leaq	-144(%rbp), %rax
	movq	%rax, %rdi
	movq	$-1, %rsi
	leaq	.L.str.52(%rip), %rdx
	movl	$18, %ecx
	callq	fb_StrConcatAssign@PLT
	xorl	%r8d, %r8d
	movq	%rax, -416(%rbp)
	leaq	-144(%rbp), %rax
	movq	%rax, %rdi
	movq	$-1, %rsi
	leaq	.L.str.53(%rip), %rdx
	movl	$25, %ecx
	callq	fb_StrConcatAssign@PLT
	xorl	%r8d, %r8d
	movq	%rax, -424(%rbp)
	leaq	-144(%rbp), %rax
	movq	%rax, %rdi
	movq	$-1, %rsi
	leaq	.L.str.54(%rip), %rdx
	movl	$3, %ecx
	callq	fb_StrConcatAssign@PLT
	movq	%rax, -432(%rbp)
	jmp	.LBB4_5
.LBB4_4:
	xorl	%r8d, %r8d
	leaq	-144(%rbp), %rax
	movq	%rax, %rdi
	movq	$-1, %rsi
	leaq	.L.str.55(%rip), %rdx
	movl	$29, %ecx
	callq	fb_StrConcatAssign@PLT
	xorl	%r8d, %r8d
	movq	%rax, -440(%rbp)
	leaq	-144(%rbp), %rax
	movq	%rax, %rdi
	movq	$-1, %rsi
	leaq	.L.str.56(%rip), %rdx
	movl	$29, %ecx
	callq	fb_StrConcatAssign@PLT
	xorl	%r8d, %r8d
	movq	%rax, -448(%rbp)
	leaq	-144(%rbp), %rax
	movq	%rax, %rdi
	movq	$-1, %rsi
	leaq	.L.str.57(%rip), %rdx
	movl	$29, %ecx
	callq	fb_StrConcatAssign@PLT
	xorl	%r8d, %r8d
	movq	%rax, -456(%rbp)
	leaq	-144(%rbp), %rax
	movq	%rax, %rdi
	movq	$-1, %rsi
	leaq	.L.str.58(%rip), %rdx
	movl	$33, %ecx
	callq	fb_StrConcatAssign@PLT
	xorl	%r8d, %r8d
	movq	%rax, -464(%rbp)
	leaq	-144(%rbp), %rax
	movq	%rax, %rdi
	movq	$-1, %rsi
	leaq	.L.str.59(%rip), %rdx
	movl	$21, %ecx
	callq	fb_StrConcatAssign@PLT
	xorl	%r8d, %r8d
	movq	%rax, -472(%rbp)
	leaq	-144(%rbp), %rax
	movq	%rax, %rdi
	movq	$-1, %rsi
	leaq	.L.str.48(%rip), %rdx
	movl	$15, %ecx
	callq	fb_StrConcatAssign@PLT
	xorl	%r8d, %r8d
	movq	%rax, -480(%rbp)
	leaq	-144(%rbp), %rax
	movq	%rax, %rdi
	movq	$-1, %rsi
	leaq	.L.str.49(%rip), %rdx
	movl	$15, %ecx
	callq	fb_StrConcatAssign@PLT
	xorl	%r8d, %r8d
	movq	%rax, -488(%rbp)
	leaq	-144(%rbp), %rax
	movq	%rax, %rdi
	movq	$-1, %rsi
	leaq	.L.str.50(%rip), %rdx
	movl	$23, %ecx
	callq	fb_StrConcatAssign@PLT
	xorl	%r8d, %r8d
	movq	%rax, -496(%rbp)
	leaq	-144(%rbp), %rax
	movq	%rax, %rdi
	movq	$-1, %rsi
	leaq	.L.str.60(%rip), %rdx
	movl	$39, %ecx
	callq	fb_StrConcatAssign@PLT
	xorl	%r8d, %r8d
	movq	%rax, -504(%rbp)
	leaq	-144(%rbp), %rax
	movq	%rax, %rdi
	movq	$-1, %rsi
	leaq	.L.str.52(%rip), %rdx
	movl	$18, %ecx
	callq	fb_StrConcatAssign@PLT
	xorl	%r8d, %r8d
	movq	%rax, -512(%rbp)
	leaq	-144(%rbp), %rax
	movq	%rax, %rdi
	movq	$-1, %rsi
	leaq	.L.str.53(%rip), %rdx
	movl	$25, %ecx
	callq	fb_StrConcatAssign@PLT
	xorl	%r8d, %r8d
	movq	%rax, -520(%rbp)
	leaq	-144(%rbp), %rax
	movq	%rax, %rdi
	movq	$-1, %rsi
	leaq	.L.str.54(%rip), %rdx
	movl	$3, %ecx
	callq	fb_StrConcatAssign@PLT
	movq	%rax, -528(%rbp)
.LBB4_5:
	xorl	%esi, %esi
	leaq	-32(%rbp), %rax
	movq	%rax, %rcx
	movq	%rcx, %rdi
	movl	$24, %edx
	movq	%rax, -680(%rbp)        # 8-byte Spill
	callq	memset@PLT
	leaq	-96(%rbp), %rax
	movq	-240(%rbp), %rcx
	movq	-680(%rbp), %rdi        # 8-byte Reload
	movq	%rax, %rsi
	movq	$-1, %rax
	movq	%rax, %rdx
	movq	%rax, %r8
	callq	fb_StrConcat@PLT
	xorl	%esi, %esi
	movq	%rax, -536(%rbp)
	leaq	-56(%rbp), %rax
	movq	%rax, %rcx
	movq	%rcx, %rdi
	movl	$24, %edx
	movq	%rax, -688(%rbp)        # 8-byte Spill
	callq	memset@PLT
	movq	-536(%rbp), %rax
	leaq	-144(%rbp), %rcx
	movq	-688(%rbp), %rdi        # 8-byte Reload
	movq	%rax, %rsi
	movq	$-1, %rax
	movq	%rax, %rdx
	movq	%rax, %r8
	callq	fb_StrConcat@PLT
	xorl	%r8d, %r8d
	movq	%rax, -544(%rbp)
	leaq	-168(%rbp), %rax
	movq	-544(%rbp), %rcx
	movq	%rax, %rdi
	movq	$-1, %rax
	movq	%rax, %rsi
	movq	%rcx, %rdx
	movq	%rax, %rcx
	callq	fb_StrInit@PLT
	movq	%rax, -552(%rbp)
	movl	$35632, %edi            # imm = 0x8B30
	callq	*GLCREATESHADER$(%rip)
	movl	%eax, -556(%rbp)
	movl	-556(%rbp), %eax
	movq	-232(%rbp), %rcx
	movl	%eax, (%rcx)
	movq	-232(%rbp), %rcx
	movl	(%rcx), %eax
	movl	%eax, %ecx
	cmpq	$0, %rcx
	je	.LBB4_7
# %bb.6:
	jmp	.LBB4_8
.LBB4_7:
	xorl	%r8d, %r8d
	movq	-232(%rbp), %rax
	addq	$8, %rax
	movq	%rax, %rdi
	movq	$-1, %rsi
	leaq	.L.str.61(%rip), %rdx
	movl	$44, %ecx
	callq	fb_StrAssign@PLT
	movb	$0, -57(%rbp)
	leaq	-168(%rbp), %rdi
	movq	%rax, -696(%rbp)        # 8-byte Spill
	callq	fb_StrDelete@PLT
	leaq	-144(%rbp), %rdi
	callq	fb_StrDelete@PLT
	leaq	-120(%rbp), %rdi
	callq	fb_StrDelete@PLT
	leaq	-96(%rbp), %rdi
	callq	fb_StrDelete@PLT
	jmp	.LBB4_22
.LBB4_8:
	jmp	.LBB4_9
.LBB4_9:
	xorl	%eax, %eax
	movl	%eax, %ecx
	movq	-168(%rbp), %rdx
	movq	%rdx, -176(%rbp)
	movq	GLSHADERSOURCE$(%rip), %rdx
	movq	-232(%rbp), %rsi
	movl	(%rsi), %edi
	movl	$1, %esi
	leaq	-176(%rbp), %r8
	movq	%rdx, -704(%rbp)        # 8-byte Spill
	movq	%r8, %rdx
	movq	-704(%rbp), %r8         # 8-byte Reload
	callq	*%r8
	movq	GLCOMPILESHADER$(%rip), %rcx
	movq	-232(%rbp), %rdx
	movl	(%rdx), %edi
	callq	*%rcx
	movq	GLGETSHADERIV$(%rip), %rcx
	movq	-232(%rbp), %rdx
	movl	(%rdx), %edi
	movl	$35713, %esi            # imm = 0x8B81
	leaq	-68(%rbp), %rdx
	callq	*%rcx
	movslq	-68(%rbp), %rcx
	cmpq	$0, %rcx
	je	.LBB4_11
# %bb.10:
	jmp	.LBB4_12
.LBB4_11:
	movq	GLGETSHADERIV$(%rip), %rax
	movq	-232(%rbp), %rcx
	movl	(%rcx), %edi
	movl	$35716, %esi            # imm = 0x8B84
	leaq	-64(%rbp), %rdx
	callq	*%rax
	movslq	-64(%rbp), %rdi
	callq	fb_SPACE@PLT
	xorl	%r8d, %r8d
	movq	%rax, -568(%rbp)
	movq	-232(%rbp), %rax
	addq	$8, %rax
	movq	-568(%rbp), %rcx
	movq	%rax, %rdi
	movq	$-1, %rax
	movq	%rax, %rsi
	movq	%rcx, %rdx
	movq	%rax, %rcx
	callq	fb_StrAssign@PLT
	xorl	%r8d, %r8d
	movl	%r8d, %edx
	movq	%rax, -576(%rbp)
	movq	GLGETSHADERINFOLOG$(%rip), %rax
	movq	-232(%rbp), %rcx
	movl	(%rcx), %edi
	movl	-64(%rbp), %esi
	movq	-232(%rbp), %rcx
	movq	8(%rcx), %rcx
	callq	*%rax
	xorl	%esi, %esi
	leaq	-200(%rbp), %rax
	movq	%rax, %rcx
	movq	%rcx, %rdi
	movl	$24, %edx
	movq	%rax, -712(%rbp)        # 8-byte Spill
	callq	memset@PLT
	movq	-232(%rbp), %rax
	addq	$8, %rax
	movq	-712(%rbp), %rdi        # 8-byte Reload
	leaq	.L.str.62(%rip), %rsi
	movl	$42, %edx
	movq	%rax, %rcx
	movq	$-1, %r8
	callq	fb_StrConcat@PLT
	xorl	%r8d, %r8d
	movq	%rax, -584(%rbp)
	movq	-232(%rbp), %rax
	addq	$8, %rax
	movq	-584(%rbp), %rcx
	movq	%rax, %rdi
	movq	$-1, %rax
	movq	%rax, %rsi
	movq	%rcx, %rdx
	movq	%rax, %rcx
	callq	fb_StrAssign@PLT
	movq	%rax, -592(%rbp)
	movq	GLDELETESHADER$(%rip), %rax
	movq	-232(%rbp), %rcx
	movl	(%rcx), %edi
	callq	*%rax
	movq	-232(%rbp), %rax
	movl	$0, (%rax)
	movb	$0, -57(%rbp)
	leaq	-168(%rbp), %rdi
	callq	fb_StrDelete@PLT
	leaq	-144(%rbp), %rdi
	callq	fb_StrDelete@PLT
	leaq	-120(%rbp), %rdi
	callq	fb_StrDelete@PLT
	leaq	-96(%rbp), %rdi
	callq	fb_StrDelete@PLT
	jmp	.LBB4_22
.LBB4_12:
	jmp	.LBB4_13
.LBB4_13:
	callq	*GLCREATEPROGRAM$(%rip)
	movl	%eax, -596(%rbp)
	movl	-596(%rbp), %eax
	movq	-232(%rbp), %rcx
	movl	%eax, 4(%rcx)
	movq	-232(%rbp), %rcx
	movl	4(%rcx), %eax
	movl	%eax, %ecx
	cmpq	$0, %rcx
	je	.LBB4_15
# %bb.14:
	jmp	.LBB4_16
.LBB4_15:
	xorl	%r8d, %r8d
	movq	-232(%rbp), %rax
	addq	$8, %rax
	movq	%rax, %rdi
	movq	$-1, %rsi
	leaq	.L.str.63(%rip), %rdx
	movl	$27, %ecx
	callq	fb_StrAssign@PLT
	movq	GLDELETESHADER$(%rip), %rcx
	movq	-232(%rbp), %rdx
	movl	(%rdx), %edi
	movq	%rax, -720(%rbp)        # 8-byte Spill
	callq	*%rcx
	movq	-232(%rbp), %rax
	movl	$0, (%rax)
	movb	$0, -57(%rbp)
	leaq	-168(%rbp), %rdi
	callq	fb_StrDelete@PLT
	leaq	-144(%rbp), %rdi
	callq	fb_StrDelete@PLT
	leaq	-120(%rbp), %rdi
	callq	fb_StrDelete@PLT
	leaq	-96(%rbp), %rdi
	callq	fb_StrDelete@PLT
	jmp	.LBB4_22
.LBB4_16:
	jmp	.LBB4_17
.LBB4_17:
	movq	GLATTACHSHADER$(%rip), %rax
	movq	-232(%rbp), %rcx
	movl	4(%rcx), %edi
	movq	-232(%rbp), %rcx
	movl	(%rcx), %esi
	callq	*%rax
	movq	GLLINKPROGRAM$(%rip), %rax
	movq	-232(%rbp), %rcx
	movl	4(%rcx), %edi
	callq	*%rax
	movq	GLGETPROGRAMIV$(%rip), %rax
	movq	-232(%rbp), %rcx
	movl	4(%rcx), %edi
	movl	$35714, %esi            # imm = 0x8B82
	leaq	-68(%rbp), %rdx
	callq	*%rax
	movslq	-68(%rbp), %rax
	cmpq	$0, %rax
	je	.LBB4_19
# %bb.18:
	jmp	.LBB4_20
.LBB4_19:
	movq	GLGETPROGRAMIV$(%rip), %rax
	movq	-232(%rbp), %rcx
	movl	4(%rcx), %edi
	movl	$35716, %esi            # imm = 0x8B84
	leaq	-64(%rbp), %rdx
	callq	*%rax
	movslq	-64(%rbp), %rdi
	callq	fb_SPACE@PLT
	xorl	%r8d, %r8d
	movq	%rax, -608(%rbp)
	movq	-232(%rbp), %rax
	addq	$8, %rax
	movq	-608(%rbp), %rcx
	movq	%rax, %rdi
	movq	$-1, %rax
	movq	%rax, %rsi
	movq	%rcx, %rdx
	movq	%rax, %rcx
	callq	fb_StrAssign@PLT
	xorl	%r8d, %r8d
	movl	%r8d, %edx
	movq	%rax, -616(%rbp)
	movq	GLGETPROGRAMINFOLOG$(%rip), %rax
	movq	-232(%rbp), %rcx
	movl	4(%rcx), %edi
	movl	-64(%rbp), %esi
	movq	-232(%rbp), %rcx
	movq	8(%rcx), %rcx
	callq	*%rax
	xorl	%esi, %esi
	leaq	-224(%rbp), %rax
	movq	%rax, %rcx
	movq	%rcx, %rdi
	movl	$24, %edx
	movq	%rax, -728(%rbp)        # 8-byte Spill
	callq	memset@PLT
	movq	-232(%rbp), %rax
	addq	$8, %rax
	movq	-728(%rbp), %rdi        # 8-byte Reload
	leaq	.L.str.64(%rip), %rsi
	movl	$26, %edx
	movq	%rax, %rcx
	movq	$-1, %r8
	callq	fb_StrConcat@PLT
	xorl	%r8d, %r8d
	movq	%rax, -624(%rbp)
	movq	-232(%rbp), %rax
	addq	$8, %rax
	movq	-624(%rbp), %rcx
	movq	%rax, %rdi
	movq	$-1, %rax
	movq	%rax, %rsi
	movq	%rcx, %rdx
	movq	%rax, %rcx
	callq	fb_StrAssign@PLT
	movq	%rax, -632(%rbp)
	movq	GLDELETESHADER$(%rip), %rax
	movq	-232(%rbp), %rcx
	movl	(%rcx), %edi
	callq	*%rax
	movq	-232(%rbp), %rax
	movl	$0, (%rax)
	movb	$0, -57(%rbp)
	leaq	-168(%rbp), %rdi
	callq	fb_StrDelete@PLT
	leaq	-144(%rbp), %rdi
	callq	fb_StrDelete@PLT
	leaq	-120(%rbp), %rdi
	callq	fb_StrDelete@PLT
	leaq	-96(%rbp), %rdi
	callq	fb_StrDelete@PLT
	jmp	.LBB4_22
.LBB4_20:
	jmp	.LBB4_21
.LBB4_21:
	movb	$1, -57(%rbp)
	leaq	-168(%rbp), %rdi
	callq	fb_StrDelete@PLT
	leaq	-144(%rbp), %rdi
	callq	fb_StrDelete@PLT
	leaq	-120(%rbp), %rdi
	callq	fb_StrDelete@PLT
	leaq	-96(%rbp), %rdi
	callq	fb_StrDelete@PLT
.LBB4_22:
	movb	-57(%rbp), %al
	movq	%fs:40, %rcx
	movq	-8(%rbp), %rdx
	cmpq	%rdx, %rcx
	movb	%al, -729(%rbp)         # 1-byte Spill
	jne	.LBB4_24
# %bb.23:                               # %SP_return
	movb	-729(%rbp), %al         # 1-byte Reload
	movsbl	%al, %eax
	addq	$736, %rsp              # imm = 0x2E0
	popq	%rbp
	.cfi_def_cfa %rsp, 8
	retq
.LBB4_24:                               # %CallStackCheckFailBlk
	.cfi_def_cfa %rbp, 16
	callq	__stack_chk_fail@PLT
.Lfunc_end4:
	.size	_ZN9SHADERTOY11COMPILECODEER8FBSTRING, .Lfunc_end4-_ZN9SHADERTOY11COMPILECODEER8FBSTRING
	.cfi_endproc
                                        # -- End function
	.section	.rodata.cst8,"aM",@progbits,8
	.p2align	3               # -- Begin function _ZN5C64_TC1Ev
.LCPI5_0:
	.quad	4624633867356078080     # double 15
.LCPI5_1:
	.quad	4607182418800017408     # double 1
	.text
	.globl	_ZN5C64_TC1Ev
	.p2align	4, 0x90
	.type	_ZN5C64_TC1Ev,@function
_ZN5C64_TC1Ev:                          # @_ZN5C64_TC1Ev
	.cfi_startproc
# %bb.0:
	pushq	%rbp
	.cfi_def_cfa_offset 16
	.cfi_offset %rbp, -16
	movq	%rsp, %rbp
	.cfi_def_cfa_register %rbp
	subq	$192, %rsp
	movq	%fs:40, %rax
	movq	%rax, -8(%rbp)
	movq	%rdi, -64(%rbp)
# %bb.1:
	xorl	%eax, %eax
	leaq	-48(%rbp), %rcx
	movq	%rcx, %rdi
	movl	%eax, %esi
	movl	$8, %ecx
	movq	%rcx, %rdx
	movl	%eax, -140(%rbp)        # 4-byte Spill
	movq	%rcx, -152(%rbp)        # 8-byte Spill
	callq	memset@PLT
	leaq	-56(%rbp), %rcx
	movq	%rcx, %rdi
	movl	-140(%rbp), %esi        # 4-byte Reload
	movq	-152(%rbp), %rdx        # 8-byte Reload
	callq	memset@PLT
	movq	-64(%rbp), %rcx
	movq	%rcx, %rdi
	movl	-140(%rbp), %esi        # 4-byte Reload
	movq	-152(%rbp), %rdx        # 8-byte Reload
	callq	memset@PLT
	movq	-64(%rbp), %rcx
	addq	$8, %rcx
	movq	%rcx, %rdi
	movl	-140(%rbp), %esi        # 4-byte Reload
	movq	-152(%rbp), %rdx        # 8-byte Reload
	callq	memset@PLT
	movl	$1920, %edi             # imm = 0x780
	movl	$1080, %esi             # imm = 0x438
	movl	$32, %edx
	movl	-140(%rbp), %ecx        # 4-byte Reload
	movl	$64, %r8d
	movl	-140(%rbp), %r9d        # 4-byte Reload
	callq	fb_GfxScreenRes@PLT
	movl	$4294901760, %edi       # imm = 0xFFFF0000
	movl	%eax, -156(%rbp)        # 4-byte Spill
	callq	fb_Cls@PLT
	xorl	%eax, %eax
	movl	%eax, %esi
	leaq	.L.str.1(%rip), %rdi
	callq	fb_StrAllocTempDescZEx@PLT
	movq	%rax, -88(%rbp)
	movq	$0, -40(%rbp)
	movq	$0, -32(%rbp)
	movq	$0, -24(%rbp)
	movq	$0, -16(%rbp)
	movq	-88(%rbp), %rax
	leaq	SCR_W$(%rip), %rdi
	leaq	SCR_H$(%rip), %rsi
	leaq	-16(%rbp), %rdx
	leaq	-24(%rbp), %rcx
	leaq	-32(%rbp), %r8
	leaq	-40(%rbp), %r9
	movq	%rax, (%rsp)
	callq	fb_GfxScreenInfo@PLT
	xorl	%r10d, %r10d
	movq	SCR_W$(%rip), %rax
                                        # kill: def $eax killed $eax killed $rax
	movq	SCR_H$(%rip), %rcx
                                        # kill: def $ecx killed $ecx killed $rcx
	movl	%eax, %edi
	movl	%ecx, %esi
	movl	%r10d, %edx
	movl	$32, %ecx
	movl	%r10d, %r8d
	callq	fb_GfxImageCreate@PLT
	xorl	%ecx, %ecx
	movq	%rax, -96(%rbp)
	movq	-96(%rbp), %rax
	movq	%rax, BGIMAGE$(%rip)
	movq	SCR_W$(%rip), %rax
                                        # kill: def $eax killed $eax killed $rax
	movq	SCR_H$(%rip), %r9
                                        # kill: def $r9d killed $r9d killed $r9
	movl	%eax, %edi
	movl	%r9d, %esi
	movl	%ecx, %edx
	movl	$32, %eax
	movl	%ecx, -160(%rbp)        # 4-byte Spill
	movl	%eax, %ecx
	movl	-160(%rbp), %r8d        # 4-byte Reload
	callq	fb_GfxImageCreate@PLT
	xorl	%ecx, %ecx
	movq	%rax, -104(%rbp)
	movq	-104(%rbp), %rax
	movq	%rax, FGIMAGE$(%rip)
	movq	SCR_W$(%rip), %rax
                                        # kill: def $eax killed $eax killed $rax
	movl	%eax, %edi
	movl	%ecx, %esi
	movl	%ecx, %edx
	movl	$32, %eax
	movl	%ecx, -164(%rbp)        # 4-byte Spill
	movl	%eax, %ecx
	movl	-164(%rbp), %r8d        # 4-byte Reload
	callq	fb_GfxImageCreate@PLT
	xorl	%ecx, %ecx
	movq	%rax, -112(%rbp)
	movq	-112(%rbp), %rax
	movq	%rax, RASTER$(%rip)
	movq	SCR_W$(%rip), %rax
                                        # kill: def $eax killed $eax killed $rax
	movl	%eax, %edi
	movl	$1080, %esi             # imm = 0x438
	movl	%ecx, %edx
	movl	$32, %eax
	movl	%ecx, -168(%rbp)        # 4-byte Spill
	movl	%eax, %ecx
	movl	-168(%rbp), %r8d        # 4-byte Reload
	callq	fb_GfxImageCreate@PLT
	movq	%rax, -120(%rbp)
	movq	-120(%rbp), %rax
	movq	%rax, RENDER$(%rip)
	movq	$0, -48(%rbp)
.LBB5_2:                                # =>This Inner Loop Header: Depth=1
	leaq	-56(%rbp), %rdi
	callq	fb_DataReadLongint@PLT
	movq	-48(%rbp), %rax
                                        # kill: def $eax killed $eax killed $rax
	movq	-56(%rbp), %rcx
                                        # kill: def $ecx killed $ecx killed $rcx
	movl	%eax, %edi
	movl	%ecx, %esi
	movl	$4294967295, %eax       # imm = 0xFFFFFFFF
	movl	%eax, %edx
	movl	%eax, %ecx
	callq	fb_GfxPalette@PLT
	movsd	.LCPI5_0(%rip), %xmm0   # xmm0 = mem[0],zero
	movsd	.LCPI5_1(%rip), %xmm1   # xmm1 = mem[0],zero
	cvtsi2sdq	-48(%rbp), %xmm2
	addsd	%xmm1, %xmm2
	movsd	%xmm0, -176(%rbp)       # 8-byte Spill
	movaps	%xmm2, %xmm0
	callq	nearbyint@PLT
	cvttsd2si	%xmm0, %r8
	movq	%r8, -48(%rbp)
	cvtsi2sdq	-48(%rbp), %xmm0
	movsd	-176(%rbp), %xmm1       # 8-byte Reload
                                        # xmm1 = mem[0],zero
	ucomisd	%xmm1, %xmm0
	jb	.LBB5_4
# %bb.3:
	jmp	.LBB5_5
.LBB5_4:                                #   in Loop: Header=BB5_2 Depth=1
	jmp	.LBB5_2
.LBB5_5:
	movl	$134755848, %edi        # imm = 0x8083608
	callq	malloc@PLT
	movq	%rax, -128(%rbp)
	movq	-128(%rbp), %rax
	movq	%rax, -72(%rbp)
	cmpq	$0, -72(%rbp)
	jne	.LBB5_7
# %bb.6:
	jmp	.LBB5_8
.LBB5_7:
	movq	-72(%rbp), %rdi
	callq	_ZN8MEMORY_TC1Ev
.LBB5_8:
	movq	-72(%rbp), %rax
	movq	-64(%rbp), %rcx
	movq	%rax, (%rcx)
	movl	$14720, %edi            # imm = 0x3980
	callq	malloc@PLT
	movq	%rax, -136(%rbp)
	movq	-136(%rbp), %rax
	movq	%rax, -80(%rbp)
	cmpq	$0, -80(%rbp)
	jne	.LBB5_10
# %bb.9:
	jmp	.LBB5_11
.LBB5_10:
	movq	-80(%rbp), %rdi
	movq	-64(%rbp), %rax
	movq	(%rax), %rsi
	callq	_ZN7CPU6510C1EP8MEMORY_T
.LBB5_11:
	movq	-80(%rbp), %rax
	movq	-64(%rbp), %rcx
	movq	%rax, 8(%rcx)
# %bb.12:
	movq	%fs:40, %rax
	movq	-8(%rbp), %rcx
	cmpq	%rcx, %rax
	jne	.LBB5_14
# %bb.13:                               # %SP_return
	addq	$192, %rsp
	popq	%rbp
	.cfi_def_cfa %rsp, 8
	retq
.LBB5_14:                               # %CallStackCheckFailBlk
	.cfi_def_cfa %rbp, 16
	callq	__stack_chk_fail@PLT
.Lfunc_end5:
	.size	_ZN5C64_TC1Ev, .Lfunc_end5-_ZN5C64_TC1Ev
	.cfi_endproc
                                        # -- End function
	.section	.rodata.cst8,"aM",@progbits,8
	.p2align	3               # -- Begin function _ZN8MEMORY_TC1Ev
.LCPI6_0:
	.quad	4676988213024260096     # double 49152
.LCPI6_1:
	.quad	4647697223260307456     # double 511
.LCPI6_2:
	.quad	4607182418800017408     # double 1
.LCPI6_3:
	.quad	4652209618980700160     # double 1023
.LCPI6_4:
	.quad	4643176031446892544     # double 255
.LCPI6_5:
	.quad	4645023210981556224     # double 359
.LCPI6_6:
	.quad	4640537203540230144     # double 180
.LCPI6_7:
	.quad	4614256656552045848     # double 3.1415926535897931
.LCPI6_8:
	.quad	4677020373739372544     # double 49386
.LCPI6_9:
	.quad	4619567317775286272     # double 7
.LCPI6_10:
	.quad	4677020236300419072     # double 49385
.LCPI6_11:
	.quad	4677020098861465600     # double 49384
.LCPI6_12:
	.quad	4611686018427387904     # double 2
.LCPI6_13:
	.quad	4677019961422512128     # double 49383
.LCPI6_14:
	.quad	4677554461512564736     # double 53272
.LCPI6_15:
	.quad	4629418941960159232     # double 31
.LCPI6_16:
	.quad	4648911084097372160     # double 648
.LCPI6_17:
	.quad	4616189618054758400     # double 4
.LCPI6_18:
	.quad	4677029994466115584     # double 49456
.LCPI6_19:
	.quad	4676989449974841344     # double 49161
.LCPI6_20:
	.quad	4676988900219027456     # double 49157
.LCPI6_21:
	.quad	4676988762780073984     # double 49156
.LCPI6_22:
	.quad	4676988625341120512     # double 49155
.LCPI6_23:
	.quad	4676988487902167040     # double 49154
.LCPI6_24:
	.quad	4665728114444206080     # double 8191
.LCPI6_25:
	.quad	4665729213955833856     # double 8192
.LCPI6_26:
	.quad	4670232263827390464     # double 16383
.LCPI6_27:
	.quad	4677011715085303808     # double 49323
.LCPI6_28:
	.quad	4636455816377925632     # double 96
.LCPI6_29:
	.quad	4677011577646350336     # double 49322
.LCPI6_30:
	.quad	4640959416005296128     # double 192
.LCPI6_31:
	.quad	4677011440207396864     # double 49321
.LCPI6_32:
	.quad	4677011302768443392     # double 49320
.LCPI6_33:
	.quad	4639165013028765696     # double 141
.LCPI6_34:
	.quad	4677011165329489920     # double 49319
.LCPI6_35:
	.quad	4677011027890536448     # double 49318
.LCPI6_36:
	.quad	4640150175447252992     # double 169
.LCPI6_37:
	.quad	4679239600521084928     # double 65533
.LCPI6_38:
	.quad	9218868437227405312     # double +Inf
.LCPI6_39:
	.quad	4679239463082131456     # double 65532
.LCPI6_40:
	.quad	4634204016564240384     # double 64
.LCPI6_41:
	.quad	4629700416936869888     # double 32
.LCPI6_42:
	.quad	4631107791820423168     # double 42
.LCPI6_43:
	.quad	4632233691727265792     # double 50
.LCPI6_44:
	.quad	4638918722424143872     # double 134
.LCPI6_45:
	.quad	4634344754052595712     # double 66
.LCPI6_46:
	.quad	4634696597773484032     # double 71
.LCPI6_47:
	.quad	4643000109586448384     # double 250
	.text
	.globl	_ZN8MEMORY_TC1Ev
	.p2align	4, 0x90
	.type	_ZN8MEMORY_TC1Ev,@function
_ZN8MEMORY_TC1Ev:                       # @_ZN8MEMORY_TC1Ev
	.cfi_startproc
# %bb.0:
	pushq	%rbp
	.cfi_def_cfa_offset 16
	.cfi_offset %rbp, -16
	movq	%rsp, %rbp
	.cfi_def_cfa_register %rbp
	subq	$896, %rsp              # imm = 0x380
	movq	%fs:40, %rax
	movq	%rax, -8(%rbp)
	movq	%rdi, -56(%rbp)
# %bb.1:
	movsd	.LCPI6_0(%rip), %xmm0   # xmm0 = mem[0],zero
	xorl	%eax, %eax
	movq	-56(%rbp), %rcx
	movq	%rcx, %rdi
	movl	%eax, %esi
	movl	$134217728, %edx        # imm = 0x8000000
	movsd	%xmm0, -368(%rbp)       # 8-byte Spill
	movl	%eax, -372(%rbp)        # 4-byte Spill
	callq	memset@PLT
	movq	-56(%rbp), %rcx
	addq	$134217728, %rcx        # imm = 0x8000000
	movq	%rcx, %rdi
	movl	-372(%rbp), %esi        # 4-byte Reload
	movl	$131072, %ecx           # imm = 0x20000
	movq	%rcx, %rdx
	movq	%rcx, -384(%rbp)        # 8-byte Spill
	callq	memset@PLT
	movq	-56(%rbp), %rcx
	addq	$134348800, %rcx        # imm = 0x8020000
	movq	%rcx, %rdi
	movl	-372(%rbp), %esi        # 4-byte Reload
	movq	-384(%rbp), %rdx        # 8-byte Reload
	callq	memset@PLT
	movq	-56(%rbp), %rcx
	addq	$134479872, %rcx        # imm = 0x8040000
	movq	%rcx, %rdi
	movl	-372(%rbp), %esi        # 4-byte Reload
	movl	$262024, %edx           # imm = 0x3FF88
	callq	memset@PLT
	movq	-56(%rbp), %rcx
	addq	$134741896, %rcx        # imm = 0x807FF88
	movq	%rcx, %rdi
	movl	-372(%rbp), %esi        # 4-byte Reload
	movl	$8192, %edx             # imm = 0x2000
	callq	memset@PLT
	movq	-56(%rbp), %rcx
	addq	$134750088, %rcx        # imm = 0x8081F88
	movq	%rcx, %rdi
	movl	-372(%rbp), %esi        # 4-byte Reload
	movl	$2880, %ecx             # imm = 0xB40
	movq	%rcx, %rdx
	movq	%rcx, -392(%rbp)        # 8-byte Spill
	callq	memset@PLT
	movq	-56(%rbp), %rcx
	addq	$134752968, %rcx        # imm = 0x8082AC8
	movq	%rcx, %rdi
	movl	-372(%rbp), %esi        # 4-byte Reload
	movq	-392(%rbp), %rdx        # 8-byte Reload
	callq	memset@PLT
	movsd	-368(%rbp), %xmm0       # 8-byte Reload
                                        # xmm0 = mem[0],zero
	movsd	%xmm0, SYS_OFFSET$(%rip)
	movq	$0, -16(%rbp)
	movq	$0, -64(%rbp)
.LBB6_2:                                # =>This Inner Loop Header: Depth=1
	leaq	-16(%rbp), %rdi
	callq	fb_DataReadLongint@PLT
	movsd	.LCPI6_1(%rip), %xmm0   # xmm0 = mem[0],zero
	movsd	.LCPI6_2(%rip), %xmm1   # xmm1 = mem[0],zero
	cvtsi2sdq	-16(%rbp), %xmm2
	movq	-56(%rbp), %rax
	movq	-64(%rbp), %rcx
	shlq	$3, %rcx
	movsd	%xmm2, (%rax,%rcx)
	cvtsi2sdq	-64(%rbp), %xmm2
	addsd	%xmm1, %xmm2
	movsd	%xmm0, -400(%rbp)       # 8-byte Spill
	movaps	%xmm2, %xmm0
	callq	nearbyint@PLT
	cvttsd2si	%xmm0, %rax
	movq	%rax, -64(%rbp)
	cvtsi2sdq	-64(%rbp), %xmm0
	movsd	-400(%rbp), %xmm1       # 8-byte Reload
                                        # xmm1 = mem[0],zero
	ucomisd	%xmm1, %xmm0
	jbe	.LBB6_4
# %bb.3:
	jmp	.LBB6_5
.LBB6_4:                                #   in Loop: Header=BB6_2 Depth=1
	jmp	.LBB6_2
.LBB6_5:
	movq	$512, -64(%rbp)         # imm = 0x200
.LBB6_6:                                # =>This Inner Loop Header: Depth=1
	movsd	.LCPI6_3(%rip), %xmm0   # xmm0 = mem[0],zero
	movsd	.LCPI6_2(%rip), %xmm1   # xmm1 = mem[0],zero
	movsd	.LCPI6_4(%rip), %xmm2   # xmm2 = mem[0],zero
	movq	-56(%rbp), %rax
	movq	-64(%rbp), %rcx
	shlq	$3, %rcx
	movsd	%xmm2, (%rax,%rcx)
	cvtsi2sdq	-64(%rbp), %xmm2
	addsd	%xmm1, %xmm2
	movsd	%xmm0, -408(%rbp)       # 8-byte Spill
	movaps	%xmm2, %xmm0
	callq	nearbyint@PLT
	cvttsd2si	%xmm0, %rax
	movq	%rax, -64(%rbp)
	cvtsi2sdq	-64(%rbp), %xmm0
	movsd	-408(%rbp), %xmm1       # 8-byte Reload
                                        # xmm1 = mem[0],zero
	ucomisd	%xmm1, %xmm0
	jbe	.LBB6_8
# %bb.7:
	jmp	.LBB6_9
.LBB6_8:                                #   in Loop: Header=BB6_6 Depth=1
	jmp	.LBB6_6
.LBB6_9:
	movq	$0, -64(%rbp)
.LBB6_10:                               # =>This Inner Loop Header: Depth=1
	movsd	.LCPI6_5(%rip), %xmm0   # xmm0 = mem[0],zero
	movsd	.LCPI6_2(%rip), %xmm1   # xmm1 = mem[0],zero
	movsd	.LCPI6_6(%rip), %xmm2   # xmm2 = mem[0],zero
	movsd	.LCPI6_7(%rip), %xmm3   # xmm3 = mem[0],zero
	cvtsi2sdq	-64(%rbp), %xmm4
	mulsd	%xmm3, %xmm4
	divsd	%xmm2, %xmm4
	movsd	%xmm0, -416(%rbp)       # 8-byte Spill
	movaps	%xmm4, %xmm0
	movsd	%xmm1, -424(%rbp)       # 8-byte Spill
	movsd	%xmm2, -432(%rbp)       # 8-byte Spill
	movsd	%xmm3, -440(%rbp)       # 8-byte Spill
	callq	sin@PLT
	movq	-56(%rbp), %rax
	movq	-64(%rbp), %rcx
	shlq	$3, %rcx
	movsd	%xmm0, 134750088(%rax,%rcx)
	cvtsi2sdq	-64(%rbp), %xmm0
	movsd	-440(%rbp), %xmm1       # 8-byte Reload
                                        # xmm1 = mem[0],zero
	mulsd	%xmm1, %xmm0
	movsd	-432(%rbp), %xmm2       # 8-byte Reload
                                        # xmm2 = mem[0],zero
	divsd	%xmm2, %xmm0
	callq	cos@PLT
	movq	-56(%rbp), %rax
	movq	-64(%rbp), %rcx
	shlq	$3, %rcx
	movsd	%xmm0, 134752968(%rax,%rcx)
	cvtsi2sdq	-64(%rbp), %xmm0
	movsd	-424(%rbp), %xmm1       # 8-byte Reload
                                        # xmm1 = mem[0],zero
	addsd	%xmm1, %xmm0
	callq	nearbyint@PLT
	cvttsd2si	%xmm0, %rax
	movq	%rax, -64(%rbp)
	cvtsi2sdq	-64(%rbp), %xmm0
	movsd	-416(%rbp), %xmm1       # 8-byte Reload
                                        # xmm1 = mem[0],zero
	ucomisd	%xmm1, %xmm0
	jbe	.LBB6_12
# %bb.11:
	jmp	.LBB6_13
.LBB6_12:                               #   in Loop: Header=BB6_10 Depth=1
	jmp	.LBB6_10
.LBB6_13:
	movsd	.LCPI6_23(%rip), %xmm0  # xmm0 = mem[0],zero
	movsd	.LCPI6_4(%rip), %xmm1   # xmm1 = mem[0],zero
	movq	-56(%rbp), %rdi
	callq	_ZN8MEMORY_T6POKE64Edd
	movsd	.LCPI6_22(%rip), %xmm0  # xmm0 = mem[0],zero
	movsd	.LCPI6_4(%rip), %xmm1   # xmm1 = mem[0],zero
	movq	-56(%rbp), %rdi
	callq	_ZN8MEMORY_T6POKE64Edd
	movsd	.LCPI6_21(%rip), %xmm0  # xmm0 = mem[0],zero
	movsd	.LCPI6_4(%rip), %xmm1   # xmm1 = mem[0],zero
	movq	-56(%rbp), %rdi
	callq	_ZN8MEMORY_T6POKE64Edd
	movsd	.LCPI6_20(%rip), %xmm0  # xmm0 = mem[0],zero
	movsd	.LCPI6_4(%rip), %xmm1   # xmm1 = mem[0],zero
	movq	-56(%rbp), %rdi
	callq	_ZN8MEMORY_T6POKE64Edd
	movsd	.LCPI6_19(%rip), %xmm0  # xmm0 = mem[0],zero
	movsd	.LCPI6_4(%rip), %xmm1   # xmm1 = mem[0],zero
	movq	-56(%rbp), %rdi
	callq	_ZN8MEMORY_T6POKE64Edd
	movsd	.LCPI6_18(%rip), %xmm0  # xmm0 = mem[0],zero
	movsd	.LCPI6_4(%rip), %xmm1   # xmm1 = mem[0],zero
	movq	-56(%rbp), %rdi
	callq	_ZN8MEMORY_T6POKE64Edd
	movsd	.LCPI6_16(%rip), %xmm0  # xmm0 = mem[0],zero
	movsd	.LCPI6_17(%rip), %xmm1  # xmm1 = mem[0],zero
	movq	-56(%rbp), %rdi
	callq	_ZN8MEMORY_T6POKE64Edd
	movsd	.LCPI6_14(%rip), %xmm0  # xmm0 = mem[0],zero
	movsd	.LCPI6_15(%rip), %xmm1  # xmm1 = mem[0],zero
	movq	-56(%rbp), %rdi
	callq	_ZN8MEMORY_T6POKE64Edd
	movsd	.LCPI6_13(%rip), %xmm0  # xmm0 = mem[0],zero
	movq	-56(%rbp), %rdi
	xorps	%xmm1, %xmm1
	callq	_ZN8MEMORY_T6POKE64Edd
	movsd	.LCPI6_11(%rip), %xmm0  # xmm0 = mem[0],zero
	movsd	.LCPI6_12(%rip), %xmm1  # xmm1 = mem[0],zero
	movq	-56(%rbp), %rdi
	callq	_ZN8MEMORY_T6POKE64Edd
	movsd	.LCPI6_10(%rip), %xmm0  # xmm0 = mem[0],zero
	movsd	.LCPI6_9(%rip), %xmm1   # xmm1 = mem[0],zero
	movq	-56(%rbp), %rdi
	callq	_ZN8MEMORY_T6POKE64Edd
	movsd	.LCPI6_8(%rip), %xmm0   # xmm0 = mem[0],zero
	movsd	.LCPI6_9(%rip), %xmm1   # xmm1 = mem[0],zero
	movq	-56(%rbp), %rdi
	callq	_ZN8MEMORY_T6POKE64Edd
	xorl	%esi, %esi
	xorps	%xmm0, %xmm0
	movsd	%xmm0, -72(%rbp)
	leaq	-17(%rbp), %rdi
	movl	$1, %edx
	callq	memset@PLT
	leaq	.L.str.65(%rip), %rdi
	movl	$17, %esi
	callq	fb_StrAllocTempDescZEx@PLT
	xorl	%ecx, %ecx
	movq	%rax, -80(%rbp)
	movq	-80(%rbp), %rdi
	movl	%ecx, %esi
	movl	%ecx, %edx
	movl	%ecx, -444(%rbp)        # 4-byte Spill
	movl	$1, %r8d
	movl	-444(%rbp), %r9d        # 4-byte Reload
	callq	fb_FileOpen@PLT
.LBB6_14:                               # =>This Inner Loop Header: Depth=1
	movsd	.LCPI6_24(%rip), %xmm0  # xmm0 = mem[0],zero
	movsd	.LCPI6_2(%rip), %xmm1   # xmm1 = mem[0],zero
	xorl	%eax, %eax
	movl	%eax, %esi
	movl	$1, %edi
	leaq	-17(%rbp), %rdx
	movl	$1, %ecx
	movsd	%xmm0, -456(%rbp)       # 8-byte Spill
	movsd	%xmm1, -464(%rbp)       # 8-byte Spill
	callq	fb_FileGetLarge@PLT
	movzbl	-17(%rbp), %edi
	cvtsi2sd	%edi, %xmm0
	movq	-56(%rbp), %rcx
	movsd	-72(%rbp), %xmm1        # xmm1 = mem[0],zero
	movsd	%xmm0, -472(%rbp)       # 8-byte Spill
	movaps	%xmm1, %xmm0
	movl	%eax, -476(%rbp)        # 4-byte Spill
	movq	%rcx, -488(%rbp)        # 8-byte Spill
	callq	nearbyint@PLT
	cvttsd2si	%xmm0, %rcx
	shlq	$3, %rcx
	movq	-488(%rbp), %rdx        # 8-byte Reload
	movsd	-472(%rbp), %xmm0       # 8-byte Reload
                                        # xmm0 = mem[0],zero
	movsd	%xmm0, 134348800(%rdx,%rcx)
	movsd	-464(%rbp), %xmm0       # 8-byte Reload
                                        # xmm0 = mem[0],zero
	addsd	-72(%rbp), %xmm0
	movsd	%xmm0, -72(%rbp)
	movsd	-72(%rbp), %xmm0        # xmm0 = mem[0],zero
	movsd	-456(%rbp), %xmm1       # 8-byte Reload
                                        # xmm1 = mem[0],zero
	ucomisd	%xmm1, %xmm0
	jbe	.LBB6_16
# %bb.15:
	jmp	.LBB6_17
.LBB6_16:                               #   in Loop: Header=BB6_14 Depth=1
	jmp	.LBB6_14
.LBB6_17:
	xorps	%xmm0, %xmm0
	movsd	%xmm0, -72(%rbp)
.LBB6_18:                               # =>This Inner Loop Header: Depth=1
	movsd	.LCPI6_24(%rip), %xmm0  # xmm0 = mem[0],zero
	movsd	.LCPI6_2(%rip), %xmm1   # xmm1 = mem[0],zero
	xorl	%eax, %eax
	movl	%eax, %esi
	movl	$1, %edi
	leaq	-17(%rbp), %rdx
	movl	$1, %ecx
	movsd	%xmm0, -496(%rbp)       # 8-byte Spill
	movsd	%xmm1, -504(%rbp)       # 8-byte Spill
	callq	fb_FileGetLarge@PLT
	movzbl	-17(%rbp), %edi
	cvtsi2sd	%edi, %xmm0
	movq	-56(%rbp), %rcx
	movsd	-72(%rbp), %xmm1        # xmm1 = mem[0],zero
	movsd	%xmm0, -512(%rbp)       # 8-byte Spill
	movaps	%xmm1, %xmm0
	movl	%eax, -516(%rbp)        # 4-byte Spill
	movq	%rcx, -528(%rbp)        # 8-byte Spill
	callq	nearbyint@PLT
	cvttsd2si	%xmm0, %rcx
	shlq	$3, %rcx
	movq	-528(%rbp), %rdx        # 8-byte Reload
	movsd	-512(%rbp), %xmm0       # 8-byte Reload
                                        # xmm0 = mem[0],zero
	movsd	%xmm0, 134217728(%rdx,%rcx)
	movsd	-504(%rbp), %xmm0       # 8-byte Reload
                                        # xmm0 = mem[0],zero
	addsd	-72(%rbp), %xmm0
	movsd	%xmm0, -72(%rbp)
	movsd	-72(%rbp), %xmm0        # xmm0 = mem[0],zero
	movsd	-496(%rbp), %xmm1       # 8-byte Reload
                                        # xmm1 = mem[0],zero
	ucomisd	%xmm1, %xmm0
	jbe	.LBB6_20
# %bb.19:
	jmp	.LBB6_21
.LBB6_20:                               #   in Loop: Header=BB6_18 Depth=1
	jmp	.LBB6_18
.LBB6_21:
	movl	$1, %edi
	callq	fb_FileClose@PLT
	leaq	.L.str.66(%rip), %rdi
	movl	$15, %esi
	movl	%eax, -532(%rbp)        # 4-byte Spill
	callq	fb_StrAllocTempDescZEx@PLT
	xorl	%ecx, %ecx
	movq	%rax, -88(%rbp)
	movq	-88(%rbp), %rdi
	movl	%ecx, %esi
	movl	%ecx, %edx
	movl	%ecx, -536(%rbp)        # 4-byte Spill
	movl	$1, %r8d
	movl	-536(%rbp), %r9d        # 4-byte Reload
	callq	fb_FileOpen@PLT
	xorps	%xmm0, %xmm0
	movsd	%xmm0, -72(%rbp)
.LBB6_22:                               # =>This Inner Loop Header: Depth=1
	movsd	.LCPI6_24(%rip), %xmm0  # xmm0 = mem[0],zero
	movsd	.LCPI6_2(%rip), %xmm1   # xmm1 = mem[0],zero
	xorl	%eax, %eax
	movl	%eax, %esi
	movl	$1, %edi
	leaq	-17(%rbp), %rdx
	movl	$1, %ecx
	movsd	%xmm0, -544(%rbp)       # 8-byte Spill
	movsd	%xmm1, -552(%rbp)       # 8-byte Spill
	callq	fb_FileGetLarge@PLT
	movzbl	-17(%rbp), %edi
	cvtsi2sd	%edi, %xmm0
	movq	-56(%rbp), %rcx
	movsd	-72(%rbp), %xmm1        # xmm1 = mem[0],zero
	movsd	%xmm0, -560(%rbp)       # 8-byte Spill
	movaps	%xmm1, %xmm0
	movl	%eax, -564(%rbp)        # 4-byte Spill
	movq	%rcx, -576(%rbp)        # 8-byte Spill
	callq	nearbyint@PLT
	cvttsd2si	%xmm0, %rcx
	shlq	$3, %rcx
	movq	-576(%rbp), %rdx        # 8-byte Reload
	movsd	-560(%rbp), %xmm0       # 8-byte Reload
                                        # xmm0 = mem[0],zero
	movsd	%xmm0, 134479872(%rdx,%rcx)
	movsd	-552(%rbp), %xmm0       # 8-byte Reload
                                        # xmm0 = mem[0],zero
	addsd	-72(%rbp), %xmm0
	movsd	%xmm0, -72(%rbp)
	movsd	-72(%rbp), %xmm0        # xmm0 = mem[0],zero
	movsd	-544(%rbp), %xmm1       # 8-byte Reload
                                        # xmm1 = mem[0],zero
	ucomisd	%xmm1, %xmm0
	jbe	.LBB6_24
# %bb.23:
	jmp	.LBB6_25
.LBB6_24:                               #   in Loop: Header=BB6_22 Depth=1
	jmp	.LBB6_22
.LBB6_25:
	xorl	%eax, %eax
	movl	%eax, %esi
	movl	$1, %edi
	callq	fb_FileSeekLarge@PLT
	movsd	.LCPI6_25(%rip), %xmm0  # xmm0 = mem[0],zero
	movsd	%xmm0, -72(%rbp)
.LBB6_26:                               # =>This Inner Loop Header: Depth=1
	movsd	.LCPI6_26(%rip), %xmm0  # xmm0 = mem[0],zero
	movsd	.LCPI6_2(%rip), %xmm1   # xmm1 = mem[0],zero
	xorl	%eax, %eax
	movl	%eax, %esi
	movl	$1, %edi
	leaq	-17(%rbp), %rdx
	movl	$1, %ecx
	movsd	%xmm0, -584(%rbp)       # 8-byte Spill
	movsd	%xmm1, -592(%rbp)       # 8-byte Spill
	callq	fb_FileGetLarge@PLT
	movzbl	-17(%rbp), %edi
	cvtsi2sd	%edi, %xmm0
	movq	-56(%rbp), %rcx
	movsd	-72(%rbp), %xmm1        # xmm1 = mem[0],zero
	movsd	%xmm0, -600(%rbp)       # 8-byte Spill
	movaps	%xmm1, %xmm0
	movl	%eax, -604(%rbp)        # 4-byte Spill
	movq	%rcx, -616(%rbp)        # 8-byte Spill
	callq	nearbyint@PLT
	cvttsd2si	%xmm0, %rcx
	shlq	$3, %rcx
	movq	-616(%rbp), %rdx        # 8-byte Reload
	movsd	-600(%rbp), %xmm0       # 8-byte Reload
                                        # xmm0 = mem[0],zero
	movsd	%xmm0, 134479872(%rdx,%rcx)
	movsd	-592(%rbp), %xmm0       # 8-byte Reload
                                        # xmm0 = mem[0],zero
	addsd	-72(%rbp), %xmm0
	movsd	%xmm0, -72(%rbp)
	movsd	-72(%rbp), %xmm0        # xmm0 = mem[0],zero
	movsd	-584(%rbp), %xmm1       # 8-byte Reload
                                        # xmm1 = mem[0],zero
	ucomisd	%xmm1, %xmm0
	jbe	.LBB6_28
# %bb.27:
	jmp	.LBB6_29
.LBB6_28:                               #   in Loop: Header=BB6_26 Depth=1
	jmp	.LBB6_26
.LBB6_29:
	movl	$1, %edi
	callq	fb_FileClose@PLT
	movsd	.LCPI6_38(%rip), %xmm1  # xmm1 = mem[0],zero
	movq	-56(%rbp), %rdi
	xorps	%xmm0, %xmm0
	movl	%eax, -620(%rbp)        # 4-byte Spill
	callq	_ZN8MEMORY_T6POKE64Edd
	movsd	.LCPI6_2(%rip), %xmm0   # xmm0 = mem[0],zero
	movsd	.LCPI6_38(%rip), %xmm1  # xmm1 = mem[0],zero
	movq	-56(%rbp), %rdi
	callq	_ZN8MEMORY_T6POKE64Edd
	movsd	.LCPI6_39(%rip), %xmm0  # xmm0 = mem[0],zero
	movsd	.LCPI6_38(%rip), %xmm1  # xmm1 = mem[0],zero
	movq	-56(%rbp), %rdi
	callq	_ZN8MEMORY_T6POKE64Edd
	movsd	.LCPI6_37(%rip), %xmm0  # xmm0 = mem[0],zero
	movsd	.LCPI6_38(%rip), %xmm1  # xmm1 = mem[0],zero
	movq	-56(%rbp), %rdi
	callq	_ZN8MEMORY_T6POKE64Edd
	xorl	%eax, %eax
	movl	%eax, %esi
	leaq	.L.str.1(%rip), %rdi
	callq	fb_StrAllocTempDescZEx@PLT
	xorl	%ecx, %ecx
	movl	%ecx, %edi
	xorl	%ecx, %ecx
	movq	%rax, -96(%rbp)
	movq	-96(%rbp), %rax
	xorps	%xmm0, %xmm0
	movss	%xmm0, -624(%rbp)       # 4-byte Spill
	movss	-624(%rbp), %xmm1       # 4-byte Reload
                                        # xmm1 = mem[0],zero,zero,zero
	movl	$4278190080, %esi       # imm = 0xFF000000
	movl	%ecx, %edx
	movl	%ecx, -628(%rbp)        # 4-byte Spill
	movq	%rax, %rcx
	movl	-628(%rbp), %r8d        # 4-byte Reload
	movl	$1073741828, %r9d       # imm = 0x40000004
	callq	fb_GfxPaint@PLT
	movsd	.LCPI6_35(%rip), %xmm0  # xmm0 = mem[0],zero
	movsd	.LCPI6_36(%rip), %xmm1  # xmm1 = mem[0],zero
	movq	-56(%rbp), %rdi
	callq	_ZN8MEMORY_T6POKE64Edd
	movsd	.LCPI6_34(%rip), %xmm0  # xmm0 = mem[0],zero
	movq	-56(%rbp), %rdi
	xorps	%xmm1, %xmm1
	callq	_ZN8MEMORY_T6POKE64Edd
	movsd	.LCPI6_32(%rip), %xmm0  # xmm0 = mem[0],zero
	movsd	.LCPI6_33(%rip), %xmm1  # xmm1 = mem[0],zero
	movq	-56(%rbp), %rdi
	callq	_ZN8MEMORY_T6POKE64Edd
	movsd	.LCPI6_31(%rip), %xmm0  # xmm0 = mem[0],zero
	movq	-56(%rbp), %rdi
	xorps	%xmm1, %xmm1
	callq	_ZN8MEMORY_T6POKE64Edd
	movsd	.LCPI6_29(%rip), %xmm0  # xmm0 = mem[0],zero
	movsd	.LCPI6_30(%rip), %xmm1  # xmm1 = mem[0],zero
	movq	-56(%rbp), %rdi
	callq	_ZN8MEMORY_T6POKE64Edd
	movsd	.LCPI6_27(%rip), %xmm0  # xmm0 = mem[0],zero
	movsd	.LCPI6_28(%rip), %xmm1  # xmm1 = mem[0],zero
	movq	-56(%rbp), %rdi
	callq	_ZN8MEMORY_T6POKE64Edd
	xorl	%edx, %edx
	movl	%edx, %esi
	movl	$1, %edi
	movb	$0, %al
	callq	fb_CHR@PLT
	xorl	%r8d, %r8d
	movq	%rax, -104(%rbp)
	leaq	-48(%rbp), %rax
	movq	-104(%rbp), %rcx
	movq	%rax, %rdi
	movq	$-1, %rax
	movq	%rax, %rsi
	movq	%rcx, %rdx
	movq	%rax, %rcx
	callq	fb_StrInit@PLT
	xorl	%r8d, %r8d
	movq	%rax, -112(%rbp)
	movq	$0, -120(%rbp)
	leaq	-48(%rbp), %rax
	movq	%rax, %rdi
	movq	$-1, %rsi
	leaq	.L.str.67(%rip), %rdx
	movl	$6, %ecx
	callq	fb_StrAssign@PLT
	movq	$1, -120(%rbp)
.LBB6_30:                               # =>This Inner Loop Header: Depth=1
	xorl	%eax, %eax
	movsd	.LCPI6_40(%rip), %xmm0  # xmm0 = mem[0],zero
	movsd	.LCPI6_15(%rip), %xmm1  # xmm1 = mem[0],zero
	movq	-120(%rbp), %rsi
	leaq	-48(%rbp), %rdi
	movl	$1, %ecx
	movq	%rcx, %rdx
	movl	%eax, -632(%rbp)        # 4-byte Spill
	movsd	%xmm0, -640(%rbp)       # 8-byte Spill
	movsd	%xmm1, -648(%rbp)       # 8-byte Spill
	movq	%rcx, -656(%rbp)        # 8-byte Spill
	callq	fb_StrMid@PLT
	movq	%rax, -128(%rbp)
	movq	-128(%rbp), %rdi
	movq	-656(%rbp), %rsi        # 8-byte Reload
	callq	fb_ASC@PLT
	movl	%eax, -132(%rbp)
	movl	-132(%rbp), %eax
	movl	%eax, %ecx
	cvtsi2sd	%rcx, %xmm0
	movq	-56(%rbp), %rcx
	movq	-120(%rbp), %rdx
	shlq	$3, %rdx
	movsd	%xmm0, 134226736(%rcx,%rdx)
	movq	-56(%rbp), %rcx
	movq	-120(%rbp), %rdx
	shlq	$3, %rdx
	movsd	134226736(%rcx,%rdx), %xmm0 # xmm0 = mem[0],zero
	movsd	-648(%rbp), %xmm1       # 8-byte Reload
                                        # xmm1 = mem[0],zero
	ucomisd	%xmm1, %xmm0
	seta	%r8b
	andb	$1, %r8b
	movzbl	%r8b, %eax
	movl	-632(%rbp), %r9d        # 4-byte Reload
	subl	%eax, %r9d
	movslq	%r9d, %rcx
	movq	-56(%rbp), %rdx
	movq	-120(%rbp), %rsi
	shlq	$3, %rsi
	movsd	-640(%rbp), %xmm0       # 8-byte Reload
                                        # xmm0 = mem[0],zero
	ucomisd	134226736(%rdx,%rsi), %xmm0
	seta	%r8b
	andb	$1, %r8b
	movzbl	%r8b, %eax
	movl	-632(%rbp), %r9d        # 4-byte Reload
	subl	%eax, %r9d
	movslq	%r9d, %rdx
	andq	%rdx, %rcx
	cmpq	$0, %rcx
	jne	.LBB6_32
# %bb.31:                               #   in Loop: Header=BB6_30 Depth=1
	jmp	.LBB6_33
.LBB6_32:                               #   in Loop: Header=BB6_30 Depth=1
	jmp	.LBB6_37
.LBB6_33:                               #   in Loop: Header=BB6_30 Depth=1
	movsd	.LCPI6_2(%rip), %xmm0   # xmm0 = mem[0],zero
	cvtsi2sdq	-120(%rbp), %xmm1
	addsd	%xmm0, %xmm1
	movaps	%xmm1, %xmm0
	callq	nearbyint@PLT
	cvttsd2si	%xmm0, %rax
	movq	%rax, -120(%rbp)
	leaq	-48(%rbp), %rax
	movq	%rax, %rdi
	movq	$-1, %rsi
	callq	fb_StrLen@PLT
	movq	%rax, -144(%rbp)
	movq	-120(%rbp), %rax
	cmpq	-144(%rbp), %rax
	jle	.LBB6_35
# %bb.34:
	jmp	.LBB6_36
.LBB6_35:                               #   in Loop: Header=BB6_30 Depth=1
	jmp	.LBB6_30
.LBB6_36:
	jmp	.LBB6_38
.LBB6_37:                               #   in Loop: Header=BB6_30 Depth=1
	movsd	.LCPI6_41(%rip), %xmm0  # xmm0 = mem[0],zero
	movq	-56(%rbp), %rax
	movq	-120(%rbp), %rcx
	shlq	$3, %rcx
	addsd	134226736(%rax,%rcx), %xmm0
	movq	-56(%rbp), %rax
	movq	-120(%rbp), %rcx
	shlq	$3, %rcx
	movsd	%xmm0, 134226736(%rax,%rcx)
	jmp	.LBB6_30
.LBB6_38:
	xorl	%r8d, %r8d
	leaq	-48(%rbp), %rax
	movq	%rax, %rdi
	movq	$-1, %rsi
	leaq	.L.str.68(%rip), %rdx
	movl	$5, %ecx
	callq	fb_StrAssign@PLT
	movq	$1, -120(%rbp)
.LBB6_39:                               # =>This Inner Loop Header: Depth=1
	xorl	%eax, %eax
	movsd	.LCPI6_40(%rip), %xmm0  # xmm0 = mem[0],zero
	movsd	.LCPI6_15(%rip), %xmm1  # xmm1 = mem[0],zero
	movq	-120(%rbp), %rsi
	leaq	-48(%rbp), %rdi
	movl	$1, %ecx
	movq	%rcx, %rdx
	movl	%eax, -660(%rbp)        # 4-byte Spill
	movsd	%xmm0, -672(%rbp)       # 8-byte Spill
	movsd	%xmm1, -680(%rbp)       # 8-byte Spill
	movq	%rcx, -688(%rbp)        # 8-byte Spill
	callq	fb_StrMid@PLT
	movq	%rax, -152(%rbp)
	movq	-152(%rbp), %rdi
	movq	-688(%rbp), %rsi        # 8-byte Reload
	callq	fb_ASC@PLT
	movl	%eax, -156(%rbp)
	movl	-156(%rbp), %eax
	movl	%eax, %ecx
	cvtsi2sd	%rcx, %xmm0
	movq	-56(%rbp), %rcx
	movq	-120(%rbp), %rdx
	shlq	$3, %rdx
	movsd	%xmm0, 134226784(%rcx,%rdx)
	movq	-56(%rbp), %rcx
	movq	-120(%rbp), %rdx
	shlq	$3, %rdx
	movsd	134226784(%rcx,%rdx), %xmm0 # xmm0 = mem[0],zero
	movsd	-680(%rbp), %xmm1       # 8-byte Reload
                                        # xmm1 = mem[0],zero
	ucomisd	%xmm1, %xmm0
	seta	%r8b
	andb	$1, %r8b
	movzbl	%r8b, %eax
	movl	-660(%rbp), %r9d        # 4-byte Reload
	subl	%eax, %r9d
	movslq	%r9d, %rcx
	movq	-56(%rbp), %rdx
	movq	-120(%rbp), %rsi
	shlq	$3, %rsi
	movsd	-672(%rbp), %xmm0       # 8-byte Reload
                                        # xmm0 = mem[0],zero
	ucomisd	134226784(%rdx,%rsi), %xmm0
	seta	%r8b
	andb	$1, %r8b
	movzbl	%r8b, %eax
	movl	-660(%rbp), %r9d        # 4-byte Reload
	subl	%eax, %r9d
	movslq	%r9d, %rdx
	andq	%rdx, %rcx
	cmpq	$0, %rcx
	jne	.LBB6_41
# %bb.40:                               #   in Loop: Header=BB6_39 Depth=1
	jmp	.LBB6_42
.LBB6_41:                               #   in Loop: Header=BB6_39 Depth=1
	jmp	.LBB6_46
.LBB6_42:                               #   in Loop: Header=BB6_39 Depth=1
	movsd	.LCPI6_2(%rip), %xmm0   # xmm0 = mem[0],zero
	cvtsi2sdq	-120(%rbp), %xmm1
	addsd	%xmm0, %xmm1
	movaps	%xmm1, %xmm0
	callq	nearbyint@PLT
	cvttsd2si	%xmm0, %rax
	movq	%rax, -120(%rbp)
	leaq	-48(%rbp), %rax
	movq	%rax, %rdi
	movq	$-1, %rsi
	callq	fb_StrLen@PLT
	movq	%rax, -168(%rbp)
	movq	-120(%rbp), %rax
	cmpq	-168(%rbp), %rax
	jle	.LBB6_44
# %bb.43:
	jmp	.LBB6_45
.LBB6_44:                               #   in Loop: Header=BB6_39 Depth=1
	jmp	.LBB6_39
.LBB6_45:
	jmp	.LBB6_47
.LBB6_46:                               #   in Loop: Header=BB6_39 Depth=1
	movsd	.LCPI6_41(%rip), %xmm0  # xmm0 = mem[0],zero
	movq	-56(%rbp), %rax
	movq	-120(%rbp), %rcx
	shlq	$3, %rcx
	addsd	134226784(%rax,%rcx), %xmm0
	movq	-56(%rbp), %rax
	movq	-120(%rbp), %rcx
	shlq	$3, %rcx
	movsd	%xmm0, 134226784(%rax,%rcx)
	jmp	.LBB6_39
.LBB6_47:
	xorl	%r8d, %r8d
	movsd	.LCPI6_41(%rip), %xmm0  # xmm0 = mem[0],zero
	movsd	.LCPI6_42(%rip), %xmm1  # xmm1 = mem[0],zero
	movq	-56(%rbp), %rax
	movsd	%xmm1, 134226920(%rax)
	movq	-56(%rbp), %rax
	movsd	%xmm0, 134226928(%rax)
	movq	-56(%rbp), %rax
	movsd	%xmm0, 134226936(%rax)
	leaq	-48(%rbp), %rax
	movq	%rax, %rdi
	movq	$-1, %rsi
	leaq	.L.str.69(%rip), %rdx
	movl	$10, %ecx
	callq	fb_StrAssign@PLT
	movq	$1, -120(%rbp)
.LBB6_48:                               # =>This Inner Loop Header: Depth=1
	xorl	%eax, %eax
	movsd	.LCPI6_40(%rip), %xmm0  # xmm0 = mem[0],zero
	movsd	.LCPI6_15(%rip), %xmm1  # xmm1 = mem[0],zero
	movq	-120(%rbp), %rsi
	leaq	-48(%rbp), %rdi
	movl	$1, %ecx
	movq	%rcx, %rdx
	movl	%eax, -692(%rbp)        # 4-byte Spill
	movsd	%xmm0, -704(%rbp)       # 8-byte Spill
	movsd	%xmm1, -712(%rbp)       # 8-byte Spill
	movq	%rcx, -720(%rbp)        # 8-byte Spill
	callq	fb_StrMid@PLT
	movq	%rax, -176(%rbp)
	movq	-176(%rbp), %rdi
	movq	-720(%rbp), %rsi        # 8-byte Reload
	callq	fb_ASC@PLT
	movl	%eax, -180(%rbp)
	movl	-180(%rbp), %eax
	movl	%eax, %ecx
	cvtsi2sd	%rcx, %xmm0
	movq	-56(%rbp), %rcx
	movq	-120(%rbp), %rdx
	shlq	$3, %rdx
	movsd	%xmm0, 134226936(%rcx,%rdx)
	movq	-56(%rbp), %rcx
	movq	-120(%rbp), %rdx
	shlq	$3, %rdx
	movsd	134226936(%rcx,%rdx), %xmm0 # xmm0 = mem[0],zero
	movsd	-712(%rbp), %xmm1       # 8-byte Reload
                                        # xmm1 = mem[0],zero
	ucomisd	%xmm1, %xmm0
	seta	%r8b
	andb	$1, %r8b
	movzbl	%r8b, %eax
	movl	-692(%rbp), %r9d        # 4-byte Reload
	subl	%eax, %r9d
	movslq	%r9d, %rcx
	movq	-56(%rbp), %rdx
	movq	-120(%rbp), %rsi
	shlq	$3, %rsi
	movsd	-704(%rbp), %xmm0       # 8-byte Reload
                                        # xmm0 = mem[0],zero
	ucomisd	134226936(%rdx,%rsi), %xmm0
	seta	%r8b
	andb	$1, %r8b
	movzbl	%r8b, %eax
	movl	-692(%rbp), %r9d        # 4-byte Reload
	subl	%eax, %r9d
	movslq	%r9d, %rdx
	andq	%rdx, %rcx
	cmpq	$0, %rcx
	jne	.LBB6_50
# %bb.49:                               #   in Loop: Header=BB6_48 Depth=1
	jmp	.LBB6_51
.LBB6_50:                               #   in Loop: Header=BB6_48 Depth=1
	jmp	.LBB6_55
.LBB6_51:                               #   in Loop: Header=BB6_48 Depth=1
	movsd	.LCPI6_2(%rip), %xmm0   # xmm0 = mem[0],zero
	cvtsi2sdq	-120(%rbp), %xmm1
	addsd	%xmm0, %xmm1
	movaps	%xmm1, %xmm0
	callq	nearbyint@PLT
	cvttsd2si	%xmm0, %rax
	movq	%rax, -120(%rbp)
	leaq	-48(%rbp), %rax
	movq	%rax, %rdi
	movq	$-1, %rsi
	callq	fb_StrLen@PLT
	movq	%rax, -192(%rbp)
	movq	-120(%rbp), %rax
	cmpq	-192(%rbp), %rax
	jle	.LBB6_53
# %bb.52:
	jmp	.LBB6_54
.LBB6_53:                               #   in Loop: Header=BB6_48 Depth=1
	jmp	.LBB6_48
.LBB6_54:
	jmp	.LBB6_56
.LBB6_55:                               #   in Loop: Header=BB6_48 Depth=1
	movsd	.LCPI6_41(%rip), %xmm0  # xmm0 = mem[0],zero
	movq	-56(%rbp), %rax
	movq	-120(%rbp), %rcx
	shlq	$3, %rcx
	addsd	134226936(%rax,%rcx), %xmm0
	movq	-56(%rbp), %rax
	movq	-120(%rbp), %rcx
	shlq	$3, %rcx
	movsd	%xmm0, 134226936(%rax,%rcx)
	jmp	.LBB6_48
.LBB6_56:
	xorl	%r8d, %r8d
	movsd	.LCPI6_41(%rip), %xmm0  # xmm0 = mem[0],zero
	movq	-56(%rbp), %rax
	movsd	%xmm0, 134227016(%rax)
	leaq	-48(%rbp), %rax
	movq	%rax, %rdi
	movq	$-1, %rsi
	leaq	.L.str.70(%rip), %rdx
	movl	$6, %ecx
	callq	fb_StrAssign@PLT
	movq	$1, -120(%rbp)
.LBB6_57:                               # =>This Inner Loop Header: Depth=1
	xorl	%eax, %eax
	movsd	.LCPI6_40(%rip), %xmm0  # xmm0 = mem[0],zero
	movsd	.LCPI6_15(%rip), %xmm1  # xmm1 = mem[0],zero
	movq	-120(%rbp), %rsi
	leaq	-48(%rbp), %rdi
	movl	$1, %ecx
	movq	%rcx, %rdx
	movl	%eax, -724(%rbp)        # 4-byte Spill
	movsd	%xmm0, -736(%rbp)       # 8-byte Spill
	movsd	%xmm1, -744(%rbp)       # 8-byte Spill
	movq	%rcx, -752(%rbp)        # 8-byte Spill
	callq	fb_StrMid@PLT
	movq	%rax, -200(%rbp)
	movq	-200(%rbp), %rdi
	movq	-752(%rbp), %rsi        # 8-byte Reload
	callq	fb_ASC@PLT
	movl	%eax, -204(%rbp)
	movl	-204(%rbp), %eax
	movl	%eax, %ecx
	cvtsi2sd	%rcx, %xmm0
	movq	-56(%rbp), %rcx
	movq	-120(%rbp), %rdx
	shlq	$3, %rdx
	movsd	%xmm0, 134226688(%rcx,%rdx)
	movq	-56(%rbp), %rcx
	movq	-120(%rbp), %rdx
	shlq	$3, %rdx
	movsd	134226688(%rcx,%rdx), %xmm0 # xmm0 = mem[0],zero
	movsd	-744(%rbp), %xmm1       # 8-byte Reload
                                        # xmm1 = mem[0],zero
	ucomisd	%xmm1, %xmm0
	seta	%r8b
	andb	$1, %r8b
	movzbl	%r8b, %eax
	movl	-724(%rbp), %r9d        # 4-byte Reload
	subl	%eax, %r9d
	movslq	%r9d, %rcx
	movq	-56(%rbp), %rdx
	movq	-120(%rbp), %rsi
	shlq	$3, %rsi
	movsd	-736(%rbp), %xmm0       # 8-byte Reload
                                        # xmm0 = mem[0],zero
	ucomisd	134226688(%rdx,%rsi), %xmm0
	seta	%r8b
	andb	$1, %r8b
	movzbl	%r8b, %eax
	movl	-724(%rbp), %r9d        # 4-byte Reload
	subl	%eax, %r9d
	movslq	%r9d, %rdx
	andq	%rdx, %rcx
	cmpq	$0, %rcx
	jne	.LBB6_59
# %bb.58:                               #   in Loop: Header=BB6_57 Depth=1
	jmp	.LBB6_60
.LBB6_59:                               #   in Loop: Header=BB6_57 Depth=1
	jmp	.LBB6_67
.LBB6_60:                               #   in Loop: Header=BB6_57 Depth=1
	xorl	%eax, %eax
	movsd	.LCPI6_40(%rip), %xmm0  # xmm0 = mem[0],zero
	movsd	.LCPI6_15(%rip), %xmm1  # xmm1 = mem[0],zero
	movq	-120(%rbp), %rsi
	leaq	-48(%rbp), %rdi
	movl	$1, %ecx
	movq	%rcx, %rdx
	movl	%eax, -756(%rbp)        # 4-byte Spill
	movsd	%xmm0, -768(%rbp)       # 8-byte Spill
	movsd	%xmm1, -776(%rbp)       # 8-byte Spill
	movq	%rcx, -784(%rbp)        # 8-byte Spill
	callq	fb_StrMid@PLT
	movq	%rax, -216(%rbp)
	movq	-216(%rbp), %rdi
	movq	-784(%rbp), %rsi        # 8-byte Reload
	callq	fb_ASC@PLT
	movl	%eax, -220(%rbp)
	movl	-220(%rbp), %eax
	movl	%eax, %ecx
	cvtsi2sd	%rcx, %xmm0
	movq	-56(%rbp), %rcx
	movq	-120(%rbp), %rdx
	shlq	$3, %rdx
	movsd	%xmm0, 134227016(%rcx,%rdx)
	movq	-56(%rbp), %rcx
	movq	-120(%rbp), %rdx
	shlq	$3, %rdx
	movsd	134227016(%rcx,%rdx), %xmm0 # xmm0 = mem[0],zero
	movsd	-776(%rbp), %xmm1       # 8-byte Reload
                                        # xmm1 = mem[0],zero
	ucomisd	%xmm1, %xmm0
	seta	%r8b
	andb	$1, %r8b
	movzbl	%r8b, %eax
	movl	-756(%rbp), %r9d        # 4-byte Reload
	subl	%eax, %r9d
	movslq	%r9d, %rcx
	movq	-56(%rbp), %rdx
	movq	-120(%rbp), %rsi
	shlq	$3, %rsi
	movsd	-768(%rbp), %xmm0       # 8-byte Reload
                                        # xmm0 = mem[0],zero
	ucomisd	134227016(%rdx,%rsi), %xmm0
	seta	%r8b
	andb	$1, %r8b
	movzbl	%r8b, %eax
	movl	-756(%rbp), %r9d        # 4-byte Reload
	subl	%eax, %r9d
	movslq	%r9d, %rdx
	andq	%rdx, %rcx
	cmpq	$0, %rcx
	jne	.LBB6_62
# %bb.61:                               #   in Loop: Header=BB6_57 Depth=1
	jmp	.LBB6_63
.LBB6_62:                               #   in Loop: Header=BB6_57 Depth=1
	jmp	.LBB6_68
.LBB6_63:                               #   in Loop: Header=BB6_57 Depth=1
	movsd	.LCPI6_2(%rip), %xmm0   # xmm0 = mem[0],zero
	cvtsi2sdq	-120(%rbp), %xmm1
	addsd	%xmm0, %xmm1
	movaps	%xmm1, %xmm0
	callq	nearbyint@PLT
	cvttsd2si	%xmm0, %rax
	movq	%rax, -120(%rbp)
	leaq	-48(%rbp), %rax
	movq	%rax, %rdi
	movq	$-1, %rsi
	callq	fb_StrLen@PLT
	movq	%rax, -232(%rbp)
	movq	-120(%rbp), %rax
	cmpq	-232(%rbp), %rax
	jle	.LBB6_65
# %bb.64:
	jmp	.LBB6_66
.LBB6_65:                               #   in Loop: Header=BB6_57 Depth=1
	jmp	.LBB6_57
.LBB6_66:
	jmp	.LBB6_69
.LBB6_67:                               #   in Loop: Header=BB6_57 Depth=1
	movsd	.LCPI6_41(%rip), %xmm0  # xmm0 = mem[0],zero
	movq	-56(%rbp), %rax
	movq	-120(%rbp), %rcx
	shlq	$3, %rcx
	addsd	134226688(%rax,%rcx), %xmm0
	movq	-56(%rbp), %rax
	movq	-120(%rbp), %rcx
	shlq	$3, %rcx
	movsd	%xmm0, 134226688(%rax,%rcx)
	jmp	.LBB6_57
.LBB6_68:                               #   in Loop: Header=BB6_57 Depth=1
	movsd	.LCPI6_41(%rip), %xmm0  # xmm0 = mem[0],zero
	movq	-56(%rbp), %rax
	movq	-120(%rbp), %rcx
	shlq	$3, %rcx
	addsd	134227016(%rax,%rcx), %xmm0
	movq	-56(%rbp), %rax
	movq	-120(%rbp), %rcx
	shlq	$3, %rcx
	movsd	%xmm0, 134227016(%rax,%rcx)
	jmp	.LBB6_57
.LBB6_69:
	xorl	%r8d, %r8d
	movsd	.LCPI6_42(%rip), %xmm0  # xmm0 = mem[0],zero
	movsd	.LCPI6_41(%rip), %xmm1  # xmm1 = mem[0],zero
	movsd	.LCPI6_43(%rip), %xmm2  # xmm2 = mem[0],zero
	movsd	.LCPI6_44(%rip), %xmm3  # xmm3 = mem[0],zero
	movq	-56(%rbp), %rax
	movsd	%xmm1, 134227064(%rax)
	movq	-56(%rbp), %rax
	movsd	%xmm3, 134227072(%rax)
	movq	-56(%rbp), %rax
	movsd	%xmm2, 134227080(%rax)
	movq	-56(%rbp), %rax
	movsd	%xmm1, 134227088(%rax)
	movq	-56(%rbp), %rax
	movsd	%xmm0, 134227096(%rax)
	leaq	-48(%rbp), %rax
	movq	%rax, %rdi
	movq	$-1, %rsi
	leaq	.L.str.71(%rip), %rdx
	movl	$12, %ecx
	callq	fb_StrAssign@PLT
	movq	$1, -120(%rbp)
.LBB6_70:                               # =>This Inner Loop Header: Depth=1
	xorl	%eax, %eax
	movsd	.LCPI6_40(%rip), %xmm0  # xmm0 = mem[0],zero
	movsd	.LCPI6_15(%rip), %xmm1  # xmm1 = mem[0],zero
	movq	-120(%rbp), %rsi
	leaq	-48(%rbp), %rdi
	movl	$1, %ecx
	movq	%rcx, %rdx
	movl	%eax, -788(%rbp)        # 4-byte Spill
	movsd	%xmm0, -800(%rbp)       # 8-byte Spill
	movsd	%xmm1, -808(%rbp)       # 8-byte Spill
	movq	%rcx, -816(%rbp)        # 8-byte Spill
	callq	fb_StrMid@PLT
	movq	%rax, -240(%rbp)
	movq	-240(%rbp), %rdi
	movq	-816(%rbp), %rsi        # 8-byte Reload
	callq	fb_ASC@PLT
	movl	%eax, -244(%rbp)
	movl	-244(%rbp), %eax
	movl	%eax, %ecx
	cvtsi2sd	%rcx, %xmm0
	movq	-56(%rbp), %rcx
	movq	-120(%rbp), %rdx
	shlq	$3, %rdx
	movsd	%xmm0, 134227184(%rcx,%rdx)
	movq	-56(%rbp), %rcx
	movq	-120(%rbp), %rdx
	shlq	$3, %rdx
	movsd	134227112(%rcx,%rdx), %xmm0 # xmm0 = mem[0],zero
	movsd	-808(%rbp), %xmm1       # 8-byte Reload
                                        # xmm1 = mem[0],zero
	ucomisd	%xmm1, %xmm0
	seta	%r8b
	andb	$1, %r8b
	movzbl	%r8b, %eax
	movl	-788(%rbp), %r9d        # 4-byte Reload
	subl	%eax, %r9d
	movslq	%r9d, %rcx
	movq	-56(%rbp), %rdx
	movq	-120(%rbp), %rsi
	shlq	$3, %rsi
	movsd	-800(%rbp), %xmm0       # 8-byte Reload
                                        # xmm0 = mem[0],zero
	ucomisd	134227112(%rdx,%rsi), %xmm0
	seta	%r8b
	andb	$1, %r8b
	movzbl	%r8b, %eax
	movl	-788(%rbp), %r9d        # 4-byte Reload
	subl	%eax, %r9d
	movslq	%r9d, %rdx
	andq	%rdx, %rcx
	cmpq	$0, %rcx
	jne	.LBB6_72
# %bb.71:                               #   in Loop: Header=BB6_70 Depth=1
	jmp	.LBB6_73
.LBB6_72:                               #   in Loop: Header=BB6_70 Depth=1
	jmp	.LBB6_74
.LBB6_73:                               #   in Loop: Header=BB6_70 Depth=1
	jmp	.LBB6_74
.LBB6_74:                               #   in Loop: Header=BB6_70 Depth=1
	movsd	.LCPI6_2(%rip), %xmm0   # xmm0 = mem[0],zero
	cvtsi2sdq	-120(%rbp), %xmm1
	addsd	%xmm0, %xmm1
	movaps	%xmm1, %xmm0
	callq	nearbyint@PLT
	cvttsd2si	%xmm0, %rax
	movq	%rax, -120(%rbp)
	leaq	-48(%rbp), %rax
	movq	%rax, %rdi
	movq	$-1, %rsi
	callq	fb_StrLen@PLT
	movq	%rax, -256(%rbp)
	movq	-120(%rbp), %rax
	cmpq	-256(%rbp), %rax
	jle	.LBB6_76
# %bb.75:
	jmp	.LBB6_77
.LBB6_76:                               #   in Loop: Header=BB6_70 Depth=1
	jmp	.LBB6_70
.LBB6_77:
	jmp	.LBB6_78
.LBB6_78:
	movq	-56(%rbp), %rax
	movsd	(%rax), %xmm0           # xmm0 = mem[0],zero
	callq	nearbyint@PLT
	cvttsd2si	%xmm0, %edi
	callq	fb_GetMemAvail@PLT
	movq	%rax, -264(%rbp)
	movq	-264(%rbp), %rax
	shrq	$30, %rax
	movq	%rax, %rdi
	callq	fb_ULongintToStr@PLT
	xorl	%r8d, %r8d
	movq	%rax, -272(%rbp)
	leaq	-48(%rbp), %rax
	movq	-272(%rbp), %rcx
	movq	%rax, %rdi
	movq	$-1, %rax
	movq	%rax, %rsi
	movq	%rcx, %rdx
	movq	%rax, %rcx
	callq	fb_StrAssign@PLT
	movq	%rax, -280(%rbp)
	leaq	-48(%rbp), %rax
	movq	%rax, %rdi
	movq	$-1, %rsi
	callq	fb_StrLen@PLT
	movq	%rax, -288(%rbp)
	cmpq	$1, -288(%rbp)
	je	.LBB6_80
# %bb.79:
	jmp	.LBB6_81
.LBB6_80:
	jmp	.LBB6_85
.LBB6_81:
	leaq	-48(%rbp), %rax
	movq	%rax, %rdi
	movq	$-1, %rsi
	callq	fb_StrLen@PLT
	movq	%rax, -296(%rbp)
	cmpq	$2, -296(%rbp)
	je	.LBB6_83
# %bb.82:
	jmp	.LBB6_84
.LBB6_83:
	jmp	.LBB6_86
.LBB6_84:
	jmp	.LBB6_85
.LBB6_85:
	movsd	.LCPI6_45(%rip), %xmm0  # xmm0 = mem[0],zero
	movsd	.LCPI6_46(%rip), %xmm1  # xmm1 = mem[0],zero
	leaq	-48(%rbp), %rdi
	movl	$1, %esi
	movsd	%xmm0, -824(%rbp)       # 8-byte Spill
	movsd	%xmm1, -832(%rbp)       # 8-byte Spill
	callq	fb_ASC@PLT
	movl	%eax, -300(%rbp)
	movl	-300(%rbp), %eax
	movl	%eax, %ecx
	cvtsi2sd	%rcx, %xmm0
	movq	-56(%rbp), %rcx
	movsd	%xmm0, 134227160(%rcx)
	movq	-56(%rbp), %rcx
	movsd	-832(%rbp), %xmm0       # 8-byte Reload
                                        # xmm0 = mem[0],zero
	movsd	%xmm0, 134227168(%rcx)
	movq	-56(%rbp), %rcx
	movsd	-824(%rbp), %xmm1       # 8-byte Reload
                                        # xmm1 = mem[0],zero
	movsd	%xmm1, 134227176(%rcx)
	jmp	.LBB6_91
.LBB6_86:
	xorl	%r8d, %r8d
	movsd	.LCPI6_45(%rip), %xmm0  # xmm0 = mem[0],zero
	movsd	.LCPI6_46(%rip), %xmm1  # xmm1 = mem[0],zero
	leaq	-48(%rbp), %rax
	movl	$1, %ecx
	movq	%rax, %rdi
	movq	%rcx, %rsi
	movq	%rcx, %rdx
	movl	%r8d, -836(%rbp)        # 4-byte Spill
	movsd	%xmm0, -848(%rbp)       # 8-byte Spill
	movsd	%xmm1, -856(%rbp)       # 8-byte Spill
	movq	%rax, -864(%rbp)        # 8-byte Spill
	movq	%rcx, -872(%rbp)        # 8-byte Spill
	callq	fb_StrMid@PLT
	movq	%rax, -312(%rbp)
	movq	-312(%rbp), %rdi
	movq	-872(%rbp), %rsi        # 8-byte Reload
	callq	fb_ASC@PLT
	movl	%eax, -316(%rbp)
	movl	-316(%rbp), %eax
	movl	%eax, %ecx
	cvtsi2sd	%rcx, %xmm0
	movq	-56(%rbp), %rcx
	movsd	%xmm0, 134227160(%rcx)
	movl	$2, %esi
	movq	-864(%rbp), %rdi        # 8-byte Reload
	movq	-872(%rbp), %rdx        # 8-byte Reload
	callq	fb_StrMid@PLT
	movq	%rax, -328(%rbp)
	movq	-328(%rbp), %rdi
	movq	-872(%rbp), %rsi        # 8-byte Reload
	callq	fb_ASC@PLT
	movl	%eax, -332(%rbp)
	movl	-332(%rbp), %eax
	movl	%eax, %ecx
	cvtsi2sd	%rcx, %xmm0
	movq	-56(%rbp), %rcx
	movsd	%xmm0, 134227168(%rcx)
	movq	-56(%rbp), %rcx
	movsd	-856(%rbp), %xmm0       # 8-byte Reload
                                        # xmm0 = mem[0],zero
	movsd	%xmm0, 134227176(%rcx)
	movq	-56(%rbp), %rcx
	movsd	-848(%rbp), %xmm1       # 8-byte Reload
                                        # xmm1 = mem[0],zero
	movsd	%xmm1, 134227184(%rcx)
	leaq	-48(%rbp), %rcx
	movq	%rcx, %rdi
	movq	$-1, %rsi
	leaq	.L.str.71(%rip), %rdx
	movl	$12, %ecx
	movl	-836(%rbp), %r8d        # 4-byte Reload
	callq	fb_StrAssign@PLT
	movq	$1, -120(%rbp)
.LBB6_87:                               # =>This Inner Loop Header: Depth=1
	movsd	.LCPI6_2(%rip), %xmm0   # xmm0 = mem[0],zero
	movq	-120(%rbp), %rsi
	leaq	-48(%rbp), %rdi
	movl	$1, %eax
	movq	%rax, %rdx
	movsd	%xmm0, -880(%rbp)       # 8-byte Spill
	movq	%rax, -888(%rbp)        # 8-byte Spill
	callq	fb_StrMid@PLT
	movq	%rax, -344(%rbp)
	movq	-344(%rbp), %rdi
	movq	-888(%rbp), %rsi        # 8-byte Reload
	callq	fb_ASC@PLT
	movl	%eax, -348(%rbp)
	movl	-348(%rbp), %eax
	movl	%eax, %ecx
	cvtsi2sd	%rcx, %xmm0
	movq	-56(%rbp), %rcx
	movq	-120(%rbp), %rdx
	shlq	$3, %rdx
	movsd	%xmm0, 134227184(%rcx,%rdx)
	cvtsi2sdq	-120(%rbp), %xmm0
	movsd	-880(%rbp), %xmm1       # 8-byte Reload
                                        # xmm1 = mem[0],zero
	addsd	%xmm1, %xmm0
	callq	nearbyint@PLT
	cvttsd2si	%xmm0, %rcx
	movq	%rcx, -120(%rbp)
	leaq	-48(%rbp), %rcx
	movq	%rcx, %rdi
	movq	$-1, %rsi
	callq	fb_StrLen@PLT
	movq	%rax, -360(%rbp)
	movq	-120(%rbp), %rax
	cmpq	-360(%rbp), %rax
	jle	.LBB6_89
# %bb.88:
	jmp	.LBB6_90
.LBB6_89:                               #   in Loop: Header=BB6_87 Depth=1
	jmp	.LBB6_87
.LBB6_90:
	movsd	.LCPI6_41(%rip), %xmm0  # xmm0 = mem[0],zero
	movq	-56(%rbp), %rax
	movsd	%xmm0, 134227192(%rax)
	movq	-56(%rbp), %rax
	movsd	%xmm0, 134227224(%rax)
.LBB6_91:
	movsd	.LCPI6_4(%rip), %xmm0   # xmm0 = mem[0],zero
	movsd	.LCPI6_47(%rip), %xmm1  # xmm1 = mem[0],zero
	movq	-56(%rbp), %rax
	movsd	%xmm1, 134228392(%rax)
	movq	-56(%rbp), %rax
	movsd	%xmm0, 134244040(%rax)
	movq	-56(%rbp), %rax
	movsd	%xmm0, 134244048(%rax)
	leaq	-48(%rbp), %rdi
	callq	fb_StrDelete@PLT
# %bb.92:
	movq	%fs:40, %rax
	movq	-8(%rbp), %rcx
	cmpq	%rcx, %rax
	jne	.LBB6_94
# %bb.93:                               # %SP_return
	addq	$896, %rsp              # imm = 0x380
	popq	%rbp
	.cfi_def_cfa %rsp, 8
	retq
.LBB6_94:                               # %CallStackCheckFailBlk
	.cfi_def_cfa %rbp, 16
	callq	__stack_chk_fail@PLT
.Lfunc_end6:
	.size	_ZN8MEMORY_TC1Ev, .Lfunc_end6-_ZN8MEMORY_TC1Ev
	.cfi_endproc
                                        # -- End function
	.globl	_ZN7CPU6510C1EP8MEMORY_T # -- Begin function _ZN7CPU6510C1EP8MEMORY_T
	.p2align	4, 0x90
	.type	_ZN7CPU6510C1EP8MEMORY_T,@function
_ZN7CPU6510C1EP8MEMORY_T:               # @_ZN7CPU6510C1EP8MEMORY_T
	.cfi_startproc
# %bb.0:
	pushq	%rbp
	.cfi_def_cfa_offset 16
	.cfi_offset %rbp, -16
	movq	%rsp, %rbp
	.cfi_def_cfa_register %rbp
	subq	$64, %rsp
	movq	%rdi, -8(%rbp)
	movq	%rsi, -16(%rbp)
# %bb.1:
	leaq	label$5073(%rip), %rax
	xorl	%ecx, %ecx
	movq	-8(%rbp), %rdx
	movq	%rdx, %rdi
	movl	%ecx, %esi
	movl	$1, %edx
	movq	%rdx, -40(%rbp)         # 8-byte Spill
	movq	%rax, -48(%rbp)         # 8-byte Spill
	movl	%ecx, -52(%rbp)         # 4-byte Spill
	callq	memset@PLT
	movq	-8(%rbp), %rax
	addq	$1, %rax
	movq	%rax, %rdi
	movl	-52(%rbp), %esi         # 4-byte Reload
	movq	-40(%rbp), %rdx         # 8-byte Reload
	callq	memset@PLT
	movq	-8(%rbp), %rax
	addq	$2, %rax
	movq	%rax, %rdi
	movl	-52(%rbp), %esi         # 4-byte Reload
	movq	-40(%rbp), %rdx         # 8-byte Reload
	callq	memset@PLT
	movq	-8(%rbp), %rax
	addq	$3, %rax
	movq	%rax, %rdi
	movl	-52(%rbp), %esi         # 4-byte Reload
	movq	-40(%rbp), %rdx         # 8-byte Reload
	callq	memset@PLT
	movq	-8(%rbp), %rax
	addq	$4, %rax
	movq	%rax, %rdi
	movl	-52(%rbp), %esi         # 4-byte Reload
	movl	$2, %eax
	movq	%rax, %rdx
	movq	%rax, -64(%rbp)         # 8-byte Spill
	callq	memset@PLT
	movq	-8(%rbp), %rax
	addq	$6, %rax
	movq	%rax, %rdi
	movl	-52(%rbp), %esi         # 4-byte Reload
	movq	-64(%rbp), %rdx         # 8-byte Reload
	callq	memset@PLT
	movq	-8(%rbp), %rax
	addq	$8, %rax
	movq	%rax, %rdi
	movl	-52(%rbp), %esi         # 4-byte Reload
	movl	$8, %edx
	callq	memset@PLT
	movq	-8(%rbp), %rax
	addq	$16, %rax
	movq	%rax, %rdi
	movl	-52(%rbp), %esi         # 4-byte Reload
	movl	$56, %edx
	callq	memset@PLT
	movq	-8(%rbp), %rax
	addq	$72, %rax
	movq	%rax, %rdi
	movl	-52(%rbp), %esi         # 4-byte Reload
	movl	$14336, %edx            # imm = 0x3800
	callq	memset@PLT
	movq	-8(%rbp), %rax
	addq	$14408, %rax            # imm = 0x3848
	movq	%rax, %rdi
	movl	-52(%rbp), %esi         # 4-byte Reload
	movl	$312, %edx              # imm = 0x138
	callq	memset@PLT
	movq	-16(%rbp), %rax
	movq	-8(%rbp), %rdx
	movq	%rax, 8(%rdx)
	movq	$0, -24(%rbp)
	movq	-48(%rbp), %rdi         # 8-byte Reload
	callq	fb_DataRestore@PLT
	movq	$0, -24(%rbp)
.LBB7_2:                                # =>This Inner Loop Header: Depth=1
	movq	-8(%rbp), %rax
	imulq	$56, -24(%rbp), %rcx
	addq	%rcx, %rax
	addq	$72, %rax
	movq	%rax, -32(%rbp)
	movq	-32(%rbp), %rax
	movq	%rax, %rdi
	callq	fb_DataReadULongint@PLT
	xorl	%edx, %edx
	movq	-32(%rbp), %rax
	addq	$8, %rax
	movq	%rax, %rdi
	movl	$4, %esi
	callq	fb_DataReadStr@PLT
	movq	-32(%rbp), %rax
	addq	$16, %rax
	movq	%rax, %rdi
	callq	fb_DataReadULongint@PLT
	movq	-32(%rbp), %rax
	addq	$24, %rax
	movq	%rax, %rdi
	callq	fb_DataReadULongint@PLT
	movq	-32(%rbp), %rax
	addq	$32, %rax
	movq	%rax, %rdi
	callq	fb_DataReadULongint@PLT
	movq	-32(%rbp), %rax
	addq	$48, %rax
	movq	%rax, %rdi
	callq	fb_DataReadLongint@PLT
# %bb.3:                                #   in Loop: Header=BB7_2 Depth=1
	movq	-24(%rbp), %rax
	addq	$1, %rax
	movq	%rax, -24(%rbp)
# %bb.4:                                #   in Loop: Header=BB7_2 Depth=1
	cmpq	$255, -24(%rbp)
	jg	.LBB7_6
# %bb.5:                                #   in Loop: Header=BB7_2 Depth=1
	jmp	.LBB7_2
.LBB7_6:
	jmp	.LBB7_7
.LBB7_7:
	leaq	label$5079(%rip), %rax
	movq	%rax, %rdi
	callq	fb_DataRestore@PLT
	movq	$0, -24(%rbp)
.LBB7_8:                                # =>This Inner Loop Header: Depth=1
	xorl	%edx, %edx
	movq	-8(%rbp), %rax
	imulq	$24, -24(%rbp), %rcx
	addq	%rcx, %rax
	addq	$14408, %rax            # imm = 0x3848
	movq	%rax, %rdi
	movq	$-1, %rsi
	callq	fb_DataReadStr@PLT
# %bb.9:                                #   in Loop: Header=BB7_8 Depth=1
	movq	-24(%rbp), %rax
	addq	$1, %rax
	movq	%rax, -24(%rbp)
# %bb.10:                               #   in Loop: Header=BB7_8 Depth=1
	cmpq	$12, -24(%rbp)
	jg	.LBB7_12
# %bb.11:                               #   in Loop: Header=BB7_8 Depth=1
	jmp	.LBB7_8
.LBB7_12:
	jmp	.LBB7_13
.LBB7_13:
	movq	-8(%rbp), %rax
	movb	$1, 7(%rax)
	movq	-8(%rbp), %rax
	movw	$-798, 4(%rax)          # imm = 0xFCE2
# %bb.14:
	addq	$64, %rsp
	popq	%rbp
	.cfi_def_cfa %rsp, 8
	retq
.Lfunc_end7:
	.size	_ZN7CPU6510C1EP8MEMORY_T, .Lfunc_end7-_ZN7CPU6510C1EP8MEMORY_T
	.cfi_endproc
                                        # -- End function
	.globl	_ZN5C64_TD1Ev           # -- Begin function _ZN5C64_TD1Ev
	.p2align	4, 0x90
	.type	_ZN5C64_TD1Ev,@function
_ZN5C64_TD1Ev:                          # @_ZN5C64_TD1Ev
	.cfi_startproc
# %bb.0:
	pushq	%rbp
	.cfi_def_cfa_offset 16
	.cfi_offset %rbp, -16
	movq	%rsp, %rbp
	.cfi_def_cfa_register %rbp
	subq	$16, %rsp
	movq	%rdi, -8(%rbp)
# %bb.1:
	movq	-8(%rbp), %rax
	cmpq	$0, 8(%rax)
	jne	.LBB8_3
# %bb.2:
	jmp	.LBB8_4
.LBB8_3:
	movq	-8(%rbp), %rax
	movq	8(%rax), %rdi
	callq	_ZN7CPU6510D1Ev
	movq	-8(%rbp), %rax
	movq	8(%rax), %rdi
	callq	free@PLT
.LBB8_4:
	movq	-8(%rbp), %rax
	cmpq	$0, (%rax)
	jne	.LBB8_6
# %bb.5:
	jmp	.LBB8_7
.LBB8_6:
	movq	-8(%rbp), %rax
	movq	(%rax), %rdi
	callq	_ZN8MEMORY_TD1Ev
	movq	-8(%rbp), %rax
	movq	(%rax), %rdi
	callq	free@PLT
.LBB8_7:
	movq	BGIMAGE$(%rip), %rdi
	callq	fb_GfxImageDestroy@PLT
	movq	FGIMAGE$(%rip), %rdi
	callq	fb_GfxImageDestroy@PLT
	movq	RASTER$(%rip), %rdi
	callq	fb_GfxImageDestroy@PLT
	movq	RENDER$(%rip), %rdi
	callq	fb_GfxImageDestroy@PLT
	movl	$1000, %edi             # imm = 0x3E8
	callq	fb_Sleep@PLT
# %bb.8:
	addq	$16, %rsp
	popq	%rbp
	.cfi_def_cfa %rsp, 8
	retq
.Lfunc_end8:
	.size	_ZN5C64_TD1Ev, .Lfunc_end8-_ZN5C64_TD1Ev
	.cfi_endproc
                                        # -- End function
	.globl	_ZN7CPU6510D1Ev         # -- Begin function _ZN7CPU6510D1Ev
	.p2align	4, 0x90
	.type	_ZN7CPU6510D1Ev,@function
_ZN7CPU6510D1Ev:                        # @_ZN7CPU6510D1Ev
	.cfi_startproc
# %bb.0:
	pushq	%rbp
	.cfi_def_cfa_offset 16
	.cfi_offset %rbp, -16
	movq	%rsp, %rbp
	.cfi_def_cfa_register %rbp
	subq	$96, %rsp
	movq	%fs:40, %rax
	movq	%rax, -8(%rbp)
	movq	%rdi, -88(%rbp)
# %bb.1:
	jmp	.LBB9_2
.LBB9_2:
	movq	-88(%rbp), %rax
	addq	$14408, %rax            # imm = 0x3848
	movq	%rax, -80(%rbp)
	movq	-88(%rbp), %rax
	addq	$14408, %rax            # imm = 0x3848
	movq	%rax, -72(%rbp)
	movq	$312, -64(%rbp)         # imm = 0x138
	movq	$24, -56(%rbp)
	movq	$1, -48(%rbp)
	movq	$49, -40(%rbp)
	movq	$13, -32(%rbp)
	movq	$0, -24(%rbp)
	movq	$12, -16(%rbp)
	leaq	-80(%rbp), %rdi
	callq	fb_ArrayDestructStr@PLT
	movq	%fs:40, %rax
	movq	-8(%rbp), %rcx
	cmpq	%rcx, %rax
	jne	.LBB9_4
# %bb.3:                                # %SP_return
	addq	$96, %rsp
	popq	%rbp
	.cfi_def_cfa %rsp, 8
	retq
.LBB9_4:                                # %CallStackCheckFailBlk
	.cfi_def_cfa %rbp, 16
	callq	__stack_chk_fail@PLT
.Lfunc_end9:
	.size	_ZN7CPU6510D1Ev, .Lfunc_end9-_ZN7CPU6510D1Ev
	.cfi_endproc
                                        # -- End function
	.globl	_ZN8MEMORY_TD1Ev        # -- Begin function _ZN8MEMORY_TD1Ev
	.p2align	4, 0x90
	.type	_ZN8MEMORY_TD1Ev,@function
_ZN8MEMORY_TD1Ev:                       # @_ZN8MEMORY_TD1Ev
	.cfi_startproc
# %bb.0:
	pushq	%rbp
	.cfi_def_cfa_offset 16
	.cfi_offset %rbp, -16
	movq	%rsp, %rbp
	.cfi_def_cfa_register %rbp
	movq	%rdi, -8(%rbp)
# %bb.1:
	jmp	.LBB10_2
.LBB10_2:
	popq	%rbp
	.cfi_def_cfa %rsp, 8
	retq
.Lfunc_end10:
	.size	_ZN8MEMORY_TD1Ev, .Lfunc_end10-_ZN8MEMORY_TD1Ev
	.cfi_endproc
                                        # -- End function
	.section	.rodata.cst8,"aM",@progbits,8
	.p2align	3               # -- Begin function _ZN8MEMORY_T6POKE64Edd
.LCPI11_0:
	.quad	4677973238003793920     # double 56319
.LCPI11_1:
	.quad	4677832637954392064     # double 55296
.LCPI11_2:
	.quad	-4545539398900383744    # double -55296
.LCPI11_3:
	.quad	4641205706609917952     # double 199
.LCPI11_4:
	.quad	4676988762780073984     # double 49156
.LCPI11_5:
	.quad	4676988625341120512     # double 49155
.LCPI11_6:
	.quad	4676988487902167040     # double 49154
.LCPI11_7:
	.quad	4607182418800017408     # double 1
.LCPI11_8:
	.quad	4640185359819341824     # double 170
.LCPI11_9:
	.quad	4611686018427387904     # double 2
.LCPI11_10:
	.quad	4613937818241073152     # double 3
.LCPI11_11:
	.quad	4616189618054758400     # double 4
.LCPI11_12:
	.quad	4617315517961601024     # double 5
.LCPI11_13:
	.quad	4618441417868443648     # double 6
.LCPI11_14:
	.quad	4635681760191971328     # double 85
.LCPI11_15:
	.quad	4619567317775286272     # double 7
.LCPI11_16:
	.quad	4620693217682128896     # double 8
.LCPI11_17:
	.quad	4621256167635550208     # double 9
.LCPI11_18:
	.quad	4643176031446892544     # double 255
.LCPI11_19:
	.quad	4621819117588971520     # double 10
.LCPI11_20:
	.quad	4622382067542392832     # double 11
.LCPI11_21:
	.quad	4622945017495814144     # double 12
.LCPI11_22:
	.quad	4623507967449235456     # double 13
.LCPI11_23:
	.quad	4624070917402656768     # double 14
.LCPI11_24:
	.quad	4624633867356078080     # double 15
.LCPI11_25:
	.quad	4625196817309499392     # double 16
.LCPI11_26:
	.quad	4625478292286210048     # double 17
.LCPI11_27:
	.quad	4626322717216342016     # double 20
.LCPI11_28:
	.quad	4625759767262920704     # double 18
.LCPI11_29:
	.quad	4629700416936869888     # double 32
.LCPI11_30:
	.quad	4626041242239631360     # double 19
.LCPI11_31:
	.quad	4631530004285489152     # double 45
.LCPI11_32:
	.quad	4633218854145753088     # double 57
.LCPI11_33:
	.quad	4626604192193052672     # double 21
.LCPI11_34:
	.quad	4634555860285128704     # double 69
.LCPI11_35:
	.quad	4626885667169763328     # double 22
.LCPI11_36:
	.quad	4635400285215260672     # double 81
.LCPI11_37:
	.quad	4627167142146473984     # double 23
.LCPI11_38:
	.quad	4636526185122103296     # double 97
.LCPI11_39:
	.quad	4627448617123184640     # double 24
.LCPI11_40:
	.quad	4637652085028945920     # double 113
.LCPI11_41:
	.quad	4627730092099895296     # double 25
.LCPI11_42:
	.quad	4638777984935788544     # double 130
.LCPI11_43:
	.quad	4628011567076605952     # double 26
.LCPI11_44:
	.quad	4639340934889209856     # double 146
.LCPI11_45:
	.quad	4628293042053316608     # double 27
.LCPI11_46:
	.quad	4639903884842631168     # double 162
.LCPI11_47:
	.quad	4628574517030027264     # double 28
.LCPI11_48:
	.quad	4640607572284407808     # double 182
.LCPI11_49:
	.quad	4628855992006737920     # double 29
.LCPI11_50:
	.quad	4641311259726184448     # double 202
.LCPI11_51:
	.quad	4629137466983448576     # double 30
.LCPI11_52:
	.quad	4642190869028405248     # double 227
.LCPI11_53:
	.quad	4629418941960159232     # double 31
.LCPI11_54:
	.quad	4629841154425225216     # double 33
.LCPI11_55:
	.quad	4634274385308418048     # double 65
.LCPI11_56:
	.quad	4629981891913580544     # double 34
.LCPI11_57:
	.quad	4638496509959077888     # double 125
.LCPI11_58:
	.quad	4630122629401935872     # double 35
.LCPI11_59:
	.quad	4640889047261118464     # double 190
.LCPI11_60:
	.quad	4630263366890291200     # double 36
.LCPI11_61:
	.quad	4630404104378646528     # double 37
.LCPI11_62:
	.quad	4630544841867001856     # double 38
.LCPI11_63:
	.quad	4630685579355357184     # double 39
.LCPI11_64:
	.quad	4630826316843712512     # double 40
.LCPI11_65:
	.quad	4630967054332067840     # double 41
.LCPI11_66:
	.quad	4631107791820423168     # double 42
.LCPI11_67:
	.quad	4631248529308778496     # double 43
.LCPI11_68:
	.quad	4631389266797133824     # double 44
.LCPI11_69:
	.quad	4631670741773844480     # double 46
.LCPI11_70:
	.quad	4631811479262199808     # double 47
.LCPI11_71:
	.quad	4631952216750555136     # double 48
.LCPI11_72:
	.quad	4632092954238910464     # double 49
.LCPI11_73:
	.quad	4632233691727265792     # double 50
.LCPI11_74:
	.quad	4632374429215621120     # double 51
.LCPI11_75:
	.quad	4632515166703976448     # double 52
.LCPI11_76:
	.quad	4632655904192331776     # double 53
.LCPI11_77:
	.quad	4632796641680687104     # double 54
.LCPI11_78:
	.quad	4632937379169042432     # double 55
.LCPI11_79:
	.quad	4633078116657397760     # double 56
.LCPI11_80:
	.quad	4639763147354275840     # double 158
.LCPI11_81:
	.quad	4633359591634108416     # double 58
.LCPI11_82:
	.quad	4633500329122463744     # double 59
.LCPI11_83:
	.quad	4642050131540049920     # double 223
.LCPI11_84:
	.quad	4633641066610819072     # double 60
.LCPI11_85:
	.quad	4633781804099174400     # double 61
.LCPI11_86:
	.quad	4633922541587529728     # double 62
.LCPI11_87:
	.quad	4634063279075885056     # double 63
.LCPI11_88:
	.quad	4634204016564240384     # double 64
.LCPI11_89:
	.quad	4634344754052595712     # double 66
.LCPI11_90:
	.quad	4634415122796773376     # double 67
.LCPI11_91:
	.quad	4634485491540951040     # double 68
.LCPI11_92:
	.quad	4634626229029306368     # double 70
.LCPI11_93:
	.quad	4634696597773484032     # double 71
.LCPI11_94:
	.quad	4634766966517661696     # double 72
.LCPI11_95:
	.quad	4634837335261839360     # double 73
.LCPI11_96:
	.quad	4634907704006017024     # double 74
.LCPI11_97:
	.quad	4634978072750194688     # double 75
.LCPI11_98:
	.quad	4635048441494372352     # double 76
.LCPI11_99:
	.quad	4635118810238550016     # double 77
.LCPI11_100:
	.quad	4635189178982727680     # double 78
.LCPI11_101:
	.quad	4635259547726905344     # double 79
.LCPI11_102:
	.quad	4635329916471083008     # double 80
.LCPI11_103:
	.quad	4641170522237829120     # double 198
.LCPI11_104:
	.quad	4635470653959438336     # double 82
.LCPI11_105:
	.quad	4641909394051694592     # double 219
.LCPI11_106:
	.quad	4635541022703616000     # double 83
.LCPI11_107:
	.quad	4642472344005115904     # double 235
.LCPI11_108:
	.quad	4635611391447793664     # double 84
.LCPI11_109:
	.quad	4635752128936148992     # double 86
.LCPI11_110:
	.quad	4635822497680326656     # double 87
.LCPI11_111:
	.quad	4635892866424504320     # double 88
.LCPI11_112:
	.quad	4635963235168681984     # double 89
.LCPI11_113:
	.quad	4636033603912859648     # double 90
.LCPI11_114:
	.quad	4636103972657037312     # double 91
.LCPI11_115:
	.quad	4636174341401214976     # double 92
.LCPI11_116:
	.quad	4636244710145392640     # double 93
.LCPI11_117:
	.quad	4636315078889570304     # double 94
.LCPI11_118:
	.quad	4636385447633747968     # double 95
.LCPI11_119:
	.quad	4636455816377925632     # double 96
.LCPI11_120:
	.quad	4636596553866280960     # double 98
.LCPI11_121:
	.quad	4636666922610458624     # double 99
.LCPI11_122:
	.quad	4636737291354636288     # double 100
.LCPI11_123:
	.quad	4636807660098813952     # double 101
.LCPI11_124:
	.quad	4636878028842991616     # double 102
.LCPI11_125:
	.quad	4636948397587169280     # double 103
.LCPI11_126:
	.quad	4637018766331346944     # double 104
.LCPI11_127:
	.quad	4637089135075524608     # double 105
.LCPI11_128:
	.quad	4637159503819702272     # double 106
.LCPI11_129:
	.quad	4637229872563879936     # double 107
.LCPI11_130:
	.quad	4637300241308057600     # double 108
.LCPI11_131:
	.quad	4637370610052235264     # double 109
.LCPI11_132:
	.quad	4637440978796412928     # double 110
.LCPI11_133:
	.quad	4637511347540590592     # double 111
.LCPI11_134:
	.quad	4637581716284768256     # double 112
.LCPI11_135:
	.quad	4637722453773123584     # double 114
.LCPI11_136:
	.quad	4637792822517301248     # double 115
.LCPI11_137:
	.quad	4637863191261478912     # double 116
.LCPI11_138:
	.quad	4637933560005656576     # double 117
.LCPI11_139:
	.quad	4638003928749834240     # double 118
.LCPI11_140:
	.quad	4638074297494011904     # double 119
.LCPI11_141:
	.quad	4638144666238189568     # double 120
.LCPI11_142:
	.quad	4638215034982367232     # double 121
.LCPI11_143:
	.quad	4638285403726544896     # double 122
.LCPI11_144:
	.quad	4638355772470722560     # double 123
.LCPI11_145:
	.quad	4638426141214900224     # double 124
.LCPI11_146:
	.quad	4638566878703255552     # double 126
.LCPI11_147:
	.quad	4638637247447433216     # double 127
.LCPI11_148:
	.quad	4638707616191610880     # double 128
.LCPI11_149:
	.quad	4638742800563699712     # double 129
.LCPI11_150:
	.quad	4638813169307877376     # double 131
.LCPI11_151:
	.quad	4638848353679966208     # double 132
.LCPI11_152:
	.quad	4638883538052055040     # double 133
.LCPI11_153:
	.quad	4638918722424143872     # double 134
.LCPI11_154:
	.quad	4638953906796232704     # double 135
.LCPI11_155:
	.quad	4638989091168321536     # double 136
.LCPI11_156:
	.quad	4639024275540410368     # double 137
.LCPI11_157:
	.quad	4639059459912499200     # double 138
.LCPI11_158:
	.quad	4639094644284588032     # double 139
.LCPI11_159:
	.quad	4639129828656676864     # double 140
.LCPI11_160:
	.quad	4639165013028765696     # double 141
.LCPI11_161:
	.quad	4639200197400854528     # double 142
.LCPI11_162:
	.quad	4639235381772943360     # double 143
.LCPI11_163:
	.quad	4639270566145032192     # double 144
.LCPI11_164:
	.quad	4639305750517121024     # double 145
.LCPI11_165:
	.quad	4639376119261298688     # double 147
.LCPI11_166:
	.quad	4639411303633387520     # double 148
.LCPI11_167:
	.quad	4639446488005476352     # double 149
.LCPI11_168:
	.quad	4639481672377565184     # double 150
.LCPI11_169:
	.quad	4639516856749654016     # double 151
.LCPI11_170:
	.quad	4639552041121742848     # double 152
.LCPI11_171:
	.quad	4639587225493831680     # double 153
.LCPI11_172:
	.quad	4639622409865920512     # double 154
.LCPI11_173:
	.quad	4639657594238009344     # double 155
.LCPI11_174:
	.quad	4639692778610098176     # double 156
.LCPI11_175:
	.quad	4639727962982187008     # double 157
.LCPI11_176:
	.quad	4639798331726364672     # double 159
.LCPI11_177:
	.quad	4639833516098453504     # double 160
.LCPI11_178:
	.quad	4639868700470542336     # double 161
.LCPI11_179:
	.quad	4639939069214720000     # double 163
.LCPI11_180:
	.quad	4639974253586808832     # double 164
.LCPI11_181:
	.quad	4640009437958897664     # double 165
.LCPI11_182:
	.quad	4640044622330986496     # double 166
.LCPI11_183:
	.quad	4640079806703075328     # double 167
.LCPI11_184:
	.quad	4640114991075164160     # double 168
.LCPI11_185:
	.quad	4640150175447252992     # double 169
.LCPI11_186:
	.quad	4640220544191430656     # double 171
.LCPI11_187:
	.quad	4640255728563519488     # double 172
.LCPI11_188:
	.quad	4640290912935608320     # double 173
.LCPI11_189:
	.quad	4640326097307697152     # double 174
.LCPI11_190:
	.quad	4640361281679785984     # double 175
.LCPI11_191:
	.quad	4640396466051874816     # double 176
.LCPI11_192:
	.quad	4640431650423963648     # double 177
.LCPI11_193:
	.quad	4640466834796052480     # double 178
.LCPI11_194:
	.quad	4640502019168141312     # double 179
.LCPI11_195:
	.quad	4640537203540230144     # double 180
.LCPI11_196:
	.quad	4640572387912318976     # double 181
.LCPI11_197:
	.quad	4640642756656496640     # double 183
.LCPI11_198:
	.quad	4640677941028585472     # double 184
.LCPI11_199:
	.quad	4640713125400674304     # double 185
.LCPI11_200:
	.quad	4640748309772763136     # double 186
.LCPI11_201:
	.quad	4640783494144851968     # double 187
.LCPI11_202:
	.quad	4640818678516940800     # double 188
.LCPI11_203:
	.quad	4640853862889029632     # double 189
.LCPI11_204:
	.quad	4640924231633207296     # double 191
.LCPI11_205:
	.quad	4640959416005296128     # double 192
.LCPI11_206:
	.quad	4640994600377384960     # double 193
.LCPI11_207:
	.quad	4641029784749473792     # double 194
.LCPI11_208:
	.quad	4641064969121562624     # double 195
.LCPI11_209:
	.quad	4641100153493651456     # double 196
.LCPI11_210:
	.quad	4641135337865740288     # double 197
.LCPI11_211:
	.quad	4641240890982006784     # double 200
.LCPI11_212:
	.quad	4641276075354095616     # double 201
.LCPI11_213:
	.quad	4641346444098273280     # double 203
.LCPI11_214:
	.quad	4641381628470362112     # double 204
.LCPI11_215:
	.quad	4641416812842450944     # double 205
.LCPI11_216:
	.quad	4641451997214539776     # double 206
.LCPI11_217:
	.quad	4641487181586628608     # double 207
.LCPI11_218:
	.quad	4641522365958717440     # double 208
.LCPI11_219:
	.quad	4641557550330806272     # double 209
.LCPI11_220:
	.quad	4641592734702895104     # double 210
.LCPI11_221:
	.quad	4641627919074983936     # double 211
.LCPI11_222:
	.quad	4641663103447072768     # double 212
.LCPI11_223:
	.quad	4641698287819161600     # double 213
.LCPI11_224:
	.quad	4641733472191250432     # double 214
.LCPI11_225:
	.quad	4641768656563339264     # double 215
.LCPI11_226:
	.quad	4641803840935428096     # double 216
.LCPI11_227:
	.quad	4641839025307516928     # double 217
.LCPI11_228:
	.quad	4641874209679605760     # double 218
.LCPI11_229:
	.quad	4641944578423783424     # double 220
.LCPI11_230:
	.quad	4641979762795872256     # double 221
.LCPI11_231:
	.quad	4642014947167961088     # double 222
.LCPI11_232:
	.quad	4642085315912138752     # double 224
.LCPI11_233:
	.quad	4642120500284227584     # double 225
.LCPI11_234:
	.quad	4642155684656316416     # double 226
.LCPI11_235:
	.quad	4642226053400494080     # double 228
.LCPI11_236:
	.quad	4642261237772582912     # double 229
.LCPI11_237:
	.quad	4642296422144671744     # double 230
.LCPI11_238:
	.quad	4642331606516760576     # double 231
.LCPI11_239:
	.quad	4642366790888849408     # double 232
.LCPI11_240:
	.quad	4642401975260938240     # double 233
.LCPI11_241:
	.quad	4642437159633027072     # double 234
.LCPI11_242:
	.quad	4642507528377204736     # double 236
.LCPI11_243:
	.quad	4642542712749293568     # double 237
.LCPI11_244:
	.quad	4642577897121382400     # double 238
.LCPI11_245:
	.quad	4642613081493471232     # double 239
.LCPI11_246:
	.quad	4642648265865560064     # double 240
.LCPI11_247:
	.quad	4642683450237648896     # double 241
.LCPI11_248:
	.quad	4642718634609737728     # double 242
.LCPI11_249:
	.quad	4642753818981826560     # double 243
.LCPI11_250:
	.quad	4642789003353915392     # double 244
.LCPI11_251:
	.quad	4642824187726004224     # double 245
.LCPI11_252:
	.quad	4642859372098093056     # double 246
.LCPI11_253:
	.quad	4642894556470181888     # double 247
.LCPI11_254:
	.quad	4642929740842270720     # double 248
.LCPI11_255:
	.quad	4642964925214359552     # double 249
.LCPI11_256:
	.quad	4643000109586448384     # double 250
.LCPI11_257:
	.quad	4643035293958537216     # double 251
.LCPI11_258:
	.quad	4643070478330626048     # double 252
.LCPI11_259:
	.quad	4643105662702714880     # double 253
.LCPI11_260:
	.quad	4643140847074803712     # double 254
.LCPI11_261:
	.quad	4890909195324358656     # double 9.2233720368547758E+18
.LCPI11_262:
	.quad	4676989312535887872     # double 49160
.LCPI11_263:
	.quad	4676989175096934400     # double 49159
.LCPI11_264:
	.quad	4676989037657980928     # double 49158
.LCPI11_265:
	.quad	4676988213024260096     # double 49152
.LCPI11_266:
	.quad	4676988350463213568     # double 49153
.LCPI11_267:
	.quad	4676988900219027456     # double 49157
.LCPI11_268:
	.quad	4676989449974841344     # double 49161
.LCPI11_269:
	.quad	4676989587413794816     # double 49162
.LCPI11_270:
	.quad	4676990412047515648     # double 49168
.LCPI11_271:
	.quad	4676991236681236480     # double 49174
.LCPI11_272:
	.quad	4676992061314957312     # double 49180
.LCPI11_273:
	.quad	4676992885948678144     # double 49186
.LCPI11_274:
	.quad	4676993710582398976     # double 49192
.LCPI11_275:
	.quad	4676994535216119808     # double 49198
.LCPI11_276:
	.quad	4676995359849840640     # double 49204
.LCPI11_277:
	.quad	4676996184483561472     # double 49210
.LCPI11_278:
	.quad	4676997009117282304     # double 49216
.LCPI11_279:
	.quad	4676997971189956608     # double 49223
.LCPI11_280:
	.quad	4676998520945770496     # double 49227
.LCPI11_281:
	.quad	4676999483018444800     # double 49234
.LCPI11_282:
	.quad	4677000307652165632     # double 49240
.LCPI11_283:
	.quad	4677001132285886464     # double 49246
.LCPI11_284:
	.quad	4677001956919607296     # double 49252
.LCPI11_285:
	.quad	4677002781553328128     # double 49258
.LCPI11_286:
	.quad	4677003606187048960     # double 49264
.LCPI11_287:
	.quad	4677004430820769792     # double 49270
.LCPI11_288:
	.quad	4677005255454490624     # double 49276
.LCPI11_289:
	.quad	4677006080088211456     # double 49282
.LCPI11_290:
	.quad	4677006904721932288     # double 49288
.LCPI11_291:
	.quad	4677007729355653120     # double 49294
.LCPI11_292:
	.quad	4677008553989373952     # double 49300
.LCPI11_293:
	.quad	4677009378623094784     # double 49306
.LCPI11_294:
	.quad	4677010203256815616     # double 49312
.LCPI11_295:
	.quad	4677010340695769088     # double 49313
.LCPI11_296:
	.quad	4677010478134722560     # double 49314
.LCPI11_299:
	.quad	4677010615573676032     # double 49315
.LCPI11_300:
	.quad	4677011577646350336     # double 49322
.LCPI11_301:
	.quad	4677011715085303808     # double 49323
.LCPI11_302:
	.quad	4677019823983558656     # double 49382
.LCPI11_303:
	.quad	4677020511178326016     # double 49387
.LCPI11_304:
	.quad	4677020648617279488     # double 49388
.LCPI11_305:
	.quad	4677020786056232960     # double 49389
.LCPI11_306:
	.quad	-4598175219545276416    # double -16
.LCPI11_307:
	.quad	-4593671619917905920    # double -32
.LCPI11_308:
	.quad	-4591419820104220672    # double -48
.LCPI11_309:
	.quad	-4589168020290535424    # double -64
.LCPI11_310:
	.quad	4677020923495186432     # double 49390
.LCPI11_311:
	.quad	4677021060934139904     # double 49391
.LCPI11_312:
	.quad	4677021198373093376     # double 49392
.LCPI11_313:
	.quad	4652218415073722368     # double 1024
.LCPI11_314:
	.quad	4677021335812046848     # double 49393
.LCPI11_315:
	.quad	4677021473251000320     # double 49394
.LCPI11_316:
	.quad	4677021610689953792     # double 49395
.LCPI11_317:
	.quad	4677021748128907264     # double 49396
.LCPI11_318:
	.quad	4677021885567860736     # double 49397
.LCPI11_319:
	.quad	4677022023006814208     # double 49398
.LCPI11_320:
	.quad	4677022160445767680     # double 49399
.LCPI11_321:
	.quad	4643967679818891264     # double 299
.LCPI11_322:
	.quad	4677022297884721152     # double 49400
.LCPI11_323:
	.quad	4677022435323674624     # double 49401
.LCPI11_324:
	.quad	4677022572762628096     # double 49402
.LCPI11_325:
	.quad	4677022710201581568     # double 49403
.LCPI11_326:
	.quad	4677022847640535040     # double 49404
.LCPI11_327:
	.quad	4677022985079488512     # double 49405
.LCPI11_328:
	.quad	4677023122518441984     # double 49406
.LCPI11_329:
	.quad	4677023259957395456     # double 49407
.LCPI11_330:
	.quad	4677023397396348928     # double 49408
.LCPI11_331:
	.quad	4677023534835302400     # double 49409
.LCPI11_332:
	.quad	4677023672274255872     # double 49410
.LCPI11_333:
	.quad	4677023809713209344     # double 49411
.LCPI11_334:
	.quad	4677023947152162816     # double 49412
.LCPI11_335:
	.quad	4677024084591116288     # double 49413
.LCPI11_337:
	.quad	4645568568748933120     # double 390
.LCPI11_338:
	.quad	4650265682422792192     # double 802
.LCPI11_343:
	.quad	4562254508917369340     # double 0.001
.LCPI11_344:
	.quad	4576918229304087675     # double 0.01
.LCPI11_345:
	.quad	4591870180066957722     # double 0.10000000000000001
.LCPI11_348:
	.quad	4677024222030069760     # double 49414
.LCPI11_349:
	.quad	4677024359469023232     # double 49415
.LCPI11_350:
	.quad	4677024496907976704     # double 49416
.LCPI11_351:
	.quad	4670232813583204352     # double 16384
.LCPI11_352:
	.quad	4674626462047797248     # double 32368
.LCPI11_353:
	.quad	4693876711626899456     # double 655360
.LCPI11_354:
	.quad	4694439652990386176     # double 720895
.LCPI11_355:
	.quad	4677024634346930176     # double 49417
.LCPI11_356:
	.quad	4677025596419604480     # double 49424
.LCPI11_357:
	.quad	4677026558492278784     # double 49431
.LCPI11_358:
	.quad	4677027520564953088     # double 49438
.LCPI11_359:
	.quad	4677028482637627392     # double 49445
.LCPI11_360:
	.quad	4677029444710301696     # double 49452
.LCPI11_361:
	.quad	4677030406782976000     # double 49459
.LCPI11_362:
	.quad	4677031781172510720     # double 49469
.LCPI11_363:
	.quad	4677033155562045440     # double 49479
.LCPI11_364:
	.quad	4677034529951580160     # double 49489
.LCPI11_365:
	.quad	4677035904341114880     # double 49499
.LCPI11_366:
	.quad	4677037278730649600     # double 49509
.LCPI11_367:
	.quad	4677038653120184320     # double 49519
.LCPI11_368:
	.quad	4677038790559137792     # double 49520
.LCPI11_369:
	.quad	4677038927998091264     # double 49521
.LCPI11_370:
	.quad	4677039065437044736     # double 49522
.LCPI11_371:
	.quad	4677039202875998208     # double 49523
.LCPI11_372:
	.quad	4677039340314951680     # double 49524
.LCPI11_373:
	.quad	4677039477753905152     # double 49525
.LCPI11_374:
	.quad	4677039615192858624     # double 49526
.LCPI11_375:
	.quad	4677039752631812096     # double 49527
.LCPI11_376:
	.quad	4677039890070765568     # double 49528
.LCPI11_377:
	.quad	4677040027509719040     # double 49529
.LCPI11_378:
	.quad	4677040164948672512     # double 49530
.LCPI11_379:
	.quad	4677040302387625984     # double 49531
.LCPI11_380:
	.quad	4677040439826579456     # double 49532
.LCPI11_381:
	.quad	4677040577265532928     # double 49533
.LCPI11_382:
	.quad	4677040714704486400     # double 49534
.LCPI11_383:
	.quad	4677040852143439872     # double 49535
.LCPI11_384:
	.quad	4677040989582393344     # double 49536
.LCPI11_385:
	.quad	4678415516556066816     # double 59537
.LCPI11_386:
	.quad	4678415653995020288     # double 59538
.LCPI11_387:
	.quad	4678415791433973760     # double 59539
.LCPI11_388:
	.quad	4678418677651996672     # double 59560
.LCPI11_389:
	.quad	4678418815090950144     # double 59561
.LCPI11_390:
	.quad	4678418952529903616     # double 59562
.LCPI11_391:
	.quad	4678419089968857088     # double 59563
.LCPI11_392:
	.quad	4678419227407810560     # double 59564
.LCPI11_393:
	.quad	4678419364846764032     # double 59565
.LCPI11_394:
	.quad	4678419502285717504     # double 59566
.LCPI11_395:
	.quad	4678419639724670976     # double 59567
.LCPI11_396:
	.quad	4678419777163624448     # double 59568
.LCPI11_397:
	.quad	4678419914602577920     # double 59569
.LCPI11_398:
	.quad	4678420052041531392     # double 59570
.LCPI11_399:
	.quad	4678420189480484864     # double 59571
.LCPI11_400:
	.quad	4678420326919438336     # double 59572
.LCPI11_401:
	.quad	4678420464358391808     # double 59573
.LCPI11_402:
	.quad	4678420601797345280     # double 59574
.LCPI11_403:
	.quad	4678420739236298752     # double 59575
.LCPI11_404:
	.quad	4678420876675252224     # double 59576
.LCPI11_405:
	.quad	4678421014114205696     # double 59577
.LCPI11_406:
	.quad	4678421151553159168     # double 59578
.LCPI11_407:
	.quad	4678421288992112640     # double 59579
.LCPI11_408:
	.quad	4678421426431066112     # double 59580
.LCPI11_409:
	.quad	4678421563870019584     # double 59581
.LCPI11_410:
	.quad	4678421701308973056     # double 59582
.LCPI11_411:
	.quad	4678421838747926528     # double 59583
.LCPI11_412:
	.quad	4678421976186880000     # double 59584
.LCPI11_413:
	.quad	4678422113625833472     # double 59585
.LCPI11_414:
	.quad	4678422251064786944     # double 59586
.LCPI11_415:
	.quad	4678422388503740416     # double 59587
.LCPI11_416:
	.quad	4678422525942693888     # double 59588
.LCPI11_417:
	.quad	4678422663381647360     # double 59589
.LCPI11_418:
	.quad	4678422800820600832     # double 59590
.LCPI11_419:
	.quad	4678422938259554304     # double 59591
.LCPI11_420:
	.quad	4678423075698507776     # double 59592
.LCPI11_421:
	.quad	4678423213137461248     # double 59593
.LCPI11_422:
	.quad	4678423350576414720     # double 59594
.LCPI11_423:
	.quad	4678423488015368192     # double 59595
.LCPI11_424:
	.quad	4678423625454321664     # double 59596
.LCPI11_425:
	.quad	4678423762893275136     # double 59597
.LCPI11_426:
	.quad	4678423900332228608     # double 59598
.LCPI11_427:
	.quad	4678424037771182080     # double 59599
.LCPI11_428:
	.quad	4678424175210135552     # double 59600
.LCPI11_429:
	.quad	4678424312649089024     # double 59601
.LCPI11_430:
	.quad	4678424450088042496     # double 59602
.LCPI11_431:
	.quad	4678424587526995968     # double 59603
.LCPI11_432:
	.quad	4678424724965949440     # double 59604
.LCPI11_433:
	.quad	4678424862404902912     # double 59605
.LCPI11_434:
	.quad	4678424999843856384     # double 59606
.LCPI11_435:
	.quad	4678425137282809856     # double 59607
.LCPI11_436:
	.quad	4678425274721763328     # double 59608
.LCPI11_437:
	.quad	-4616189618054758400    # double -1
.LCPI11_438:
	.quad	4678425412160716800     # double 59609
.LCPI11_439:
	.quad	4678425549599670272     # double 59610
.LCPI11_440:
	.quad	4678425687038623744     # double 59611
.LCPI11_441:
	.quad	4678425824477577216     # double 59612
.LCPI11_442:
	.quad	4678425961916530688     # double 59613
.LCPI11_443:
	.quad	4678426099355484160     # double 59614
.LCPI11_444:
	.quad	4678426236794437632     # double 59615
.LCPI11_445:
	.quad	4678426374233391104     # double 59616
.LCPI11_446:
	.quad	4678426511672344576     # double 59617
.LCPI11_447:
	.quad	4678426649111298048     # double 59618
.LCPI11_448:
	.quad	4678426786550251520     # double 59619
.LCPI11_449:
	.quad	4677052534454484992     # double 49620
.LCPI11_450:
	.quad	4677053771405066240     # double 49629
.LCPI11_451:
	.quad	4677029582149255168     # double 49453
.LCPI11_452:
	.quad	4677029719588208640     # double 49454
.LCPI11_453:
	.quad	4677029857027162112     # double 49455
.LCPI11_454:
	.quad	4677029994466115584     # double 49456
.LCPI11_455:
	.quad	4652209618980700160     # double 1023
.LCPI11_456:
	.quad	4627589354611539968     # double 24.5
.LCPI11_457:
	.quad	-4611686018427387904    # double -2
.LCPI11_458:
	.quad	4652249201399300096     # double 1031
.LCPI11_459:
	.quad	4652236007259766784     # double 1028
.LCPI11_460:
	.quad	4652240405306277888     # double 1029
.LCPI11_461:
	.quad	4652244803352788992     # double 1030
.LCPI11_462:
	.quad	4678114112931102720     # double 57344
.LCPI11_463:
	.quad	4679239875398991872     # double 65535
.LCPI11_464:
	.quad	4675862313117417472     # double 40960
.LCPI11_465:
	.quad	4676988075585306624     # double 49151
.LCPI11_466:
	.quad	4677015838253907968     # double 49353
	.section	.rodata.cst16,"aM",@progbits,16
	.p2align	4
.LCPI11_297:
	.long	1127219200              # 0x43300000
	.long	1160773632              # 0x45300000
	.long	0                       # 0x0
	.long	0                       # 0x0
.LCPI11_298:
	.quad	4841369599423283200     # double 4503599627370496
	.quad	4985484787499139072     # double 1.9342813113834067E+25
	.section	.rodata.cst4,"aM",@progbits,4
	.p2align	2
.LCPI11_336:
	.long	1086918620              # float 6.28318596
.LCPI11_339:
	.long	1065353216              # float 1
.LCPI11_340:
	.long	1106771968              # float 31
.LCPI11_341:
	.long	1103101952              # float 24
.LCPI11_342:
	.long	3212836864              # float -1
.LCPI11_346:
	.long	1156571136              # float 1919
.LCPI11_347:
	.long	1149689856              # float 1079
	.text
	.globl	_ZN8MEMORY_T6POKE64Edd
	.p2align	4, 0x90
	.type	_ZN8MEMORY_T6POKE64Edd,@function
_ZN8MEMORY_T6POKE64Edd:                 # @_ZN8MEMORY_T6POKE64Edd
	.cfi_startproc
# %bb.0:
	pushq	%rbp
	.cfi_def_cfa_offset 16
	.cfi_offset %rbp, -16
	movq	%rsp, %rbp
	.cfi_def_cfa_register %rbp
	pushq	%rbx
	subq	$21432, %rsp            # imm = 0x53B8
	.cfi_offset %rbx, -24
	movq	%fs:40, %rax
	movq	%rax, -16(%rbp)
	movq	%rdi, -2216(%rbp)
	movsd	%xmm0, -2224(%rbp)
	movsd	%xmm1, -2232(%rbp)
# %bb.1:
	xorl	%eax, %eax
	movsd	.LCPI11_0(%rip), %xmm0  # xmm0 = mem[0],zero
	movsd	.LCPI11_1(%rip), %xmm1  # xmm1 = mem[0],zero
	movsd	-2232(%rbp), %xmm2      # xmm2 = mem[0],zero
	movq	-2216(%rbp), %rcx
	movsd	-2224(%rbp), %xmm3      # xmm3 = mem[0],zero
	movsd	%xmm0, -15784(%rbp)     # 8-byte Spill
	movaps	%xmm3, %xmm0
	movl	%eax, -15788(%rbp)      # 4-byte Spill
	movsd	%xmm1, -15800(%rbp)     # 8-byte Spill
	movsd	%xmm2, -15808(%rbp)     # 8-byte Spill
	movq	%rcx, -15816(%rbp)      # 8-byte Spill
	callq	nearbyint@PLT
	cvttsd2si	%xmm0, %rcx
	shlq	$3, %rcx
	movq	-15816(%rbp), %rdx      # 8-byte Reload
	movsd	-15808(%rbp), %xmm0     # 8-byte Reload
                                        # xmm0 = mem[0],zero
	movsd	%xmm0, (%rdx,%rcx)
	movsd	-2224(%rbp), %xmm0      # xmm0 = mem[0],zero
	movsd	-15800(%rbp), %xmm1     # 8-byte Reload
                                        # xmm1 = mem[0],zero
	ucomisd	%xmm1, %xmm0
	setae	%sil
	andb	$1, %sil
	movzbl	%sil, %eax
	movl	-15788(%rbp), %edi      # 4-byte Reload
	subl	%eax, %edi
	movslq	%edi, %rcx
	movsd	-15784(%rbp), %xmm0     # 8-byte Reload
                                        # xmm0 = mem[0],zero
	ucomisd	-2224(%rbp), %xmm0
	setae	%sil
	andb	$1, %sil
	movzbl	%sil, %eax
	movl	-15788(%rbp), %edi      # 4-byte Reload
	subl	%eax, %edi
	movslq	%edi, %r8
	andq	%r8, %rcx
	cmpq	$0, %rcx
	jne	.LBB11_3
# %bb.2:
	jmp	.LBB11_4
.LBB11_3:
	jmp	.LBB11_5
.LBB11_4:
	jmp	.LBB11_6
.LBB11_5:
	movsd	.LCPI11_2(%rip), %xmm0  # xmm0 = mem[0],zero
	addsd	-2224(%rbp), %xmm0
	movsd	%xmm0, -2224(%rbp)
	movsd	-2232(%rbp), %xmm0      # xmm0 = mem[0],zero
	movq	-2216(%rbp), %rax
	movsd	-2224(%rbp), %xmm1      # xmm1 = mem[0],zero
	movsd	%xmm0, -15824(%rbp)     # 8-byte Spill
	movaps	%xmm1, %xmm0
	movq	%rax, -15832(%rbp)      # 8-byte Spill
	callq	nearbyint@PLT
	cvttsd2si	%xmm0, %rax
	shlq	$3, %rax
	movq	-15832(%rbp), %rcx      # 8-byte Reload
	movsd	-15824(%rbp), %xmm0     # 8-byte Reload
                                        # xmm0 = mem[0],zero
	movsd	%xmm0, 134741896(%rcx,%rax)
	movsd	-2224(%rbp), %xmm0      # xmm0 = mem[0],zero
	movq	-2216(%rbp), %rax
	addsd	395608(%rax), %xmm0
	movsd	%xmm0, -2224(%rbp)
	movq	-2216(%rbp), %rax
	movsd	-2224(%rbp), %xmm0      # xmm0 = mem[0],zero
	movq	%rax, -15840(%rbp)      # 8-byte Spill
	callq	nearbyint@PLT
	cvttsd2si	%xmm0, %rax
	shlq	$3, %rax
	movq	-15840(%rbp), %rcx      # 8-byte Reload
	movsd	(%rcx,%rax), %xmm0      # xmm0 = mem[0],zero
	movsd	%xmm0, -2232(%rbp)
.LBB11_6:
	movsd	.LCPI11_3(%rip), %xmm0  # xmm0 = mem[0],zero
	movsd	-2224(%rbp), %xmm1      # xmm1 = mem[0],zero
	ucomisd	%xmm0, %xmm1
	jne	.LBB11_7
	jp	.LBB11_7
	jmp	.LBB11_8
.LBB11_7:
	jmp	.LBB11_9
.LBB11_8:
	jmp	.LBB11_10
.LBB11_9:
	jmp	.LBB11_11
.LBB11_10:
	jmp	.LBB11_11
.LBB11_11:
	movsd	-2224(%rbp), %xmm0      # xmm0 = mem[0],zero
	movzwl	FCOLOR$(%rip), %eax
	movl	%eax, %ecx
	cvtsi2sd	%rcx, %xmm1
	ucomisd	%xmm1, %xmm0
	jne	.LBB11_12
	jp	.LBB11_12
	jmp	.LBB11_13
.LBB11_12:
	jmp	.LBB11_14
.LBB11_13:
	jmp	.LBB11_15
.LBB11_14:
	jmp	.LBB11_1040
.LBB11_15:
	movsd	-2232(%rbp), %xmm0      # xmm0 = mem[0],zero
	xorps	%xmm1, %xmm1
	ucomisd	%xmm1, %xmm0
	jne	.LBB11_16
	jp	.LBB11_16
	jmp	.LBB11_17
.LBB11_16:
	jmp	.LBB11_18
.LBB11_17:
	jmp	.LBB11_784
.LBB11_18:
	movsd	.LCPI11_7(%rip), %xmm0  # xmm0 = mem[0],zero
	movsd	-2232(%rbp), %xmm1      # xmm1 = mem[0],zero
	ucomisd	%xmm0, %xmm1
	jne	.LBB11_19
	jp	.LBB11_19
	jmp	.LBB11_20
.LBB11_19:
	jmp	.LBB11_21
.LBB11_20:
	jmp	.LBB11_785
.LBB11_21:
	movsd	.LCPI11_9(%rip), %xmm0  # xmm0 = mem[0],zero
	movsd	-2232(%rbp), %xmm1      # xmm1 = mem[0],zero
	ucomisd	%xmm0, %xmm1
	jne	.LBB11_22
	jp	.LBB11_22
	jmp	.LBB11_23
.LBB11_22:
	jmp	.LBB11_24
.LBB11_23:
	jmp	.LBB11_786
.LBB11_24:
	movsd	.LCPI11_10(%rip), %xmm0 # xmm0 = mem[0],zero
	movsd	-2232(%rbp), %xmm1      # xmm1 = mem[0],zero
	ucomisd	%xmm0, %xmm1
	jne	.LBB11_25
	jp	.LBB11_25
	jmp	.LBB11_26
.LBB11_25:
	jmp	.LBB11_27
.LBB11_26:
	jmp	.LBB11_787
.LBB11_27:
	movsd	.LCPI11_11(%rip), %xmm0 # xmm0 = mem[0],zero
	movsd	-2232(%rbp), %xmm1      # xmm1 = mem[0],zero
	ucomisd	%xmm0, %xmm1
	jne	.LBB11_28
	jp	.LBB11_28
	jmp	.LBB11_29
.LBB11_28:
	jmp	.LBB11_30
.LBB11_29:
	jmp	.LBB11_788
.LBB11_30:
	movsd	.LCPI11_12(%rip), %xmm0 # xmm0 = mem[0],zero
	movsd	-2232(%rbp), %xmm1      # xmm1 = mem[0],zero
	ucomisd	%xmm0, %xmm1
	jne	.LBB11_31
	jp	.LBB11_31
	jmp	.LBB11_32
.LBB11_31:
	jmp	.LBB11_33
.LBB11_32:
	jmp	.LBB11_789
.LBB11_33:
	movsd	.LCPI11_13(%rip), %xmm0 # xmm0 = mem[0],zero
	movsd	-2232(%rbp), %xmm1      # xmm1 = mem[0],zero
	ucomisd	%xmm0, %xmm1
	jne	.LBB11_34
	jp	.LBB11_34
	jmp	.LBB11_35
.LBB11_34:
	jmp	.LBB11_36
.LBB11_35:
	jmp	.LBB11_790
.LBB11_36:
	movsd	.LCPI11_15(%rip), %xmm0 # xmm0 = mem[0],zero
	movsd	-2232(%rbp), %xmm1      # xmm1 = mem[0],zero
	ucomisd	%xmm0, %xmm1
	jne	.LBB11_37
	jp	.LBB11_37
	jmp	.LBB11_38
.LBB11_37:
	jmp	.LBB11_39
.LBB11_38:
	jmp	.LBB11_791
.LBB11_39:
	movsd	.LCPI11_16(%rip), %xmm0 # xmm0 = mem[0],zero
	movsd	-2232(%rbp), %xmm1      # xmm1 = mem[0],zero
	ucomisd	%xmm0, %xmm1
	jne	.LBB11_40
	jp	.LBB11_40
	jmp	.LBB11_41
.LBB11_40:
	jmp	.LBB11_42
.LBB11_41:
	jmp	.LBB11_792
.LBB11_42:
	movsd	.LCPI11_17(%rip), %xmm0 # xmm0 = mem[0],zero
	movsd	-2232(%rbp), %xmm1      # xmm1 = mem[0],zero
	ucomisd	%xmm0, %xmm1
	jne	.LBB11_43
	jp	.LBB11_43
	jmp	.LBB11_44
.LBB11_43:
	jmp	.LBB11_45
.LBB11_44:
	jmp	.LBB11_793
.LBB11_45:
	movsd	.LCPI11_19(%rip), %xmm0 # xmm0 = mem[0],zero
	movsd	-2232(%rbp), %xmm1      # xmm1 = mem[0],zero
	ucomisd	%xmm0, %xmm1
	jne	.LBB11_46
	jp	.LBB11_46
	jmp	.LBB11_47
.LBB11_46:
	jmp	.LBB11_48
.LBB11_47:
	jmp	.LBB11_794
.LBB11_48:
	movsd	.LCPI11_20(%rip), %xmm0 # xmm0 = mem[0],zero
	movsd	-2232(%rbp), %xmm1      # xmm1 = mem[0],zero
	ucomisd	%xmm0, %xmm1
	jne	.LBB11_49
	jp	.LBB11_49
	jmp	.LBB11_50
.LBB11_49:
	jmp	.LBB11_51
.LBB11_50:
	jmp	.LBB11_795
.LBB11_51:
	movsd	.LCPI11_21(%rip), %xmm0 # xmm0 = mem[0],zero
	movsd	-2232(%rbp), %xmm1      # xmm1 = mem[0],zero
	ucomisd	%xmm0, %xmm1
	jne	.LBB11_52
	jp	.LBB11_52
	jmp	.LBB11_53
.LBB11_52:
	jmp	.LBB11_54
.LBB11_53:
	jmp	.LBB11_796
.LBB11_54:
	movsd	.LCPI11_22(%rip), %xmm0 # xmm0 = mem[0],zero
	movsd	-2232(%rbp), %xmm1      # xmm1 = mem[0],zero
	ucomisd	%xmm0, %xmm1
	jne	.LBB11_55
	jp	.LBB11_55
	jmp	.LBB11_56
.LBB11_55:
	jmp	.LBB11_57
.LBB11_56:
	jmp	.LBB11_797
.LBB11_57:
	movsd	.LCPI11_23(%rip), %xmm0 # xmm0 = mem[0],zero
	movsd	-2232(%rbp), %xmm1      # xmm1 = mem[0],zero
	ucomisd	%xmm0, %xmm1
	jne	.LBB11_58
	jp	.LBB11_58
	jmp	.LBB11_59
.LBB11_58:
	jmp	.LBB11_60
.LBB11_59:
	jmp	.LBB11_798
.LBB11_60:
	movsd	.LCPI11_24(%rip), %xmm0 # xmm0 = mem[0],zero
	movsd	-2232(%rbp), %xmm1      # xmm1 = mem[0],zero
	ucomisd	%xmm0, %xmm1
	jne	.LBB11_61
	jp	.LBB11_61
	jmp	.LBB11_62
.LBB11_61:
	jmp	.LBB11_63
.LBB11_62:
	jmp	.LBB11_799
.LBB11_63:
	movsd	.LCPI11_25(%rip), %xmm0 # xmm0 = mem[0],zero
	movsd	-2232(%rbp), %xmm1      # xmm1 = mem[0],zero
	ucomisd	%xmm0, %xmm1
	jne	.LBB11_64
	jp	.LBB11_64
	jmp	.LBB11_65
.LBB11_64:
	jmp	.LBB11_66
.LBB11_65:
	jmp	.LBB11_800
.LBB11_66:
	movsd	.LCPI11_26(%rip), %xmm0 # xmm0 = mem[0],zero
	movsd	-2232(%rbp), %xmm1      # xmm1 = mem[0],zero
	ucomisd	%xmm0, %xmm1
	jne	.LBB11_67
	jp	.LBB11_67
	jmp	.LBB11_68
.LBB11_67:
	jmp	.LBB11_69
.LBB11_68:
	jmp	.LBB11_801
.LBB11_69:
	movsd	.LCPI11_28(%rip), %xmm0 # xmm0 = mem[0],zero
	movsd	-2232(%rbp), %xmm1      # xmm1 = mem[0],zero
	ucomisd	%xmm0, %xmm1
	jne	.LBB11_70
	jp	.LBB11_70
	jmp	.LBB11_71
.LBB11_70:
	jmp	.LBB11_72
.LBB11_71:
	jmp	.LBB11_802
.LBB11_72:
	movsd	.LCPI11_30(%rip), %xmm0 # xmm0 = mem[0],zero
	movsd	-2232(%rbp), %xmm1      # xmm1 = mem[0],zero
	ucomisd	%xmm0, %xmm1
	jne	.LBB11_73
	jp	.LBB11_73
	jmp	.LBB11_74
.LBB11_73:
	jmp	.LBB11_75
.LBB11_74:
	jmp	.LBB11_803
.LBB11_75:
	movsd	.LCPI11_27(%rip), %xmm0 # xmm0 = mem[0],zero
	movsd	-2232(%rbp), %xmm1      # xmm1 = mem[0],zero
	ucomisd	%xmm0, %xmm1
	jne	.LBB11_76
	jp	.LBB11_76
	jmp	.LBB11_77
.LBB11_76:
	jmp	.LBB11_78
.LBB11_77:
	jmp	.LBB11_804
.LBB11_78:
	movsd	.LCPI11_33(%rip), %xmm0 # xmm0 = mem[0],zero
	movsd	-2232(%rbp), %xmm1      # xmm1 = mem[0],zero
	ucomisd	%xmm0, %xmm1
	jne	.LBB11_79
	jp	.LBB11_79
	jmp	.LBB11_80
.LBB11_79:
	jmp	.LBB11_81
.LBB11_80:
	jmp	.LBB11_805
.LBB11_81:
	movsd	.LCPI11_35(%rip), %xmm0 # xmm0 = mem[0],zero
	movsd	-2232(%rbp), %xmm1      # xmm1 = mem[0],zero
	ucomisd	%xmm0, %xmm1
	jne	.LBB11_82
	jp	.LBB11_82
	jmp	.LBB11_83
.LBB11_82:
	jmp	.LBB11_84
.LBB11_83:
	jmp	.LBB11_806
.LBB11_84:
	movsd	.LCPI11_37(%rip), %xmm0 # xmm0 = mem[0],zero
	movsd	-2232(%rbp), %xmm1      # xmm1 = mem[0],zero
	ucomisd	%xmm0, %xmm1
	jne	.LBB11_85
	jp	.LBB11_85
	jmp	.LBB11_86
.LBB11_85:
	jmp	.LBB11_87
.LBB11_86:
	jmp	.LBB11_807
.LBB11_87:
	movsd	.LCPI11_39(%rip), %xmm0 # xmm0 = mem[0],zero
	movsd	-2232(%rbp), %xmm1      # xmm1 = mem[0],zero
	ucomisd	%xmm0, %xmm1
	jne	.LBB11_88
	jp	.LBB11_88
	jmp	.LBB11_89
.LBB11_88:
	jmp	.LBB11_90
.LBB11_89:
	jmp	.LBB11_808
.LBB11_90:
	movsd	.LCPI11_41(%rip), %xmm0 # xmm0 = mem[0],zero
	movsd	-2232(%rbp), %xmm1      # xmm1 = mem[0],zero
	ucomisd	%xmm0, %xmm1
	jne	.LBB11_91
	jp	.LBB11_91
	jmp	.LBB11_92
.LBB11_91:
	jmp	.LBB11_93
.LBB11_92:
	jmp	.LBB11_809
.LBB11_93:
	movsd	.LCPI11_43(%rip), %xmm0 # xmm0 = mem[0],zero
	movsd	-2232(%rbp), %xmm1      # xmm1 = mem[0],zero
	ucomisd	%xmm0, %xmm1
	jne	.LBB11_94
	jp	.LBB11_94
	jmp	.LBB11_95
.LBB11_94:
	jmp	.LBB11_96
.LBB11_95:
	jmp	.LBB11_810
.LBB11_96:
	movsd	.LCPI11_45(%rip), %xmm0 # xmm0 = mem[0],zero
	movsd	-2232(%rbp), %xmm1      # xmm1 = mem[0],zero
	ucomisd	%xmm0, %xmm1
	jne	.LBB11_97
	jp	.LBB11_97
	jmp	.LBB11_98
.LBB11_97:
	jmp	.LBB11_99
.LBB11_98:
	jmp	.LBB11_811
.LBB11_99:
	movsd	.LCPI11_47(%rip), %xmm0 # xmm0 = mem[0],zero
	movsd	-2232(%rbp), %xmm1      # xmm1 = mem[0],zero
	ucomisd	%xmm0, %xmm1
	jne	.LBB11_100
	jp	.LBB11_100
	jmp	.LBB11_101
.LBB11_100:
	jmp	.LBB11_102
.LBB11_101:
	jmp	.LBB11_812
.LBB11_102:
	movsd	.LCPI11_49(%rip), %xmm0 # xmm0 = mem[0],zero
	movsd	-2232(%rbp), %xmm1      # xmm1 = mem[0],zero
	ucomisd	%xmm0, %xmm1
	jne	.LBB11_103
	jp	.LBB11_103
	jmp	.LBB11_104
.LBB11_103:
	jmp	.LBB11_105
.LBB11_104:
	jmp	.LBB11_813
.LBB11_105:
	movsd	.LCPI11_51(%rip), %xmm0 # xmm0 = mem[0],zero
	movsd	-2232(%rbp), %xmm1      # xmm1 = mem[0],zero
	ucomisd	%xmm0, %xmm1
	jne	.LBB11_106
	jp	.LBB11_106
	jmp	.LBB11_107
.LBB11_106:
	jmp	.LBB11_108
.LBB11_107:
	jmp	.LBB11_814
.LBB11_108:
	movsd	.LCPI11_53(%rip), %xmm0 # xmm0 = mem[0],zero
	movsd	-2232(%rbp), %xmm1      # xmm1 = mem[0],zero
	ucomisd	%xmm0, %xmm1
	jne	.LBB11_109
	jp	.LBB11_109
	jmp	.LBB11_110
.LBB11_109:
	jmp	.LBB11_111
.LBB11_110:
	jmp	.LBB11_815
.LBB11_111:
	movsd	.LCPI11_29(%rip), %xmm0 # xmm0 = mem[0],zero
	movsd	-2232(%rbp), %xmm1      # xmm1 = mem[0],zero
	ucomisd	%xmm0, %xmm1
	jne	.LBB11_112
	jp	.LBB11_112
	jmp	.LBB11_113
.LBB11_112:
	jmp	.LBB11_114
.LBB11_113:
	jmp	.LBB11_816
.LBB11_114:
	movsd	.LCPI11_54(%rip), %xmm0 # xmm0 = mem[0],zero
	movsd	-2232(%rbp), %xmm1      # xmm1 = mem[0],zero
	ucomisd	%xmm0, %xmm1
	jne	.LBB11_115
	jp	.LBB11_115
	jmp	.LBB11_116
.LBB11_115:
	jmp	.LBB11_117
.LBB11_116:
	jmp	.LBB11_817
.LBB11_117:
	movsd	.LCPI11_56(%rip), %xmm0 # xmm0 = mem[0],zero
	movsd	-2232(%rbp), %xmm1      # xmm1 = mem[0],zero
	ucomisd	%xmm0, %xmm1
	jne	.LBB11_118
	jp	.LBB11_118
	jmp	.LBB11_119
.LBB11_118:
	jmp	.LBB11_120
.LBB11_119:
	jmp	.LBB11_818
.LBB11_120:
	movsd	.LCPI11_58(%rip), %xmm0 # xmm0 = mem[0],zero
	movsd	-2232(%rbp), %xmm1      # xmm1 = mem[0],zero
	ucomisd	%xmm0, %xmm1
	jne	.LBB11_121
	jp	.LBB11_121
	jmp	.LBB11_122
.LBB11_121:
	jmp	.LBB11_123
.LBB11_122:
	jmp	.LBB11_819
.LBB11_123:
	movsd	.LCPI11_60(%rip), %xmm0 # xmm0 = mem[0],zero
	movsd	-2232(%rbp), %xmm1      # xmm1 = mem[0],zero
	ucomisd	%xmm0, %xmm1
	jne	.LBB11_124
	jp	.LBB11_124
	jmp	.LBB11_125
.LBB11_124:
	jmp	.LBB11_126
.LBB11_125:
	jmp	.LBB11_820
.LBB11_126:
	movsd	.LCPI11_61(%rip), %xmm0 # xmm0 = mem[0],zero
	movsd	-2232(%rbp), %xmm1      # xmm1 = mem[0],zero
	ucomisd	%xmm0, %xmm1
	jne	.LBB11_127
	jp	.LBB11_127
	jmp	.LBB11_128
.LBB11_127:
	jmp	.LBB11_129
.LBB11_128:
	jmp	.LBB11_821
.LBB11_129:
	movsd	.LCPI11_62(%rip), %xmm0 # xmm0 = mem[0],zero
	movsd	-2232(%rbp), %xmm1      # xmm1 = mem[0],zero
	ucomisd	%xmm0, %xmm1
	jne	.LBB11_130
	jp	.LBB11_130
	jmp	.LBB11_131
.LBB11_130:
	jmp	.LBB11_132
.LBB11_131:
	jmp	.LBB11_822
.LBB11_132:
	movsd	.LCPI11_63(%rip), %xmm0 # xmm0 = mem[0],zero
	movsd	-2232(%rbp), %xmm1      # xmm1 = mem[0],zero
	ucomisd	%xmm0, %xmm1
	jne	.LBB11_133
	jp	.LBB11_133
	jmp	.LBB11_134
.LBB11_133:
	jmp	.LBB11_135
.LBB11_134:
	jmp	.LBB11_823
.LBB11_135:
	movsd	.LCPI11_64(%rip), %xmm0 # xmm0 = mem[0],zero
	movsd	-2232(%rbp), %xmm1      # xmm1 = mem[0],zero
	ucomisd	%xmm0, %xmm1
	jne	.LBB11_136
	jp	.LBB11_136
	jmp	.LBB11_137
.LBB11_136:
	jmp	.LBB11_138
.LBB11_137:
	jmp	.LBB11_824
.LBB11_138:
	movsd	.LCPI11_65(%rip), %xmm0 # xmm0 = mem[0],zero
	movsd	-2232(%rbp), %xmm1      # xmm1 = mem[0],zero
	ucomisd	%xmm0, %xmm1
	jne	.LBB11_139
	jp	.LBB11_139
	jmp	.LBB11_140
.LBB11_139:
	jmp	.LBB11_141
.LBB11_140:
	jmp	.LBB11_825
.LBB11_141:
	movsd	.LCPI11_66(%rip), %xmm0 # xmm0 = mem[0],zero
	movsd	-2232(%rbp), %xmm1      # xmm1 = mem[0],zero
	ucomisd	%xmm0, %xmm1
	jne	.LBB11_142
	jp	.LBB11_142
	jmp	.LBB11_143
.LBB11_142:
	jmp	.LBB11_144
.LBB11_143:
	jmp	.LBB11_826
.LBB11_144:
	movsd	.LCPI11_67(%rip), %xmm0 # xmm0 = mem[0],zero
	movsd	-2232(%rbp), %xmm1      # xmm1 = mem[0],zero
	ucomisd	%xmm0, %xmm1
	jne	.LBB11_145
	jp	.LBB11_145
	jmp	.LBB11_146
.LBB11_145:
	jmp	.LBB11_147
.LBB11_146:
	jmp	.LBB11_827
.LBB11_147:
	movsd	.LCPI11_68(%rip), %xmm0 # xmm0 = mem[0],zero
	movsd	-2232(%rbp), %xmm1      # xmm1 = mem[0],zero
	ucomisd	%xmm0, %xmm1
	jne	.LBB11_148
	jp	.LBB11_148
	jmp	.LBB11_149
.LBB11_148:
	jmp	.LBB11_150
.LBB11_149:
	jmp	.LBB11_828
.LBB11_150:
	movsd	.LCPI11_31(%rip), %xmm0 # xmm0 = mem[0],zero
	movsd	-2232(%rbp), %xmm1      # xmm1 = mem[0],zero
	ucomisd	%xmm0, %xmm1
	jne	.LBB11_151
	jp	.LBB11_151
	jmp	.LBB11_152
.LBB11_151:
	jmp	.LBB11_153
.LBB11_152:
	jmp	.LBB11_829
.LBB11_153:
	movsd	.LCPI11_69(%rip), %xmm0 # xmm0 = mem[0],zero
	movsd	-2232(%rbp), %xmm1      # xmm1 = mem[0],zero
	ucomisd	%xmm0, %xmm1
	jne	.LBB11_154
	jp	.LBB11_154
	jmp	.LBB11_155
.LBB11_154:
	jmp	.LBB11_156
.LBB11_155:
	jmp	.LBB11_830
.LBB11_156:
	movsd	.LCPI11_70(%rip), %xmm0 # xmm0 = mem[0],zero
	movsd	-2232(%rbp), %xmm1      # xmm1 = mem[0],zero
	ucomisd	%xmm0, %xmm1
	jne	.LBB11_157
	jp	.LBB11_157
	jmp	.LBB11_158
.LBB11_157:
	jmp	.LBB11_159
.LBB11_158:
	jmp	.LBB11_831
.LBB11_159:
	movsd	.LCPI11_71(%rip), %xmm0 # xmm0 = mem[0],zero
	movsd	-2232(%rbp), %xmm1      # xmm1 = mem[0],zero
	ucomisd	%xmm0, %xmm1
	jne	.LBB11_160
	jp	.LBB11_160
	jmp	.LBB11_161
.LBB11_160:
	jmp	.LBB11_162
.LBB11_161:
	jmp	.LBB11_832
.LBB11_162:
	movsd	.LCPI11_72(%rip), %xmm0 # xmm0 = mem[0],zero
	movsd	-2232(%rbp), %xmm1      # xmm1 = mem[0],zero
	ucomisd	%xmm0, %xmm1
	jne	.LBB11_163
	jp	.LBB11_163
	jmp	.LBB11_164
.LBB11_163:
	jmp	.LBB11_165
.LBB11_164:
	jmp	.LBB11_833
.LBB11_165:
	movsd	.LCPI11_73(%rip), %xmm0 # xmm0 = mem[0],zero
	movsd	-2232(%rbp), %xmm1      # xmm1 = mem[0],zero
	ucomisd	%xmm0, %xmm1
	jne	.LBB11_166
	jp	.LBB11_166
	jmp	.LBB11_167
.LBB11_166:
	jmp	.LBB11_168
.LBB11_167:
	jmp	.LBB11_834
.LBB11_168:
	movsd	.LCPI11_74(%rip), %xmm0 # xmm0 = mem[0],zero
	movsd	-2232(%rbp), %xmm1      # xmm1 = mem[0],zero
	ucomisd	%xmm0, %xmm1
	jne	.LBB11_169
	jp	.LBB11_169
	jmp	.LBB11_170
.LBB11_169:
	jmp	.LBB11_171
.LBB11_170:
	jmp	.LBB11_835
.LBB11_171:
	movsd	.LCPI11_75(%rip), %xmm0 # xmm0 = mem[0],zero
	movsd	-2232(%rbp), %xmm1      # xmm1 = mem[0],zero
	ucomisd	%xmm0, %xmm1
	jne	.LBB11_172
	jp	.LBB11_172
	jmp	.LBB11_173
.LBB11_172:
	jmp	.LBB11_174
.LBB11_173:
	jmp	.LBB11_836
.LBB11_174:
	movsd	.LCPI11_76(%rip), %xmm0 # xmm0 = mem[0],zero
	movsd	-2232(%rbp), %xmm1      # xmm1 = mem[0],zero
	ucomisd	%xmm0, %xmm1
	jne	.LBB11_175
	jp	.LBB11_175
	jmp	.LBB11_176
.LBB11_175:
	jmp	.LBB11_177
.LBB11_176:
	jmp	.LBB11_837
.LBB11_177:
	movsd	.LCPI11_77(%rip), %xmm0 # xmm0 = mem[0],zero
	movsd	-2232(%rbp), %xmm1      # xmm1 = mem[0],zero
	ucomisd	%xmm0, %xmm1
	jne	.LBB11_178
	jp	.LBB11_178
	jmp	.LBB11_179
.LBB11_178:
	jmp	.LBB11_180
.LBB11_179:
	jmp	.LBB11_838
.LBB11_180:
	movsd	.LCPI11_78(%rip), %xmm0 # xmm0 = mem[0],zero
	movsd	-2232(%rbp), %xmm1      # xmm1 = mem[0],zero
	ucomisd	%xmm0, %xmm1
	jne	.LBB11_181
	jp	.LBB11_181
	jmp	.LBB11_182
.LBB11_181:
	jmp	.LBB11_183
.LBB11_182:
	jmp	.LBB11_839
.LBB11_183:
	movsd	.LCPI11_79(%rip), %xmm0 # xmm0 = mem[0],zero
	movsd	-2232(%rbp), %xmm1      # xmm1 = mem[0],zero
	ucomisd	%xmm0, %xmm1
	jne	.LBB11_184
	jp	.LBB11_184
	jmp	.LBB11_185
.LBB11_184:
	jmp	.LBB11_186
.LBB11_185:
	jmp	.LBB11_840
.LBB11_186:
	movsd	.LCPI11_32(%rip), %xmm0 # xmm0 = mem[0],zero
	movsd	-2232(%rbp), %xmm1      # xmm1 = mem[0],zero
	ucomisd	%xmm0, %xmm1
	jne	.LBB11_187
	jp	.LBB11_187
	jmp	.LBB11_188
.LBB11_187:
	jmp	.LBB11_189
.LBB11_188:
	jmp	.LBB11_841
.LBB11_189:
	movsd	.LCPI11_81(%rip), %xmm0 # xmm0 = mem[0],zero
	movsd	-2232(%rbp), %xmm1      # xmm1 = mem[0],zero
	ucomisd	%xmm0, %xmm1
	jne	.LBB11_190
	jp	.LBB11_190
	jmp	.LBB11_191
.LBB11_190:
	jmp	.LBB11_192
.LBB11_191:
	jmp	.LBB11_842
.LBB11_192:
	movsd	.LCPI11_82(%rip), %xmm0 # xmm0 = mem[0],zero
	movsd	-2232(%rbp), %xmm1      # xmm1 = mem[0],zero
	ucomisd	%xmm0, %xmm1
	jne	.LBB11_193
	jp	.LBB11_193
	jmp	.LBB11_194
.LBB11_193:
	jmp	.LBB11_195
.LBB11_194:
	jmp	.LBB11_843
.LBB11_195:
	movsd	.LCPI11_84(%rip), %xmm0 # xmm0 = mem[0],zero
	movsd	-2232(%rbp), %xmm1      # xmm1 = mem[0],zero
	ucomisd	%xmm0, %xmm1
	jne	.LBB11_196
	jp	.LBB11_196
	jmp	.LBB11_197
.LBB11_196:
	jmp	.LBB11_198
.LBB11_197:
	jmp	.LBB11_844
.LBB11_198:
	movsd	.LCPI11_85(%rip), %xmm0 # xmm0 = mem[0],zero
	movsd	-2232(%rbp), %xmm1      # xmm1 = mem[0],zero
	ucomisd	%xmm0, %xmm1
	jne	.LBB11_199
	jp	.LBB11_199
	jmp	.LBB11_200
.LBB11_199:
	jmp	.LBB11_201
.LBB11_200:
	jmp	.LBB11_845
.LBB11_201:
	movsd	.LCPI11_86(%rip), %xmm0 # xmm0 = mem[0],zero
	movsd	-2232(%rbp), %xmm1      # xmm1 = mem[0],zero
	ucomisd	%xmm0, %xmm1
	jne	.LBB11_202
	jp	.LBB11_202
	jmp	.LBB11_203
.LBB11_202:
	jmp	.LBB11_204
.LBB11_203:
	jmp	.LBB11_846
.LBB11_204:
	movsd	.LCPI11_87(%rip), %xmm0 # xmm0 = mem[0],zero
	movsd	-2232(%rbp), %xmm1      # xmm1 = mem[0],zero
	ucomisd	%xmm0, %xmm1
	jne	.LBB11_205
	jp	.LBB11_205
	jmp	.LBB11_206
.LBB11_205:
	jmp	.LBB11_207
.LBB11_206:
	jmp	.LBB11_847
.LBB11_207:
	movsd	.LCPI11_88(%rip), %xmm0 # xmm0 = mem[0],zero
	movsd	-2232(%rbp), %xmm1      # xmm1 = mem[0],zero
	ucomisd	%xmm0, %xmm1
	jne	.LBB11_208
	jp	.LBB11_208
	jmp	.LBB11_209
.LBB11_208:
	jmp	.LBB11_210
.LBB11_209:
	jmp	.LBB11_848
.LBB11_210:
	movsd	.LCPI11_55(%rip), %xmm0 # xmm0 = mem[0],zero
	movsd	-2232(%rbp), %xmm1      # xmm1 = mem[0],zero
	ucomisd	%xmm0, %xmm1
	jne	.LBB11_211
	jp	.LBB11_211
	jmp	.LBB11_212
.LBB11_211:
	jmp	.LBB11_213
.LBB11_212:
	jmp	.LBB11_849
.LBB11_213:
	movsd	.LCPI11_89(%rip), %xmm0 # xmm0 = mem[0],zero
	movsd	-2232(%rbp), %xmm1      # xmm1 = mem[0],zero
	ucomisd	%xmm0, %xmm1
	jne	.LBB11_214
	jp	.LBB11_214
	jmp	.LBB11_215
.LBB11_214:
	jmp	.LBB11_216
.LBB11_215:
	jmp	.LBB11_850
.LBB11_216:
	movsd	.LCPI11_90(%rip), %xmm0 # xmm0 = mem[0],zero
	movsd	-2232(%rbp), %xmm1      # xmm1 = mem[0],zero
	ucomisd	%xmm0, %xmm1
	jne	.LBB11_217
	jp	.LBB11_217
	jmp	.LBB11_218
.LBB11_217:
	jmp	.LBB11_219
.LBB11_218:
	jmp	.LBB11_851
.LBB11_219:
	movsd	.LCPI11_91(%rip), %xmm0 # xmm0 = mem[0],zero
	movsd	-2232(%rbp), %xmm1      # xmm1 = mem[0],zero
	ucomisd	%xmm0, %xmm1
	jne	.LBB11_220
	jp	.LBB11_220
	jmp	.LBB11_221
.LBB11_220:
	jmp	.LBB11_222
.LBB11_221:
	jmp	.LBB11_852
.LBB11_222:
	movsd	.LCPI11_34(%rip), %xmm0 # xmm0 = mem[0],zero
	movsd	-2232(%rbp), %xmm1      # xmm1 = mem[0],zero
	ucomisd	%xmm0, %xmm1
	jne	.LBB11_223
	jp	.LBB11_223
	jmp	.LBB11_224
.LBB11_223:
	jmp	.LBB11_225
.LBB11_224:
	jmp	.LBB11_853
.LBB11_225:
	movsd	.LCPI11_92(%rip), %xmm0 # xmm0 = mem[0],zero
	movsd	-2232(%rbp), %xmm1      # xmm1 = mem[0],zero
	ucomisd	%xmm0, %xmm1
	jne	.LBB11_226
	jp	.LBB11_226
	jmp	.LBB11_227
.LBB11_226:
	jmp	.LBB11_228
.LBB11_227:
	jmp	.LBB11_854
.LBB11_228:
	movsd	.LCPI11_93(%rip), %xmm0 # xmm0 = mem[0],zero
	movsd	-2232(%rbp), %xmm1      # xmm1 = mem[0],zero
	ucomisd	%xmm0, %xmm1
	jne	.LBB11_229
	jp	.LBB11_229
	jmp	.LBB11_230
.LBB11_229:
	jmp	.LBB11_231
.LBB11_230:
	jmp	.LBB11_855
.LBB11_231:
	movsd	.LCPI11_94(%rip), %xmm0 # xmm0 = mem[0],zero
	movsd	-2232(%rbp), %xmm1      # xmm1 = mem[0],zero
	ucomisd	%xmm0, %xmm1
	jne	.LBB11_232
	jp	.LBB11_232
	jmp	.LBB11_233
.LBB11_232:
	jmp	.LBB11_234
.LBB11_233:
	jmp	.LBB11_856
.LBB11_234:
	movsd	.LCPI11_95(%rip), %xmm0 # xmm0 = mem[0],zero
	movsd	-2232(%rbp), %xmm1      # xmm1 = mem[0],zero
	ucomisd	%xmm0, %xmm1
	jne	.LBB11_235
	jp	.LBB11_235
	jmp	.LBB11_236
.LBB11_235:
	jmp	.LBB11_237
.LBB11_236:
	jmp	.LBB11_857
.LBB11_237:
	movsd	.LCPI11_96(%rip), %xmm0 # xmm0 = mem[0],zero
	movsd	-2232(%rbp), %xmm1      # xmm1 = mem[0],zero
	ucomisd	%xmm0, %xmm1
	jne	.LBB11_238
	jp	.LBB11_238
	jmp	.LBB11_239
.LBB11_238:
	jmp	.LBB11_240
.LBB11_239:
	jmp	.LBB11_858
.LBB11_240:
	movsd	.LCPI11_97(%rip), %xmm0 # xmm0 = mem[0],zero
	movsd	-2232(%rbp), %xmm1      # xmm1 = mem[0],zero
	ucomisd	%xmm0, %xmm1
	jne	.LBB11_241
	jp	.LBB11_241
	jmp	.LBB11_242
.LBB11_241:
	jmp	.LBB11_243
.LBB11_242:
	jmp	.LBB11_859
.LBB11_243:
	movsd	.LCPI11_98(%rip), %xmm0 # xmm0 = mem[0],zero
	movsd	-2232(%rbp), %xmm1      # xmm1 = mem[0],zero
	ucomisd	%xmm0, %xmm1
	jne	.LBB11_244
	jp	.LBB11_244
	jmp	.LBB11_245
.LBB11_244:
	jmp	.LBB11_246
.LBB11_245:
	jmp	.LBB11_860
.LBB11_246:
	movsd	.LCPI11_99(%rip), %xmm0 # xmm0 = mem[0],zero
	movsd	-2232(%rbp), %xmm1      # xmm1 = mem[0],zero
	ucomisd	%xmm0, %xmm1
	jne	.LBB11_247
	jp	.LBB11_247
	jmp	.LBB11_248
.LBB11_247:
	jmp	.LBB11_249
.LBB11_248:
	jmp	.LBB11_861
.LBB11_249:
	movsd	.LCPI11_100(%rip), %xmm0 # xmm0 = mem[0],zero
	movsd	-2232(%rbp), %xmm1      # xmm1 = mem[0],zero
	ucomisd	%xmm0, %xmm1
	jne	.LBB11_250
	jp	.LBB11_250
	jmp	.LBB11_251
.LBB11_250:
	jmp	.LBB11_252
.LBB11_251:
	jmp	.LBB11_862
.LBB11_252:
	movsd	.LCPI11_101(%rip), %xmm0 # xmm0 = mem[0],zero
	movsd	-2232(%rbp), %xmm1      # xmm1 = mem[0],zero
	ucomisd	%xmm0, %xmm1
	jne	.LBB11_253
	jp	.LBB11_253
	jmp	.LBB11_254
.LBB11_253:
	jmp	.LBB11_255
.LBB11_254:
	jmp	.LBB11_863
.LBB11_255:
	movsd	.LCPI11_102(%rip), %xmm0 # xmm0 = mem[0],zero
	movsd	-2232(%rbp), %xmm1      # xmm1 = mem[0],zero
	ucomisd	%xmm0, %xmm1
	jne	.LBB11_256
	jp	.LBB11_256
	jmp	.LBB11_257
.LBB11_256:
	jmp	.LBB11_258
.LBB11_257:
	jmp	.LBB11_864
.LBB11_258:
	movsd	.LCPI11_36(%rip), %xmm0 # xmm0 = mem[0],zero
	movsd	-2232(%rbp), %xmm1      # xmm1 = mem[0],zero
	ucomisd	%xmm0, %xmm1
	jne	.LBB11_259
	jp	.LBB11_259
	jmp	.LBB11_260
.LBB11_259:
	jmp	.LBB11_261
.LBB11_260:
	jmp	.LBB11_865
.LBB11_261:
	movsd	.LCPI11_104(%rip), %xmm0 # xmm0 = mem[0],zero
	movsd	-2232(%rbp), %xmm1      # xmm1 = mem[0],zero
	ucomisd	%xmm0, %xmm1
	jne	.LBB11_262
	jp	.LBB11_262
	jmp	.LBB11_263
.LBB11_262:
	jmp	.LBB11_264
.LBB11_263:
	jmp	.LBB11_866
.LBB11_264:
	movsd	.LCPI11_106(%rip), %xmm0 # xmm0 = mem[0],zero
	movsd	-2232(%rbp), %xmm1      # xmm1 = mem[0],zero
	ucomisd	%xmm0, %xmm1
	jne	.LBB11_265
	jp	.LBB11_265
	jmp	.LBB11_266
.LBB11_265:
	jmp	.LBB11_267
.LBB11_266:
	jmp	.LBB11_867
.LBB11_267:
	movsd	.LCPI11_108(%rip), %xmm0 # xmm0 = mem[0],zero
	movsd	-2232(%rbp), %xmm1      # xmm1 = mem[0],zero
	ucomisd	%xmm0, %xmm1
	jne	.LBB11_268
	jp	.LBB11_268
	jmp	.LBB11_269
.LBB11_268:
	jmp	.LBB11_270
.LBB11_269:
	jmp	.LBB11_868
.LBB11_270:
	movsd	.LCPI11_14(%rip), %xmm0 # xmm0 = mem[0],zero
	movsd	-2232(%rbp), %xmm1      # xmm1 = mem[0],zero
	ucomisd	%xmm0, %xmm1
	jne	.LBB11_271
	jp	.LBB11_271
	jmp	.LBB11_272
.LBB11_271:
	jmp	.LBB11_273
.LBB11_272:
	jmp	.LBB11_869
.LBB11_273:
	movsd	.LCPI11_109(%rip), %xmm0 # xmm0 = mem[0],zero
	movsd	-2232(%rbp), %xmm1      # xmm1 = mem[0],zero
	ucomisd	%xmm0, %xmm1
	jne	.LBB11_274
	jp	.LBB11_274
	jmp	.LBB11_275
.LBB11_274:
	jmp	.LBB11_276
.LBB11_275:
	jmp	.LBB11_870
.LBB11_276:
	movsd	.LCPI11_110(%rip), %xmm0 # xmm0 = mem[0],zero
	movsd	-2232(%rbp), %xmm1      # xmm1 = mem[0],zero
	ucomisd	%xmm0, %xmm1
	jne	.LBB11_277
	jp	.LBB11_277
	jmp	.LBB11_278
.LBB11_277:
	jmp	.LBB11_279
.LBB11_278:
	jmp	.LBB11_871
.LBB11_279:
	movsd	.LCPI11_111(%rip), %xmm0 # xmm0 = mem[0],zero
	movsd	-2232(%rbp), %xmm1      # xmm1 = mem[0],zero
	ucomisd	%xmm0, %xmm1
	jne	.LBB11_280
	jp	.LBB11_280
	jmp	.LBB11_281
.LBB11_280:
	jmp	.LBB11_282
.LBB11_281:
	jmp	.LBB11_872
.LBB11_282:
	movsd	.LCPI11_112(%rip), %xmm0 # xmm0 = mem[0],zero
	movsd	-2232(%rbp), %xmm1      # xmm1 = mem[0],zero
	ucomisd	%xmm0, %xmm1
	jne	.LBB11_283
	jp	.LBB11_283
	jmp	.LBB11_284
.LBB11_283:
	jmp	.LBB11_285
.LBB11_284:
	jmp	.LBB11_873
.LBB11_285:
	movsd	.LCPI11_113(%rip), %xmm0 # xmm0 = mem[0],zero
	movsd	-2232(%rbp), %xmm1      # xmm1 = mem[0],zero
	ucomisd	%xmm0, %xmm1
	jne	.LBB11_286
	jp	.LBB11_286
	jmp	.LBB11_287
.LBB11_286:
	jmp	.LBB11_288
.LBB11_287:
	jmp	.LBB11_874
.LBB11_288:
	movsd	.LCPI11_114(%rip), %xmm0 # xmm0 = mem[0],zero
	movsd	-2232(%rbp), %xmm1      # xmm1 = mem[0],zero
	ucomisd	%xmm0, %xmm1
	jne	.LBB11_289
	jp	.LBB11_289
	jmp	.LBB11_290
.LBB11_289:
	jmp	.LBB11_291
.LBB11_290:
	jmp	.LBB11_875
.LBB11_291:
	movsd	.LCPI11_115(%rip), %xmm0 # xmm0 = mem[0],zero
	movsd	-2232(%rbp), %xmm1      # xmm1 = mem[0],zero
	ucomisd	%xmm0, %xmm1
	jne	.LBB11_292
	jp	.LBB11_292
	jmp	.LBB11_293
.LBB11_292:
	jmp	.LBB11_294
.LBB11_293:
	jmp	.LBB11_876
.LBB11_294:
	movsd	.LCPI11_116(%rip), %xmm0 # xmm0 = mem[0],zero
	movsd	-2232(%rbp), %xmm1      # xmm1 = mem[0],zero
	ucomisd	%xmm0, %xmm1
	jne	.LBB11_295
	jp	.LBB11_295
	jmp	.LBB11_296
.LBB11_295:
	jmp	.LBB11_297
.LBB11_296:
	jmp	.LBB11_877
.LBB11_297:
	movsd	.LCPI11_117(%rip), %xmm0 # xmm0 = mem[0],zero
	movsd	-2232(%rbp), %xmm1      # xmm1 = mem[0],zero
	ucomisd	%xmm0, %xmm1
	jne	.LBB11_298
	jp	.LBB11_298
	jmp	.LBB11_299
.LBB11_298:
	jmp	.LBB11_300
.LBB11_299:
	jmp	.LBB11_878
.LBB11_300:
	movsd	.LCPI11_118(%rip), %xmm0 # xmm0 = mem[0],zero
	movsd	-2232(%rbp), %xmm1      # xmm1 = mem[0],zero
	ucomisd	%xmm0, %xmm1
	jne	.LBB11_301
	jp	.LBB11_301
	jmp	.LBB11_302
.LBB11_301:
	jmp	.LBB11_303
.LBB11_302:
	jmp	.LBB11_879
.LBB11_303:
	movsd	.LCPI11_119(%rip), %xmm0 # xmm0 = mem[0],zero
	movsd	-2232(%rbp), %xmm1      # xmm1 = mem[0],zero
	ucomisd	%xmm0, %xmm1
	jne	.LBB11_304
	jp	.LBB11_304
	jmp	.LBB11_305
.LBB11_304:
	jmp	.LBB11_306
.LBB11_305:
	jmp	.LBB11_880
.LBB11_306:
	movsd	.LCPI11_38(%rip), %xmm0 # xmm0 = mem[0],zero
	movsd	-2232(%rbp), %xmm1      # xmm1 = mem[0],zero
	ucomisd	%xmm0, %xmm1
	jne	.LBB11_307
	jp	.LBB11_307
	jmp	.LBB11_308
.LBB11_307:
	jmp	.LBB11_309
.LBB11_308:
	jmp	.LBB11_881
.LBB11_309:
	movsd	.LCPI11_120(%rip), %xmm0 # xmm0 = mem[0],zero
	movsd	-2232(%rbp), %xmm1      # xmm1 = mem[0],zero
	ucomisd	%xmm0, %xmm1
	jne	.LBB11_310
	jp	.LBB11_310
	jmp	.LBB11_311
.LBB11_310:
	jmp	.LBB11_312
.LBB11_311:
	jmp	.LBB11_882
.LBB11_312:
	movsd	.LCPI11_121(%rip), %xmm0 # xmm0 = mem[0],zero
	movsd	-2232(%rbp), %xmm1      # xmm1 = mem[0],zero
	ucomisd	%xmm0, %xmm1
	jne	.LBB11_313
	jp	.LBB11_313
	jmp	.LBB11_314
.LBB11_313:
	jmp	.LBB11_315
.LBB11_314:
	jmp	.LBB11_883
.LBB11_315:
	movsd	.LCPI11_122(%rip), %xmm0 # xmm0 = mem[0],zero
	movsd	-2232(%rbp), %xmm1      # xmm1 = mem[0],zero
	ucomisd	%xmm0, %xmm1
	jne	.LBB11_316
	jp	.LBB11_316
	jmp	.LBB11_317
.LBB11_316:
	jmp	.LBB11_318
.LBB11_317:
	jmp	.LBB11_884
.LBB11_318:
	movsd	.LCPI11_123(%rip), %xmm0 # xmm0 = mem[0],zero
	movsd	-2232(%rbp), %xmm1      # xmm1 = mem[0],zero
	ucomisd	%xmm0, %xmm1
	jne	.LBB11_319
	jp	.LBB11_319
	jmp	.LBB11_320
.LBB11_319:
	jmp	.LBB11_321
.LBB11_320:
	jmp	.LBB11_885
.LBB11_321:
	movsd	.LCPI11_124(%rip), %xmm0 # xmm0 = mem[0],zero
	movsd	-2232(%rbp), %xmm1      # xmm1 = mem[0],zero
	ucomisd	%xmm0, %xmm1
	jne	.LBB11_322
	jp	.LBB11_322
	jmp	.LBB11_323
.LBB11_322:
	jmp	.LBB11_324
.LBB11_323:
	jmp	.LBB11_886
.LBB11_324:
	movsd	.LCPI11_125(%rip), %xmm0 # xmm0 = mem[0],zero
	movsd	-2232(%rbp), %xmm1      # xmm1 = mem[0],zero
	ucomisd	%xmm0, %xmm1
	jne	.LBB11_325
	jp	.LBB11_325
	jmp	.LBB11_326
.LBB11_325:
	jmp	.LBB11_327
.LBB11_326:
	jmp	.LBB11_887
.LBB11_327:
	movsd	.LCPI11_126(%rip), %xmm0 # xmm0 = mem[0],zero
	movsd	-2232(%rbp), %xmm1      # xmm1 = mem[0],zero
	ucomisd	%xmm0, %xmm1
	jne	.LBB11_328
	jp	.LBB11_328
	jmp	.LBB11_329
.LBB11_328:
	jmp	.LBB11_330
.LBB11_329:
	jmp	.LBB11_888
.LBB11_330:
	movsd	.LCPI11_127(%rip), %xmm0 # xmm0 = mem[0],zero
	movsd	-2232(%rbp), %xmm1      # xmm1 = mem[0],zero
	ucomisd	%xmm0, %xmm1
	jne	.LBB11_331
	jp	.LBB11_331
	jmp	.LBB11_332
.LBB11_331:
	jmp	.LBB11_333
.LBB11_332:
	jmp	.LBB11_889
.LBB11_333:
	movsd	.LCPI11_128(%rip), %xmm0 # xmm0 = mem[0],zero
	movsd	-2232(%rbp), %xmm1      # xmm1 = mem[0],zero
	ucomisd	%xmm0, %xmm1
	jne	.LBB11_334
	jp	.LBB11_334
	jmp	.LBB11_335
.LBB11_334:
	jmp	.LBB11_336
.LBB11_335:
	jmp	.LBB11_890
.LBB11_336:
	movsd	.LCPI11_129(%rip), %xmm0 # xmm0 = mem[0],zero
	movsd	-2232(%rbp), %xmm1      # xmm1 = mem[0],zero
	ucomisd	%xmm0, %xmm1
	jne	.LBB11_337
	jp	.LBB11_337
	jmp	.LBB11_338
.LBB11_337:
	jmp	.LBB11_339
.LBB11_338:
	jmp	.LBB11_891
.LBB11_339:
	movsd	.LCPI11_130(%rip), %xmm0 # xmm0 = mem[0],zero
	movsd	-2232(%rbp), %xmm1      # xmm1 = mem[0],zero
	ucomisd	%xmm0, %xmm1
	jne	.LBB11_340
	jp	.LBB11_340
	jmp	.LBB11_341
.LBB11_340:
	jmp	.LBB11_342
.LBB11_341:
	jmp	.LBB11_892
.LBB11_342:
	movsd	.LCPI11_131(%rip), %xmm0 # xmm0 = mem[0],zero
	movsd	-2232(%rbp), %xmm1      # xmm1 = mem[0],zero
	ucomisd	%xmm0, %xmm1
	jne	.LBB11_343
	jp	.LBB11_343
	jmp	.LBB11_344
.LBB11_343:
	jmp	.LBB11_345
.LBB11_344:
	jmp	.LBB11_893
.LBB11_345:
	movsd	.LCPI11_132(%rip), %xmm0 # xmm0 = mem[0],zero
	movsd	-2232(%rbp), %xmm1      # xmm1 = mem[0],zero
	ucomisd	%xmm0, %xmm1
	jne	.LBB11_346
	jp	.LBB11_346
	jmp	.LBB11_347
.LBB11_346:
	jmp	.LBB11_348
.LBB11_347:
	jmp	.LBB11_894
.LBB11_348:
	movsd	.LCPI11_133(%rip), %xmm0 # xmm0 = mem[0],zero
	movsd	-2232(%rbp), %xmm1      # xmm1 = mem[0],zero
	ucomisd	%xmm0, %xmm1
	jne	.LBB11_349
	jp	.LBB11_349
	jmp	.LBB11_350
.LBB11_349:
	jmp	.LBB11_351
.LBB11_350:
	jmp	.LBB11_895
.LBB11_351:
	movsd	.LCPI11_134(%rip), %xmm0 # xmm0 = mem[0],zero
	movsd	-2232(%rbp), %xmm1      # xmm1 = mem[0],zero
	ucomisd	%xmm0, %xmm1
	jne	.LBB11_352
	jp	.LBB11_352
	jmp	.LBB11_353
.LBB11_352:
	jmp	.LBB11_354
.LBB11_353:
	jmp	.LBB11_896
.LBB11_354:
	movsd	.LCPI11_40(%rip), %xmm0 # xmm0 = mem[0],zero
	movsd	-2232(%rbp), %xmm1      # xmm1 = mem[0],zero
	ucomisd	%xmm0, %xmm1
	jne	.LBB11_355
	jp	.LBB11_355
	jmp	.LBB11_356
.LBB11_355:
	jmp	.LBB11_357
.LBB11_356:
	jmp	.LBB11_897
.LBB11_357:
	movsd	.LCPI11_135(%rip), %xmm0 # xmm0 = mem[0],zero
	movsd	-2232(%rbp), %xmm1      # xmm1 = mem[0],zero
	ucomisd	%xmm0, %xmm1
	jne	.LBB11_358
	jp	.LBB11_358
	jmp	.LBB11_359
.LBB11_358:
	jmp	.LBB11_360
.LBB11_359:
	jmp	.LBB11_898
.LBB11_360:
	movsd	.LCPI11_136(%rip), %xmm0 # xmm0 = mem[0],zero
	movsd	-2232(%rbp), %xmm1      # xmm1 = mem[0],zero
	ucomisd	%xmm0, %xmm1
	jne	.LBB11_361
	jp	.LBB11_361
	jmp	.LBB11_362
.LBB11_361:
	jmp	.LBB11_363
.LBB11_362:
	jmp	.LBB11_899
.LBB11_363:
	movsd	.LCPI11_137(%rip), %xmm0 # xmm0 = mem[0],zero
	movsd	-2232(%rbp), %xmm1      # xmm1 = mem[0],zero
	ucomisd	%xmm0, %xmm1
	jne	.LBB11_364
	jp	.LBB11_364
	jmp	.LBB11_365
.LBB11_364:
	jmp	.LBB11_366
.LBB11_365:
	jmp	.LBB11_900
.LBB11_366:
	movsd	.LCPI11_138(%rip), %xmm0 # xmm0 = mem[0],zero
	movsd	-2232(%rbp), %xmm1      # xmm1 = mem[0],zero
	ucomisd	%xmm0, %xmm1
	jne	.LBB11_367
	jp	.LBB11_367
	jmp	.LBB11_368
.LBB11_367:
	jmp	.LBB11_369
.LBB11_368:
	jmp	.LBB11_901
.LBB11_369:
	movsd	.LCPI11_139(%rip), %xmm0 # xmm0 = mem[0],zero
	movsd	-2232(%rbp), %xmm1      # xmm1 = mem[0],zero
	ucomisd	%xmm0, %xmm1
	jne	.LBB11_370
	jp	.LBB11_370
	jmp	.LBB11_371
.LBB11_370:
	jmp	.LBB11_372
.LBB11_371:
	jmp	.LBB11_902
.LBB11_372:
	movsd	.LCPI11_140(%rip), %xmm0 # xmm0 = mem[0],zero
	movsd	-2232(%rbp), %xmm1      # xmm1 = mem[0],zero
	ucomisd	%xmm0, %xmm1
	jne	.LBB11_373
	jp	.LBB11_373
	jmp	.LBB11_374
.LBB11_373:
	jmp	.LBB11_375
.LBB11_374:
	jmp	.LBB11_903
.LBB11_375:
	movsd	.LCPI11_141(%rip), %xmm0 # xmm0 = mem[0],zero
	movsd	-2232(%rbp), %xmm1      # xmm1 = mem[0],zero
	ucomisd	%xmm0, %xmm1
	jne	.LBB11_376
	jp	.LBB11_376
	jmp	.LBB11_377
.LBB11_376:
	jmp	.LBB11_378
.LBB11_377:
	jmp	.LBB11_904
.LBB11_378:
	movsd	.LCPI11_142(%rip), %xmm0 # xmm0 = mem[0],zero
	movsd	-2232(%rbp), %xmm1      # xmm1 = mem[0],zero
	ucomisd	%xmm0, %xmm1
	jne	.LBB11_379
	jp	.LBB11_379
	jmp	.LBB11_380
.LBB11_379:
	jmp	.LBB11_381
.LBB11_380:
	jmp	.LBB11_905
.LBB11_381:
	movsd	.LCPI11_143(%rip), %xmm0 # xmm0 = mem[0],zero
	movsd	-2232(%rbp), %xmm1      # xmm1 = mem[0],zero
	ucomisd	%xmm0, %xmm1
	jne	.LBB11_382
	jp	.LBB11_382
	jmp	.LBB11_383
.LBB11_382:
	jmp	.LBB11_384
.LBB11_383:
	jmp	.LBB11_906
.LBB11_384:
	movsd	.LCPI11_144(%rip), %xmm0 # xmm0 = mem[0],zero
	movsd	-2232(%rbp), %xmm1      # xmm1 = mem[0],zero
	ucomisd	%xmm0, %xmm1
	jne	.LBB11_385
	jp	.LBB11_385
	jmp	.LBB11_386
.LBB11_385:
	jmp	.LBB11_387
.LBB11_386:
	jmp	.LBB11_907
.LBB11_387:
	movsd	.LCPI11_145(%rip), %xmm0 # xmm0 = mem[0],zero
	movsd	-2232(%rbp), %xmm1      # xmm1 = mem[0],zero
	ucomisd	%xmm0, %xmm1
	jne	.LBB11_388
	jp	.LBB11_388
	jmp	.LBB11_389
.LBB11_388:
	jmp	.LBB11_390
.LBB11_389:
	jmp	.LBB11_908
.LBB11_390:
	movsd	.LCPI11_57(%rip), %xmm0 # xmm0 = mem[0],zero
	movsd	-2232(%rbp), %xmm1      # xmm1 = mem[0],zero
	ucomisd	%xmm0, %xmm1
	jne	.LBB11_391
	jp	.LBB11_391
	jmp	.LBB11_392
.LBB11_391:
	jmp	.LBB11_393
.LBB11_392:
	jmp	.LBB11_909
.LBB11_393:
	movsd	.LCPI11_146(%rip), %xmm0 # xmm0 = mem[0],zero
	movsd	-2232(%rbp), %xmm1      # xmm1 = mem[0],zero
	ucomisd	%xmm0, %xmm1
	jne	.LBB11_394
	jp	.LBB11_394
	jmp	.LBB11_395
.LBB11_394:
	jmp	.LBB11_396
.LBB11_395:
	jmp	.LBB11_910
.LBB11_396:
	movsd	.LCPI11_147(%rip), %xmm0 # xmm0 = mem[0],zero
	movsd	-2232(%rbp), %xmm1      # xmm1 = mem[0],zero
	ucomisd	%xmm0, %xmm1
	jne	.LBB11_397
	jp	.LBB11_397
	jmp	.LBB11_398
.LBB11_397:
	jmp	.LBB11_399
.LBB11_398:
	jmp	.LBB11_911
.LBB11_399:
	movsd	.LCPI11_148(%rip), %xmm0 # xmm0 = mem[0],zero
	movsd	-2232(%rbp), %xmm1      # xmm1 = mem[0],zero
	ucomisd	%xmm0, %xmm1
	jne	.LBB11_400
	jp	.LBB11_400
	jmp	.LBB11_401
.LBB11_400:
	jmp	.LBB11_402
.LBB11_401:
	jmp	.LBB11_912
.LBB11_402:
	movsd	.LCPI11_149(%rip), %xmm0 # xmm0 = mem[0],zero
	movsd	-2232(%rbp), %xmm1      # xmm1 = mem[0],zero
	ucomisd	%xmm0, %xmm1
	jne	.LBB11_403
	jp	.LBB11_403
	jmp	.LBB11_404
.LBB11_403:
	jmp	.LBB11_405
.LBB11_404:
	jmp	.LBB11_913
.LBB11_405:
	movsd	.LCPI11_42(%rip), %xmm0 # xmm0 = mem[0],zero
	movsd	-2232(%rbp), %xmm1      # xmm1 = mem[0],zero
	ucomisd	%xmm0, %xmm1
	jne	.LBB11_406
	jp	.LBB11_406
	jmp	.LBB11_407
.LBB11_406:
	jmp	.LBB11_408
.LBB11_407:
	jmp	.LBB11_914
.LBB11_408:
	movsd	.LCPI11_150(%rip), %xmm0 # xmm0 = mem[0],zero
	movsd	-2232(%rbp), %xmm1      # xmm1 = mem[0],zero
	ucomisd	%xmm0, %xmm1
	jne	.LBB11_409
	jp	.LBB11_409
	jmp	.LBB11_410
.LBB11_409:
	jmp	.LBB11_411
.LBB11_410:
	jmp	.LBB11_915
.LBB11_411:
	movsd	.LCPI11_151(%rip), %xmm0 # xmm0 = mem[0],zero
	movsd	-2232(%rbp), %xmm1      # xmm1 = mem[0],zero
	ucomisd	%xmm0, %xmm1
	jne	.LBB11_412
	jp	.LBB11_412
	jmp	.LBB11_413
.LBB11_412:
	jmp	.LBB11_414
.LBB11_413:
	jmp	.LBB11_916
.LBB11_414:
	movsd	.LCPI11_152(%rip), %xmm0 # xmm0 = mem[0],zero
	movsd	-2232(%rbp), %xmm1      # xmm1 = mem[0],zero
	ucomisd	%xmm0, %xmm1
	jne	.LBB11_415
	jp	.LBB11_415
	jmp	.LBB11_416
.LBB11_415:
	jmp	.LBB11_417
.LBB11_416:
	jmp	.LBB11_917
.LBB11_417:
	movsd	.LCPI11_153(%rip), %xmm0 # xmm0 = mem[0],zero
	movsd	-2232(%rbp), %xmm1      # xmm1 = mem[0],zero
	ucomisd	%xmm0, %xmm1
	jne	.LBB11_418
	jp	.LBB11_418
	jmp	.LBB11_419
.LBB11_418:
	jmp	.LBB11_420
.LBB11_419:
	jmp	.LBB11_918
.LBB11_420:
	movsd	.LCPI11_154(%rip), %xmm0 # xmm0 = mem[0],zero
	movsd	-2232(%rbp), %xmm1      # xmm1 = mem[0],zero
	ucomisd	%xmm0, %xmm1
	jne	.LBB11_421
	jp	.LBB11_421
	jmp	.LBB11_422
.LBB11_421:
	jmp	.LBB11_423
.LBB11_422:
	jmp	.LBB11_919
.LBB11_423:
	movsd	.LCPI11_155(%rip), %xmm0 # xmm0 = mem[0],zero
	movsd	-2232(%rbp), %xmm1      # xmm1 = mem[0],zero
	ucomisd	%xmm0, %xmm1
	jne	.LBB11_424
	jp	.LBB11_424
	jmp	.LBB11_425
.LBB11_424:
	jmp	.LBB11_426
.LBB11_425:
	jmp	.LBB11_920
.LBB11_426:
	movsd	.LCPI11_156(%rip), %xmm0 # xmm0 = mem[0],zero
	movsd	-2232(%rbp), %xmm1      # xmm1 = mem[0],zero
	ucomisd	%xmm0, %xmm1
	jne	.LBB11_427
	jp	.LBB11_427
	jmp	.LBB11_428
.LBB11_427:
	jmp	.LBB11_429
.LBB11_428:
	jmp	.LBB11_921
.LBB11_429:
	movsd	.LCPI11_157(%rip), %xmm0 # xmm0 = mem[0],zero
	movsd	-2232(%rbp), %xmm1      # xmm1 = mem[0],zero
	ucomisd	%xmm0, %xmm1
	jne	.LBB11_430
	jp	.LBB11_430
	jmp	.LBB11_431
.LBB11_430:
	jmp	.LBB11_432
.LBB11_431:
	jmp	.LBB11_922
.LBB11_432:
	movsd	.LCPI11_158(%rip), %xmm0 # xmm0 = mem[0],zero
	movsd	-2232(%rbp), %xmm1      # xmm1 = mem[0],zero
	ucomisd	%xmm0, %xmm1
	jne	.LBB11_433
	jp	.LBB11_433
	jmp	.LBB11_434
.LBB11_433:
	jmp	.LBB11_435
.LBB11_434:
	jmp	.LBB11_923
.LBB11_435:
	movsd	.LCPI11_159(%rip), %xmm0 # xmm0 = mem[0],zero
	movsd	-2232(%rbp), %xmm1      # xmm1 = mem[0],zero
	ucomisd	%xmm0, %xmm1
	jne	.LBB11_436
	jp	.LBB11_436
	jmp	.LBB11_437
.LBB11_436:
	jmp	.LBB11_438
.LBB11_437:
	jmp	.LBB11_924
.LBB11_438:
	movsd	.LCPI11_160(%rip), %xmm0 # xmm0 = mem[0],zero
	movsd	-2232(%rbp), %xmm1      # xmm1 = mem[0],zero
	ucomisd	%xmm0, %xmm1
	jne	.LBB11_439
	jp	.LBB11_439
	jmp	.LBB11_440
.LBB11_439:
	jmp	.LBB11_441
.LBB11_440:
	jmp	.LBB11_925
.LBB11_441:
	movsd	.LCPI11_161(%rip), %xmm0 # xmm0 = mem[0],zero
	movsd	-2232(%rbp), %xmm1      # xmm1 = mem[0],zero
	ucomisd	%xmm0, %xmm1
	jne	.LBB11_442
	jp	.LBB11_442
	jmp	.LBB11_443
.LBB11_442:
	jmp	.LBB11_444
.LBB11_443:
	jmp	.LBB11_926
.LBB11_444:
	movsd	.LCPI11_162(%rip), %xmm0 # xmm0 = mem[0],zero
	movsd	-2232(%rbp), %xmm1      # xmm1 = mem[0],zero
	ucomisd	%xmm0, %xmm1
	jne	.LBB11_445
	jp	.LBB11_445
	jmp	.LBB11_446
.LBB11_445:
	jmp	.LBB11_447
.LBB11_446:
	jmp	.LBB11_927
.LBB11_447:
	movsd	.LCPI11_163(%rip), %xmm0 # xmm0 = mem[0],zero
	movsd	-2232(%rbp), %xmm1      # xmm1 = mem[0],zero
	ucomisd	%xmm0, %xmm1
	jne	.LBB11_448
	jp	.LBB11_448
	jmp	.LBB11_449
.LBB11_448:
	jmp	.LBB11_450
.LBB11_449:
	jmp	.LBB11_928
.LBB11_450:
	movsd	.LCPI11_164(%rip), %xmm0 # xmm0 = mem[0],zero
	movsd	-2232(%rbp), %xmm1      # xmm1 = mem[0],zero
	ucomisd	%xmm0, %xmm1
	jne	.LBB11_451
	jp	.LBB11_451
	jmp	.LBB11_452
.LBB11_451:
	jmp	.LBB11_453
.LBB11_452:
	jmp	.LBB11_929
.LBB11_453:
	movsd	.LCPI11_44(%rip), %xmm0 # xmm0 = mem[0],zero
	movsd	-2232(%rbp), %xmm1      # xmm1 = mem[0],zero
	ucomisd	%xmm0, %xmm1
	jne	.LBB11_454
	jp	.LBB11_454
	jmp	.LBB11_455
.LBB11_454:
	jmp	.LBB11_456
.LBB11_455:
	jmp	.LBB11_930
.LBB11_456:
	movsd	.LCPI11_165(%rip), %xmm0 # xmm0 = mem[0],zero
	movsd	-2232(%rbp), %xmm1      # xmm1 = mem[0],zero
	ucomisd	%xmm0, %xmm1
	jne	.LBB11_457
	jp	.LBB11_457
	jmp	.LBB11_458
.LBB11_457:
	jmp	.LBB11_459
.LBB11_458:
	jmp	.LBB11_931
.LBB11_459:
	movsd	.LCPI11_166(%rip), %xmm0 # xmm0 = mem[0],zero
	movsd	-2232(%rbp), %xmm1      # xmm1 = mem[0],zero
	ucomisd	%xmm0, %xmm1
	jne	.LBB11_460
	jp	.LBB11_460
	jmp	.LBB11_461
.LBB11_460:
	jmp	.LBB11_462
.LBB11_461:
	jmp	.LBB11_932
.LBB11_462:
	movsd	.LCPI11_167(%rip), %xmm0 # xmm0 = mem[0],zero
	movsd	-2232(%rbp), %xmm1      # xmm1 = mem[0],zero
	ucomisd	%xmm0, %xmm1
	jne	.LBB11_463
	jp	.LBB11_463
	jmp	.LBB11_464
.LBB11_463:
	jmp	.LBB11_465
.LBB11_464:
	jmp	.LBB11_933
.LBB11_465:
	movsd	.LCPI11_168(%rip), %xmm0 # xmm0 = mem[0],zero
	movsd	-2232(%rbp), %xmm1      # xmm1 = mem[0],zero
	ucomisd	%xmm0, %xmm1
	jne	.LBB11_466
	jp	.LBB11_466
	jmp	.LBB11_467
.LBB11_466:
	jmp	.LBB11_468
.LBB11_467:
	jmp	.LBB11_934
.LBB11_468:
	movsd	.LCPI11_169(%rip), %xmm0 # xmm0 = mem[0],zero
	movsd	-2232(%rbp), %xmm1      # xmm1 = mem[0],zero
	ucomisd	%xmm0, %xmm1
	jne	.LBB11_469
	jp	.LBB11_469
	jmp	.LBB11_470
.LBB11_469:
	jmp	.LBB11_471
.LBB11_470:
	jmp	.LBB11_935
.LBB11_471:
	movsd	.LCPI11_170(%rip), %xmm0 # xmm0 = mem[0],zero
	movsd	-2232(%rbp), %xmm1      # xmm1 = mem[0],zero
	ucomisd	%xmm0, %xmm1
	jne	.LBB11_472
	jp	.LBB11_472
	jmp	.LBB11_473
.LBB11_472:
	jmp	.LBB11_474
.LBB11_473:
	jmp	.LBB11_936
.LBB11_474:
	movsd	.LCPI11_171(%rip), %xmm0 # xmm0 = mem[0],zero
	movsd	-2232(%rbp), %xmm1      # xmm1 = mem[0],zero
	ucomisd	%xmm0, %xmm1
	jne	.LBB11_475
	jp	.LBB11_475
	jmp	.LBB11_476
.LBB11_475:
	jmp	.LBB11_477
.LBB11_476:
	jmp	.LBB11_937
.LBB11_477:
	movsd	.LCPI11_172(%rip), %xmm0 # xmm0 = mem[0],zero
	movsd	-2232(%rbp), %xmm1      # xmm1 = mem[0],zero
	ucomisd	%xmm0, %xmm1
	jne	.LBB11_478
	jp	.LBB11_478
	jmp	.LBB11_479
.LBB11_478:
	jmp	.LBB11_480
.LBB11_479:
	jmp	.LBB11_938
.LBB11_480:
	movsd	.LCPI11_173(%rip), %xmm0 # xmm0 = mem[0],zero
	movsd	-2232(%rbp), %xmm1      # xmm1 = mem[0],zero
	ucomisd	%xmm0, %xmm1
	jne	.LBB11_481
	jp	.LBB11_481
	jmp	.LBB11_482
.LBB11_481:
	jmp	.LBB11_483
.LBB11_482:
	jmp	.LBB11_939
.LBB11_483:
	movsd	.LCPI11_174(%rip), %xmm0 # xmm0 = mem[0],zero
	movsd	-2232(%rbp), %xmm1      # xmm1 = mem[0],zero
	ucomisd	%xmm0, %xmm1
	jne	.LBB11_484
	jp	.LBB11_484
	jmp	.LBB11_485
.LBB11_484:
	jmp	.LBB11_486
.LBB11_485:
	jmp	.LBB11_940
.LBB11_486:
	movsd	.LCPI11_175(%rip), %xmm0 # xmm0 = mem[0],zero
	movsd	-2232(%rbp), %xmm1      # xmm1 = mem[0],zero
	ucomisd	%xmm0, %xmm1
	jne	.LBB11_487
	jp	.LBB11_487
	jmp	.LBB11_488
.LBB11_487:
	jmp	.LBB11_489
.LBB11_488:
	jmp	.LBB11_941
.LBB11_489:
	movsd	.LCPI11_80(%rip), %xmm0 # xmm0 = mem[0],zero
	movsd	-2232(%rbp), %xmm1      # xmm1 = mem[0],zero
	ucomisd	%xmm0, %xmm1
	jne	.LBB11_490
	jp	.LBB11_490
	jmp	.LBB11_491
.LBB11_490:
	jmp	.LBB11_492
.LBB11_491:
	jmp	.LBB11_942
.LBB11_492:
	movsd	.LCPI11_176(%rip), %xmm0 # xmm0 = mem[0],zero
	movsd	-2232(%rbp), %xmm1      # xmm1 = mem[0],zero
	ucomisd	%xmm0, %xmm1
	jne	.LBB11_493
	jp	.LBB11_493
	jmp	.LBB11_494
.LBB11_493:
	jmp	.LBB11_495
.LBB11_494:
	jmp	.LBB11_943
.LBB11_495:
	movsd	.LCPI11_177(%rip), %xmm0 # xmm0 = mem[0],zero
	movsd	-2232(%rbp), %xmm1      # xmm1 = mem[0],zero
	ucomisd	%xmm0, %xmm1
	jne	.LBB11_496
	jp	.LBB11_496
	jmp	.LBB11_497
.LBB11_496:
	jmp	.LBB11_498
.LBB11_497:
	jmp	.LBB11_944
.LBB11_498:
	movsd	.LCPI11_178(%rip), %xmm0 # xmm0 = mem[0],zero
	movsd	-2232(%rbp), %xmm1      # xmm1 = mem[0],zero
	ucomisd	%xmm0, %xmm1
	jne	.LBB11_499
	jp	.LBB11_499
	jmp	.LBB11_500
.LBB11_499:
	jmp	.LBB11_501
.LBB11_500:
	jmp	.LBB11_945
.LBB11_501:
	movsd	.LCPI11_46(%rip), %xmm0 # xmm0 = mem[0],zero
	movsd	-2232(%rbp), %xmm1      # xmm1 = mem[0],zero
	ucomisd	%xmm0, %xmm1
	jne	.LBB11_502
	jp	.LBB11_502
	jmp	.LBB11_503
.LBB11_502:
	jmp	.LBB11_504
.LBB11_503:
	jmp	.LBB11_946
.LBB11_504:
	movsd	.LCPI11_179(%rip), %xmm0 # xmm0 = mem[0],zero
	movsd	-2232(%rbp), %xmm1      # xmm1 = mem[0],zero
	ucomisd	%xmm0, %xmm1
	jne	.LBB11_505
	jp	.LBB11_505
	jmp	.LBB11_506
.LBB11_505:
	jmp	.LBB11_507
.LBB11_506:
	jmp	.LBB11_947
.LBB11_507:
	movsd	.LCPI11_180(%rip), %xmm0 # xmm0 = mem[0],zero
	movsd	-2232(%rbp), %xmm1      # xmm1 = mem[0],zero
	ucomisd	%xmm0, %xmm1
	jne	.LBB11_508
	jp	.LBB11_508
	jmp	.LBB11_509
.LBB11_508:
	jmp	.LBB11_510
.LBB11_509:
	jmp	.LBB11_948
.LBB11_510:
	movsd	.LCPI11_181(%rip), %xmm0 # xmm0 = mem[0],zero
	movsd	-2232(%rbp), %xmm1      # xmm1 = mem[0],zero
	ucomisd	%xmm0, %xmm1
	jne	.LBB11_511
	jp	.LBB11_511
	jmp	.LBB11_512
.LBB11_511:
	jmp	.LBB11_513
.LBB11_512:
	jmp	.LBB11_949
.LBB11_513:
	movsd	.LCPI11_182(%rip), %xmm0 # xmm0 = mem[0],zero
	movsd	-2232(%rbp), %xmm1      # xmm1 = mem[0],zero
	ucomisd	%xmm0, %xmm1
	jne	.LBB11_514
	jp	.LBB11_514
	jmp	.LBB11_515
.LBB11_514:
	jmp	.LBB11_516
.LBB11_515:
	jmp	.LBB11_950
.LBB11_516:
	movsd	.LCPI11_183(%rip), %xmm0 # xmm0 = mem[0],zero
	movsd	-2232(%rbp), %xmm1      # xmm1 = mem[0],zero
	ucomisd	%xmm0, %xmm1
	jne	.LBB11_517
	jp	.LBB11_517
	jmp	.LBB11_518
.LBB11_517:
	jmp	.LBB11_519
.LBB11_518:
	jmp	.LBB11_951
.LBB11_519:
	movsd	.LCPI11_184(%rip), %xmm0 # xmm0 = mem[0],zero
	movsd	-2232(%rbp), %xmm1      # xmm1 = mem[0],zero
	ucomisd	%xmm0, %xmm1
	jne	.LBB11_520
	jp	.LBB11_520
	jmp	.LBB11_521
.LBB11_520:
	jmp	.LBB11_522
.LBB11_521:
	jmp	.LBB11_952
.LBB11_522:
	movsd	.LCPI11_185(%rip), %xmm0 # xmm0 = mem[0],zero
	movsd	-2232(%rbp), %xmm1      # xmm1 = mem[0],zero
	ucomisd	%xmm0, %xmm1
	jne	.LBB11_523
	jp	.LBB11_523
	jmp	.LBB11_524
.LBB11_523:
	jmp	.LBB11_525
.LBB11_524:
	jmp	.LBB11_953
.LBB11_525:
	movsd	.LCPI11_8(%rip), %xmm0  # xmm0 = mem[0],zero
	movsd	-2232(%rbp), %xmm1      # xmm1 = mem[0],zero
	ucomisd	%xmm0, %xmm1
	jne	.LBB11_526
	jp	.LBB11_526
	jmp	.LBB11_527
.LBB11_526:
	jmp	.LBB11_528
.LBB11_527:
	jmp	.LBB11_954
.LBB11_528:
	movsd	.LCPI11_186(%rip), %xmm0 # xmm0 = mem[0],zero
	movsd	-2232(%rbp), %xmm1      # xmm1 = mem[0],zero
	ucomisd	%xmm0, %xmm1
	jne	.LBB11_529
	jp	.LBB11_529
	jmp	.LBB11_530
.LBB11_529:
	jmp	.LBB11_531
.LBB11_530:
	jmp	.LBB11_955
.LBB11_531:
	movsd	.LCPI11_187(%rip), %xmm0 # xmm0 = mem[0],zero
	movsd	-2232(%rbp), %xmm1      # xmm1 = mem[0],zero
	ucomisd	%xmm0, %xmm1
	jne	.LBB11_532
	jp	.LBB11_532
	jmp	.LBB11_533
.LBB11_532:
	jmp	.LBB11_534
.LBB11_533:
	jmp	.LBB11_956
.LBB11_534:
	movsd	.LCPI11_188(%rip), %xmm0 # xmm0 = mem[0],zero
	movsd	-2232(%rbp), %xmm1      # xmm1 = mem[0],zero
	ucomisd	%xmm0, %xmm1
	jne	.LBB11_535
	jp	.LBB11_535
	jmp	.LBB11_536
.LBB11_535:
	jmp	.LBB11_537
.LBB11_536:
	jmp	.LBB11_957
.LBB11_537:
	movsd	.LCPI11_189(%rip), %xmm0 # xmm0 = mem[0],zero
	movsd	-2232(%rbp), %xmm1      # xmm1 = mem[0],zero
	ucomisd	%xmm0, %xmm1
	jne	.LBB11_538
	jp	.LBB11_538
	jmp	.LBB11_539
.LBB11_538:
	jmp	.LBB11_540
.LBB11_539:
	jmp	.LBB11_958
.LBB11_540:
	movsd	.LCPI11_190(%rip), %xmm0 # xmm0 = mem[0],zero
	movsd	-2232(%rbp), %xmm1      # xmm1 = mem[0],zero
	ucomisd	%xmm0, %xmm1
	jne	.LBB11_541
	jp	.LBB11_541
	jmp	.LBB11_542
.LBB11_541:
	jmp	.LBB11_543
.LBB11_542:
	jmp	.LBB11_959
.LBB11_543:
	movsd	.LCPI11_191(%rip), %xmm0 # xmm0 = mem[0],zero
	movsd	-2232(%rbp), %xmm1      # xmm1 = mem[0],zero
	ucomisd	%xmm0, %xmm1
	jne	.LBB11_544
	jp	.LBB11_544
	jmp	.LBB11_545
.LBB11_544:
	jmp	.LBB11_546
.LBB11_545:
	jmp	.LBB11_960
.LBB11_546:
	movsd	.LCPI11_192(%rip), %xmm0 # xmm0 = mem[0],zero
	movsd	-2232(%rbp), %xmm1      # xmm1 = mem[0],zero
	ucomisd	%xmm0, %xmm1
	jne	.LBB11_547
	jp	.LBB11_547
	jmp	.LBB11_548
.LBB11_547:
	jmp	.LBB11_549
.LBB11_548:
	jmp	.LBB11_961
.LBB11_549:
	movsd	.LCPI11_193(%rip), %xmm0 # xmm0 = mem[0],zero
	movsd	-2232(%rbp), %xmm1      # xmm1 = mem[0],zero
	ucomisd	%xmm0, %xmm1
	jne	.LBB11_550
	jp	.LBB11_550
	jmp	.LBB11_551
.LBB11_550:
	jmp	.LBB11_552
.LBB11_551:
	jmp	.LBB11_962
.LBB11_552:
	movsd	.LCPI11_194(%rip), %xmm0 # xmm0 = mem[0],zero
	movsd	-2232(%rbp), %xmm1      # xmm1 = mem[0],zero
	ucomisd	%xmm0, %xmm1
	jne	.LBB11_553
	jp	.LBB11_553
	jmp	.LBB11_554
.LBB11_553:
	jmp	.LBB11_555
.LBB11_554:
	jmp	.LBB11_963
.LBB11_555:
	movsd	.LCPI11_195(%rip), %xmm0 # xmm0 = mem[0],zero
	movsd	-2232(%rbp), %xmm1      # xmm1 = mem[0],zero
	ucomisd	%xmm0, %xmm1
	jne	.LBB11_556
	jp	.LBB11_556
	jmp	.LBB11_557
.LBB11_556:
	jmp	.LBB11_558
.LBB11_557:
	jmp	.LBB11_964
.LBB11_558:
	movsd	.LCPI11_196(%rip), %xmm0 # xmm0 = mem[0],zero
	movsd	-2232(%rbp), %xmm1      # xmm1 = mem[0],zero
	ucomisd	%xmm0, %xmm1
	jne	.LBB11_559
	jp	.LBB11_559
	jmp	.LBB11_560
.LBB11_559:
	jmp	.LBB11_561
.LBB11_560:
	jmp	.LBB11_965
.LBB11_561:
	movsd	.LCPI11_48(%rip), %xmm0 # xmm0 = mem[0],zero
	movsd	-2232(%rbp), %xmm1      # xmm1 = mem[0],zero
	ucomisd	%xmm0, %xmm1
	jne	.LBB11_562
	jp	.LBB11_562
	jmp	.LBB11_563
.LBB11_562:
	jmp	.LBB11_564
.LBB11_563:
	jmp	.LBB11_966
.LBB11_564:
	movsd	.LCPI11_197(%rip), %xmm0 # xmm0 = mem[0],zero
	movsd	-2232(%rbp), %xmm1      # xmm1 = mem[0],zero
	ucomisd	%xmm0, %xmm1
	jne	.LBB11_565
	jp	.LBB11_565
	jmp	.LBB11_566
.LBB11_565:
	jmp	.LBB11_567
.LBB11_566:
	jmp	.LBB11_967
.LBB11_567:
	movsd	.LCPI11_198(%rip), %xmm0 # xmm0 = mem[0],zero
	movsd	-2232(%rbp), %xmm1      # xmm1 = mem[0],zero
	ucomisd	%xmm0, %xmm1
	jne	.LBB11_568
	jp	.LBB11_568
	jmp	.LBB11_569
.LBB11_568:
	jmp	.LBB11_570
.LBB11_569:
	jmp	.LBB11_968
.LBB11_570:
	movsd	.LCPI11_199(%rip), %xmm0 # xmm0 = mem[0],zero
	movsd	-2232(%rbp), %xmm1      # xmm1 = mem[0],zero
	ucomisd	%xmm0, %xmm1
	jne	.LBB11_571
	jp	.LBB11_571
	jmp	.LBB11_572
.LBB11_571:
	jmp	.LBB11_573
.LBB11_572:
	jmp	.LBB11_969
.LBB11_573:
	movsd	.LCPI11_200(%rip), %xmm0 # xmm0 = mem[0],zero
	movsd	-2232(%rbp), %xmm1      # xmm1 = mem[0],zero
	ucomisd	%xmm0, %xmm1
	jne	.LBB11_574
	jp	.LBB11_574
	jmp	.LBB11_575
.LBB11_574:
	jmp	.LBB11_576
.LBB11_575:
	jmp	.LBB11_970
.LBB11_576:
	movsd	.LCPI11_201(%rip), %xmm0 # xmm0 = mem[0],zero
	movsd	-2232(%rbp), %xmm1      # xmm1 = mem[0],zero
	ucomisd	%xmm0, %xmm1
	jne	.LBB11_577
	jp	.LBB11_577
	jmp	.LBB11_578
.LBB11_577:
	jmp	.LBB11_579
.LBB11_578:
	jmp	.LBB11_971
.LBB11_579:
	movsd	.LCPI11_202(%rip), %xmm0 # xmm0 = mem[0],zero
	movsd	-2232(%rbp), %xmm1      # xmm1 = mem[0],zero
	ucomisd	%xmm0, %xmm1
	jne	.LBB11_580
	jp	.LBB11_580
	jmp	.LBB11_581
.LBB11_580:
	jmp	.LBB11_582
.LBB11_581:
	jmp	.LBB11_972
.LBB11_582:
	movsd	.LCPI11_203(%rip), %xmm0 # xmm0 = mem[0],zero
	movsd	-2232(%rbp), %xmm1      # xmm1 = mem[0],zero
	ucomisd	%xmm0, %xmm1
	jne	.LBB11_583
	jp	.LBB11_583
	jmp	.LBB11_584
.LBB11_583:
	jmp	.LBB11_585
.LBB11_584:
	jmp	.LBB11_973
.LBB11_585:
	movsd	.LCPI11_59(%rip), %xmm0 # xmm0 = mem[0],zero
	movsd	-2232(%rbp), %xmm1      # xmm1 = mem[0],zero
	ucomisd	%xmm0, %xmm1
	jne	.LBB11_586
	jp	.LBB11_586
	jmp	.LBB11_587
.LBB11_586:
	jmp	.LBB11_588
.LBB11_587:
	jmp	.LBB11_974
.LBB11_588:
	movsd	.LCPI11_204(%rip), %xmm0 # xmm0 = mem[0],zero
	movsd	-2232(%rbp), %xmm1      # xmm1 = mem[0],zero
	ucomisd	%xmm0, %xmm1
	jne	.LBB11_589
	jp	.LBB11_589
	jmp	.LBB11_590
.LBB11_589:
	jmp	.LBB11_591
.LBB11_590:
	jmp	.LBB11_975
.LBB11_591:
	movsd	.LCPI11_205(%rip), %xmm0 # xmm0 = mem[0],zero
	movsd	-2232(%rbp), %xmm1      # xmm1 = mem[0],zero
	ucomisd	%xmm0, %xmm1
	jne	.LBB11_592
	jp	.LBB11_592
	jmp	.LBB11_593
.LBB11_592:
	jmp	.LBB11_594
.LBB11_593:
	jmp	.LBB11_976
.LBB11_594:
	movsd	.LCPI11_206(%rip), %xmm0 # xmm0 = mem[0],zero
	movsd	-2232(%rbp), %xmm1      # xmm1 = mem[0],zero
	ucomisd	%xmm0, %xmm1
	jne	.LBB11_595
	jp	.LBB11_595
	jmp	.LBB11_596
.LBB11_595:
	jmp	.LBB11_597
.LBB11_596:
	jmp	.LBB11_977
.LBB11_597:
	movsd	.LCPI11_207(%rip), %xmm0 # xmm0 = mem[0],zero
	movsd	-2232(%rbp), %xmm1      # xmm1 = mem[0],zero
	ucomisd	%xmm0, %xmm1
	jne	.LBB11_598
	jp	.LBB11_598
	jmp	.LBB11_599
.LBB11_598:
	jmp	.LBB11_600
.LBB11_599:
	jmp	.LBB11_978
.LBB11_600:
	movsd	.LCPI11_208(%rip), %xmm0 # xmm0 = mem[0],zero
	movsd	-2232(%rbp), %xmm1      # xmm1 = mem[0],zero
	ucomisd	%xmm0, %xmm1
	jne	.LBB11_601
	jp	.LBB11_601
	jmp	.LBB11_602
.LBB11_601:
	jmp	.LBB11_603
.LBB11_602:
	jmp	.LBB11_979
.LBB11_603:
	movsd	.LCPI11_209(%rip), %xmm0 # xmm0 = mem[0],zero
	movsd	-2232(%rbp), %xmm1      # xmm1 = mem[0],zero
	ucomisd	%xmm0, %xmm1
	jne	.LBB11_604
	jp	.LBB11_604
	jmp	.LBB11_605
.LBB11_604:
	jmp	.LBB11_606
.LBB11_605:
	jmp	.LBB11_980
.LBB11_606:
	movsd	.LCPI11_210(%rip), %xmm0 # xmm0 = mem[0],zero
	movsd	-2232(%rbp), %xmm1      # xmm1 = mem[0],zero
	ucomisd	%xmm0, %xmm1
	jne	.LBB11_607
	jp	.LBB11_607
	jmp	.LBB11_608
.LBB11_607:
	jmp	.LBB11_609
.LBB11_608:
	jmp	.LBB11_981
.LBB11_609:
	movsd	.LCPI11_103(%rip), %xmm0 # xmm0 = mem[0],zero
	movsd	-2232(%rbp), %xmm1      # xmm1 = mem[0],zero
	ucomisd	%xmm0, %xmm1
	jne	.LBB11_610
	jp	.LBB11_610
	jmp	.LBB11_611
.LBB11_610:
	jmp	.LBB11_612
.LBB11_611:
	jmp	.LBB11_982
.LBB11_612:
	movsd	.LCPI11_3(%rip), %xmm0  # xmm0 = mem[0],zero
	movsd	-2232(%rbp), %xmm1      # xmm1 = mem[0],zero
	ucomisd	%xmm0, %xmm1
	jne	.LBB11_613
	jp	.LBB11_613
	jmp	.LBB11_614
.LBB11_613:
	jmp	.LBB11_615
.LBB11_614:
	jmp	.LBB11_983
.LBB11_615:
	movsd	.LCPI11_211(%rip), %xmm0 # xmm0 = mem[0],zero
	movsd	-2232(%rbp), %xmm1      # xmm1 = mem[0],zero
	ucomisd	%xmm0, %xmm1
	jne	.LBB11_616
	jp	.LBB11_616
	jmp	.LBB11_617
.LBB11_616:
	jmp	.LBB11_618
.LBB11_617:
	jmp	.LBB11_984
.LBB11_618:
	movsd	.LCPI11_212(%rip), %xmm0 # xmm0 = mem[0],zero
	movsd	-2232(%rbp), %xmm1      # xmm1 = mem[0],zero
	ucomisd	%xmm0, %xmm1
	jne	.LBB11_619
	jp	.LBB11_619
	jmp	.LBB11_620
.LBB11_619:
	jmp	.LBB11_621
.LBB11_620:
	jmp	.LBB11_985
.LBB11_621:
	movsd	.LCPI11_50(%rip), %xmm0 # xmm0 = mem[0],zero
	movsd	-2232(%rbp), %xmm1      # xmm1 = mem[0],zero
	ucomisd	%xmm0, %xmm1
	jne	.LBB11_622
	jp	.LBB11_622
	jmp	.LBB11_623
.LBB11_622:
	jmp	.LBB11_624
.LBB11_623:
	jmp	.LBB11_986
.LBB11_624:
	movsd	.LCPI11_213(%rip), %xmm0 # xmm0 = mem[0],zero
	movsd	-2232(%rbp), %xmm1      # xmm1 = mem[0],zero
	ucomisd	%xmm0, %xmm1
	jne	.LBB11_625
	jp	.LBB11_625
	jmp	.LBB11_626
.LBB11_625:
	jmp	.LBB11_627
.LBB11_626:
	jmp	.LBB11_987
.LBB11_627:
	movsd	.LCPI11_214(%rip), %xmm0 # xmm0 = mem[0],zero
	movsd	-2232(%rbp), %xmm1      # xmm1 = mem[0],zero
	ucomisd	%xmm0, %xmm1
	jne	.LBB11_628
	jp	.LBB11_628
	jmp	.LBB11_629
.LBB11_628:
	jmp	.LBB11_630
.LBB11_629:
	jmp	.LBB11_988
.LBB11_630:
	movsd	.LCPI11_215(%rip), %xmm0 # xmm0 = mem[0],zero
	movsd	-2232(%rbp), %xmm1      # xmm1 = mem[0],zero
	ucomisd	%xmm0, %xmm1
	jne	.LBB11_631
	jp	.LBB11_631
	jmp	.LBB11_632
.LBB11_631:
	jmp	.LBB11_633
.LBB11_632:
	jmp	.LBB11_989
.LBB11_633:
	movsd	.LCPI11_216(%rip), %xmm0 # xmm0 = mem[0],zero
	movsd	-2232(%rbp), %xmm1      # xmm1 = mem[0],zero
	ucomisd	%xmm0, %xmm1
	jne	.LBB11_634
	jp	.LBB11_634
	jmp	.LBB11_635
.LBB11_634:
	jmp	.LBB11_636
.LBB11_635:
	jmp	.LBB11_990
.LBB11_636:
	movsd	.LCPI11_217(%rip), %xmm0 # xmm0 = mem[0],zero
	movsd	-2232(%rbp), %xmm1      # xmm1 = mem[0],zero
	ucomisd	%xmm0, %xmm1
	jne	.LBB11_637
	jp	.LBB11_637
	jmp	.LBB11_638
.LBB11_637:
	jmp	.LBB11_639
.LBB11_638:
	jmp	.LBB11_991
.LBB11_639:
	movsd	.LCPI11_218(%rip), %xmm0 # xmm0 = mem[0],zero
	movsd	-2232(%rbp), %xmm1      # xmm1 = mem[0],zero
	ucomisd	%xmm0, %xmm1
	jne	.LBB11_640
	jp	.LBB11_640
	jmp	.LBB11_641
.LBB11_640:
	jmp	.LBB11_642
.LBB11_641:
	jmp	.LBB11_992
.LBB11_642:
	movsd	.LCPI11_219(%rip), %xmm0 # xmm0 = mem[0],zero
	movsd	-2232(%rbp), %xmm1      # xmm1 = mem[0],zero
	ucomisd	%xmm0, %xmm1
	jne	.LBB11_643
	jp	.LBB11_643
	jmp	.LBB11_644
.LBB11_643:
	jmp	.LBB11_645
.LBB11_644:
	jmp	.LBB11_993
.LBB11_645:
	movsd	.LCPI11_220(%rip), %xmm0 # xmm0 = mem[0],zero
	movsd	-2232(%rbp), %xmm1      # xmm1 = mem[0],zero
	ucomisd	%xmm0, %xmm1
	jne	.LBB11_646
	jp	.LBB11_646
	jmp	.LBB11_647
.LBB11_646:
	jmp	.LBB11_648
.LBB11_647:
	jmp	.LBB11_994
.LBB11_648:
	movsd	.LCPI11_221(%rip), %xmm0 # xmm0 = mem[0],zero
	movsd	-2232(%rbp), %xmm1      # xmm1 = mem[0],zero
	ucomisd	%xmm0, %xmm1
	jne	.LBB11_649
	jp	.LBB11_649
	jmp	.LBB11_650
.LBB11_649:
	jmp	.LBB11_651
.LBB11_650:
	jmp	.LBB11_995
.LBB11_651:
	movsd	.LCPI11_222(%rip), %xmm0 # xmm0 = mem[0],zero
	movsd	-2232(%rbp), %xmm1      # xmm1 = mem[0],zero
	ucomisd	%xmm0, %xmm1
	jne	.LBB11_652
	jp	.LBB11_652
	jmp	.LBB11_653
.LBB11_652:
	jmp	.LBB11_654
.LBB11_653:
	jmp	.LBB11_996
.LBB11_654:
	movsd	.LCPI11_223(%rip), %xmm0 # xmm0 = mem[0],zero
	movsd	-2232(%rbp), %xmm1      # xmm1 = mem[0],zero
	ucomisd	%xmm0, %xmm1
	jne	.LBB11_655
	jp	.LBB11_655
	jmp	.LBB11_656
.LBB11_655:
	jmp	.LBB11_657
.LBB11_656:
	jmp	.LBB11_997
.LBB11_657:
	movsd	.LCPI11_224(%rip), %xmm0 # xmm0 = mem[0],zero
	movsd	-2232(%rbp), %xmm1      # xmm1 = mem[0],zero
	ucomisd	%xmm0, %xmm1
	jne	.LBB11_658
	jp	.LBB11_658
	jmp	.LBB11_659
.LBB11_658:
	jmp	.LBB11_660
.LBB11_659:
	jmp	.LBB11_998
.LBB11_660:
	movsd	.LCPI11_225(%rip), %xmm0 # xmm0 = mem[0],zero
	movsd	-2232(%rbp), %xmm1      # xmm1 = mem[0],zero
	ucomisd	%xmm0, %xmm1
	jne	.LBB11_661
	jp	.LBB11_661
	jmp	.LBB11_662
.LBB11_661:
	jmp	.LBB11_663
.LBB11_662:
	jmp	.LBB11_999
.LBB11_663:
	movsd	.LCPI11_226(%rip), %xmm0 # xmm0 = mem[0],zero
	movsd	-2232(%rbp), %xmm1      # xmm1 = mem[0],zero
	ucomisd	%xmm0, %xmm1
	jne	.LBB11_664
	jp	.LBB11_664
	jmp	.LBB11_665
.LBB11_664:
	jmp	.LBB11_666
.LBB11_665:
	jmp	.LBB11_1000
.LBB11_666:
	movsd	.LCPI11_227(%rip), %xmm0 # xmm0 = mem[0],zero
	movsd	-2232(%rbp), %xmm1      # xmm1 = mem[0],zero
	ucomisd	%xmm0, %xmm1
	jne	.LBB11_667
	jp	.LBB11_667
	jmp	.LBB11_668
.LBB11_667:
	jmp	.LBB11_669
.LBB11_668:
	jmp	.LBB11_1001
.LBB11_669:
	movsd	.LCPI11_228(%rip), %xmm0 # xmm0 = mem[0],zero
	movsd	-2232(%rbp), %xmm1      # xmm1 = mem[0],zero
	ucomisd	%xmm0, %xmm1
	jne	.LBB11_670
	jp	.LBB11_670
	jmp	.LBB11_671
.LBB11_670:
	jmp	.LBB11_672
.LBB11_671:
	jmp	.LBB11_1002
.LBB11_672:
	movsd	.LCPI11_105(%rip), %xmm0 # xmm0 = mem[0],zero
	movsd	-2232(%rbp), %xmm1      # xmm1 = mem[0],zero
	ucomisd	%xmm0, %xmm1
	jne	.LBB11_673
	jp	.LBB11_673
	jmp	.LBB11_674
.LBB11_673:
	jmp	.LBB11_675
.LBB11_674:
	jmp	.LBB11_1003
.LBB11_675:
	movsd	.LCPI11_229(%rip), %xmm0 # xmm0 = mem[0],zero
	movsd	-2232(%rbp), %xmm1      # xmm1 = mem[0],zero
	ucomisd	%xmm0, %xmm1
	jne	.LBB11_676
	jp	.LBB11_676
	jmp	.LBB11_677
.LBB11_676:
	jmp	.LBB11_678
.LBB11_677:
	jmp	.LBB11_1004
.LBB11_678:
	movsd	.LCPI11_230(%rip), %xmm0 # xmm0 = mem[0],zero
	movsd	-2232(%rbp), %xmm1      # xmm1 = mem[0],zero
	ucomisd	%xmm0, %xmm1
	jne	.LBB11_679
	jp	.LBB11_679
	jmp	.LBB11_680
.LBB11_679:
	jmp	.LBB11_681
.LBB11_680:
	jmp	.LBB11_1005
.LBB11_681:
	movsd	.LCPI11_231(%rip), %xmm0 # xmm0 = mem[0],zero
	movsd	-2232(%rbp), %xmm1      # xmm1 = mem[0],zero
	ucomisd	%xmm0, %xmm1
	jne	.LBB11_682
	jp	.LBB11_682
	jmp	.LBB11_683
.LBB11_682:
	jmp	.LBB11_684
.LBB11_683:
	jmp	.LBB11_1006
.LBB11_684:
	movsd	.LCPI11_83(%rip), %xmm0 # xmm0 = mem[0],zero
	movsd	-2232(%rbp), %xmm1      # xmm1 = mem[0],zero
	ucomisd	%xmm0, %xmm1
	jne	.LBB11_685
	jp	.LBB11_685
	jmp	.LBB11_686
.LBB11_685:
	jmp	.LBB11_687
.LBB11_686:
	jmp	.LBB11_1007
.LBB11_687:
	movsd	.LCPI11_232(%rip), %xmm0 # xmm0 = mem[0],zero
	movsd	-2232(%rbp), %xmm1      # xmm1 = mem[0],zero
	ucomisd	%xmm0, %xmm1
	jne	.LBB11_688
	jp	.LBB11_688
	jmp	.LBB11_689
.LBB11_688:
	jmp	.LBB11_690
.LBB11_689:
	jmp	.LBB11_1008
.LBB11_690:
	movsd	.LCPI11_233(%rip), %xmm0 # xmm0 = mem[0],zero
	movsd	-2232(%rbp), %xmm1      # xmm1 = mem[0],zero
	ucomisd	%xmm0, %xmm1
	jne	.LBB11_691
	jp	.LBB11_691
	jmp	.LBB11_692
.LBB11_691:
	jmp	.LBB11_693
.LBB11_692:
	jmp	.LBB11_1009
.LBB11_693:
	movsd	.LCPI11_234(%rip), %xmm0 # xmm0 = mem[0],zero
	movsd	-2232(%rbp), %xmm1      # xmm1 = mem[0],zero
	ucomisd	%xmm0, %xmm1
	jne	.LBB11_694
	jp	.LBB11_694
	jmp	.LBB11_695
.LBB11_694:
	jmp	.LBB11_696
.LBB11_695:
	jmp	.LBB11_1010
.LBB11_696:
	movsd	.LCPI11_52(%rip), %xmm0 # xmm0 = mem[0],zero
	movsd	-2232(%rbp), %xmm1      # xmm1 = mem[0],zero
	ucomisd	%xmm0, %xmm1
	jne	.LBB11_697
	jp	.LBB11_697
	jmp	.LBB11_698
.LBB11_697:
	jmp	.LBB11_699
.LBB11_698:
	jmp	.LBB11_1011
.LBB11_699:
	movsd	.LCPI11_235(%rip), %xmm0 # xmm0 = mem[0],zero
	movsd	-2232(%rbp), %xmm1      # xmm1 = mem[0],zero
	ucomisd	%xmm0, %xmm1
	jne	.LBB11_700
	jp	.LBB11_700
	jmp	.LBB11_701
.LBB11_700:
	jmp	.LBB11_702
.LBB11_701:
	jmp	.LBB11_1012
.LBB11_702:
	movsd	.LCPI11_236(%rip), %xmm0 # xmm0 = mem[0],zero
	movsd	-2232(%rbp), %xmm1      # xmm1 = mem[0],zero
	ucomisd	%xmm0, %xmm1
	jne	.LBB11_703
	jp	.LBB11_703
	jmp	.LBB11_704
.LBB11_703:
	jmp	.LBB11_705
.LBB11_704:
	jmp	.LBB11_1013
.LBB11_705:
	movsd	.LCPI11_237(%rip), %xmm0 # xmm0 = mem[0],zero
	movsd	-2232(%rbp), %xmm1      # xmm1 = mem[0],zero
	ucomisd	%xmm0, %xmm1
	jne	.LBB11_706
	jp	.LBB11_706
	jmp	.LBB11_707
.LBB11_706:
	jmp	.LBB11_708
.LBB11_707:
	jmp	.LBB11_1014
.LBB11_708:
	movsd	.LCPI11_238(%rip), %xmm0 # xmm0 = mem[0],zero
	movsd	-2232(%rbp), %xmm1      # xmm1 = mem[0],zero
	ucomisd	%xmm0, %xmm1
	jne	.LBB11_709
	jp	.LBB11_709
	jmp	.LBB11_710
.LBB11_709:
	jmp	.LBB11_711
.LBB11_710:
	jmp	.LBB11_1015
.LBB11_711:
	movsd	.LCPI11_239(%rip), %xmm0 # xmm0 = mem[0],zero
	movsd	-2232(%rbp), %xmm1      # xmm1 = mem[0],zero
	ucomisd	%xmm0, %xmm1
	jne	.LBB11_712
	jp	.LBB11_712
	jmp	.LBB11_713
.LBB11_712:
	jmp	.LBB11_714
.LBB11_713:
	jmp	.LBB11_1016
.LBB11_714:
	movsd	.LCPI11_240(%rip), %xmm0 # xmm0 = mem[0],zero
	movsd	-2232(%rbp), %xmm1      # xmm1 = mem[0],zero
	ucomisd	%xmm0, %xmm1
	jne	.LBB11_715
	jp	.LBB11_715
	jmp	.LBB11_716
.LBB11_715:
	jmp	.LBB11_717
.LBB11_716:
	jmp	.LBB11_1017
.LBB11_717:
	movsd	.LCPI11_241(%rip), %xmm0 # xmm0 = mem[0],zero
	movsd	-2232(%rbp), %xmm1      # xmm1 = mem[0],zero
	ucomisd	%xmm0, %xmm1
	jne	.LBB11_718
	jp	.LBB11_718
	jmp	.LBB11_719
.LBB11_718:
	jmp	.LBB11_720
.LBB11_719:
	jmp	.LBB11_1018
.LBB11_720:
	movsd	.LCPI11_107(%rip), %xmm0 # xmm0 = mem[0],zero
	movsd	-2232(%rbp), %xmm1      # xmm1 = mem[0],zero
	ucomisd	%xmm0, %xmm1
	jne	.LBB11_721
	jp	.LBB11_721
	jmp	.LBB11_722
.LBB11_721:
	jmp	.LBB11_723
.LBB11_722:
	jmp	.LBB11_1019
.LBB11_723:
	movsd	.LCPI11_242(%rip), %xmm0 # xmm0 = mem[0],zero
	movsd	-2232(%rbp), %xmm1      # xmm1 = mem[0],zero
	ucomisd	%xmm0, %xmm1
	jne	.LBB11_724
	jp	.LBB11_724
	jmp	.LBB11_725
.LBB11_724:
	jmp	.LBB11_726
.LBB11_725:
	jmp	.LBB11_1020
.LBB11_726:
	movsd	.LCPI11_243(%rip), %xmm0 # xmm0 = mem[0],zero
	movsd	-2232(%rbp), %xmm1      # xmm1 = mem[0],zero
	ucomisd	%xmm0, %xmm1
	jne	.LBB11_727
	jp	.LBB11_727
	jmp	.LBB11_728
.LBB11_727:
	jmp	.LBB11_729
.LBB11_728:
	jmp	.LBB11_1021
.LBB11_729:
	movsd	.LCPI11_244(%rip), %xmm0 # xmm0 = mem[0],zero
	movsd	-2232(%rbp), %xmm1      # xmm1 = mem[0],zero
	ucomisd	%xmm0, %xmm1
	jne	.LBB11_730
	jp	.LBB11_730
	jmp	.LBB11_731
.LBB11_730:
	jmp	.LBB11_732
.LBB11_731:
	jmp	.LBB11_1022
.LBB11_732:
	movsd	.LCPI11_245(%rip), %xmm0 # xmm0 = mem[0],zero
	movsd	-2232(%rbp), %xmm1      # xmm1 = mem[0],zero
	ucomisd	%xmm0, %xmm1
	jne	.LBB11_733
	jp	.LBB11_733
	jmp	.LBB11_734
.LBB11_733:
	jmp	.LBB11_735
.LBB11_734:
	jmp	.LBB11_1023
.LBB11_735:
	movsd	.LCPI11_246(%rip), %xmm0 # xmm0 = mem[0],zero
	movsd	-2232(%rbp), %xmm1      # xmm1 = mem[0],zero
	ucomisd	%xmm0, %xmm1
	jne	.LBB11_736
	jp	.LBB11_736
	jmp	.LBB11_737
.LBB11_736:
	jmp	.LBB11_738
.LBB11_737:
	jmp	.LBB11_1024
.LBB11_738:
	movsd	.LCPI11_247(%rip), %xmm0 # xmm0 = mem[0],zero
	movsd	-2232(%rbp), %xmm1      # xmm1 = mem[0],zero
	ucomisd	%xmm0, %xmm1
	jne	.LBB11_739
	jp	.LBB11_739
	jmp	.LBB11_740
.LBB11_739:
	jmp	.LBB11_741
.LBB11_740:
	jmp	.LBB11_1025
.LBB11_741:
	movsd	.LCPI11_248(%rip), %xmm0 # xmm0 = mem[0],zero
	movsd	-2232(%rbp), %xmm1      # xmm1 = mem[0],zero
	ucomisd	%xmm0, %xmm1
	jne	.LBB11_742
	jp	.LBB11_742
	jmp	.LBB11_743
.LBB11_742:
	jmp	.LBB11_744
.LBB11_743:
	jmp	.LBB11_1026
.LBB11_744:
	movsd	.LCPI11_249(%rip), %xmm0 # xmm0 = mem[0],zero
	movsd	-2232(%rbp), %xmm1      # xmm1 = mem[0],zero
	ucomisd	%xmm0, %xmm1
	jne	.LBB11_745
	jp	.LBB11_745
	jmp	.LBB11_746
.LBB11_745:
	jmp	.LBB11_747
.LBB11_746:
	jmp	.LBB11_1027
.LBB11_747:
	movsd	.LCPI11_250(%rip), %xmm0 # xmm0 = mem[0],zero
	movsd	-2232(%rbp), %xmm1      # xmm1 = mem[0],zero
	ucomisd	%xmm0, %xmm1
	jne	.LBB11_748
	jp	.LBB11_748
	jmp	.LBB11_749
.LBB11_748:
	jmp	.LBB11_750
.LBB11_749:
	jmp	.LBB11_1028
.LBB11_750:
	movsd	.LCPI11_251(%rip), %xmm0 # xmm0 = mem[0],zero
	movsd	-2232(%rbp), %xmm1      # xmm1 = mem[0],zero
	ucomisd	%xmm0, %xmm1
	jne	.LBB11_751
	jp	.LBB11_751
	jmp	.LBB11_752
.LBB11_751:
	jmp	.LBB11_753
.LBB11_752:
	jmp	.LBB11_1029
.LBB11_753:
	movsd	.LCPI11_252(%rip), %xmm0 # xmm0 = mem[0],zero
	movsd	-2232(%rbp), %xmm1      # xmm1 = mem[0],zero
	ucomisd	%xmm0, %xmm1
	jne	.LBB11_754
	jp	.LBB11_754
	jmp	.LBB11_755
.LBB11_754:
	jmp	.LBB11_756
.LBB11_755:
	jmp	.LBB11_1030
.LBB11_756:
	movsd	.LCPI11_253(%rip), %xmm0 # xmm0 = mem[0],zero
	movsd	-2232(%rbp), %xmm1      # xmm1 = mem[0],zero
	ucomisd	%xmm0, %xmm1
	jne	.LBB11_757
	jp	.LBB11_757
	jmp	.LBB11_758
.LBB11_757:
	jmp	.LBB11_759
.LBB11_758:
	jmp	.LBB11_1031
.LBB11_759:
	movsd	.LCPI11_254(%rip), %xmm0 # xmm0 = mem[0],zero
	movsd	-2232(%rbp), %xmm1      # xmm1 = mem[0],zero
	ucomisd	%xmm0, %xmm1
	jne	.LBB11_760
	jp	.LBB11_760
	jmp	.LBB11_761
.LBB11_760:
	jmp	.LBB11_762
.LBB11_761:
	jmp	.LBB11_1032
.LBB11_762:
	movsd	.LCPI11_255(%rip), %xmm0 # xmm0 = mem[0],zero
	movsd	-2232(%rbp), %xmm1      # xmm1 = mem[0],zero
	ucomisd	%xmm0, %xmm1
	jne	.LBB11_763
	jp	.LBB11_763
	jmp	.LBB11_764
.LBB11_763:
	jmp	.LBB11_765
.LBB11_764:
	jmp	.LBB11_1033
.LBB11_765:
	movsd	.LCPI11_256(%rip), %xmm0 # xmm0 = mem[0],zero
	movsd	-2232(%rbp), %xmm1      # xmm1 = mem[0],zero
	ucomisd	%xmm0, %xmm1
	jne	.LBB11_766
	jp	.LBB11_766
	jmp	.LBB11_767
.LBB11_766:
	jmp	.LBB11_768
.LBB11_767:
	jmp	.LBB11_1034
.LBB11_768:
	movsd	.LCPI11_257(%rip), %xmm0 # xmm0 = mem[0],zero
	movsd	-2232(%rbp), %xmm1      # xmm1 = mem[0],zero
	ucomisd	%xmm0, %xmm1
	jne	.LBB11_769
	jp	.LBB11_769
	jmp	.LBB11_770
.LBB11_769:
	jmp	.LBB11_771
.LBB11_770:
	jmp	.LBB11_1035
.LBB11_771:
	movsd	.LCPI11_258(%rip), %xmm0 # xmm0 = mem[0],zero
	movsd	-2232(%rbp), %xmm1      # xmm1 = mem[0],zero
	ucomisd	%xmm0, %xmm1
	jne	.LBB11_772
	jp	.LBB11_772
	jmp	.LBB11_773
.LBB11_772:
	jmp	.LBB11_774
.LBB11_773:
	jmp	.LBB11_1036
.LBB11_774:
	movsd	.LCPI11_259(%rip), %xmm0 # xmm0 = mem[0],zero
	movsd	-2232(%rbp), %xmm1      # xmm1 = mem[0],zero
	ucomisd	%xmm0, %xmm1
	jne	.LBB11_775
	jp	.LBB11_775
	jmp	.LBB11_776
.LBB11_775:
	jmp	.LBB11_777
.LBB11_776:
	jmp	.LBB11_1037
.LBB11_777:
	movsd	.LCPI11_260(%rip), %xmm0 # xmm0 = mem[0],zero
	movsd	-2232(%rbp), %xmm1      # xmm1 = mem[0],zero
	ucomisd	%xmm0, %xmm1
	jne	.LBB11_778
	jp	.LBB11_778
	jmp	.LBB11_779
.LBB11_778:
	jmp	.LBB11_780
.LBB11_779:
	jmp	.LBB11_1038
.LBB11_780:
	movsd	.LCPI11_18(%rip), %xmm0 # xmm0 = mem[0],zero
	movsd	-2232(%rbp), %xmm1      # xmm1 = mem[0],zero
	ucomisd	%xmm0, %xmm1
	jne	.LBB11_781
	jp	.LBB11_781
	jmp	.LBB11_782
.LBB11_781:
	jmp	.LBB11_783
.LBB11_782:
	jmp	.LBB11_1039
.LBB11_783:
	jmp	.LBB11_1040
.LBB11_784:
	movsd	.LCPI11_6(%rip), %xmm0  # xmm0 = mem[0],zero
	movq	-2216(%rbp), %rdi
	xorps	%xmm1, %xmm1
	callq	_ZN8MEMORY_T6POKE64Edd
	movsd	.LCPI11_5(%rip), %xmm0  # xmm0 = mem[0],zero
	movq	-2216(%rbp), %rdi
	xorps	%xmm1, %xmm1
	callq	_ZN8MEMORY_T6POKE64Edd
	movsd	.LCPI11_4(%rip), %xmm0  # xmm0 = mem[0],zero
	movq	-2216(%rbp), %rdi
	xorps	%xmm1, %xmm1
	callq	_ZN8MEMORY_T6POKE64Edd
	jmp	.LBB11_1040
.LBB11_785:
	movsd	.LCPI11_6(%rip), %xmm0  # xmm0 = mem[0],zero
	movq	-2216(%rbp), %rdi
	xorps	%xmm1, %xmm1
	callq	_ZN8MEMORY_T6POKE64Edd
	movsd	.LCPI11_5(%rip), %xmm0  # xmm0 = mem[0],zero
	movq	-2216(%rbp), %rdi
	xorps	%xmm1, %xmm1
	callq	_ZN8MEMORY_T6POKE64Edd
	movsd	.LCPI11_4(%rip), %xmm0  # xmm0 = mem[0],zero
	movsd	.LCPI11_8(%rip), %xmm1  # xmm1 = mem[0],zero
	movq	-2216(%rbp), %rdi
	callq	_ZN8MEMORY_T6POKE64Edd
	jmp	.LBB11_1040
.LBB11_786:
	movsd	.LCPI11_6(%rip), %xmm0  # xmm0 = mem[0],zero
	movq	-2216(%rbp), %rdi
	xorps	%xmm1, %xmm1
	callq	_ZN8MEMORY_T6POKE64Edd
	movsd	.LCPI11_5(%rip), %xmm0  # xmm0 = mem[0],zero
	movsd	.LCPI11_8(%rip), %xmm1  # xmm1 = mem[0],zero
	movq	-2216(%rbp), %rdi
	callq	_ZN8MEMORY_T6POKE64Edd
	movsd	.LCPI11_4(%rip), %xmm0  # xmm0 = mem[0],zero
	movq	-2216(%rbp), %rdi
	xorps	%xmm1, %xmm1
	callq	_ZN8MEMORY_T6POKE64Edd
	jmp	.LBB11_1040
.LBB11_787:
	movsd	.LCPI11_6(%rip), %xmm0  # xmm0 = mem[0],zero
	movq	-2216(%rbp), %rdi
	xorps	%xmm1, %xmm1
	callq	_ZN8MEMORY_T6POKE64Edd
	movsd	.LCPI11_5(%rip), %xmm0  # xmm0 = mem[0],zero
	movsd	.LCPI11_8(%rip), %xmm1  # xmm1 = mem[0],zero
	movq	-2216(%rbp), %rdi
	callq	_ZN8MEMORY_T6POKE64Edd
	movsd	.LCPI11_4(%rip), %xmm0  # xmm0 = mem[0],zero
	movsd	.LCPI11_8(%rip), %xmm1  # xmm1 = mem[0],zero
	movq	-2216(%rbp), %rdi
	callq	_ZN8MEMORY_T6POKE64Edd
	jmp	.LBB11_1040
.LBB11_788:
	movsd	.LCPI11_6(%rip), %xmm0  # xmm0 = mem[0],zero
	movsd	.LCPI11_8(%rip), %xmm1  # xmm1 = mem[0],zero
	movq	-2216(%rbp), %rdi
	callq	_ZN8MEMORY_T6POKE64Edd
	movsd	.LCPI11_5(%rip), %xmm0  # xmm0 = mem[0],zero
	movq	-2216(%rbp), %rdi
	xorps	%xmm1, %xmm1
	callq	_ZN8MEMORY_T6POKE64Edd
	movsd	.LCPI11_4(%rip), %xmm0  # xmm0 = mem[0],zero
	movq	-2216(%rbp), %rdi
	xorps	%xmm1, %xmm1
	callq	_ZN8MEMORY_T6POKE64Edd
	jmp	.LBB11_1040
.LBB11_789:
	movsd	.LCPI11_6(%rip), %xmm0  # xmm0 = mem[0],zero
	movsd	.LCPI11_8(%rip), %xmm1  # xmm1 = mem[0],zero
	movq	-2216(%rbp), %rdi
	callq	_ZN8MEMORY_T6POKE64Edd
	movsd	.LCPI11_5(%rip), %xmm0  # xmm0 = mem[0],zero
	movq	-2216(%rbp), %rdi
	xorps	%xmm1, %xmm1
	callq	_ZN8MEMORY_T6POKE64Edd
	movsd	.LCPI11_4(%rip), %xmm0  # xmm0 = mem[0],zero
	movsd	.LCPI11_8(%rip), %xmm1  # xmm1 = mem[0],zero
	movq	-2216(%rbp), %rdi
	callq	_ZN8MEMORY_T6POKE64Edd
	jmp	.LBB11_1040
.LBB11_790:
	movsd	.LCPI11_6(%rip), %xmm0  # xmm0 = mem[0],zero
	movsd	.LCPI11_8(%rip), %xmm1  # xmm1 = mem[0],zero
	movq	-2216(%rbp), %rdi
	callq	_ZN8MEMORY_T6POKE64Edd
	movsd	.LCPI11_5(%rip), %xmm0  # xmm0 = mem[0],zero
	movsd	.LCPI11_14(%rip), %xmm1 # xmm1 = mem[0],zero
	movq	-2216(%rbp), %rdi
	callq	_ZN8MEMORY_T6POKE64Edd
	movsd	.LCPI11_4(%rip), %xmm0  # xmm0 = mem[0],zero
	movq	-2216(%rbp), %rdi
	xorps	%xmm1, %xmm1
	callq	_ZN8MEMORY_T6POKE64Edd
	jmp	.LBB11_1040
.LBB11_791:
	movsd	.LCPI11_6(%rip), %xmm0  # xmm0 = mem[0],zero
	movsd	.LCPI11_8(%rip), %xmm1  # xmm1 = mem[0],zero
	movq	-2216(%rbp), %rdi
	callq	_ZN8MEMORY_T6POKE64Edd
	movsd	.LCPI11_5(%rip), %xmm0  # xmm0 = mem[0],zero
	movsd	.LCPI11_8(%rip), %xmm1  # xmm1 = mem[0],zero
	movq	-2216(%rbp), %rdi
	callq	_ZN8MEMORY_T6POKE64Edd
	movsd	.LCPI11_4(%rip), %xmm0  # xmm0 = mem[0],zero
	movsd	.LCPI11_8(%rip), %xmm1  # xmm1 = mem[0],zero
	movq	-2216(%rbp), %rdi
	callq	_ZN8MEMORY_T6POKE64Edd
	jmp	.LBB11_1040
.LBB11_792:
	movsd	.LCPI11_6(%rip), %xmm0  # xmm0 = mem[0],zero
	movsd	.LCPI11_14(%rip), %xmm1 # xmm1 = mem[0],zero
	movq	-2216(%rbp), %rdi
	callq	_ZN8MEMORY_T6POKE64Edd
	movsd	.LCPI11_5(%rip), %xmm0  # xmm0 = mem[0],zero
	movsd	.LCPI11_14(%rip), %xmm1 # xmm1 = mem[0],zero
	movq	-2216(%rbp), %rdi
	callq	_ZN8MEMORY_T6POKE64Edd
	movsd	.LCPI11_4(%rip), %xmm0  # xmm0 = mem[0],zero
	movsd	.LCPI11_14(%rip), %xmm1 # xmm1 = mem[0],zero
	movq	-2216(%rbp), %rdi
	callq	_ZN8MEMORY_T6POKE64Edd
	jmp	.LBB11_1040
.LBB11_793:
	movsd	.LCPI11_6(%rip), %xmm0  # xmm0 = mem[0],zero
	movsd	.LCPI11_14(%rip), %xmm1 # xmm1 = mem[0],zero
	movq	-2216(%rbp), %rdi
	callq	_ZN8MEMORY_T6POKE64Edd
	movsd	.LCPI11_5(%rip), %xmm0  # xmm0 = mem[0],zero
	movsd	.LCPI11_14(%rip), %xmm1 # xmm1 = mem[0],zero
	movq	-2216(%rbp), %rdi
	callq	_ZN8MEMORY_T6POKE64Edd
	movsd	.LCPI11_4(%rip), %xmm0  # xmm0 = mem[0],zero
	movsd	.LCPI11_18(%rip), %xmm1 # xmm1 = mem[0],zero
	movq	-2216(%rbp), %rdi
	callq	_ZN8MEMORY_T6POKE64Edd
	jmp	.LBB11_1040
.LBB11_794:
	movsd	.LCPI11_6(%rip), %xmm0  # xmm0 = mem[0],zero
	movsd	.LCPI11_14(%rip), %xmm1 # xmm1 = mem[0],zero
	movq	-2216(%rbp), %rdi
	callq	_ZN8MEMORY_T6POKE64Edd
	movsd	.LCPI11_5(%rip), %xmm0  # xmm0 = mem[0],zero
	movsd	.LCPI11_18(%rip), %xmm1 # xmm1 = mem[0],zero
	movq	-2216(%rbp), %rdi
	callq	_ZN8MEMORY_T6POKE64Edd
	movsd	.LCPI11_4(%rip), %xmm0  # xmm0 = mem[0],zero
	movsd	.LCPI11_14(%rip), %xmm1 # xmm1 = mem[0],zero
	movq	-2216(%rbp), %rdi
	callq	_ZN8MEMORY_T6POKE64Edd
	jmp	.LBB11_1040
.LBB11_795:
	movsd	.LCPI11_6(%rip), %xmm0  # xmm0 = mem[0],zero
	movsd	.LCPI11_14(%rip), %xmm1 # xmm1 = mem[0],zero
	movq	-2216(%rbp), %rdi
	callq	_ZN8MEMORY_T6POKE64Edd
	movsd	.LCPI11_5(%rip), %xmm0  # xmm0 = mem[0],zero
	movsd	.LCPI11_18(%rip), %xmm1 # xmm1 = mem[0],zero
	movq	-2216(%rbp), %rdi
	callq	_ZN8MEMORY_T6POKE64Edd
	movsd	.LCPI11_4(%rip), %xmm0  # xmm0 = mem[0],zero
	movsd	.LCPI11_18(%rip), %xmm1 # xmm1 = mem[0],zero
	movq	-2216(%rbp), %rdi
	callq	_ZN8MEMORY_T6POKE64Edd
	jmp	.LBB11_1040
.LBB11_796:
	movsd	.LCPI11_6(%rip), %xmm0  # xmm0 = mem[0],zero
	movsd	.LCPI11_18(%rip), %xmm1 # xmm1 = mem[0],zero
	movq	-2216(%rbp), %rdi
	callq	_ZN8MEMORY_T6POKE64Edd
	movsd	.LCPI11_5(%rip), %xmm0  # xmm0 = mem[0],zero
	movsd	.LCPI11_14(%rip), %xmm1 # xmm1 = mem[0],zero
	movq	-2216(%rbp), %rdi
	callq	_ZN8MEMORY_T6POKE64Edd
	movsd	.LCPI11_4(%rip), %xmm0  # xmm0 = mem[0],zero
	movsd	.LCPI11_14(%rip), %xmm1 # xmm1 = mem[0],zero
	movq	-2216(%rbp), %rdi
	callq	_ZN8MEMORY_T6POKE64Edd
	jmp	.LBB11_1040
.LBB11_797:
	movsd	.LCPI11_6(%rip), %xmm0  # xmm0 = mem[0],zero
	movsd	.LCPI11_18(%rip), %xmm1 # xmm1 = mem[0],zero
	movq	-2216(%rbp), %rdi
	callq	_ZN8MEMORY_T6POKE64Edd
	movsd	.LCPI11_5(%rip), %xmm0  # xmm0 = mem[0],zero
	movsd	.LCPI11_14(%rip), %xmm1 # xmm1 = mem[0],zero
	movq	-2216(%rbp), %rdi
	callq	_ZN8MEMORY_T6POKE64Edd
	movsd	.LCPI11_4(%rip), %xmm0  # xmm0 = mem[0],zero
	movsd	.LCPI11_18(%rip), %xmm1 # xmm1 = mem[0],zero
	movq	-2216(%rbp), %rdi
	callq	_ZN8MEMORY_T6POKE64Edd
	jmp	.LBB11_1040
.LBB11_798:
	movsd	.LCPI11_6(%rip), %xmm0  # xmm0 = mem[0],zero
	movsd	.LCPI11_18(%rip), %xmm1 # xmm1 = mem[0],zero
	movq	-2216(%rbp), %rdi
	callq	_ZN8MEMORY_T6POKE64Edd
	movsd	.LCPI11_5(%rip), %xmm0  # xmm0 = mem[0],zero
	movsd	.LCPI11_18(%rip), %xmm1 # xmm1 = mem[0],zero
	movq	-2216(%rbp), %rdi
	callq	_ZN8MEMORY_T6POKE64Edd
	movsd	.LCPI11_4(%rip), %xmm0  # xmm0 = mem[0],zero
	movsd	.LCPI11_14(%rip), %xmm1 # xmm1 = mem[0],zero
	movq	-2216(%rbp), %rdi
	callq	_ZN8MEMORY_T6POKE64Edd
	jmp	.LBB11_1040
.LBB11_799:
	movsd	.LCPI11_6(%rip), %xmm0  # xmm0 = mem[0],zero
	movsd	.LCPI11_18(%rip), %xmm1 # xmm1 = mem[0],zero
	movq	-2216(%rbp), %rdi
	callq	_ZN8MEMORY_T6POKE64Edd
	movsd	.LCPI11_5(%rip), %xmm0  # xmm0 = mem[0],zero
	movsd	.LCPI11_18(%rip), %xmm1 # xmm1 = mem[0],zero
	movq	-2216(%rbp), %rdi
	callq	_ZN8MEMORY_T6POKE64Edd
	movsd	.LCPI11_4(%rip), %xmm0  # xmm0 = mem[0],zero
	movsd	.LCPI11_18(%rip), %xmm1 # xmm1 = mem[0],zero
	movq	-2216(%rbp), %rdi
	callq	_ZN8MEMORY_T6POKE64Edd
	jmp	.LBB11_1040
.LBB11_800:
	movsd	.LCPI11_6(%rip), %xmm0  # xmm0 = mem[0],zero
	movq	-2216(%rbp), %rdi
	xorps	%xmm1, %xmm1
	callq	_ZN8MEMORY_T6POKE64Edd
	movsd	.LCPI11_5(%rip), %xmm0  # xmm0 = mem[0],zero
	movq	-2216(%rbp), %rdi
	xorps	%xmm1, %xmm1
	callq	_ZN8MEMORY_T6POKE64Edd
	movsd	.LCPI11_4(%rip), %xmm0  # xmm0 = mem[0],zero
	movq	-2216(%rbp), %rdi
	xorps	%xmm1, %xmm1
	callq	_ZN8MEMORY_T6POKE64Edd
	jmp	.LBB11_1040
.LBB11_801:
	movsd	.LCPI11_6(%rip), %xmm0  # xmm0 = mem[0],zero
	movsd	.LCPI11_27(%rip), %xmm1 # xmm1 = mem[0],zero
	movq	-2216(%rbp), %rdi
	callq	_ZN8MEMORY_T6POKE64Edd
	movsd	.LCPI11_5(%rip), %xmm0  # xmm0 = mem[0],zero
	movsd	.LCPI11_27(%rip), %xmm1 # xmm1 = mem[0],zero
	movq	-2216(%rbp), %rdi
	callq	_ZN8MEMORY_T6POKE64Edd
	movsd	.LCPI11_4(%rip), %xmm0  # xmm0 = mem[0],zero
	movsd	.LCPI11_27(%rip), %xmm1 # xmm1 = mem[0],zero
	movq	-2216(%rbp), %rdi
	callq	_ZN8MEMORY_T6POKE64Edd
	jmp	.LBB11_1040
.LBB11_802:
	movsd	.LCPI11_6(%rip), %xmm0  # xmm0 = mem[0],zero
	movsd	.LCPI11_29(%rip), %xmm1 # xmm1 = mem[0],zero
	movq	-2216(%rbp), %rdi
	callq	_ZN8MEMORY_T6POKE64Edd
	movsd	.LCPI11_5(%rip), %xmm0  # xmm0 = mem[0],zero
	movsd	.LCPI11_29(%rip), %xmm1 # xmm1 = mem[0],zero
	movq	-2216(%rbp), %rdi
	callq	_ZN8MEMORY_T6POKE64Edd
	movsd	.LCPI11_4(%rip), %xmm0  # xmm0 = mem[0],zero
	movsd	.LCPI11_29(%rip), %xmm1 # xmm1 = mem[0],zero
	movq	-2216(%rbp), %rdi
	callq	_ZN8MEMORY_T6POKE64Edd
	jmp	.LBB11_1040
.LBB11_803:
	movsd	.LCPI11_6(%rip), %xmm0  # xmm0 = mem[0],zero
	movsd	.LCPI11_31(%rip), %xmm1 # xmm1 = mem[0],zero
	movq	-2216(%rbp), %rdi
	callq	_ZN8MEMORY_T6POKE64Edd
	movsd	.LCPI11_5(%rip), %xmm0  # xmm0 = mem[0],zero
	movsd	.LCPI11_31(%rip), %xmm1 # xmm1 = mem[0],zero
	movq	-2216(%rbp), %rdi
	callq	_ZN8MEMORY_T6POKE64Edd
	movsd	.LCPI11_4(%rip), %xmm0  # xmm0 = mem[0],zero
	movsd	.LCPI11_31(%rip), %xmm1 # xmm1 = mem[0],zero
	movq	-2216(%rbp), %rdi
	callq	_ZN8MEMORY_T6POKE64Edd
	jmp	.LBB11_1040
.LBB11_804:
	movsd	.LCPI11_6(%rip), %xmm0  # xmm0 = mem[0],zero
	movsd	.LCPI11_32(%rip), %xmm1 # xmm1 = mem[0],zero
	movq	-2216(%rbp), %rdi
	callq	_ZN8MEMORY_T6POKE64Edd
	movsd	.LCPI11_5(%rip), %xmm0  # xmm0 = mem[0],zero
	movsd	.LCPI11_32(%rip), %xmm1 # xmm1 = mem[0],zero
	movq	-2216(%rbp), %rdi
	callq	_ZN8MEMORY_T6POKE64Edd
	movsd	.LCPI11_4(%rip), %xmm0  # xmm0 = mem[0],zero
	movsd	.LCPI11_32(%rip), %xmm1 # xmm1 = mem[0],zero
	movq	-2216(%rbp), %rdi
	callq	_ZN8MEMORY_T6POKE64Edd
	jmp	.LBB11_1040
.LBB11_805:
	movsd	.LCPI11_6(%rip), %xmm0  # xmm0 = mem[0],zero
	movsd	.LCPI11_34(%rip), %xmm1 # xmm1 = mem[0],zero
	movq	-2216(%rbp), %rdi
	callq	_ZN8MEMORY_T6POKE64Edd
	movsd	.LCPI11_5(%rip), %xmm0  # xmm0 = mem[0],zero
	movsd	.LCPI11_34(%rip), %xmm1 # xmm1 = mem[0],zero
	movq	-2216(%rbp), %rdi
	callq	_ZN8MEMORY_T6POKE64Edd
	movsd	.LCPI11_4(%rip), %xmm0  # xmm0 = mem[0],zero
	movsd	.LCPI11_34(%rip), %xmm1 # xmm1 = mem[0],zero
	movq	-2216(%rbp), %rdi
	callq	_ZN8MEMORY_T6POKE64Edd
	jmp	.LBB11_1040
.LBB11_806:
	movsd	.LCPI11_6(%rip), %xmm0  # xmm0 = mem[0],zero
	movsd	.LCPI11_36(%rip), %xmm1 # xmm1 = mem[0],zero
	movq	-2216(%rbp), %rdi
	callq	_ZN8MEMORY_T6POKE64Edd
	movsd	.LCPI11_5(%rip), %xmm0  # xmm0 = mem[0],zero
	movsd	.LCPI11_36(%rip), %xmm1 # xmm1 = mem[0],zero
	movq	-2216(%rbp), %rdi
	callq	_ZN8MEMORY_T6POKE64Edd
	movsd	.LCPI11_4(%rip), %xmm0  # xmm0 = mem[0],zero
	movsd	.LCPI11_36(%rip), %xmm1 # xmm1 = mem[0],zero
	movq	-2216(%rbp), %rdi
	callq	_ZN8MEMORY_T6POKE64Edd
	jmp	.LBB11_1040
.LBB11_807:
	movsd	.LCPI11_6(%rip), %xmm0  # xmm0 = mem[0],zero
	movsd	.LCPI11_38(%rip), %xmm1 # xmm1 = mem[0],zero
	movq	-2216(%rbp), %rdi
	callq	_ZN8MEMORY_T6POKE64Edd
	movsd	.LCPI11_5(%rip), %xmm0  # xmm0 = mem[0],zero
	movsd	.LCPI11_38(%rip), %xmm1 # xmm1 = mem[0],zero
	movq	-2216(%rbp), %rdi
	callq	_ZN8MEMORY_T6POKE64Edd
	movsd	.LCPI11_4(%rip), %xmm0  # xmm0 = mem[0],zero
	movsd	.LCPI11_38(%rip), %xmm1 # xmm1 = mem[0],zero
	movq	-2216(%rbp), %rdi
	callq	_ZN8MEMORY_T6POKE64Edd
	jmp	.LBB11_1040
.LBB11_808:
	movsd	.LCPI11_6(%rip), %xmm0  # xmm0 = mem[0],zero
	movsd	.LCPI11_40(%rip), %xmm1 # xmm1 = mem[0],zero
	movq	-2216(%rbp), %rdi
	callq	_ZN8MEMORY_T6POKE64Edd
	movsd	.LCPI11_5(%rip), %xmm0  # xmm0 = mem[0],zero
	movsd	.LCPI11_40(%rip), %xmm1 # xmm1 = mem[0],zero
	movq	-2216(%rbp), %rdi
	callq	_ZN8MEMORY_T6POKE64Edd
	movsd	.LCPI11_4(%rip), %xmm0  # xmm0 = mem[0],zero
	movsd	.LCPI11_40(%rip), %xmm1 # xmm1 = mem[0],zero
	movq	-2216(%rbp), %rdi
	callq	_ZN8MEMORY_T6POKE64Edd
	jmp	.LBB11_1040
.LBB11_809:
	movsd	.LCPI11_6(%rip), %xmm0  # xmm0 = mem[0],zero
	movsd	.LCPI11_42(%rip), %xmm1 # xmm1 = mem[0],zero
	movq	-2216(%rbp), %rdi
	callq	_ZN8MEMORY_T6POKE64Edd
	movsd	.LCPI11_5(%rip), %xmm0  # xmm0 = mem[0],zero
	movsd	.LCPI11_42(%rip), %xmm1 # xmm1 = mem[0],zero
	movq	-2216(%rbp), %rdi
	callq	_ZN8MEMORY_T6POKE64Edd
	movsd	.LCPI11_4(%rip), %xmm0  # xmm0 = mem[0],zero
	movsd	.LCPI11_42(%rip), %xmm1 # xmm1 = mem[0],zero
	movq	-2216(%rbp), %rdi
	callq	_ZN8MEMORY_T6POKE64Edd
	jmp	.LBB11_1040
.LBB11_810:
	movsd	.LCPI11_6(%rip), %xmm0  # xmm0 = mem[0],zero
	movsd	.LCPI11_44(%rip), %xmm1 # xmm1 = mem[0],zero
	movq	-2216(%rbp), %rdi
	callq	_ZN8MEMORY_T6POKE64Edd
	movsd	.LCPI11_5(%rip), %xmm0  # xmm0 = mem[0],zero
	movsd	.LCPI11_44(%rip), %xmm1 # xmm1 = mem[0],zero
	movq	-2216(%rbp), %rdi
	callq	_ZN8MEMORY_T6POKE64Edd
	movsd	.LCPI11_4(%rip), %xmm0  # xmm0 = mem[0],zero
	movsd	.LCPI11_44(%rip), %xmm1 # xmm1 = mem[0],zero
	movq	-2216(%rbp), %rdi
	callq	_ZN8MEMORY_T6POKE64Edd
	jmp	.LBB11_1040
.LBB11_811:
	movsd	.LCPI11_6(%rip), %xmm0  # xmm0 = mem[0],zero
	movsd	.LCPI11_46(%rip), %xmm1 # xmm1 = mem[0],zero
	movq	-2216(%rbp), %rdi
	callq	_ZN8MEMORY_T6POKE64Edd
	movsd	.LCPI11_5(%rip), %xmm0  # xmm0 = mem[0],zero
	movsd	.LCPI11_46(%rip), %xmm1 # xmm1 = mem[0],zero
	movq	-2216(%rbp), %rdi
	callq	_ZN8MEMORY_T6POKE64Edd
	movsd	.LCPI11_4(%rip), %xmm0  # xmm0 = mem[0],zero
	movsd	.LCPI11_46(%rip), %xmm1 # xmm1 = mem[0],zero
	movq	-2216(%rbp), %rdi
	callq	_ZN8MEMORY_T6POKE64Edd
	jmp	.LBB11_1040
.LBB11_812:
	movsd	.LCPI11_6(%rip), %xmm0  # xmm0 = mem[0],zero
	movsd	.LCPI11_48(%rip), %xmm1 # xmm1 = mem[0],zero
	movq	-2216(%rbp), %rdi
	callq	_ZN8MEMORY_T6POKE64Edd
	movsd	.LCPI11_5(%rip), %xmm0  # xmm0 = mem[0],zero
	movsd	.LCPI11_48(%rip), %xmm1 # xmm1 = mem[0],zero
	movq	-2216(%rbp), %rdi
	callq	_ZN8MEMORY_T6POKE64Edd
	movsd	.LCPI11_4(%rip), %xmm0  # xmm0 = mem[0],zero
	movsd	.LCPI11_48(%rip), %xmm1 # xmm1 = mem[0],zero
	movq	-2216(%rbp), %rdi
	callq	_ZN8MEMORY_T6POKE64Edd
	jmp	.LBB11_1040
.LBB11_813:
	movsd	.LCPI11_6(%rip), %xmm0  # xmm0 = mem[0],zero
	movsd	.LCPI11_50(%rip), %xmm1 # xmm1 = mem[0],zero
	movq	-2216(%rbp), %rdi
	callq	_ZN8MEMORY_T6POKE64Edd
	movsd	.LCPI11_5(%rip), %xmm0  # xmm0 = mem[0],zero
	movsd	.LCPI11_50(%rip), %xmm1 # xmm1 = mem[0],zero
	movq	-2216(%rbp), %rdi
	callq	_ZN8MEMORY_T6POKE64Edd
	movsd	.LCPI11_4(%rip), %xmm0  # xmm0 = mem[0],zero
	movsd	.LCPI11_50(%rip), %xmm1 # xmm1 = mem[0],zero
	movq	-2216(%rbp), %rdi
	callq	_ZN8MEMORY_T6POKE64Edd
	jmp	.LBB11_1040
.LBB11_814:
	movsd	.LCPI11_6(%rip), %xmm0  # xmm0 = mem[0],zero
	movsd	.LCPI11_52(%rip), %xmm1 # xmm1 = mem[0],zero
	movq	-2216(%rbp), %rdi
	callq	_ZN8MEMORY_T6POKE64Edd
	movsd	.LCPI11_5(%rip), %xmm0  # xmm0 = mem[0],zero
	movsd	.LCPI11_52(%rip), %xmm1 # xmm1 = mem[0],zero
	movq	-2216(%rbp), %rdi
	callq	_ZN8MEMORY_T6POKE64Edd
	movsd	.LCPI11_4(%rip), %xmm0  # xmm0 = mem[0],zero
	movsd	.LCPI11_52(%rip), %xmm1 # xmm1 = mem[0],zero
	movq	-2216(%rbp), %rdi
	callq	_ZN8MEMORY_T6POKE64Edd
	jmp	.LBB11_1040
.LBB11_815:
	movsd	.LCPI11_6(%rip), %xmm0  # xmm0 = mem[0],zero
	movsd	.LCPI11_18(%rip), %xmm1 # xmm1 = mem[0],zero
	movq	-2216(%rbp), %rdi
	callq	_ZN8MEMORY_T6POKE64Edd
	movsd	.LCPI11_5(%rip), %xmm0  # xmm0 = mem[0],zero
	movsd	.LCPI11_18(%rip), %xmm1 # xmm1 = mem[0],zero
	movq	-2216(%rbp), %rdi
	callq	_ZN8MEMORY_T6POKE64Edd
	movsd	.LCPI11_4(%rip), %xmm0  # xmm0 = mem[0],zero
	movsd	.LCPI11_18(%rip), %xmm1 # xmm1 = mem[0],zero
	movq	-2216(%rbp), %rdi
	callq	_ZN8MEMORY_T6POKE64Edd
	jmp	.LBB11_1040
.LBB11_816:
	movsd	.LCPI11_6(%rip), %xmm0  # xmm0 = mem[0],zero
	movq	-2216(%rbp), %rdi
	xorps	%xmm1, %xmm1
	callq	_ZN8MEMORY_T6POKE64Edd
	movsd	.LCPI11_5(%rip), %xmm0  # xmm0 = mem[0],zero
	movq	-2216(%rbp), %rdi
	xorps	%xmm1, %xmm1
	callq	_ZN8MEMORY_T6POKE64Edd
	movsd	.LCPI11_4(%rip), %xmm0  # xmm0 = mem[0],zero
	movsd	.LCPI11_18(%rip), %xmm1 # xmm1 = mem[0],zero
	movq	-2216(%rbp), %rdi
	callq	_ZN8MEMORY_T6POKE64Edd
	jmp	.LBB11_1040
.LBB11_817:
	movsd	.LCPI11_6(%rip), %xmm0  # xmm0 = mem[0],zero
	movsd	.LCPI11_55(%rip), %xmm1 # xmm1 = mem[0],zero
	movq	-2216(%rbp), %rdi
	callq	_ZN8MEMORY_T6POKE64Edd
	movsd	.LCPI11_5(%rip), %xmm0  # xmm0 = mem[0],zero
	movq	-2216(%rbp), %rdi
	xorps	%xmm1, %xmm1
	callq	_ZN8MEMORY_T6POKE64Edd
	movsd	.LCPI11_4(%rip), %xmm0  # xmm0 = mem[0],zero
	movsd	.LCPI11_18(%rip), %xmm1 # xmm1 = mem[0],zero
	movq	-2216(%rbp), %rdi
	callq	_ZN8MEMORY_T6POKE64Edd
	jmp	.LBB11_1040
.LBB11_818:
	movsd	.LCPI11_6(%rip), %xmm0  # xmm0 = mem[0],zero
	movsd	.LCPI11_57(%rip), %xmm1 # xmm1 = mem[0],zero
	movq	-2216(%rbp), %rdi
	callq	_ZN8MEMORY_T6POKE64Edd
	movsd	.LCPI11_5(%rip), %xmm0  # xmm0 = mem[0],zero
	movq	-2216(%rbp), %rdi
	xorps	%xmm1, %xmm1
	callq	_ZN8MEMORY_T6POKE64Edd
	movsd	.LCPI11_4(%rip), %xmm0  # xmm0 = mem[0],zero
	movsd	.LCPI11_18(%rip), %xmm1 # xmm1 = mem[0],zero
	movq	-2216(%rbp), %rdi
	callq	_ZN8MEMORY_T6POKE64Edd
	jmp	.LBB11_1040
.LBB11_819:
	movsd	.LCPI11_6(%rip), %xmm0  # xmm0 = mem[0],zero
	movsd	.LCPI11_59(%rip), %xmm1 # xmm1 = mem[0],zero
	movq	-2216(%rbp), %rdi
	callq	_ZN8MEMORY_T6POKE64Edd
	movsd	.LCPI11_5(%rip), %xmm0  # xmm0 = mem[0],zero
	movq	-2216(%rbp), %rdi
	xorps	%xmm1, %xmm1
	callq	_ZN8MEMORY_T6POKE64Edd
	movsd	.LCPI11_4(%rip), %xmm0  # xmm0 = mem[0],zero
	movsd	.LCPI11_18(%rip), %xmm1 # xmm1 = mem[0],zero
	movq	-2216(%rbp), %rdi
	callq	_ZN8MEMORY_T6POKE64Edd
	jmp	.LBB11_1040
.LBB11_820:
	movsd	.LCPI11_6(%rip), %xmm0  # xmm0 = mem[0],zero
	movsd	.LCPI11_18(%rip), %xmm1 # xmm1 = mem[0],zero
	movq	-2216(%rbp), %rdi
	callq	_ZN8MEMORY_T6POKE64Edd
	movsd	.LCPI11_5(%rip), %xmm0  # xmm0 = mem[0],zero
	movq	-2216(%rbp), %rdi
	xorps	%xmm1, %xmm1
	callq	_ZN8MEMORY_T6POKE64Edd
	movsd	.LCPI11_4(%rip), %xmm0  # xmm0 = mem[0],zero
	movsd	.LCPI11_18(%rip), %xmm1 # xmm1 = mem[0],zero
	movq	-2216(%rbp), %rdi
	callq	_ZN8MEMORY_T6POKE64Edd
	jmp	.LBB11_1040
.LBB11_821:
	movsd	.LCPI11_6(%rip), %xmm0  # xmm0 = mem[0],zero
	movsd	.LCPI11_18(%rip), %xmm1 # xmm1 = mem[0],zero
	movq	-2216(%rbp), %rdi
	callq	_ZN8MEMORY_T6POKE64Edd
	movsd	.LCPI11_5(%rip), %xmm0  # xmm0 = mem[0],zero
	movq	-2216(%rbp), %rdi
	xorps	%xmm1, %xmm1
	callq	_ZN8MEMORY_T6POKE64Edd
	movsd	.LCPI11_4(%rip), %xmm0  # xmm0 = mem[0],zero
	movsd	.LCPI11_59(%rip), %xmm1 # xmm1 = mem[0],zero
	movq	-2216(%rbp), %rdi
	callq	_ZN8MEMORY_T6POKE64Edd
	jmp	.LBB11_1040
.LBB11_822:
	movsd	.LCPI11_6(%rip), %xmm0  # xmm0 = mem[0],zero
	movsd	.LCPI11_18(%rip), %xmm1 # xmm1 = mem[0],zero
	movq	-2216(%rbp), %rdi
	callq	_ZN8MEMORY_T6POKE64Edd
	movsd	.LCPI11_5(%rip), %xmm0  # xmm0 = mem[0],zero
	movq	-2216(%rbp), %rdi
	xorps	%xmm1, %xmm1
	callq	_ZN8MEMORY_T6POKE64Edd
	movsd	.LCPI11_4(%rip), %xmm0  # xmm0 = mem[0],zero
	movsd	.LCPI11_57(%rip), %xmm1 # xmm1 = mem[0],zero
	movq	-2216(%rbp), %rdi
	callq	_ZN8MEMORY_T6POKE64Edd
	jmp	.LBB11_1040
.LBB11_823:
	movsd	.LCPI11_6(%rip), %xmm0  # xmm0 = mem[0],zero
	movsd	.LCPI11_18(%rip), %xmm1 # xmm1 = mem[0],zero
	movq	-2216(%rbp), %rdi
	callq	_ZN8MEMORY_T6POKE64Edd
	movsd	.LCPI11_5(%rip), %xmm0  # xmm0 = mem[0],zero
	movq	-2216(%rbp), %rdi
	xorps	%xmm1, %xmm1
	callq	_ZN8MEMORY_T6POKE64Edd
	movsd	.LCPI11_4(%rip), %xmm0  # xmm0 = mem[0],zero
	movsd	.LCPI11_55(%rip), %xmm1 # xmm1 = mem[0],zero
	movq	-2216(%rbp), %rdi
	callq	_ZN8MEMORY_T6POKE64Edd
	jmp	.LBB11_1040
.LBB11_824:
	movsd	.LCPI11_6(%rip), %xmm0  # xmm0 = mem[0],zero
	movsd	.LCPI11_18(%rip), %xmm1 # xmm1 = mem[0],zero
	movq	-2216(%rbp), %rdi
	callq	_ZN8MEMORY_T6POKE64Edd
	movsd	.LCPI11_5(%rip), %xmm0  # xmm0 = mem[0],zero
	movq	-2216(%rbp), %rdi
	xorps	%xmm1, %xmm1
	callq	_ZN8MEMORY_T6POKE64Edd
	movsd	.LCPI11_4(%rip), %xmm0  # xmm0 = mem[0],zero
	movq	-2216(%rbp), %rdi
	xorps	%xmm1, %xmm1
	callq	_ZN8MEMORY_T6POKE64Edd
	jmp	.LBB11_1040
.LBB11_825:
	movsd	.LCPI11_6(%rip), %xmm0  # xmm0 = mem[0],zero
	movsd	.LCPI11_18(%rip), %xmm1 # xmm1 = mem[0],zero
	movq	-2216(%rbp), %rdi
	callq	_ZN8MEMORY_T6POKE64Edd
	movsd	.LCPI11_5(%rip), %xmm0  # xmm0 = mem[0],zero
	movsd	.LCPI11_55(%rip), %xmm1 # xmm1 = mem[0],zero
	movq	-2216(%rbp), %rdi
	callq	_ZN8MEMORY_T6POKE64Edd
	movsd	.LCPI11_4(%rip), %xmm0  # xmm0 = mem[0],zero
	movq	-2216(%rbp), %rdi
	xorps	%xmm1, %xmm1
	callq	_ZN8MEMORY_T6POKE64Edd
	jmp	.LBB11_1040
.LBB11_826:
	movsd	.LCPI11_6(%rip), %xmm0  # xmm0 = mem[0],zero
	movsd	.LCPI11_18(%rip), %xmm1 # xmm1 = mem[0],zero
	movq	-2216(%rbp), %rdi
	callq	_ZN8MEMORY_T6POKE64Edd
	movsd	.LCPI11_5(%rip), %xmm0  # xmm0 = mem[0],zero
	movsd	.LCPI11_57(%rip), %xmm1 # xmm1 = mem[0],zero
	movq	-2216(%rbp), %rdi
	callq	_ZN8MEMORY_T6POKE64Edd
	movsd	.LCPI11_4(%rip), %xmm0  # xmm0 = mem[0],zero
	movq	-2216(%rbp), %rdi
	xorps	%xmm1, %xmm1
	callq	_ZN8MEMORY_T6POKE64Edd
	jmp	.LBB11_1040
.LBB11_827:
	movsd	.LCPI11_6(%rip), %xmm0  # xmm0 = mem[0],zero
	movsd	.LCPI11_18(%rip), %xmm1 # xmm1 = mem[0],zero
	movq	-2216(%rbp), %rdi
	callq	_ZN8MEMORY_T6POKE64Edd
	movsd	.LCPI11_5(%rip), %xmm0  # xmm0 = mem[0],zero
	movsd	.LCPI11_59(%rip), %xmm1 # xmm1 = mem[0],zero
	movq	-2216(%rbp), %rdi
	callq	_ZN8MEMORY_T6POKE64Edd
	movsd	.LCPI11_4(%rip), %xmm0  # xmm0 = mem[0],zero
	movq	-2216(%rbp), %rdi
	xorps	%xmm1, %xmm1
	callq	_ZN8MEMORY_T6POKE64Edd
	jmp	.LBB11_1040
.LBB11_828:
	movsd	.LCPI11_6(%rip), %xmm0  # xmm0 = mem[0],zero
	movsd	.LCPI11_18(%rip), %xmm1 # xmm1 = mem[0],zero
	movq	-2216(%rbp), %rdi
	callq	_ZN8MEMORY_T6POKE64Edd
	movsd	.LCPI11_5(%rip), %xmm0  # xmm0 = mem[0],zero
	movsd	.LCPI11_18(%rip), %xmm1 # xmm1 = mem[0],zero
	movq	-2216(%rbp), %rdi
	callq	_ZN8MEMORY_T6POKE64Edd
	movsd	.LCPI11_4(%rip), %xmm0  # xmm0 = mem[0],zero
	movq	-2216(%rbp), %rdi
	xorps	%xmm1, %xmm1
	callq	_ZN8MEMORY_T6POKE64Edd
	jmp	.LBB11_1040
.LBB11_829:
	movsd	.LCPI11_6(%rip), %xmm0  # xmm0 = mem[0],zero
	movsd	.LCPI11_59(%rip), %xmm1 # xmm1 = mem[0],zero
	movq	-2216(%rbp), %rdi
	callq	_ZN8MEMORY_T6POKE64Edd
	movsd	.LCPI11_5(%rip), %xmm0  # xmm0 = mem[0],zero
	movsd	.LCPI11_18(%rip), %xmm1 # xmm1 = mem[0],zero
	movq	-2216(%rbp), %rdi
	callq	_ZN8MEMORY_T6POKE64Edd
	movsd	.LCPI11_4(%rip), %xmm0  # xmm0 = mem[0],zero
	movq	-2216(%rbp), %rdi
	xorps	%xmm1, %xmm1
	callq	_ZN8MEMORY_T6POKE64Edd
	jmp	.LBB11_1040
.LBB11_830:
	movsd	.LCPI11_6(%rip), %xmm0  # xmm0 = mem[0],zero
	movsd	.LCPI11_57(%rip), %xmm1 # xmm1 = mem[0],zero
	movq	-2216(%rbp), %rdi
	callq	_ZN8MEMORY_T6POKE64Edd
	movsd	.LCPI11_5(%rip), %xmm0  # xmm0 = mem[0],zero
	movsd	.LCPI11_18(%rip), %xmm1 # xmm1 = mem[0],zero
	movq	-2216(%rbp), %rdi
	callq	_ZN8MEMORY_T6POKE64Edd
	movsd	.LCPI11_4(%rip), %xmm0  # xmm0 = mem[0],zero
	movq	-2216(%rbp), %rdi
	xorps	%xmm1, %xmm1
	callq	_ZN8MEMORY_T6POKE64Edd
	jmp	.LBB11_1040
.LBB11_831:
	movsd	.LCPI11_6(%rip), %xmm0  # xmm0 = mem[0],zero
	movsd	.LCPI11_55(%rip), %xmm1 # xmm1 = mem[0],zero
	movq	-2216(%rbp), %rdi
	callq	_ZN8MEMORY_T6POKE64Edd
	movsd	.LCPI11_5(%rip), %xmm0  # xmm0 = mem[0],zero
	movsd	.LCPI11_18(%rip), %xmm1 # xmm1 = mem[0],zero
	movq	-2216(%rbp), %rdi
	callq	_ZN8MEMORY_T6POKE64Edd
	movsd	.LCPI11_4(%rip), %xmm0  # xmm0 = mem[0],zero
	movq	-2216(%rbp), %rdi
	xorps	%xmm1, %xmm1
	callq	_ZN8MEMORY_T6POKE64Edd
	jmp	.LBB11_1040
.LBB11_832:
	movsd	.LCPI11_6(%rip), %xmm0  # xmm0 = mem[0],zero
	movq	-2216(%rbp), %rdi
	xorps	%xmm1, %xmm1
	callq	_ZN8MEMORY_T6POKE64Edd
	movsd	.LCPI11_5(%rip), %xmm0  # xmm0 = mem[0],zero
	movsd	.LCPI11_18(%rip), %xmm1 # xmm1 = mem[0],zero
	movq	-2216(%rbp), %rdi
	callq	_ZN8MEMORY_T6POKE64Edd
	movsd	.LCPI11_4(%rip), %xmm0  # xmm0 = mem[0],zero
	movq	-2216(%rbp), %rdi
	xorps	%xmm1, %xmm1
	callq	_ZN8MEMORY_T6POKE64Edd
	jmp	.LBB11_1040
.LBB11_833:
	movsd	.LCPI11_6(%rip), %xmm0  # xmm0 = mem[0],zero
	movq	-2216(%rbp), %rdi
	xorps	%xmm1, %xmm1
	callq	_ZN8MEMORY_T6POKE64Edd
	movsd	.LCPI11_5(%rip), %xmm0  # xmm0 = mem[0],zero
	movsd	.LCPI11_18(%rip), %xmm1 # xmm1 = mem[0],zero
	movq	-2216(%rbp), %rdi
	callq	_ZN8MEMORY_T6POKE64Edd
	movsd	.LCPI11_4(%rip), %xmm0  # xmm0 = mem[0],zero
	movsd	.LCPI11_55(%rip), %xmm1 # xmm1 = mem[0],zero
	movq	-2216(%rbp), %rdi
	callq	_ZN8MEMORY_T6POKE64Edd
	jmp	.LBB11_1040
.LBB11_834:
	movsd	.LCPI11_6(%rip), %xmm0  # xmm0 = mem[0],zero
	movq	-2216(%rbp), %rdi
	xorps	%xmm1, %xmm1
	callq	_ZN8MEMORY_T6POKE64Edd
	movsd	.LCPI11_5(%rip), %xmm0  # xmm0 = mem[0],zero
	movsd	.LCPI11_18(%rip), %xmm1 # xmm1 = mem[0],zero
	movq	-2216(%rbp), %rdi
	callq	_ZN8MEMORY_T6POKE64Edd
	movsd	.LCPI11_4(%rip), %xmm0  # xmm0 = mem[0],zero
	movsd	.LCPI11_57(%rip), %xmm1 # xmm1 = mem[0],zero
	movq	-2216(%rbp), %rdi
	callq	_ZN8MEMORY_T6POKE64Edd
	jmp	.LBB11_1040
.LBB11_835:
	movsd	.LCPI11_6(%rip), %xmm0  # xmm0 = mem[0],zero
	movq	-2216(%rbp), %rdi
	xorps	%xmm1, %xmm1
	callq	_ZN8MEMORY_T6POKE64Edd
	movsd	.LCPI11_5(%rip), %xmm0  # xmm0 = mem[0],zero
	movsd	.LCPI11_18(%rip), %xmm1 # xmm1 = mem[0],zero
	movq	-2216(%rbp), %rdi
	callq	_ZN8MEMORY_T6POKE64Edd
	movsd	.LCPI11_4(%rip), %xmm0  # xmm0 = mem[0],zero
	movsd	.LCPI11_59(%rip), %xmm1 # xmm1 = mem[0],zero
	movq	-2216(%rbp), %rdi
	callq	_ZN8MEMORY_T6POKE64Edd
	jmp	.LBB11_1040
.LBB11_836:
	movsd	.LCPI11_6(%rip), %xmm0  # xmm0 = mem[0],zero
	movq	-2216(%rbp), %rdi
	xorps	%xmm1, %xmm1
	callq	_ZN8MEMORY_T6POKE64Edd
	movsd	.LCPI11_5(%rip), %xmm0  # xmm0 = mem[0],zero
	movsd	.LCPI11_18(%rip), %xmm1 # xmm1 = mem[0],zero
	movq	-2216(%rbp), %rdi
	callq	_ZN8MEMORY_T6POKE64Edd
	movsd	.LCPI11_4(%rip), %xmm0  # xmm0 = mem[0],zero
	movsd	.LCPI11_18(%rip), %xmm1 # xmm1 = mem[0],zero
	movq	-2216(%rbp), %rdi
	callq	_ZN8MEMORY_T6POKE64Edd
	jmp	.LBB11_1040
.LBB11_837:
	movsd	.LCPI11_6(%rip), %xmm0  # xmm0 = mem[0],zero
	movq	-2216(%rbp), %rdi
	xorps	%xmm1, %xmm1
	callq	_ZN8MEMORY_T6POKE64Edd
	movsd	.LCPI11_5(%rip), %xmm0  # xmm0 = mem[0],zero
	movsd	.LCPI11_59(%rip), %xmm1 # xmm1 = mem[0],zero
	movq	-2216(%rbp), %rdi
	callq	_ZN8MEMORY_T6POKE64Edd
	movsd	.LCPI11_4(%rip), %xmm0  # xmm0 = mem[0],zero
	movsd	.LCPI11_18(%rip), %xmm1 # xmm1 = mem[0],zero
	movq	-2216(%rbp), %rdi
	callq	_ZN8MEMORY_T6POKE64Edd
	jmp	.LBB11_1040
.LBB11_838:
	movsd	.LCPI11_6(%rip), %xmm0  # xmm0 = mem[0],zero
	movq	-2216(%rbp), %rdi
	xorps	%xmm1, %xmm1
	callq	_ZN8MEMORY_T6POKE64Edd
	movsd	.LCPI11_5(%rip), %xmm0  # xmm0 = mem[0],zero
	movsd	.LCPI11_57(%rip), %xmm1 # xmm1 = mem[0],zero
	movq	-2216(%rbp), %rdi
	callq	_ZN8MEMORY_T6POKE64Edd
	movsd	.LCPI11_4(%rip), %xmm0  # xmm0 = mem[0],zero
	movsd	.LCPI11_18(%rip), %xmm1 # xmm1 = mem[0],zero
	movq	-2216(%rbp), %rdi
	callq	_ZN8MEMORY_T6POKE64Edd
	jmp	.LBB11_1040
.LBB11_839:
	movsd	.LCPI11_6(%rip), %xmm0  # xmm0 = mem[0],zero
	movq	-2216(%rbp), %rdi
	xorps	%xmm1, %xmm1
	callq	_ZN8MEMORY_T6POKE64Edd
	movsd	.LCPI11_5(%rip), %xmm0  # xmm0 = mem[0],zero
	movsd	.LCPI11_55(%rip), %xmm1 # xmm1 = mem[0],zero
	movq	-2216(%rbp), %rdi
	callq	_ZN8MEMORY_T6POKE64Edd
	movsd	.LCPI11_4(%rip), %xmm0  # xmm0 = mem[0],zero
	movsd	.LCPI11_18(%rip), %xmm1 # xmm1 = mem[0],zero
	movq	-2216(%rbp), %rdi
	callq	_ZN8MEMORY_T6POKE64Edd
	jmp	.LBB11_1040
.LBB11_840:
	movsd	.LCPI11_6(%rip), %xmm0  # xmm0 = mem[0],zero
	movsd	.LCPI11_57(%rip), %xmm1 # xmm1 = mem[0],zero
	movq	-2216(%rbp), %rdi
	callq	_ZN8MEMORY_T6POKE64Edd
	movsd	.LCPI11_5(%rip), %xmm0  # xmm0 = mem[0],zero
	movsd	.LCPI11_57(%rip), %xmm1 # xmm1 = mem[0],zero
	movq	-2216(%rbp), %rdi
	callq	_ZN8MEMORY_T6POKE64Edd
	movsd	.LCPI11_4(%rip), %xmm0  # xmm0 = mem[0],zero
	movsd	.LCPI11_18(%rip), %xmm1 # xmm1 = mem[0],zero
	movq	-2216(%rbp), %rdi
	callq	_ZN8MEMORY_T6POKE64Edd
	jmp	.LBB11_1040
.LBB11_841:
	movsd	.LCPI11_6(%rip), %xmm0  # xmm0 = mem[0],zero
	movsd	.LCPI11_80(%rip), %xmm1 # xmm1 = mem[0],zero
	movq	-2216(%rbp), %rdi
	callq	_ZN8MEMORY_T6POKE64Edd
	movsd	.LCPI11_5(%rip), %xmm0  # xmm0 = mem[0],zero
	movsd	.LCPI11_57(%rip), %xmm1 # xmm1 = mem[0],zero
	movq	-2216(%rbp), %rdi
	callq	_ZN8MEMORY_T6POKE64Edd
	movsd	.LCPI11_4(%rip), %xmm0  # xmm0 = mem[0],zero
	movsd	.LCPI11_18(%rip), %xmm1 # xmm1 = mem[0],zero
	movq	-2216(%rbp), %rdi
	callq	_ZN8MEMORY_T6POKE64Edd
	jmp	.LBB11_1040
.LBB11_842:
	movsd	.LCPI11_6(%rip), %xmm0  # xmm0 = mem[0],zero
	movsd	.LCPI11_59(%rip), %xmm1 # xmm1 = mem[0],zero
	movq	-2216(%rbp), %rdi
	callq	_ZN8MEMORY_T6POKE64Edd
	movsd	.LCPI11_5(%rip), %xmm0  # xmm0 = mem[0],zero
	movsd	.LCPI11_57(%rip), %xmm1 # xmm1 = mem[0],zero
	movq	-2216(%rbp), %rdi
	callq	_ZN8MEMORY_T6POKE64Edd
	movsd	.LCPI11_4(%rip), %xmm0  # xmm0 = mem[0],zero
	movsd	.LCPI11_18(%rip), %xmm1 # xmm1 = mem[0],zero
	movq	-2216(%rbp), %rdi
	callq	_ZN8MEMORY_T6POKE64Edd
	jmp	.LBB11_1040
.LBB11_843:
	movsd	.LCPI11_6(%rip), %xmm0  # xmm0 = mem[0],zero
	movsd	.LCPI11_83(%rip), %xmm1 # xmm1 = mem[0],zero
	movq	-2216(%rbp), %rdi
	callq	_ZN8MEMORY_T6POKE64Edd
	movsd	.LCPI11_5(%rip), %xmm0  # xmm0 = mem[0],zero
	movsd	.LCPI11_57(%rip), %xmm1 # xmm1 = mem[0],zero
	movq	-2216(%rbp), %rdi
	callq	_ZN8MEMORY_T6POKE64Edd
	movsd	.LCPI11_4(%rip), %xmm0  # xmm0 = mem[0],zero
	movsd	.LCPI11_18(%rip), %xmm1 # xmm1 = mem[0],zero
	movq	-2216(%rbp), %rdi
	callq	_ZN8MEMORY_T6POKE64Edd
	jmp	.LBB11_1040
.LBB11_844:
	movsd	.LCPI11_6(%rip), %xmm0  # xmm0 = mem[0],zero
	movsd	.LCPI11_18(%rip), %xmm1 # xmm1 = mem[0],zero
	movq	-2216(%rbp), %rdi
	callq	_ZN8MEMORY_T6POKE64Edd
	movsd	.LCPI11_5(%rip), %xmm0  # xmm0 = mem[0],zero
	movsd	.LCPI11_57(%rip), %xmm1 # xmm1 = mem[0],zero
	movq	-2216(%rbp), %rdi
	callq	_ZN8MEMORY_T6POKE64Edd
	movsd	.LCPI11_4(%rip), %xmm0  # xmm0 = mem[0],zero
	movsd	.LCPI11_18(%rip), %xmm1 # xmm1 = mem[0],zero
	movq	-2216(%rbp), %rdi
	callq	_ZN8MEMORY_T6POKE64Edd
	jmp	.LBB11_1040
.LBB11_845:
	movsd	.LCPI11_6(%rip), %xmm0  # xmm0 = mem[0],zero
	movsd	.LCPI11_18(%rip), %xmm1 # xmm1 = mem[0],zero
	movq	-2216(%rbp), %rdi
	callq	_ZN8MEMORY_T6POKE64Edd
	movsd	.LCPI11_5(%rip), %xmm0  # xmm0 = mem[0],zero
	movsd	.LCPI11_57(%rip), %xmm1 # xmm1 = mem[0],zero
	movq	-2216(%rbp), %rdi
	callq	_ZN8MEMORY_T6POKE64Edd
	movsd	.LCPI11_4(%rip), %xmm0  # xmm0 = mem[0],zero
	movsd	.LCPI11_83(%rip), %xmm1 # xmm1 = mem[0],zero
	movq	-2216(%rbp), %rdi
	callq	_ZN8MEMORY_T6POKE64Edd
	jmp	.LBB11_1040
.LBB11_846:
	movsd	.LCPI11_6(%rip), %xmm0  # xmm0 = mem[0],zero
	movsd	.LCPI11_18(%rip), %xmm1 # xmm1 = mem[0],zero
	movq	-2216(%rbp), %rdi
	callq	_ZN8MEMORY_T6POKE64Edd
	movsd	.LCPI11_5(%rip), %xmm0  # xmm0 = mem[0],zero
	movsd	.LCPI11_57(%rip), %xmm1 # xmm1 = mem[0],zero
	movq	-2216(%rbp), %rdi
	callq	_ZN8MEMORY_T6POKE64Edd
	movsd	.LCPI11_4(%rip), %xmm0  # xmm0 = mem[0],zero
	movsd	.LCPI11_59(%rip), %xmm1 # xmm1 = mem[0],zero
	movq	-2216(%rbp), %rdi
	callq	_ZN8MEMORY_T6POKE64Edd
	jmp	.LBB11_1040
.LBB11_847:
	movsd	.LCPI11_6(%rip), %xmm0  # xmm0 = mem[0],zero
	movsd	.LCPI11_18(%rip), %xmm1 # xmm1 = mem[0],zero
	movq	-2216(%rbp), %rdi
	callq	_ZN8MEMORY_T6POKE64Edd
	movsd	.LCPI11_5(%rip), %xmm0  # xmm0 = mem[0],zero
	movsd	.LCPI11_57(%rip), %xmm1 # xmm1 = mem[0],zero
	movq	-2216(%rbp), %rdi
	callq	_ZN8MEMORY_T6POKE64Edd
	movsd	.LCPI11_4(%rip), %xmm0  # xmm0 = mem[0],zero
	movsd	.LCPI11_80(%rip), %xmm1 # xmm1 = mem[0],zero
	movq	-2216(%rbp), %rdi
	callq	_ZN8MEMORY_T6POKE64Edd
	jmp	.LBB11_1040
.LBB11_848:
	movsd	.LCPI11_6(%rip), %xmm0  # xmm0 = mem[0],zero
	movsd	.LCPI11_18(%rip), %xmm1 # xmm1 = mem[0],zero
	movq	-2216(%rbp), %rdi
	callq	_ZN8MEMORY_T6POKE64Edd
	movsd	.LCPI11_5(%rip), %xmm0  # xmm0 = mem[0],zero
	movsd	.LCPI11_57(%rip), %xmm1 # xmm1 = mem[0],zero
	movq	-2216(%rbp), %rdi
	callq	_ZN8MEMORY_T6POKE64Edd
	movsd	.LCPI11_4(%rip), %xmm0  # xmm0 = mem[0],zero
	movsd	.LCPI11_57(%rip), %xmm1 # xmm1 = mem[0],zero
	movq	-2216(%rbp), %rdi
	callq	_ZN8MEMORY_T6POKE64Edd
	jmp	.LBB11_1040
.LBB11_849:
	movsd	.LCPI11_6(%rip), %xmm0  # xmm0 = mem[0],zero
	movsd	.LCPI11_18(%rip), %xmm1 # xmm1 = mem[0],zero
	movq	-2216(%rbp), %rdi
	callq	_ZN8MEMORY_T6POKE64Edd
	movsd	.LCPI11_5(%rip), %xmm0  # xmm0 = mem[0],zero
	movsd	.LCPI11_80(%rip), %xmm1 # xmm1 = mem[0],zero
	movq	-2216(%rbp), %rdi
	callq	_ZN8MEMORY_T6POKE64Edd
	movsd	.LCPI11_4(%rip), %xmm0  # xmm0 = mem[0],zero
	movsd	.LCPI11_57(%rip), %xmm1 # xmm1 = mem[0],zero
	movq	-2216(%rbp), %rdi
	callq	_ZN8MEMORY_T6POKE64Edd
	jmp	.LBB11_1040
.LBB11_850:
	movsd	.LCPI11_6(%rip), %xmm0  # xmm0 = mem[0],zero
	movsd	.LCPI11_18(%rip), %xmm1 # xmm1 = mem[0],zero
	movq	-2216(%rbp), %rdi
	callq	_ZN8MEMORY_T6POKE64Edd
	movsd	.LCPI11_5(%rip), %xmm0  # xmm0 = mem[0],zero
	movsd	.LCPI11_59(%rip), %xmm1 # xmm1 = mem[0],zero
	movq	-2216(%rbp), %rdi
	callq	_ZN8MEMORY_T6POKE64Edd
	movsd	.LCPI11_4(%rip), %xmm0  # xmm0 = mem[0],zero
	movsd	.LCPI11_57(%rip), %xmm1 # xmm1 = mem[0],zero
	movq	-2216(%rbp), %rdi
	callq	_ZN8MEMORY_T6POKE64Edd
	jmp	.LBB11_1040
.LBB11_851:
	movsd	.LCPI11_6(%rip), %xmm0  # xmm0 = mem[0],zero
	movsd	.LCPI11_18(%rip), %xmm1 # xmm1 = mem[0],zero
	movq	-2216(%rbp), %rdi
	callq	_ZN8MEMORY_T6POKE64Edd
	movsd	.LCPI11_5(%rip), %xmm0  # xmm0 = mem[0],zero
	movsd	.LCPI11_83(%rip), %xmm1 # xmm1 = mem[0],zero
	movq	-2216(%rbp), %rdi
	callq	_ZN8MEMORY_T6POKE64Edd
	movsd	.LCPI11_4(%rip), %xmm0  # xmm0 = mem[0],zero
	movsd	.LCPI11_57(%rip), %xmm1 # xmm1 = mem[0],zero
	movq	-2216(%rbp), %rdi
	callq	_ZN8MEMORY_T6POKE64Edd
	jmp	.LBB11_1040
.LBB11_852:
	movsd	.LCPI11_6(%rip), %xmm0  # xmm0 = mem[0],zero
	movsd	.LCPI11_18(%rip), %xmm1 # xmm1 = mem[0],zero
	movq	-2216(%rbp), %rdi
	callq	_ZN8MEMORY_T6POKE64Edd
	movsd	.LCPI11_5(%rip), %xmm0  # xmm0 = mem[0],zero
	movsd	.LCPI11_18(%rip), %xmm1 # xmm1 = mem[0],zero
	movq	-2216(%rbp), %rdi
	callq	_ZN8MEMORY_T6POKE64Edd
	movsd	.LCPI11_4(%rip), %xmm0  # xmm0 = mem[0],zero
	movsd	.LCPI11_57(%rip), %xmm1 # xmm1 = mem[0],zero
	movq	-2216(%rbp), %rdi
	callq	_ZN8MEMORY_T6POKE64Edd
	jmp	.LBB11_1040
.LBB11_853:
	movsd	.LCPI11_6(%rip), %xmm0  # xmm0 = mem[0],zero
	movsd	.LCPI11_83(%rip), %xmm1 # xmm1 = mem[0],zero
	movq	-2216(%rbp), %rdi
	callq	_ZN8MEMORY_T6POKE64Edd
	movsd	.LCPI11_5(%rip), %xmm0  # xmm0 = mem[0],zero
	movsd	.LCPI11_18(%rip), %xmm1 # xmm1 = mem[0],zero
	movq	-2216(%rbp), %rdi
	callq	_ZN8MEMORY_T6POKE64Edd
	movsd	.LCPI11_4(%rip), %xmm0  # xmm0 = mem[0],zero
	movsd	.LCPI11_57(%rip), %xmm1 # xmm1 = mem[0],zero
	movq	-2216(%rbp), %rdi
	callq	_ZN8MEMORY_T6POKE64Edd
	jmp	.LBB11_1040
.LBB11_854:
	movsd	.LCPI11_6(%rip), %xmm0  # xmm0 = mem[0],zero
	movsd	.LCPI11_59(%rip), %xmm1 # xmm1 = mem[0],zero
	movq	-2216(%rbp), %rdi
	callq	_ZN8MEMORY_T6POKE64Edd
	movsd	.LCPI11_5(%rip), %xmm0  # xmm0 = mem[0],zero
	movsd	.LCPI11_18(%rip), %xmm1 # xmm1 = mem[0],zero
	movq	-2216(%rbp), %rdi
	callq	_ZN8MEMORY_T6POKE64Edd
	movsd	.LCPI11_4(%rip), %xmm0  # xmm0 = mem[0],zero
	movsd	.LCPI11_57(%rip), %xmm1 # xmm1 = mem[0],zero
	movq	-2216(%rbp), %rdi
	callq	_ZN8MEMORY_T6POKE64Edd
	jmp	.LBB11_1040
.LBB11_855:
	movsd	.LCPI11_6(%rip), %xmm0  # xmm0 = mem[0],zero
	movsd	.LCPI11_80(%rip), %xmm1 # xmm1 = mem[0],zero
	movq	-2216(%rbp), %rdi
	callq	_ZN8MEMORY_T6POKE64Edd
	movsd	.LCPI11_5(%rip), %xmm0  # xmm0 = mem[0],zero
	movsd	.LCPI11_18(%rip), %xmm1 # xmm1 = mem[0],zero
	movq	-2216(%rbp), %rdi
	callq	_ZN8MEMORY_T6POKE64Edd
	movsd	.LCPI11_4(%rip), %xmm0  # xmm0 = mem[0],zero
	movsd	.LCPI11_57(%rip), %xmm1 # xmm1 = mem[0],zero
	movq	-2216(%rbp), %rdi
	callq	_ZN8MEMORY_T6POKE64Edd
	jmp	.LBB11_1040
.LBB11_856:
	movsd	.LCPI11_6(%rip), %xmm0  # xmm0 = mem[0],zero
	movsd	.LCPI11_57(%rip), %xmm1 # xmm1 = mem[0],zero
	movq	-2216(%rbp), %rdi
	callq	_ZN8MEMORY_T6POKE64Edd
	movsd	.LCPI11_5(%rip), %xmm0  # xmm0 = mem[0],zero
	movsd	.LCPI11_18(%rip), %xmm1 # xmm1 = mem[0],zero
	movq	-2216(%rbp), %rdi
	callq	_ZN8MEMORY_T6POKE64Edd
	movsd	.LCPI11_4(%rip), %xmm0  # xmm0 = mem[0],zero
	movsd	.LCPI11_57(%rip), %xmm1 # xmm1 = mem[0],zero
	movq	-2216(%rbp), %rdi
	callq	_ZN8MEMORY_T6POKE64Edd
	jmp	.LBB11_1040
.LBB11_857:
	movsd	.LCPI11_6(%rip), %xmm0  # xmm0 = mem[0],zero
	movsd	.LCPI11_57(%rip), %xmm1 # xmm1 = mem[0],zero
	movq	-2216(%rbp), %rdi
	callq	_ZN8MEMORY_T6POKE64Edd
	movsd	.LCPI11_5(%rip), %xmm0  # xmm0 = mem[0],zero
	movsd	.LCPI11_18(%rip), %xmm1 # xmm1 = mem[0],zero
	movq	-2216(%rbp), %rdi
	callq	_ZN8MEMORY_T6POKE64Edd
	movsd	.LCPI11_4(%rip), %xmm0  # xmm0 = mem[0],zero
	movsd	.LCPI11_80(%rip), %xmm1 # xmm1 = mem[0],zero
	movq	-2216(%rbp), %rdi
	callq	_ZN8MEMORY_T6POKE64Edd
	jmp	.LBB11_1040
.LBB11_858:
	movsd	.LCPI11_6(%rip), %xmm0  # xmm0 = mem[0],zero
	movsd	.LCPI11_57(%rip), %xmm1 # xmm1 = mem[0],zero
	movq	-2216(%rbp), %rdi
	callq	_ZN8MEMORY_T6POKE64Edd
	movsd	.LCPI11_5(%rip), %xmm0  # xmm0 = mem[0],zero
	movsd	.LCPI11_18(%rip), %xmm1 # xmm1 = mem[0],zero
	movq	-2216(%rbp), %rdi
	callq	_ZN8MEMORY_T6POKE64Edd
	movsd	.LCPI11_4(%rip), %xmm0  # xmm0 = mem[0],zero
	movsd	.LCPI11_59(%rip), %xmm1 # xmm1 = mem[0],zero
	movq	-2216(%rbp), %rdi
	callq	_ZN8MEMORY_T6POKE64Edd
	jmp	.LBB11_1040
.LBB11_859:
	movsd	.LCPI11_6(%rip), %xmm0  # xmm0 = mem[0],zero
	movsd	.LCPI11_57(%rip), %xmm1 # xmm1 = mem[0],zero
	movq	-2216(%rbp), %rdi
	callq	_ZN8MEMORY_T6POKE64Edd
	movsd	.LCPI11_5(%rip), %xmm0  # xmm0 = mem[0],zero
	movsd	.LCPI11_18(%rip), %xmm1 # xmm1 = mem[0],zero
	movq	-2216(%rbp), %rdi
	callq	_ZN8MEMORY_T6POKE64Edd
	movsd	.LCPI11_4(%rip), %xmm0  # xmm0 = mem[0],zero
	movsd	.LCPI11_83(%rip), %xmm1 # xmm1 = mem[0],zero
	movq	-2216(%rbp), %rdi
	callq	_ZN8MEMORY_T6POKE64Edd
	jmp	.LBB11_1040
.LBB11_860:
	movsd	.LCPI11_6(%rip), %xmm0  # xmm0 = mem[0],zero
	movsd	.LCPI11_57(%rip), %xmm1 # xmm1 = mem[0],zero
	movq	-2216(%rbp), %rdi
	callq	_ZN8MEMORY_T6POKE64Edd
	movsd	.LCPI11_5(%rip), %xmm0  # xmm0 = mem[0],zero
	movsd	.LCPI11_18(%rip), %xmm1 # xmm1 = mem[0],zero
	movq	-2216(%rbp), %rdi
	callq	_ZN8MEMORY_T6POKE64Edd
	movsd	.LCPI11_4(%rip), %xmm0  # xmm0 = mem[0],zero
	movsd	.LCPI11_18(%rip), %xmm1 # xmm1 = mem[0],zero
	movq	-2216(%rbp), %rdi
	callq	_ZN8MEMORY_T6POKE64Edd
	jmp	.LBB11_1040
.LBB11_861:
	movsd	.LCPI11_6(%rip), %xmm0  # xmm0 = mem[0],zero
	movsd	.LCPI11_57(%rip), %xmm1 # xmm1 = mem[0],zero
	movq	-2216(%rbp), %rdi
	callq	_ZN8MEMORY_T6POKE64Edd
	movsd	.LCPI11_5(%rip), %xmm0  # xmm0 = mem[0],zero
	movsd	.LCPI11_83(%rip), %xmm1 # xmm1 = mem[0],zero
	movq	-2216(%rbp), %rdi
	callq	_ZN8MEMORY_T6POKE64Edd
	movsd	.LCPI11_4(%rip), %xmm0  # xmm0 = mem[0],zero
	movsd	.LCPI11_18(%rip), %xmm1 # xmm1 = mem[0],zero
	movq	-2216(%rbp), %rdi
	callq	_ZN8MEMORY_T6POKE64Edd
	jmp	.LBB11_1040
.LBB11_862:
	movsd	.LCPI11_6(%rip), %xmm0  # xmm0 = mem[0],zero
	movsd	.LCPI11_57(%rip), %xmm1 # xmm1 = mem[0],zero
	movq	-2216(%rbp), %rdi
	callq	_ZN8MEMORY_T6POKE64Edd
	movsd	.LCPI11_5(%rip), %xmm0  # xmm0 = mem[0],zero
	movsd	.LCPI11_59(%rip), %xmm1 # xmm1 = mem[0],zero
	movq	-2216(%rbp), %rdi
	callq	_ZN8MEMORY_T6POKE64Edd
	movsd	.LCPI11_4(%rip), %xmm0  # xmm0 = mem[0],zero
	movsd	.LCPI11_18(%rip), %xmm1 # xmm1 = mem[0],zero
	movq	-2216(%rbp), %rdi
	callq	_ZN8MEMORY_T6POKE64Edd
	jmp	.LBB11_1040
.LBB11_863:
	movsd	.LCPI11_6(%rip), %xmm0  # xmm0 = mem[0],zero
	movsd	.LCPI11_57(%rip), %xmm1 # xmm1 = mem[0],zero
	movq	-2216(%rbp), %rdi
	callq	_ZN8MEMORY_T6POKE64Edd
	movsd	.LCPI11_5(%rip), %xmm0  # xmm0 = mem[0],zero
	movsd	.LCPI11_80(%rip), %xmm1 # xmm1 = mem[0],zero
	movq	-2216(%rbp), %rdi
	callq	_ZN8MEMORY_T6POKE64Edd
	movsd	.LCPI11_4(%rip), %xmm0  # xmm0 = mem[0],zero
	movsd	.LCPI11_18(%rip), %xmm1 # xmm1 = mem[0],zero
	movq	-2216(%rbp), %rdi
	callq	_ZN8MEMORY_T6POKE64Edd
	jmp	.LBB11_1040
.LBB11_864:
	movsd	.LCPI11_6(%rip), %xmm0  # xmm0 = mem[0],zero
	movsd	.LCPI11_48(%rip), %xmm1 # xmm1 = mem[0],zero
	movq	-2216(%rbp), %rdi
	callq	_ZN8MEMORY_T6POKE64Edd
	movsd	.LCPI11_5(%rip), %xmm0  # xmm0 = mem[0],zero
	movsd	.LCPI11_48(%rip), %xmm1 # xmm1 = mem[0],zero
	movq	-2216(%rbp), %rdi
	callq	_ZN8MEMORY_T6POKE64Edd
	movsd	.LCPI11_4(%rip), %xmm0  # xmm0 = mem[0],zero
	movsd	.LCPI11_18(%rip), %xmm1 # xmm1 = mem[0],zero
	movq	-2216(%rbp), %rdi
	callq	_ZN8MEMORY_T6POKE64Edd
	jmp	.LBB11_1040
.LBB11_865:
	movsd	.LCPI11_6(%rip), %xmm0  # xmm0 = mem[0],zero
	movsd	.LCPI11_103(%rip), %xmm1 # xmm1 = mem[0],zero
	movq	-2216(%rbp), %rdi
	callq	_ZN8MEMORY_T6POKE64Edd
	movsd	.LCPI11_5(%rip), %xmm0  # xmm0 = mem[0],zero
	movsd	.LCPI11_48(%rip), %xmm1 # xmm1 = mem[0],zero
	movq	-2216(%rbp), %rdi
	callq	_ZN8MEMORY_T6POKE64Edd
	movsd	.LCPI11_4(%rip), %xmm0  # xmm0 = mem[0],zero
	movsd	.LCPI11_18(%rip), %xmm1 # xmm1 = mem[0],zero
	movq	-2216(%rbp), %rdi
	callq	_ZN8MEMORY_T6POKE64Edd
	jmp	.LBB11_1040
.LBB11_866:
	movsd	.LCPI11_6(%rip), %xmm0  # xmm0 = mem[0],zero
	movsd	.LCPI11_105(%rip), %xmm1 # xmm1 = mem[0],zero
	movq	-2216(%rbp), %rdi
	callq	_ZN8MEMORY_T6POKE64Edd
	movsd	.LCPI11_5(%rip), %xmm0  # xmm0 = mem[0],zero
	movsd	.LCPI11_48(%rip), %xmm1 # xmm1 = mem[0],zero
	movq	-2216(%rbp), %rdi
	callq	_ZN8MEMORY_T6POKE64Edd
	movsd	.LCPI11_4(%rip), %xmm0  # xmm0 = mem[0],zero
	movsd	.LCPI11_18(%rip), %xmm1 # xmm1 = mem[0],zero
	movq	-2216(%rbp), %rdi
	callq	_ZN8MEMORY_T6POKE64Edd
	jmp	.LBB11_1040
.LBB11_867:
	movsd	.LCPI11_6(%rip), %xmm0  # xmm0 = mem[0],zero
	movsd	.LCPI11_107(%rip), %xmm1 # xmm1 = mem[0],zero
	movq	-2216(%rbp), %rdi
	callq	_ZN8MEMORY_T6POKE64Edd
	movsd	.LCPI11_5(%rip), %xmm0  # xmm0 = mem[0],zero
	movsd	.LCPI11_48(%rip), %xmm1 # xmm1 = mem[0],zero
	movq	-2216(%rbp), %rdi
	callq	_ZN8MEMORY_T6POKE64Edd
	movsd	.LCPI11_4(%rip), %xmm0  # xmm0 = mem[0],zero
	movsd	.LCPI11_18(%rip), %xmm1 # xmm1 = mem[0],zero
	movq	-2216(%rbp), %rdi
	callq	_ZN8MEMORY_T6POKE64Edd
	jmp	.LBB11_1040
.LBB11_868:
	movsd	.LCPI11_6(%rip), %xmm0  # xmm0 = mem[0],zero
	movsd	.LCPI11_18(%rip), %xmm1 # xmm1 = mem[0],zero
	movq	-2216(%rbp), %rdi
	callq	_ZN8MEMORY_T6POKE64Edd
	movsd	.LCPI11_5(%rip), %xmm0  # xmm0 = mem[0],zero
	movsd	.LCPI11_48(%rip), %xmm1 # xmm1 = mem[0],zero
	movq	-2216(%rbp), %rdi
	callq	_ZN8MEMORY_T6POKE64Edd
	movsd	.LCPI11_4(%rip), %xmm0  # xmm0 = mem[0],zero
	movsd	.LCPI11_18(%rip), %xmm1 # xmm1 = mem[0],zero
	movq	-2216(%rbp), %rdi
	callq	_ZN8MEMORY_T6POKE64Edd
	jmp	.LBB11_1040
.LBB11_869:
	movsd	.LCPI11_6(%rip), %xmm0  # xmm0 = mem[0],zero
	movsd	.LCPI11_18(%rip), %xmm1 # xmm1 = mem[0],zero
	movq	-2216(%rbp), %rdi
	callq	_ZN8MEMORY_T6POKE64Edd
	movsd	.LCPI11_5(%rip), %xmm0  # xmm0 = mem[0],zero
	movsd	.LCPI11_48(%rip), %xmm1 # xmm1 = mem[0],zero
	movq	-2216(%rbp), %rdi
	callq	_ZN8MEMORY_T6POKE64Edd
	movsd	.LCPI11_4(%rip), %xmm0  # xmm0 = mem[0],zero
	movsd	.LCPI11_107(%rip), %xmm1 # xmm1 = mem[0],zero
	movq	-2216(%rbp), %rdi
	callq	_ZN8MEMORY_T6POKE64Edd
	jmp	.LBB11_1040
.LBB11_870:
	movsd	.LCPI11_6(%rip), %xmm0  # xmm0 = mem[0],zero
	movsd	.LCPI11_18(%rip), %xmm1 # xmm1 = mem[0],zero
	movq	-2216(%rbp), %rdi
	callq	_ZN8MEMORY_T6POKE64Edd
	movsd	.LCPI11_5(%rip), %xmm0  # xmm0 = mem[0],zero
	movsd	.LCPI11_48(%rip), %xmm1 # xmm1 = mem[0],zero
	movq	-2216(%rbp), %rdi
	callq	_ZN8MEMORY_T6POKE64Edd
	movsd	.LCPI11_4(%rip), %xmm0  # xmm0 = mem[0],zero
	movsd	.LCPI11_105(%rip), %xmm1 # xmm1 = mem[0],zero
	movq	-2216(%rbp), %rdi
	callq	_ZN8MEMORY_T6POKE64Edd
	jmp	.LBB11_1040
.LBB11_871:
	movsd	.LCPI11_6(%rip), %xmm0  # xmm0 = mem[0],zero
	movsd	.LCPI11_18(%rip), %xmm1 # xmm1 = mem[0],zero
	movq	-2216(%rbp), %rdi
	callq	_ZN8MEMORY_T6POKE64Edd
	movsd	.LCPI11_5(%rip), %xmm0  # xmm0 = mem[0],zero
	movsd	.LCPI11_48(%rip), %xmm1 # xmm1 = mem[0],zero
	movq	-2216(%rbp), %rdi
	callq	_ZN8MEMORY_T6POKE64Edd
	movsd	.LCPI11_4(%rip), %xmm0  # xmm0 = mem[0],zero
	movsd	.LCPI11_103(%rip), %xmm1 # xmm1 = mem[0],zero
	movq	-2216(%rbp), %rdi
	callq	_ZN8MEMORY_T6POKE64Edd
	jmp	.LBB11_1040
.LBB11_872:
	movsd	.LCPI11_6(%rip), %xmm0  # xmm0 = mem[0],zero
	movsd	.LCPI11_18(%rip), %xmm1 # xmm1 = mem[0],zero
	movq	-2216(%rbp), %rdi
	callq	_ZN8MEMORY_T6POKE64Edd
	movsd	.LCPI11_5(%rip), %xmm0  # xmm0 = mem[0],zero
	movsd	.LCPI11_48(%rip), %xmm1 # xmm1 = mem[0],zero
	movq	-2216(%rbp), %rdi
	callq	_ZN8MEMORY_T6POKE64Edd
	movsd	.LCPI11_4(%rip), %xmm0  # xmm0 = mem[0],zero
	movsd	.LCPI11_48(%rip), %xmm1 # xmm1 = mem[0],zero
	movq	-2216(%rbp), %rdi
	callq	_ZN8MEMORY_T6POKE64Edd
	jmp	.LBB11_1040
.LBB11_873:
	movsd	.LCPI11_6(%rip), %xmm0  # xmm0 = mem[0],zero
	movsd	.LCPI11_18(%rip), %xmm1 # xmm1 = mem[0],zero
	movq	-2216(%rbp), %rdi
	callq	_ZN8MEMORY_T6POKE64Edd
	movsd	.LCPI11_5(%rip), %xmm0  # xmm0 = mem[0],zero
	movsd	.LCPI11_103(%rip), %xmm1 # xmm1 = mem[0],zero
	movq	-2216(%rbp), %rdi
	callq	_ZN8MEMORY_T6POKE64Edd
	movsd	.LCPI11_4(%rip), %xmm0  # xmm0 = mem[0],zero
	movsd	.LCPI11_48(%rip), %xmm1 # xmm1 = mem[0],zero
	movq	-2216(%rbp), %rdi
	callq	_ZN8MEMORY_T6POKE64Edd
	jmp	.LBB11_1040
.LBB11_874:
	movsd	.LCPI11_6(%rip), %xmm0  # xmm0 = mem[0],zero
	movsd	.LCPI11_18(%rip), %xmm1 # xmm1 = mem[0],zero
	movq	-2216(%rbp), %rdi
	callq	_ZN8MEMORY_T6POKE64Edd
	movsd	.LCPI11_5(%rip), %xmm0  # xmm0 = mem[0],zero
	movsd	.LCPI11_105(%rip), %xmm1 # xmm1 = mem[0],zero
	movq	-2216(%rbp), %rdi
	callq	_ZN8MEMORY_T6POKE64Edd
	movsd	.LCPI11_4(%rip), %xmm0  # xmm0 = mem[0],zero
	movsd	.LCPI11_48(%rip), %xmm1 # xmm1 = mem[0],zero
	movq	-2216(%rbp), %rdi
	callq	_ZN8MEMORY_T6POKE64Edd
	jmp	.LBB11_1040
.LBB11_875:
	movsd	.LCPI11_6(%rip), %xmm0  # xmm0 = mem[0],zero
	movsd	.LCPI11_18(%rip), %xmm1 # xmm1 = mem[0],zero
	movq	-2216(%rbp), %rdi
	callq	_ZN8MEMORY_T6POKE64Edd
	movsd	.LCPI11_5(%rip), %xmm0  # xmm0 = mem[0],zero
	movsd	.LCPI11_107(%rip), %xmm1 # xmm1 = mem[0],zero
	movq	-2216(%rbp), %rdi
	callq	_ZN8MEMORY_T6POKE64Edd
	movsd	.LCPI11_4(%rip), %xmm0  # xmm0 = mem[0],zero
	movsd	.LCPI11_48(%rip), %xmm1 # xmm1 = mem[0],zero
	movq	-2216(%rbp), %rdi
	callq	_ZN8MEMORY_T6POKE64Edd
	jmp	.LBB11_1040
.LBB11_876:
	movsd	.LCPI11_6(%rip), %xmm0  # xmm0 = mem[0],zero
	movsd	.LCPI11_18(%rip), %xmm1 # xmm1 = mem[0],zero
	movq	-2216(%rbp), %rdi
	callq	_ZN8MEMORY_T6POKE64Edd
	movsd	.LCPI11_5(%rip), %xmm0  # xmm0 = mem[0],zero
	movsd	.LCPI11_18(%rip), %xmm1 # xmm1 = mem[0],zero
	movq	-2216(%rbp), %rdi
	callq	_ZN8MEMORY_T6POKE64Edd
	movsd	.LCPI11_4(%rip), %xmm0  # xmm0 = mem[0],zero
	movsd	.LCPI11_48(%rip), %xmm1 # xmm1 = mem[0],zero
	movq	-2216(%rbp), %rdi
	callq	_ZN8MEMORY_T6POKE64Edd
	jmp	.LBB11_1040
.LBB11_877:
	movsd	.LCPI11_6(%rip), %xmm0  # xmm0 = mem[0],zero
	movsd	.LCPI11_107(%rip), %xmm1 # xmm1 = mem[0],zero
	movq	-2216(%rbp), %rdi
	callq	_ZN8MEMORY_T6POKE64Edd
	movsd	.LCPI11_5(%rip), %xmm0  # xmm0 = mem[0],zero
	movsd	.LCPI11_18(%rip), %xmm1 # xmm1 = mem[0],zero
	movq	-2216(%rbp), %rdi
	callq	_ZN8MEMORY_T6POKE64Edd
	movsd	.LCPI11_4(%rip), %xmm0  # xmm0 = mem[0],zero
	movsd	.LCPI11_48(%rip), %xmm1 # xmm1 = mem[0],zero
	movq	-2216(%rbp), %rdi
	callq	_ZN8MEMORY_T6POKE64Edd
	jmp	.LBB11_1040
.LBB11_878:
	movsd	.LCPI11_6(%rip), %xmm0  # xmm0 = mem[0],zero
	movsd	.LCPI11_105(%rip), %xmm1 # xmm1 = mem[0],zero
	movq	-2216(%rbp), %rdi
	callq	_ZN8MEMORY_T6POKE64Edd
	movsd	.LCPI11_5(%rip), %xmm0  # xmm0 = mem[0],zero
	movsd	.LCPI11_18(%rip), %xmm1 # xmm1 = mem[0],zero
	movq	-2216(%rbp), %rdi
	callq	_ZN8MEMORY_T6POKE64Edd
	movsd	.LCPI11_4(%rip), %xmm0  # xmm0 = mem[0],zero
	movsd	.LCPI11_48(%rip), %xmm1 # xmm1 = mem[0],zero
	movq	-2216(%rbp), %rdi
	callq	_ZN8MEMORY_T6POKE64Edd
	jmp	.LBB11_1040
.LBB11_879:
	movsd	.LCPI11_6(%rip), %xmm0  # xmm0 = mem[0],zero
	movsd	.LCPI11_103(%rip), %xmm1 # xmm1 = mem[0],zero
	movq	-2216(%rbp), %rdi
	callq	_ZN8MEMORY_T6POKE64Edd
	movsd	.LCPI11_5(%rip), %xmm0  # xmm0 = mem[0],zero
	movsd	.LCPI11_18(%rip), %xmm1 # xmm1 = mem[0],zero
	movq	-2216(%rbp), %rdi
	callq	_ZN8MEMORY_T6POKE64Edd
	movsd	.LCPI11_4(%rip), %xmm0  # xmm0 = mem[0],zero
	movsd	.LCPI11_48(%rip), %xmm1 # xmm1 = mem[0],zero
	movq	-2216(%rbp), %rdi
	callq	_ZN8MEMORY_T6POKE64Edd
	jmp	.LBB11_1040
.LBB11_880:
	movsd	.LCPI11_6(%rip), %xmm0  # xmm0 = mem[0],zero
	movsd	.LCPI11_48(%rip), %xmm1 # xmm1 = mem[0],zero
	movq	-2216(%rbp), %rdi
	callq	_ZN8MEMORY_T6POKE64Edd
	movsd	.LCPI11_5(%rip), %xmm0  # xmm0 = mem[0],zero
	movsd	.LCPI11_18(%rip), %xmm1 # xmm1 = mem[0],zero
	movq	-2216(%rbp), %rdi
	callq	_ZN8MEMORY_T6POKE64Edd
	movsd	.LCPI11_4(%rip), %xmm0  # xmm0 = mem[0],zero
	movsd	.LCPI11_48(%rip), %xmm1 # xmm1 = mem[0],zero
	movq	-2216(%rbp), %rdi
	callq	_ZN8MEMORY_T6POKE64Edd
	jmp	.LBB11_1040
.LBB11_881:
	movsd	.LCPI11_6(%rip), %xmm0  # xmm0 = mem[0],zero
	movsd	.LCPI11_48(%rip), %xmm1 # xmm1 = mem[0],zero
	movq	-2216(%rbp), %rdi
	callq	_ZN8MEMORY_T6POKE64Edd
