Archive member included to satisfy reference by file (symbol)

/usr/local/bin/../lib/freebasic/linux-x86_64/libfbgfx.a(gfx_access.o)
                              c64dvd-glsl.o (fb_GfxLock)
/usr/local/bin/../lib/freebasic/linux-x86_64/libfbgfx.a(gfx_bload.o)
                              c64dvd-glsl.o (fb_GfxBload)
/usr/local/bin/../lib/freebasic/linux-x86_64/libfbgfx.a(gfx_circle.o)
                              c64dvd-glsl.o (fb_GfxEllipse)
/usr/local/bin/../lib/freebasic/linux-x86_64/libfbgfx.a(gfx_control.o)
                              c64dvd-glsl.o (fb_GfxControl_i)
/usr/local/bin/../lib/freebasic/linux-x86_64/libfbgfx.a(gfx_core.o)
                              /usr/local/bin/../lib/freebasic/linux-x86_64/libfbgfx.a(gfx_access.o) (fb_hSetPixelTransfer)
/usr/local/bin/../lib/freebasic/linux-x86_64/libfbgfx.a(gfx_drawstring.o)
                              c64dvd-glsl.o (fb_GfxDrawString)
/usr/local/bin/../lib/freebasic/linux-x86_64/libfbgfx.a(gfx_image.o)
                              c64dvd-glsl.o (fb_GfxImageCreate)
/usr/local/bin/../lib/freebasic/linux-x86_64/libfbgfx.a(gfx_image_convert.o)
                              /usr/local/bin/../lib/freebasic/linux-x86_64/libfbgfx.a(gfx_bload.o) (fb_image_convert_8to8)
/usr/local/bin/../lib/freebasic/linux-x86_64/libfbgfx.a(gfx_image_info.o)
                              c64dvd-glsl.o (fb_GfxImageInfo)
/usr/local/bin/../lib/freebasic/linux-x86_64/libfbgfx.a(gfx_line.o)
                              c64dvd-glsl.o (fb_GfxLine)
/usr/local/bin/../lib/freebasic/linux-x86_64/libfbgfx.a(gfx_opengl.o)
                              c64dvd-glsl.o (fb_GfxGetGLProcAddress)
/usr/local/bin/../lib/freebasic/linux-x86_64/libfbgfx.a(gfx_page.o)
                              c64dvd-glsl.o (fb_GfxFlip)
/usr/local/bin/../lib/freebasic/linux-x86_64/libfbgfx.a(gfx_paint.o)
                              c64dvd-glsl.o (fb_GfxPaint)
/usr/local/bin/../lib/freebasic/linux-x86_64/libfbgfx.a(gfx_palette.o)
                              /usr/local/bin/../lib/freebasic/linux-x86_64/libfbgfx.a(gfx_circle.o) (fb_hFixColor)
/usr/local/bin/../lib/freebasic/linux-x86_64/libfbgfx.a(gfx_pset.o)
                              c64dvd-glsl.o (fb_GfxPset)
/usr/local/bin/../lib/freebasic/linux-x86_64/libfbgfx.a(gfx_put.o)
                              c64dvd-glsl.o (fb_GfxPut)
/usr/local/bin/../lib/freebasic/linux-x86_64/libfbgfx.a(gfx_put_alpha.o)
                              c64dvd-glsl.o (fb_hPutAlpha)
/usr/local/bin/../lib/freebasic/linux-x86_64/libfbgfx.a(gfx_put_or.o)
                              c64dvd-glsl.o (fb_hPutOr)
/usr/local/bin/../lib/freebasic/linux-x86_64/libfbgfx.a(gfx_put_pset.o)
                              /usr/local/bin/../lib/freebasic/linux-x86_64/libfbgfx.a(gfx_put_alpha.o) (fb_hPutPSetC)
/usr/local/bin/../lib/freebasic/linux-x86_64/libfbgfx.a(gfx_screen.o)
                              c64dvd-glsl.o (fb_GfxScreen)
/usr/local/bin/../lib/freebasic/linux-x86_64/libfbgfx.a(gfx_screeninfo.o)
                              c64dvd-glsl.o (fb_GfxScreenInfo)
/usr/local/bin/../lib/freebasic/linux-x86_64/libfbgfx.a(gfx_screenlist.o)
                              c64dvd-glsl.o (fb_GfxScreenList)
/usr/local/bin/../lib/freebasic/linux-x86_64/libfbgfx.a(gfx_setmouse.o)
                              /usr/local/bin/../lib/freebasic/linux-x86_64/libfbgfx.a(gfx_screen.o) (fb_GfxSetMouse)
/usr/local/bin/../lib/freebasic/linux-x86_64/libfbgfx.a(gfx_sleep.o)
                              /usr/local/bin/../lib/freebasic/linux-x86_64/libfbgfx.a(gfx_screen.o) (fb_GfxSleep)
/usr/local/bin/../lib/freebasic/linux-x86_64/libfbgfx.a(gfx_unix.o)
                              /usr/local/bin/../lib/freebasic/linux-x86_64/libfbgfx.a(gfx_control.o) (fb_hScreenInfo)
/usr/local/bin/../lib/freebasic/linux-x86_64/libfbgfx.a(gfx_vars.o)
                              /usr/local/bin/../lib/freebasic/linux-x86_64/libfbgfx.a(gfx_control.o) (__fb_gfx_driver_name)
/usr/local/bin/../lib/freebasic/linux-x86_64/libfbgfx.a(gfx_vgaemu.o)
                              /usr/local/bin/../lib/freebasic/linux-x86_64/libfbgfx.a(gfx_screen.o) (fb_GfxIn)
/usr/local/bin/../lib/freebasic/linux-x86_64/libfbgfx.a(gfx_width.o)
                              /usr/local/bin/../lib/freebasic/linux-x86_64/libfbgfx.a(gfx_screen.o) (fb_GfxWidth)
/usr/local/bin/../lib/freebasic/linux-x86_64/libfbgfx.a(gfx_x11.o)
                              /usr/local/bin/../lib/freebasic/linux-x86_64/libfbgfx.a(gfx_unix.o) (fb_hX11ScreenInfo)
/usr/local/bin/../lib/freebasic/linux-x86_64/libfbgfx.a(gfx_x11_icon_stub.o)
                              /usr/local/bin/../lib/freebasic/linux-x86_64/libfbgfx.a(gfx_x11.o) (fb_program_icon)
/usr/local/bin/../lib/freebasic/linux-x86_64/libfbgfx.a(gfx_box.o)
                              /usr/local/bin/../lib/freebasic/linux-x86_64/libfbgfx.a(gfx_line.o) (fb_hGfxBox)
/usr/local/bin/../lib/freebasic/linux-x86_64/libfbgfx.a(gfx_cls.o)
                              /usr/local/bin/../lib/freebasic/linux-x86_64/libfbgfx.a(gfx_screen.o) (fb_GfxClear)
/usr/local/bin/../lib/freebasic/linux-x86_64/libfbgfx.a(gfx_color.o)
                              /usr/local/bin/../lib/freebasic/linux-x86_64/libfbgfx.a(gfx_screen.o) (fb_GfxColor)
/usr/local/bin/../lib/freebasic/linux-x86_64/libfbgfx.a(gfx_data.o)
                              /usr/local/bin/../lib/freebasic/linux-x86_64/libfbgfx.a(gfx_screen.o) (fb_hSetupData)
/usr/local/bin/../lib/freebasic/linux-x86_64/libfbgfx.a(gfx_driver_fbdev.o)
                              /usr/local/bin/../lib/freebasic/linux-x86_64/libfbgfx.a(gfx_unix.o) (fb_hFBDevInfo)
/usr/local/bin/../lib/freebasic/linux-x86_64/libfbgfx.a(gfx_driver_null.o)
                              /usr/local/bin/../lib/freebasic/linux-x86_64/libfbgfx.a(gfx_screen.o) (__fb_gfxDriverNull)
/usr/local/bin/../lib/freebasic/linux-x86_64/libfbgfx.a(gfx_driver_opengl_x11.o)
                              /usr/local/bin/../lib/freebasic/linux-x86_64/libfbgfx.a(gfx_opengl.o) (fb_hGL_GetProcAddress)
/usr/local/bin/../lib/freebasic/linux-x86_64/libfbgfx.a(gfx_driver_x11.o)
                              /usr/local/bin/../lib/freebasic/linux-x86_64/libfbgfx.a(gfx_driver_opengl_x11.o) (fb_hX11WaitUnmapped)
/usr/local/bin/../lib/freebasic/linux-x86_64/libfbgfx.a(gfx_getmouse.o)
                              /usr/local/bin/../lib/freebasic/linux-x86_64/libfbgfx.a(gfx_screen.o) (fb_GfxGetMouse)
/usr/local/bin/../lib/freebasic/linux-x86_64/libfbgfx.a(gfx_inkey.o)
                              /usr/local/bin/../lib/freebasic/linux-x86_64/libfbgfx.a(gfx_sleep.o) (fb_hGfxInputBufferChanged)
/usr/local/bin/../lib/freebasic/linux-x86_64/libfbgfx.a(gfx_lineinp.o)
                              /usr/local/bin/../lib/freebasic/linux-x86_64/libfbgfx.a(gfx_screen.o) (fb_GfxLineInput)
/usr/local/bin/../lib/freebasic/linux-x86_64/libfbgfx.a(gfx_lineinp_wstr.o)
                              /usr/local/bin/../lib/freebasic/linux-x86_64/libfbgfx.a(gfx_screen.o) (fb_GfxLineInputWstr)
/usr/local/bin/../lib/freebasic/linux-x86_64/libfbgfx.a(gfx_lzw.o)
                              /usr/local/bin/../lib/freebasic/linux-x86_64/libfbgfx.a(gfx_data.o) (fb_hDecode)
/usr/local/bin/../lib/freebasic/linux-x86_64/libfbgfx.a(gfx_multikey.o)
                              /usr/local/bin/../lib/freebasic/linux-x86_64/libfbgfx.a(gfx_screen.o) (fb_GfxMultikey)
/usr/local/bin/../lib/freebasic/linux-x86_64/libfbgfx.a(gfx_print.o)
                              /usr/local/bin/../lib/freebasic/linux-x86_64/libfbgfx.a(gfx_screen.o) (fb_GfxPrintBufferEx)
/usr/local/bin/../lib/freebasic/linux-x86_64/libfbgfx.a(gfx_print_wstr.o)
                              /usr/local/bin/../lib/freebasic/linux-x86_64/libfbgfx.a(gfx_screen.o) (fb_GfxPrintBufferWstrEx)
/usr/local/bin/../lib/freebasic/linux-x86_64/libfbgfx.a(gfx_readstr.o)
                              /usr/local/bin/../lib/freebasic/linux-x86_64/libfbgfx.a(gfx_screen.o) (fb_GfxReadStr)
/usr/local/bin/../lib/freebasic/linux-x86_64/libfbgfx.a(gfx_readxy.o)
                              /usr/local/bin/../lib/freebasic/linux-x86_64/libfbgfx.a(gfx_screen.o) (fb_GfxReadXY)
/usr/local/bin/../lib/freebasic/linux-x86_64/libfbgfx.a(gfx_softcursor.o)
                              /usr/local/bin/../lib/freebasic/linux-x86_64/libfbgfx.a(gfx_driver_fbdev.o) (fb_hColorDistance)
/usr/local/bin/../lib/freebasic/linux-x86_64/libfbgfx.a(gfx_view.o)
                              /usr/local/bin/../lib/freebasic/linux-x86_64/libfbgfx.a(gfx_width.o) (fb_GfxView)
/usr/local/bin/../lib/freebasic/linux-x86_64/libfbgfx.a(gfx_blitter.o)
                              /usr/local/bin/../lib/freebasic/linux-x86_64/libfbgfx.a(gfx_driver_fbdev.o) (fb_hGetBlitter)
/usr/local/bin/../lib/freebasic/linux-x86_64/libfb.a(array_destructstr.o)
                              c64dvd-glsl.o (fb_ArrayDestructStr)
/usr/local/bin/../lib/freebasic/linux-x86_64/libfb.a(con_input.o)
                              c64dvd-glsl.o (fb_ConsoleInput)
/usr/local/bin/../lib/freebasic/linux-x86_64/libfb.a(con_locate.o)
                              c64dvd-glsl.o (fb_Locate)
/usr/local/bin/../lib/freebasic/linux-x86_64/libfb.a(con_print_tty.o)
                              /usr/local/bin/../lib/freebasic/linux-x86_64/libfbgfx.a(gfx_print.o) (fb_ConPrintTTY)
/usr/local/bin/../lib/freebasic/linux-x86_64/libfb.a(con_readline.o)
                              /usr/local/bin/../lib/freebasic/linux-x86_64/libfbgfx.a(gfx_lineinp.o) (fb_ConReadLine)
/usr/local/bin/../lib/freebasic/linux-x86_64/libfb.a(data.o)
                              c64dvd-glsl.o (fb_DataRestore)
/usr/local/bin/../lib/freebasic/linux-x86_64/libfb.a(data_readlong.o)
                              c64dvd-glsl.o (fb_DataReadLongint)
/usr/local/bin/../lib/freebasic/linux-x86_64/libfb.a(data_readstr.o)
                              c64dvd-glsl.o (fb_DataReadStr)
/usr/local/bin/../lib/freebasic/linux-x86_64/libfb.a(data_readulong.o)
                              c64dvd-glsl.o (fb_DataReadULongint)
/usr/local/bin/../lib/freebasic/linux-x86_64/libfb.a(dev_scrn_init.o)
                              /usr/local/bin/../lib/freebasic/linux-x86_64/libfbgfx.a(gfx_screen.o) (fb_DevScrnMaybeUpdateWidth)
/usr/local/bin/../lib/freebasic/linux-x86_64/libfb.a(dev_scrn_read.o)
                              /usr/local/bin/../lib/freebasic/linux-x86_64/libfb.a(con_input.o) (fb_DevScrnInit_Read)
/usr/local/bin/../lib/freebasic/linux-x86_64/libfb.a(error_getset.o)
                              /usr/local/bin/../lib/freebasic/linux-x86_64/libfbgfx.a(gfx_bload.o) (fb_ErrorSetNum)
/usr/local/bin/../lib/freebasic/linux-x86_64/libfb.a(file_close.o)
                              c64dvd-glsl.o (fb_FileClose)
/usr/local/bin/../lib/freebasic/linux-x86_64/libfb.a(file_eof.o)
                              c64dvd-glsl.o (fb_FileEof)
/usr/local/bin/../lib/freebasic/linux-x86_64/libfb.a(file_free.o)
                              c64dvd-glsl.o (fb_FileFree)
/usr/local/bin/../lib/freebasic/linux-x86_64/libfb.a(file_get.o)
                              c64dvd-glsl.o (fb_FileGetLarge)
/usr/local/bin/../lib/freebasic/linux-x86_64/libfb.a(file_hconvpath.o)
                              /usr/local/bin/../lib/freebasic/linux-x86_64/libfbgfx.a(gfx_bload.o) (fb_hConvertPath)
/usr/local/bin/../lib/freebasic/linux-x86_64/libfb.a(file_input_file.o)
                              c64dvd-glsl.o (fb_FileInput)
/usr/local/bin/../lib/freebasic/linux-x86_64/libfb.a(file_input_str.o)
                              c64dvd-glsl.o (fb_InputString)
/usr/local/bin/../lib/freebasic/linux-x86_64/libfb.a(file_input_tok.o)
                              /usr/local/bin/../lib/freebasic/linux-x86_64/libfb.a(file_input_str.o) (fb_FileInputNextToken)
/usr/local/bin/../lib/freebasic/linux-x86_64/libfb.a(file_lineinp.o)
                              c64dvd-glsl.o (fb_FileLineInput)
/usr/local/bin/../lib/freebasic/linux-x86_64/libfb.a(file_open.o)
                              c64dvd-glsl.o (fb_FileOpen)
/usr/local/bin/../lib/freebasic/linux-x86_64/libfb.a(file_put.o)
                              c64dvd-glsl.o (fb_FilePutLarge)
/usr/local/bin/../lib/freebasic/linux-x86_64/libfb.a(file_putback.o)
                              /usr/local/bin/../lib/freebasic/linux-x86_64/libfb.a(file_input_tok.o) (fb_FilePutBackEx)
/usr/local/bin/../lib/freebasic/linux-x86_64/libfb.a(file_reset.o)
                              /usr/local/bin/../lib/freebasic/linux-x86_64/libfb.a(file_close.o) (fb_FileReset)
/usr/local/bin/../lib/freebasic/linux-x86_64/libfb.a(file_seek.o)
                              /usr/local/bin/../lib/freebasic/linux-x86_64/libfb.a(file_get.o) (fb_FileSeekEx)
/usr/local/bin/../lib/freebasic/linux-x86_64/libfb.a(file_size.o)
                              c64dvd-glsl.o (fb_FileSize)
/usr/local/bin/../lib/freebasic/linux-x86_64/libfb.a(hdynload.o)
                              /usr/local/bin/../lib/freebasic/linux-x86_64/libfbgfx.a(gfx_driver_opengl_x11.o) (fb_hDynLoad)
/usr/local/bin/../lib/freebasic/linux-x86_64/libfb.a(hook_cls.o)
                              c64dvd-glsl.o (fb_Cls)
/usr/local/bin/../lib/freebasic/linux-x86_64/libfb.a(hook_getmouse64.o)
                              c64dvd-glsl.o (fb_GetMouse64)
/usr/local/bin/../lib/freebasic/linux-x86_64/libfb.a(hook_getsize.o)
                              /usr/local/bin/../lib/freebasic/linux-x86_64/libfbgfx.a(gfx_print.o) (fb_GetSize)
/usr/local/bin/../lib/freebasic/linux-x86_64/libfb.a(hook_getx.o)
                              /usr/local/bin/../lib/freebasic/linux-x86_64/libfb.a(dev_scrn_init.o) (fb_GetX)
/usr/local/bin/../lib/freebasic/linux-x86_64/libfb.a(hook_getxy.o)
                              /usr/local/bin/../lib/freebasic/linux-x86_64/libfb.a(con_readline.o) (fb_GetXY)
/usr/local/bin/../lib/freebasic/linux-x86_64/libfb.a(hook_inkey.o)
                              c64dvd-glsl.o (fb_Inkey)
/usr/local/bin/../lib/freebasic/linux-x86_64/libfb.a(hook_isredir.o)
                              /usr/local/bin/../lib/freebasic/linux-x86_64/libfb.a(con_input.o) (fb_IsRedirected)
/usr/local/bin/../lib/freebasic/linux-x86_64/libfb.a(hook_lineinp.o)
                              /usr/local/bin/../lib/freebasic/linux-x86_64/libfb.a(con_input.o) (fb_LineInput)
/usr/local/bin/../lib/freebasic/linux-x86_64/libfb.a(hook_locate_ex.o)
                              /usr/local/bin/../lib/freebasic/linux-x86_64/libfb.a(con_locate.o) (fb_LocateEx)
/usr/local/bin/../lib/freebasic/linux-x86_64/libfb.a(hook_pageset.o)
                              /usr/local/bin/../lib/freebasic/linux-x86_64/libfbgfx.a(gfx_screen.o) (fb_PageSet)
/usr/local/bin/../lib/freebasic/linux-x86_64/libfb.a(hook_pcopy.o)
                              c64dvd-glsl.o (fb_PageCopy)
/usr/local/bin/../lib/freebasic/linux-x86_64/libfb.a(hook_printstr.o)
                              /usr/local/bin/../lib/freebasic/linux-x86_64/libfbgfx.a(gfx_lineinp.o) (fb_PrintBufferEx)
/usr/local/bin/../lib/freebasic/linux-x86_64/libfb.a(hook_sleep.o)
                              c64dvd-glsl.o (fb_Sleep)
/usr/local/bin/../lib/freebasic/linux-x86_64/libfb.a(hook_width.o)
                              /usr/local/bin/../lib/freebasic/linux-x86_64/libfbgfx.a(gfx_screen.o) (fb_Width)
/usr/local/bin/../lib/freebasic/linux-x86_64/libfb.a(init.o)
                              /usr/local/bin/../lib/freebasic/linux-x86_64/fbrt0.o (fb_hRtInit)
/usr/local/bin/../lib/freebasic/linux-x86_64/libfb.a(io_cls.o)
                              /usr/local/bin/../lib/freebasic/linux-x86_64/libfb.a(hook_cls.o) (fb_ConsoleClear)
/usr/local/bin/../lib/freebasic/linux-x86_64/libfb.a(io_getsize.o)
                              /usr/local/bin/../lib/freebasic/linux-x86_64/libfb.a(hook_getsize.o) (fb_ConsoleGetSize)
/usr/local/bin/../lib/freebasic/linux-x86_64/libfb.a(io_getx.o)
                              /usr/local/bin/../lib/freebasic/linux-x86_64/libfb.a(hook_getx.o) (fb_ConsoleGetX)
/usr/local/bin/../lib/freebasic/linux-x86_64/libfb.a(io_getxy.o)
                              /usr/local/bin/../lib/freebasic/linux-x86_64/libfb.a(hook_getxy.o) (fb_ConsoleGetXY)
/usr/local/bin/../lib/freebasic/linux-x86_64/libfb.a(io_hinkey.o)
                              /usr/local/bin/../lib/freebasic/linux-x86_64/libfbgfx.a(gfx_inkey.o) (fb_hMakeInkeyStr)
/usr/local/bin/../lib/freebasic/linux-x86_64/libfb.a(io_inkey.o)
                              /usr/local/bin/../lib/freebasic/linux-x86_64/libfb.a(hook_inkey.o) (fb_ConsoleInkey)
/usr/local/bin/../lib/freebasic/linux-x86_64/libfb.a(io_isredir.o)
                              /usr/local/bin/../lib/freebasic/linux-x86_64/libfb.a(hook_isredir.o) (fb_ConsoleIsRedirected)
/usr/local/bin/../lib/freebasic/linux-x86_64/libfb.a(io_locate.o)
                              /usr/local/bin/../lib/freebasic/linux-x86_64/libfb.a(hook_locate_ex.o) (fb_ConsoleLocate)
/usr/local/bin/../lib/freebasic/linux-x86_64/libfb.a(io_maxrow.o)
                              /usr/local/bin/../lib/freebasic/linux-x86_64/libfb.a(io_cls.o) (fb_ConsoleGetMaxRow)
/usr/local/bin/../lib/freebasic/linux-x86_64/libfb.a(io_multikey.o)
                              /usr/local/bin/../lib/freebasic/linux-x86_64/libfbgfx.a(gfx_driver_fbdev.o) (fb_hConsoleGfxMode)
/usr/local/bin/../lib/freebasic/linux-x86_64/libfb.a(io_pageset.o)
                              /usr/local/bin/../lib/freebasic/linux-x86_64/libfb.a(hook_pageset.o) (fb_ConsolePageSet)
/usr/local/bin/../lib/freebasic/linux-x86_64/libfb.a(io_pcopy.o)
                              /usr/local/bin/../lib/freebasic/linux-x86_64/libfb.a(hook_pcopy.o) (fb_ConsolePageCopy)
/usr/local/bin/../lib/freebasic/linux-x86_64/libfb.a(io_print.o)
                              c64dvd-glsl.o (fb_PrintString)
/usr/local/bin/../lib/freebasic/linux-x86_64/libfb.a(io_print_fix.o)
                              /usr/local/bin/../lib/freebasic/linux-x86_64/libfbgfx.a(gfx_lineinp.o) (fb_PrintFixString)
/usr/local/bin/../lib/freebasic/linux-x86_64/libfb.a(io_print_wstr.o)
                              /usr/local/bin/../lib/freebasic/linux-x86_64/libfbgfx.a(gfx_lineinp_wstr.o) (fb_PrintWstr)
/usr/local/bin/../lib/freebasic/linux-x86_64/libfb.a(io_printbuff.o)
                              /usr/local/bin/../lib/freebasic/linux-x86_64/libfb.a(hook_printstr.o) (fb_ConsolePrintBufferEx)
/usr/local/bin/../lib/freebasic/linux-x86_64/libfb.a(io_printvoid.o)
                              /usr/local/bin/../lib/freebasic/linux-x86_64/libfb.a(io_print.o) (fb_PrintVoidEx)
/usr/local/bin/../lib/freebasic/linux-x86_64/libfb.a(io_printvoid_wstr.o)
                              /usr/local/bin/../lib/freebasic/linux-x86_64/libfb.a(io_print_wstr.o) (fb_PrintVoidWstrEx)
/usr/local/bin/../lib/freebasic/linux-x86_64/libfb.a(io_setpos.o)
                              /usr/local/bin/../lib/freebasic/linux-x86_64/libfbgfx.a(gfx_print.o) (fb_SetPos)
/usr/local/bin/../lib/freebasic/linux-x86_64/libfb.a(io_view.o)
                              /usr/local/bin/../lib/freebasic/linux-x86_64/libfbgfx.a(gfx_screen.o) (fb_ConsoleViewEx)
/usr/local/bin/../lib/freebasic/linux-x86_64/libfb.a(io_viewhlp.o)
                              /usr/local/bin/../lib/freebasic/linux-x86_64/libfbgfx.a(gfx_cls.o) (fb_ConsoleGetTopRow)
/usr/local/bin/../lib/freebasic/linux-x86_64/libfb.a(io_width.o)
                              /usr/local/bin/../lib/freebasic/linux-x86_64/libfb.a(hook_width.o) (fb_ConsoleWidth)
/usr/local/bin/../lib/freebasic/linux-x86_64/libfb.a(io_xfocus.o)
                              /usr/local/bin/../lib/freebasic/linux-x86_64/libfb.a(io_multikey.o) (fb_hXTermInitFocus)
/usr/local/bin/../lib/freebasic/linux-x86_64/libfb.a(scancodes.o)
                              /usr/local/bin/../lib/freebasic/linux-x86_64/libfbgfx.a(gfx_x11.o) (fb_hScancodeToExtendedKey)
/usr/local/bin/../lib/freebasic/linux-x86_64/libfb.a(scancodes_x11.o)
                              /usr/local/bin/../lib/freebasic/linux-x86_64/libfbgfx.a(gfx_x11.o) (fb_hInitX11KeycodeToScancodeTb)
/usr/local/bin/../lib/freebasic/linux-x86_64/libfb.a(str_asc.o)
                              c64dvd-glsl.o (fb_ASC)
/usr/local/bin/../lib/freebasic/linux-x86_64/libfb.a(str_assign.o)
                              c64dvd-glsl.o (fb_StrAssign)
/usr/local/bin/../lib/freebasic/linux-x86_64/libfb.a(str_chr.o)
                              c64dvd-glsl.o (fb_CHR)
/usr/local/bin/../lib/freebasic/linux-x86_64/libfb.a(str_comp.o)
                              c64dvd-glsl.o (fb_StrCompare)
/usr/local/bin/../lib/freebasic/linux-x86_64/libfb.a(str_concat.o)
                              c64dvd-glsl.o (fb_StrConcat)
/usr/local/bin/../lib/freebasic/linux-x86_64/libfb.a(str_concatassign.o)
                              c64dvd-glsl.o (fb_StrConcatAssign)
/usr/local/bin/../lib/freebasic/linux-x86_64/libfb.a(str_convfrom.o)
                              c64dvd-glsl.o (fb_VAL)
/usr/local/bin/../lib/freebasic/linux-x86_64/libfb.a(str_convfrom_lng.o)
                              /usr/local/bin/../lib/freebasic/linux-x86_64/libfb.a(data_readlong.o) (fb_hStr2Longint)
/usr/local/bin/../lib/freebasic/linux-x86_64/libfb.a(str_convfrom_radlng.o)
                              /usr/local/bin/../lib/freebasic/linux-x86_64/libfb.a(str_convfrom.o) (fb_hStrRadix2Longint)
/usr/local/bin/../lib/freebasic/linux-x86_64/libfb.a(str_convfrom_ulng.o)
                              /usr/local/bin/../lib/freebasic/linux-x86_64/libfb.a(data_readulong.o) (fb_hStr2ULongint)
/usr/local/bin/../lib/freebasic/linux-x86_64/libfb.a(str_convto.o)
                              c64dvd-glsl.o (fb_UIntToStr)
/usr/local/bin/../lib/freebasic/linux-x86_64/libfb.a(str_convto_flt.o)
                              c64dvd-glsl.o (fb_DoubleToStr)
/usr/local/bin/../lib/freebasic/linux-x86_64/libfb.a(str_convto_lng.o)
                              c64dvd-glsl.o (fb_LongintToStr)
/usr/local/bin/../lib/freebasic/linux-x86_64/libfb.a(str_core.o)
                              /usr/local/bin/../lib/freebasic/linux-x86_64/libfb.a(str_assign.o) (fb_hStrDelTempDesc)
/usr/local/bin/../lib/freebasic/linux-x86_64/libfb.a(str_del.o)
                              c64dvd-glsl.o (fb_StrDelete)
/usr/local/bin/../lib/freebasic/linux-x86_64/libfb.a(str_fill.o)
                              /usr/local/bin/../lib/freebasic/linux-x86_64/libfb.a(con_readline.o) (fb_StrFill1)
/usr/local/bin/../lib/freebasic/linux-x86_64/libfb.a(str_hex.o)
                              c64dvd-glsl.o (fb_HEXEx_b)
/usr/local/bin/../lib/freebasic/linux-x86_64/libfb.a(str_hex_lng.o)
                              /usr/local/bin/../lib/freebasic/linux-x86_64/libfb.a(str_hex.o) (fb_HEXEx_l)
/usr/local/bin/../lib/freebasic/linux-x86_64/libfb.a(str_hskip.o)
                              /usr/local/bin/../lib/freebasic/linux-x86_64/libfb.a(str_convfrom.o) (fb_hStrSkipChar)
/usr/local/bin/../lib/freebasic/linux-x86_64/libfb.a(str_lcase.o)
                              c64dvd-glsl.o (fb_StrLcase2)
/usr/local/bin/../lib/freebasic/linux-x86_64/libfb.a(str_len.o)
                              c64dvd-glsl.o (fb_StrLen)
/usr/local/bin/../lib/freebasic/linux-x86_64/libfb.a(str_mid.o)
                              c64dvd-glsl.o (fb_StrMid)
/usr/local/bin/../lib/freebasic/linux-x86_64/libfb.a(str_misc.o)
                              c64dvd-glsl.o (fb_SPACE)
/usr/local/bin/../lib/freebasic/linux-x86_64/libfb.a(str_tempdescf.o)
                              /usr/local/bin/../lib/freebasic/linux-x86_64/libfbgfx.a(gfx_control.o) (fb_StrAllocTempDescF)
/usr/local/bin/../lib/freebasic/linux-x86_64/libfb.a(str_tempdescz.o)
                              c64dvd-glsl.o (fb_StrAllocTempDescZEx)
/usr/local/bin/../lib/freebasic/linux-x86_64/libfb.a(str_tempres.o)
                              c64dvd-glsl.o (fb_StrAllocTempResult)
/usr/local/bin/../lib/freebasic/linux-x86_64/libfb.a(strw_convassign.o)
                              /usr/local/bin/../lib/freebasic/linux-x86_64/libfbgfx.a(gfx_lineinp_wstr.o) (fb_WstrAssignFromA)
/usr/local/bin/../lib/freebasic/linux-x86_64/libfb.a(strw_convfrom_lng.o)
                              /usr/local/bin/../lib/freebasic/linux-x86_64/libfb.a(data_readlong.o) (fb_WstrToLongint)
/usr/local/bin/../lib/freebasic/linux-x86_64/libfb.a(strw_convfrom_str.o)
                              /usr/local/bin/../lib/freebasic/linux-x86_64/libfb.a(strw_convassign.o) (fb_wstr_ConvFromA)
/usr/local/bin/../lib/freebasic/linux-x86_64/libfb.a(strw_convfrom_ulng.o)
                              /usr/local/bin/../lib/freebasic/linux-x86_64/libfb.a(data_readulong.o) (fb_WstrToULongint)
/usr/local/bin/../lib/freebasic/linux-x86_64/libfb.a(strw_convto_str.o)
                              /usr/local/bin/../lib/freebasic/linux-x86_64/libfbgfx.a(gfx_print_wstr.o) (fb_wstr_ConvToA)
/usr/local/bin/../lib/freebasic/linux-x86_64/libfb.a(sys_beep.o)
                              c64dvd-glsl.o (fb_Beep)
/usr/local/bin/../lib/freebasic/linux-x86_64/libfb.a(sys_chain.o)
                              c64dvd-glsl.o (fb_Chain)
/usr/local/bin/../lib/freebasic/linux-x86_64/libfb.a(sys_delay.o)
                              /usr/local/bin/../lib/freebasic/linux-x86_64/libfbgfx.a(gfx_sleep.o) (fb_Delay)
/usr/local/bin/../lib/freebasic/linux-x86_64/libfb.a(sys_execex.o)
                              /usr/local/bin/../lib/freebasic/linux-x86_64/libfb.a(sys_chain.o) (fb_ExecEx)
/usr/local/bin/../lib/freebasic/linux-x86_64/libfb.a(sys_fmem.o)
                              c64dvd-glsl.o (fb_GetMemAvail)
/usr/local/bin/../lib/freebasic/linux-x86_64/libfb.a(sys_getexename.o)
                              /usr/local/bin/../lib/freebasic/linux-x86_64/libfbgfx.a(gfx_screen.o) (fb_hGetExeName)
/usr/local/bin/../lib/freebasic/linux-x86_64/libfb.a(sys_parseargs.o)
                              /usr/local/bin/../lib/freebasic/linux-x86_64/libfb.a(sys_execex.o) (fb_hParseArgs)
/usr/local/bin/../lib/freebasic/linux-x86_64/libfb.a(sys_shell.o)
                              c64dvd-glsl.o (fb_Shell)
/usr/local/bin/../lib/freebasic/linux-x86_64/libfb.a(thread_ctx.o)
                              /usr/local/bin/../lib/freebasic/linux-x86_64/libfbgfx.a(gfx_core.o) (fb_TlsGetCtx)
/usr/local/bin/../lib/freebasic/linux-x86_64/libfb.a(thread_mutex.o)
                              /usr/local/bin/../lib/freebasic/linux-x86_64/libfbgfx.a(gfx_screen.o) (fb_MutexCreate)
/usr/local/bin/../lib/freebasic/linux-x86_64/libfb.a(time_sleep.o)
                              /usr/local/bin/../lib/freebasic/linux-x86_64/libfb.a(hook_sleep.o) (fb_ConsoleSleep)
/usr/local/bin/../lib/freebasic/linux-x86_64/libfb.a(time_sleepex.o)
                              c64dvd-glsl.o (fb_SleepEx)
/usr/local/bin/../lib/freebasic/linux-x86_64/libfb.a(time_timer.o)
                              c64dvd-glsl.o (fb_Timer)
/usr/local/bin/../lib/freebasic/linux-x86_64/libfb.a(vfs_open.o)
                              /usr/local/bin/../lib/freebasic/linux-x86_64/libfb.a(file_open.o) (fb_FileOpenVfsEx)
/usr/local/bin/../lib/freebasic/linux-x86_64/libfb.a(con_lineinp.o)
                              /usr/local/bin/../lib/freebasic/linux-x86_64/libfb.a(hook_lineinp.o) (fb_ConsoleLineInput)
/usr/local/bin/../lib/freebasic/linux-x86_64/libfb.a(con_print_raw.o)
                              /usr/local/bin/../lib/freebasic/linux-x86_64/libfb.a(con_print_tty.o) (fb_ConPrintRaw)
/usr/local/bin/../lib/freebasic/linux-x86_64/libfb.a(dev_file_open.o)
                              /usr/local/bin/../lib/freebasic/linux-x86_64/libfb.a(file_open.o) (fb_DevFileOpen)
/usr/local/bin/../lib/freebasic/linux-x86_64/libfb.a(dev_file_read.o)
                              /usr/local/bin/../lib/freebasic/linux-x86_64/libfb.a(dev_scrn_read.o) (fb_DevFileRead)
/usr/local/bin/../lib/freebasic/linux-x86_64/libfb.a(dev_file_read_wstr.o)
                              /usr/local/bin/../lib/freebasic/linux-x86_64/libfb.a(dev_file_open.o) (fb_DevFileReadWstr)
/usr/local/bin/../lib/freebasic/linux-x86_64/libfb.a(dev_file_readline.o)
                              /usr/local/bin/../lib/freebasic/linux-x86_64/libfb.a(dev_file_open.o) (fb_DevFileReadLine)
/usr/local/bin/../lib/freebasic/linux-x86_64/libfb.a(dev_file_readline_wstr.o)
                              /usr/local/bin/../lib/freebasic/linux-x86_64/libfb.a(dev_file_open.o) (fb_DevFileReadLineWstr)
/usr/local/bin/../lib/freebasic/linux-x86_64/libfb.a(dev_file_seek.o)
                              /usr/local/bin/../lib/freebasic/linux-x86_64/libfb.a(dev_file_open.o) (fb_DevFileSeek)
/usr/local/bin/../lib/freebasic/linux-x86_64/libfb.a(dev_file_size.o)
                              /usr/local/bin/../lib/freebasic/linux-x86_64/libfb.a(dev_file_open.o) (fb_hDevFileSeekStart)
/usr/local/bin/../lib/freebasic/linux-x86_64/libfb.a(dev_file_tell.o)
                              /usr/local/bin/../lib/freebasic/linux-x86_64/libfb.a(dev_file_open.o) (fb_DevFileTell)
/usr/local/bin/../lib/freebasic/linux-x86_64/libfb.a(dev_file_unlock.o)
                              /usr/local/bin/../lib/freebasic/linux-x86_64/libfb.a(dev_file_open.o) (fb_DevFileUnlock)
/usr/local/bin/../lib/freebasic/linux-x86_64/libfb.a(dev_file_write.o)
                              /usr/local/bin/../lib/freebasic/linux-x86_64/libfb.a(dev_file_open.o) (fb_DevFileWrite)
/usr/local/bin/../lib/freebasic/linux-x86_64/libfb.a(dev_file_write_wstr.o)
                              /usr/local/bin/../lib/freebasic/linux-x86_64/libfb.a(dev_file_open.o) (fb_DevFileWriteWstr)
/usr/local/bin/../lib/freebasic/linux-x86_64/libfb.a(dev_scrn_eof.o)
                              /usr/local/bin/../lib/freebasic/linux-x86_64/libfb.a(dev_scrn_read.o) (fb_DevScrnFillInput)
/usr/local/bin/../lib/freebasic/linux-x86_64/libfb.a(file_hlock.o)
                              /usr/local/bin/../lib/freebasic/linux-x86_64/libfb.a(dev_file_unlock.o) (fb_hFileUnlock)
/usr/local/bin/../lib/freebasic/linux-x86_64/libfb.a(file_print.o)
                              /usr/local/bin/../lib/freebasic/linux-x86_64/libfb.a(io_print.o) (fb_hFilePrintBufferEx)
/usr/local/bin/../lib/freebasic/linux-x86_64/libfb.a(file_print_wstr.o)
                              /usr/local/bin/../lib/freebasic/linux-x86_64/libfb.a(io_print_wstr.o) (fb_hFilePrintBufferWstrEx)
/usr/local/bin/../lib/freebasic/linux-x86_64/libfb.a(hinit.o)
                              /usr/local/bin/../lib/freebasic/linux-x86_64/libfb.a(io_cls.o) (__fb_con)
/usr/local/bin/../lib/freebasic/linux-x86_64/libfb.a(hinit_enable_vt100_escapes.o)
                              /usr/local/bin/../lib/freebasic/linux-x86_64/libfb.a(hinit.o) (__fb_enable_vt100_escapes)
/usr/local/bin/../lib/freebasic/linux-x86_64/libfb.a(hook_getmouse.o)
                              /usr/local/bin/../lib/freebasic/linux-x86_64/libfb.a(hook_getmouse64.o) (fb_GetMouse)
/usr/local/bin/../lib/freebasic/linux-x86_64/libfb.a(hook_view_update.o)
                              /usr/local/bin/../lib/freebasic/linux-x86_64/libfb.a(io_view.o) (fb_ViewUpdate)
/usr/local/bin/../lib/freebasic/linux-x86_64/libfb.a(io_input.o)
                              /usr/local/bin/../lib/freebasic/linux-x86_64/libfb.a(time_sleep.o) (fb_hConsoleInputBufferChanged)
/usr/local/bin/../lib/freebasic/linux-x86_64/libfb.a(io_mouse.o)
                              /usr/local/bin/../lib/freebasic/linux-x86_64/libfb.a(hook_getmouse.o) (fb_ConsoleGetMouse)
/usr/local/bin/../lib/freebasic/linux-x86_64/libfb.a(io_printpad.o)
                              /usr/local/bin/../lib/freebasic/linux-x86_64/libfb.a(io_printvoid.o) (fb_PrintPadEx)
/usr/local/bin/../lib/freebasic/linux-x86_64/libfb.a(io_printpad_wstr.o)
                              /usr/local/bin/../lib/freebasic/linux-x86_64/libfb.a(io_printvoid_wstr.o) (fb_PrintPadWstrEx)
/usr/local/bin/../lib/freebasic/linux-x86_64/libfb.a(io_viewupdate.o)
                              /usr/local/bin/../lib/freebasic/linux-x86_64/libfb.a(hook_view_update.o) (fb_ConsoleViewUpdate)
/usr/local/bin/../lib/freebasic/linux-x86_64/libfb.a(list.o)
                              /usr/local/bin/../lib/freebasic/linux-x86_64/libfb.a(str_core.o) (fb_hListInit)
/usr/local/bin/../lib/freebasic/linux-x86_64/libfb.a(listdyn.o)
                              /usr/local/bin/../lib/freebasic/linux-x86_64/libfb.a(list.o) (fb_hListDynInit)
/usr/local/bin/../lib/freebasic/linux-x86_64/libfb.a(sys_hshell.o)
                              /usr/local/bin/../lib/freebasic/linux-x86_64/libfb.a(sys_shell.o) (fb_hShell)
/usr/local/bin/../lib/freebasic/linux-x86_64/libfb.a(dev_file_close.o)
                              /usr/local/bin/../lib/freebasic/linux-x86_64/libfb.a(dev_file_open.o) (fb_DevFileClose)
/usr/local/bin/../lib/freebasic/linux-x86_64/libfb.a(dev_file_eof.o)
                              /usr/local/bin/../lib/freebasic/linux-x86_64/libfb.a(dev_file_open.o) (fb_DevFileEof)
/usr/local/bin/../lib/freebasic/linux-x86_64/libfb.a(dev_file_flush.o)
                              /usr/local/bin/../lib/freebasic/linux-x86_64/libfb.a(dev_file_open.o) (fb_DevFileFlush)
/usr/local/bin/../lib/freebasic/linux-x86_64/libfb.a(dev_file_lock.o)
                              /usr/local/bin/../lib/freebasic/linux-x86_64/libfb.a(dev_file_open.o) (fb_DevFileLock)
/usr/local/bin/../lib/freebasic/linux-x86_64/libfb.a(dev_scrn_write.o)
                              /usr/local/bin/../lib/freebasic/linux-x86_64/libfb.a(file_print.o) (fb_DevScrnInit_Write)
/usr/local/bin/../lib/freebasic/linux-x86_64/libfb.a(dev_scrn_write_wstr.o)
                              /usr/local/bin/../lib/freebasic/linux-x86_64/libfb.a(file_print_wstr.o) (fb_DevScrnInit_WriteWstr)
/usr/local/bin/../lib/freebasic/linux-x86_64/libfb.a(hook_print_wstr.o)
                              /usr/local/bin/../lib/freebasic/linux-x86_64/libfb.a(dev_scrn_write_wstr.o) (fb_PrintBufferWstrEx)
/usr/local/bin/../lib/freebasic/linux-x86_64/libfb.a(io_printbuff_wstr.o)
                              /usr/local/bin/../lib/freebasic/linux-x86_64/libfb.a(hook_print_wstr.o) (fb_ConsolePrintBufferWstrEx)
/usr/local/bin/../lib/freebasic/linux-x86_64/libfb.a(utf_convfrom_wchar.o)
                              /usr/local/bin/../lib/freebasic/linux-x86_64/libfb.a(io_printbuff_wstr.o) (fb_WCharToUTF)
/usr/local/bin/../lib/freebasic/linux-x86_64/libfb.a(utf_core.o)
                              /usr/local/bin/../lib/freebasic/linux-x86_64/libfb.a(utf_convfrom_wchar.o) (__fb_utf8_bmarkTb)
/usr/lib/libc_nonshared.a(elf-init.oS)
                              /usr/lib/gcc/x86_64-pc-linux-gnu/10.2.0/../../../../lib/crt1.o (__libc_csu_init)

Merging program properties

Removed property 0xc0000002 to merge /usr/lib/gcc/x86_64-pc-linux-gnu/10.2.0/../../../../lib/crt1.o (0x3) and /usr/local/bin/../lib/freebasic/linux-x86_64/fbrt0.o (not found)
Removed property 0xc0000002 to merge /usr/lib/gcc/x86_64-pc-linux-gnu/10.2.0/../../../../lib/crt1.o (not found) and /usr/lib/libc_nonshared.a(elf-init.oS) (0x3)
Removed property 0xc0000002 to merge /usr/lib/gcc/x86_64-pc-linux-gnu/10.2.0/../../../../lib/crt1.o (not found) and /usr/lib/gcc/x86_64-pc-linux-gnu/10.2.0/crtend.o (0x3)
Removed property 0xc0000002 to merge /usr/lib/gcc/x86_64-pc-linux-gnu/10.2.0/../../../../lib/crt1.o (not found) and /usr/lib/gcc/x86_64-pc-linux-gnu/10.2.0/../../../../lib/crtn.o (0x3)

Allocating common symbols
Common symbol       size              file

SCR_H$              0x8               c64dvd-glsl.o
RENDER$             0x8               c64dvd-glsl.o
STR_LEN$            0x8               c64dvd-glsl.o
RASTER$             0x8               c64dvd-glsl.o
COMPILER$           0x18              c64dvd-glsl.o
BGIMAGE$            0x8               c64dvd-glsl.o
CNT$                0x8               c64dvd-glsl.o
SCR_POS$            0x8               c64dvd-glsl.o
FGIMAGE$            0x8               c64dvd-glsl.o
MSG$                0x18              c64dvd-glsl.o
SYS_OFFSET$         0x8               c64dvd-glsl.o
SCR_W$              0x8               c64dvd-glsl.o

Discarded input sections

 .note.gnu.property
                0x0000000000000000       0x20 /usr/lib/gcc/x86_64-pc-linux-gnu/10.2.0/../../../../lib/crt1.o
 .note.GNU-stack
                0x0000000000000000        0x0 /usr/lib/gcc/x86_64-pc-linux-gnu/10.2.0/../../../../lib/crt1.o
 .note.gnu.property
                0x0000000000000000       0x20 /usr/lib/gcc/x86_64-pc-linux-gnu/10.2.0/../../../../lib/crti.o
 .note.GNU-stack
                0x0000000000000000        0x0 /usr/lib/gcc/x86_64-pc-linux-gnu/10.2.0/../../../../lib/crti.o
 .note.GNU-stack
                0x0000000000000000        0x0 /usr/lib/gcc/x86_64-pc-linux-gnu/10.2.0/crtbegin.o
 .note.gnu.property
                0x0000000000000000       0x20 /usr/lib/gcc/x86_64-pc-linux-gnu/10.2.0/crtbegin.o
 .note.GNU-stack
                0x0000000000000000        0x0 /usr/local/bin/../lib/freebasic/linux-x86_64/fbrt0.o
 .note.GNU-stack
                0x0000000000000000        0x0 c64dvd-glsl.o
 .note.GNU-stack
                0x0000000000000000        0x0 /usr/local/bin/../lib/freebasic/linux-x86_64/libfbgfx.a(gfx_access.o)
 .note.GNU-stack
                0x0000000000000000        0x0 /usr/local/bin/../lib/freebasic/linux-x86_64/libfbgfx.a(gfx_bload.o)
 .note.GNU-stack
                0x0000000000000000        0x0 /usr/local/bin/../lib/freebasic/linux-x86_64/libfbgfx.a(gfx_circle.o)
 .note.GNU-stack
                0x0000000000000000        0x0 /usr/local/bin/../lib/freebasic/linux-x86_64/libfbgfx.a(gfx_control.o)
 .note.GNU-stack
                0x0000000000000000        0x0 /usr/local/bin/../lib/freebasic/linux-x86_64/libfbgfx.a(gfx_core.o)
 .note.GNU-stack
                0x0000000000000000        0x0 /usr/local/bin/../lib/freebasic/linux-x86_64/libfbgfx.a(gfx_drawstring.o)
 .note.GNU-stack
                0x0000000000000000        0x0 /usr/local/bin/../lib/freebasic/linux-x86_64/libfbgfx.a(gfx_image.o)
 .note.GNU-stack
                0x0000000000000000        0x0 /usr/local/bin/../lib/freebasic/linux-x86_64/libfbgfx.a(gfx_image_convert.o)
 .note.GNU-stack
                0x0000000000000000        0x0 /usr/local/bin/../lib/freebasic/linux-x86_64/libfbgfx.a(gfx_image_info.o)
 .note.GNU-stack
                0x0000000000000000        0x0 /usr/local/bin/../lib/freebasic/linux-x86_64/libfbgfx.a(gfx_line.o)
 .note.GNU-stack
                0x0000000000000000        0x0 /usr/local/bin/../lib/freebasic/linux-x86_64/libfbgfx.a(gfx_opengl.o)
 .note.GNU-stack
                0x0000000000000000        0x0 /usr/local/bin/../lib/freebasic/linux-x86_64/libfbgfx.a(gfx_page.o)
 .note.GNU-stack
                0x0000000000000000        0x0 /usr/local/bin/../lib/freebasic/linux-x86_64/libfbgfx.a(gfx_paint.o)
 .note.GNU-stack
                0x0000000000000000        0x0 /usr/local/bin/../lib/freebasic/linux-x86_64/libfbgfx.a(gfx_palette.o)
 .note.GNU-stack
                0x0000000000000000        0x0 /usr/local/bin/../lib/freebasic/linux-x86_64/libfbgfx.a(gfx_pset.o)
 .note.GNU-stack
                0x0000000000000000        0x0 /usr/local/bin/../lib/freebasic/linux-x86_64/libfbgfx.a(gfx_put.o)
 .note.GNU-stack
                0x0000000000000000        0x0 /usr/local/bin/../lib/freebasic/linux-x86_64/libfbgfx.a(gfx_put_alpha.o)
 .note.GNU-stack
                0x0000000000000000        0x0 /usr/local/bin/../lib/freebasic/linux-x86_64/libfbgfx.a(gfx_put_or.o)
 .note.GNU-stack
                0x0000000000000000        0x0 /usr/local/bin/../lib/freebasic/linux-x86_64/libfbgfx.a(gfx_put_pset.o)
 .note.GNU-stack
                0x0000000000000000        0x0 /usr/local/bin/../lib/freebasic/linux-x86_64/libfbgfx.a(gfx_screen.o)
 .note.GNU-stack
                0x0000000000000000        0x0 /usr/local/bin/../lib/freebasic/linux-x86_64/libfbgfx.a(gfx_screeninfo.o)
 .note.GNU-stack
                0x0000000000000000        0x0 /usr/local/bin/../lib/freebasic/linux-x86_64/libfbgfx.a(gfx_screenlist.o)
 .note.GNU-stack
                0x0000000000000000        0x0 /usr/local/bin/../lib/freebasic/linux-x86_64/libfbgfx.a(gfx_setmouse.o)
 .note.GNU-stack
                0x0000000000000000        0x0 /usr/local/bin/../lib/freebasic/linux-x86_64/libfbgfx.a(gfx_sleep.o)
 .note.GNU-stack
                0x0000000000000000        0x0 /usr/local/bin/../lib/freebasic/linux-x86_64/libfbgfx.a(gfx_unix.o)
 .note.GNU-stack
                0x0000000000000000        0x0 /usr/local/bin/../lib/freebasic/linux-x86_64/libfbgfx.a(gfx_vars.o)
 .note.GNU-stack
                0x0000000000000000        0x0 /usr/local/bin/../lib/freebasic/linux-x86_64/libfbgfx.a(gfx_vgaemu.o)
 .note.GNU-stack
                0x0000000000000000        0x0 /usr/local/bin/../lib/freebasic/linux-x86_64/libfbgfx.a(gfx_width.o)
 .note.GNU-stack
                0x0000000000000000        0x0 /usr/local/bin/../lib/freebasic/linux-x86_64/libfbgfx.a(gfx_x11.o)
 .note.GNU-stack
                0x0000000000000000        0x0 /usr/local/bin/../lib/freebasic/linux-x86_64/libfbgfx.a(gfx_x11_icon_stub.o)
 .note.GNU-stack
                0x0000000000000000        0x0 /usr/local/bin/../lib/freebasic/linux-x86_64/libfbgfx.a(gfx_box.o)
 .note.GNU-stack
                0x0000000000000000        0x0 /usr/local/bin/../lib/freebasic/linux-x86_64/libfbgfx.a(gfx_cls.o)
 .note.GNU-stack
                0x0000000000000000        0x0 /usr/local/bin/../lib/freebasic/linux-x86_64/libfbgfx.a(gfx_color.o)
 .note.GNU-stack
                0x0000000000000000        0x0 /usr/local/bin/../lib/freebasic/linux-x86_64/libfbgfx.a(gfx_data.o)
 .note.GNU-stack
                0x0000000000000000        0x0 /usr/local/bin/../lib/freebasic/linux-x86_64/libfbgfx.a(gfx_driver_fbdev.o)
 .note.GNU-stack
                0x0000000000000000        0x0 /usr/local/bin/../lib/freebasic/linux-x86_64/libfbgfx.a(gfx_driver_null.o)
 .note.GNU-stack
                0x0000000000000000        0x0 /usr/local/bin/../lib/freebasic/linux-x86_64/libfbgfx.a(gfx_driver_opengl_x11.o)
 .note.GNU-stack
                0x0000000000000000        0x0 /usr/local/bin/../lib/freebasic/linux-x86_64/libfbgfx.a(gfx_driver_x11.o)
 .note.GNU-stack
                0x0000000000000000        0x0 /usr/local/bin/../lib/freebasic/linux-x86_64/libfbgfx.a(gfx_getmouse.o)
 .note.GNU-stack
                0x0000000000000000        0x0 /usr/local/bin/../lib/freebasic/linux-x86_64/libfbgfx.a(gfx_inkey.o)
 .note.GNU-stack
                0x0000000000000000        0x0 /usr/local/bin/../lib/freebasic/linux-x86_64/libfbgfx.a(gfx_lineinp.o)
 .note.GNU-stack
                0x0000000000000000        0x0 /usr/local/bin/../lib/freebasic/linux-x86_64/libfbgfx.a(gfx_lineinp_wstr.o)
 .note.GNU-stack
                0x0000000000000000        0x0 /usr/local/bin/../lib/freebasic/linux-x86_64/libfbgfx.a(gfx_lzw.o)
 .note.GNU-stack
                0x0000000000000000        0x0 /usr/local/bin/../lib/freebasic/linux-x86_64/libfbgfx.a(gfx_multikey.o)
 .note.GNU-stack
                0x0000000000000000        0x0 /usr/local/bin/../lib/freebasic/linux-x86_64/libfbgfx.a(gfx_print.o)
 .note.GNU-stack
                0x0000000000000000        0x0 /usr/local/bin/../lib/freebasic/linux-x86_64/libfbgfx.a(gfx_print_wstr.o)
 .note.GNU-stack
                0x0000000000000000        0x0 /usr/local/bin/../lib/freebasic/linux-x86_64/libfbgfx.a(gfx_readstr.o)
 .note.GNU-stack
                0x0000000000000000        0x0 /usr/local/bin/../lib/freebasic/linux-x86_64/libfbgfx.a(gfx_readxy.o)
 .note.GNU-stack
                0x0000000000000000        0x0 /usr/local/bin/../lib/freebasic/linux-x86_64/libfbgfx.a(gfx_softcursor.o)
 .note.GNU-stack
                0x0000000000000000        0x0 /usr/local/bin/../lib/freebasic/linux-x86_64/libfbgfx.a(gfx_view.o)
 .note.GNU-stack
                0x0000000000000000        0x0 /usr/local/bin/../lib/freebasic/linux-x86_64/libfbgfx.a(gfx_blitter.o)
 .note.GNU-stack
                0x0000000000000000        0x0 /usr/local/bin/../lib/freebasic/linux-x86_64/libfb.a(array_destructstr.o)
 .note.GNU-stack
                0x0000000000000000        0x0 /usr/local/bin/../lib/freebasic/linux-x86_64/libfb.a(con_input.o)
 .note.GNU-stack
                0x0000000000000000        0x0 /usr/local/bin/../lib/freebasic/linux-x86_64/libfb.a(con_locate.o)
 .note.GNU-stack
                0x0000000000000000        0x0 /usr/local/bin/../lib/freebasic/linux-x86_64/libfb.a(con_print_tty.o)
 .note.GNU-stack
                0x0000000000000000        0x0 /usr/local/bin/../lib/freebasic/linux-x86_64/libfb.a(con_readline.o)
 .note.GNU-stack
                0x0000000000000000        0x0 /usr/local/bin/../lib/freebasic/linux-x86_64/libfb.a(data.o)
 .note.GNU-stack
                0x0000000000000000        0x0 /usr/local/bin/../lib/freebasic/linux-x86_64/libfb.a(data_readlong.o)
 .note.GNU-stack
                0x0000000000000000        0x0 /usr/local/bin/../lib/freebasic/linux-x86_64/libfb.a(data_readstr.o)
 .note.GNU-stack
                0x0000000000000000        0x0 /usr/local/bin/../lib/freebasic/linux-x86_64/libfb.a(data_readulong.o)
 .note.GNU-stack
                0x0000000000000000        0x0 /usr/local/bin/../lib/freebasic/linux-x86_64/libfb.a(dev_scrn_init.o)
 .note.GNU-stack
                0x0000000000000000        0x0 /usr/local/bin/../lib/freebasic/linux-x86_64/libfb.a(dev_scrn_read.o)
 .note.GNU-stack
                0x0000000000000000        0x0 /usr/local/bin/../lib/freebasic/linux-x86_64/libfb.a(error_getset.o)
 .note.GNU-stack
                0x0000000000000000        0x0 /usr/local/bin/../lib/freebasic/linux-x86_64/libfb.a(file_close.o)
 .note.GNU-stack
                0x0000000000000000        0x0 /usr/local/bin/../lib/freebasic/linux-x86_64/libfb.a(file_eof.o)
 .note.GNU-stack
                0x0000000000000000        0x0 /usr/local/bin/../lib/freebasic/linux-x86_64/libfb.a(file_free.o)
 .note.GNU-stack
                0x0000000000000000        0x0 /usr/local/bin/../lib/freebasic/linux-x86_64/libfb.a(file_get.o)
 .note.GNU-stack
                0x0000000000000000        0x0 /usr/local/bin/../lib/freebasic/linux-x86_64/libfb.a(file_hconvpath.o)
 .note.GNU-stack
                0x0000000000000000        0x0 /usr/local/bin/../lib/freebasic/linux-x86_64/libfb.a(file_input_file.o)
 .note.GNU-stack
                0x0000000000000000        0x0 /usr/local/bin/../lib/freebasic/linux-x86_64/libfb.a(file_input_str.o)
 .note.GNU-stack
                0x0000000000000000        0x0 /usr/local/bin/../lib/freebasic/linux-x86_64/libfb.a(file_input_tok.o)
 .note.GNU-stack
                0x0000000000000000        0x0 /usr/local/bin/../lib/freebasic/linux-x86_64/libfb.a(file_lineinp.o)
 .note.GNU-stack
                0x0000000000000000        0x0 /usr/local/bin/../lib/freebasic/linux-x86_64/libfb.a(file_open.o)
 .note.GNU-stack
                0x0000000000000000        0x0 /usr/local/bin/../lib/freebasic/linux-x86_64/libfb.a(file_put.o)
 .note.GNU-stack
                0x0000000000000000        0x0 /usr/local/bin/../lib/freebasic/linux-x86_64/libfb.a(file_putback.o)
 .note.GNU-stack
                0x0000000000000000        0x0 /usr/local/bin/../lib/freebasic/linux-x86_64/libfb.a(file_reset.o)
 .note.GNU-stack
                0x0000000000000000        0x0 /usr/local/bin/../lib/freebasic/linux-x86_64/libfb.a(file_seek.o)
 .note.GNU-stack
                0x0000000000000000        0x0 /usr/local/bin/../lib/freebasic/linux-x86_64/libfb.a(file_size.o)
 .note.GNU-stack
                0x0000000000000000        0x0 /usr/local/bin/../lib/freebasic/linux-x86_64/libfb.a(hdynload.o)
 .note.GNU-stack
                0x0000000000000000        0x0 /usr/local/bin/../lib/freebasic/linux-x86_64/libfb.a(hook_cls.o)
 .note.GNU-stack
                0x0000000000000000        0x0 /usr/local/bin/../lib/freebasic/linux-x86_64/libfb.a(hook_getmouse64.o)
 .note.GNU-stack
                0x0000000000000000        0x0 /usr/local/bin/../lib/freebasic/linux-x86_64/libfb.a(hook_getsize.o)
 .note.GNU-stack
                0x0000000000000000        0x0 /usr/local/bin/../lib/freebasic/linux-x86_64/libfb.a(hook_getx.o)
 .note.GNU-stack
                0x0000000000000000        0x0 /usr/local/bin/../lib/freebasic/linux-x86_64/libfb.a(hook_getxy.o)
 .note.GNU-stack
                0x0000000000000000        0x0 /usr/local/bin/../lib/freebasic/linux-x86_64/libfb.a(hook_inkey.o)
 .note.GNU-stack
                0x0000000000000000        0x0 /usr/local/bin/../lib/freebasic/linux-x86_64/libfb.a(hook_isredir.o)
 .note.GNU-stack
                0x0000000000000000        0x0 /usr/local/bin/../lib/freebasic/linux-x86_64/libfb.a(hook_lineinp.o)
 .note.GNU-stack
                0x0000000000000000        0x0 /usr/local/bin/../lib/freebasic/linux-x86_64/libfb.a(hook_locate_ex.o)
 .note.GNU-stack
                0x0000000000000000        0x0 /usr/local/bin/../lib/freebasic/linux-x86_64/libfb.a(hook_pageset.o)
 .note.GNU-stack
                0x0000000000000000        0x0 /usr/local/bin/../lib/freebasic/linux-x86_64/libfb.a(hook_pcopy.o)
 .note.GNU-stack
                0x0000000000000000        0x0 /usr/local/bin/../lib/freebasic/linux-x86_64/libfb.a(hook_printstr.o)
 .note.GNU-stack
                0x0000000000000000        0x0 /usr/local/bin/../lib/freebasic/linux-x86_64/libfb.a(hook_sleep.o)
 .note.GNU-stack
                0x0000000000000000        0x0 /usr/local/bin/../lib/freebasic/linux-x86_64/libfb.a(hook_width.o)
 .note.GNU-stack
                0x0000000000000000        0x0 /usr/local/bin/../lib/freebasic/linux-x86_64/libfb.a(init.o)
 .note.GNU-stack
                0x0000000000000000        0x0 /usr/local/bin/../lib/freebasic/linux-x86_64/libfb.a(io_cls.o)
 .note.GNU-stack
                0x0000000000000000        0x0 /usr/local/bin/../lib/freebasic/linux-x86_64/libfb.a(io_getsize.o)
 .note.GNU-stack
                0x0000000000000000        0x0 /usr/local/bin/../lib/freebasic/linux-x86_64/libfb.a(io_getx.o)
 .note.GNU-stack
                0x0000000000000000        0x0 /usr/local/bin/../lib/freebasic/linux-x86_64/libfb.a(io_getxy.o)
 .note.GNU-stack
                0x0000000000000000        0x0 /usr/local/bin/../lib/freebasic/linux-x86_64/libfb.a(io_hinkey.o)
 .note.GNU-stack
                0x0000000000000000        0x0 /usr/local/bin/../lib/freebasic/linux-x86_64/libfb.a(io_inkey.o)
 .note.GNU-stack
                0x0000000000000000        0x0 /usr/local/bin/../lib/freebasic/linux-x86_64/libfb.a(io_isredir.o)
 .note.GNU-stack
                0x0000000000000000        0x0 /usr/local/bin/../lib/freebasic/linux-x86_64/libfb.a(io_locate.o)
 .note.GNU-stack
                0x0000000000000000        0x0 /usr/local/bin/../lib/freebasic/linux-x86_64/libfb.a(io_maxrow.o)
 .note.GNU-stack
                0x0000000000000000        0x0 /usr/local/bin/../lib/freebasic/linux-x86_64/libfb.a(io_multikey.o)
 .note.GNU-stack
                0x0000000000000000        0x0 /usr/local/bin/../lib/freebasic/linux-x86_64/libfb.a(io_pageset.o)
 .note.GNU-stack
                0x0000000000000000        0x0 /usr/local/bin/../lib/freebasic/linux-x86_64/libfb.a(io_pcopy.o)
 .note.GNU-stack
                0x0000000000000000        0x0 /usr/local/bin/../lib/freebasic/linux-x86_64/libfb.a(io_print.o)
 .note.GNU-stack
                0x0000000000000000        0x0 /usr/local/bin/../lib/freebasic/linux-x86_64/libfb.a(io_print_fix.o)
 .note.GNU-stack
                0x0000000000000000        0x0 /usr/local/bin/../lib/freebasic/linux-x86_64/libfb.a(io_print_wstr.o)
 .note.GNU-stack
                0x0000000000000000        0x0 /usr/local/bin/../lib/freebasic/linux-x86_64/libfb.a(io_printbuff.o)
 .note.GNU-stack
                0x0000000000000000        0x0 /usr/local/bin/../lib/freebasic/linux-x86_64/libfb.a(io_printvoid.o)
 .note.GNU-stack
                0x0000000000000000        0x0 /usr/local/bin/../lib/freebasic/linux-x86_64/libfb.a(io_printvoid_wstr.o)
 .note.GNU-stack
                0x0000000000000000        0x0 /usr/local/bin/../lib/freebasic/linux-x86_64/libfb.a(io_setpos.o)
 .note.GNU-stack
                0x0000000000000000        0x0 /usr/local/bin/../lib/freebasic/linux-x86_64/libfb.a(io_view.o)
 .note.GNU-stack
                0x0000000000000000        0x0 /usr/local/bin/../lib/freebasic/linux-x86_64/libfb.a(io_viewhlp.o)
 .note.GNU-stack
                0x0000000000000000        0x0 /usr/local/bin/../lib/freebasic/linux-x86_64/libfb.a(io_width.o)
 .note.GNU-stack
                0x0000000000000000        0x0 /usr/local/bin/../lib/freebasic/linux-x86_64/libfb.a(io_xfocus.o)
 .note.GNU-stack
                0x0000000000000000        0x0 /usr/local/bin/../lib/freebasic/linux-x86_64/libfb.a(scancodes.o)
 .note.GNU-stack
                0x0000000000000000        0x0 /usr/local/bin/../lib/freebasic/linux-x86_64/libfb.a(scancodes_x11.o)
 .note.GNU-stack
                0x0000000000000000        0x0 /usr/local/bin/../lib/freebasic/linux-x86_64/libfb.a(str_asc.o)
 .note.GNU-stack
                0x0000000000000000        0x0 /usr/local/bin/../lib/freebasic/linux-x86_64/libfb.a(str_assign.o)
 .note.GNU-stack
                0x0000000000000000        0x0 /usr/local/bin/../lib/freebasic/linux-x86_64/libfb.a(str_chr.o)
 .note.GNU-stack
                0x0000000000000000        0x0 /usr/local/bin/../lib/freebasic/linux-x86_64/libfb.a(str_comp.o)
 .note.GNU-stack
                0x0000000000000000        0x0 /usr/local/bin/../lib/freebasic/linux-x86_64/libfb.a(str_concat.o)
 .note.GNU-stack
                0x0000000000000000        0x0 /usr/local/bin/../lib/freebasic/linux-x86_64/libfb.a(str_concatassign.o)
 .note.GNU-stack
                0x0000000000000000        0x0 /usr/local/bin/../lib/freebasic/linux-x86_64/libfb.a(str_convfrom.o)
 .note.GNU-stack
                0x0000000000000000        0x0 /usr/local/bin/../lib/freebasic/linux-x86_64/libfb.a(str_convfrom_lng.o)
 .note.GNU-stack
                0x0000000000000000        0x0 /usr/local/bin/../lib/freebasic/linux-x86_64/libfb.a(str_convfrom_radlng.o)
 .note.GNU-stack
                0x0000000000000000        0x0 /usr/local/bin/../lib/freebasic/linux-x86_64/libfb.a(str_convfrom_ulng.o)
 .note.GNU-stack
                0x0000000000000000        0x0 /usr/local/bin/../lib/freebasic/linux-x86_64/libfb.a(str_convto.o)
 .note.GNU-stack
                0x0000000000000000        0x0 /usr/local/bin/../lib/freebasic/linux-x86_64/libfb.a(str_convto_flt.o)
 .note.GNU-stack
                0x0000000000000000        0x0 /usr/local/bin/../lib/freebasic/linux-x86_64/libfb.a(str_convto_lng.o)
 .note.GNU-stack
                0x0000000000000000        0x0 /usr/local/bin/../lib/freebasic/linux-x86_64/libfb.a(str_core.o)
 .note.GNU-stack
                0x0000000000000000        0x0 /usr/local/bin/../lib/freebasic/linux-x86_64/libfb.a(str_del.o)
 .note.GNU-stack
                0x0000000000000000        0x0 /usr/local/bin/../lib/freebasic/linux-x86_64/libfb.a(str_fill.o)
 .note.GNU-stack
                0x0000000000000000        0x0 /usr/local/bin/../lib/freebasic/linux-x86_64/libfb.a(str_hex.o)
 .note.GNU-stack
                0x0000000000000000        0x0 /usr/local/bin/../lib/freebasic/linux-x86_64/libfb.a(str_hex_lng.o)
 .note.GNU-stack
                0x0000000000000000        0x0 /usr/local/bin/../lib/freebasic/linux-x86_64/libfb.a(str_hskip.o)
 .note.GNU-stack
                0x0000000000000000        0x0 /usr/local/bin/../lib/freebasic/linux-x86_64/libfb.a(str_lcase.o)
 .note.GNU-stack
                0x0000000000000000        0x0 /usr/local/bin/../lib/freebasic/linux-x86_64/libfb.a(str_len.o)
 .note.GNU-stack
                0x0000000000000000        0x0 /usr/local/bin/../lib/freebasic/linux-x86_64/libfb.a(str_mid.o)
 .note.GNU-stack
                0x0000000000000000        0x0 /usr/local/bin/../lib/freebasic/linux-x86_64/libfb.a(str_misc.o)
 .note.GNU-stack
                0x0000000000000000        0x0 /usr/local/bin/../lib/freebasic/linux-x86_64/libfb.a(str_tempdescf.o)
 .note.GNU-stack
                0x0000000000000000        0x0 /usr/local/bin/../lib/freebasic/linux-x86_64/libfb.a(str_tempdescz.o)
 .note.GNU-stack
                0x0000000000000000        0x0 /usr/local/bin/../lib/freebasic/linux-x86_64/libfb.a(str_tempres.o)
 .note.GNU-stack
                0x0000000000000000        0x0 /usr/local/bin/../lib/freebasic/linux-x86_64/libfb.a(strw_convassign.o)
 .note.GNU-stack
                0x0000000000000000        0x0 /usr/local/bin/../lib/freebasic/linux-x86_64/libfb.a(strw_convfrom_lng.o)
 .note.GNU-stack
                0x0000000000000000        0x0 /usr/local/bin/../lib/freebasic/linux-x86_64/libfb.a(strw_convfrom_str.o)
 .note.GNU-stack
                0x0000000000000000        0x0 /usr/local/bin/../lib/freebasic/linux-x86_64/libfb.a(strw_convfrom_ulng.o)
 .note.GNU-stack
                0x0000000000000000        0x0 /usr/local/bin/../lib/freebasic/linux-x86_64/libfb.a(strw_convto_str.o)
 .note.GNU-stack
                0x0000000000000000        0x0 /usr/local/bin/../lib/freebasic/linux-x86_64/libfb.a(sys_beep.o)
 .note.GNU-stack
                0x0000000000000000        0x0 /usr/local/bin/../lib/freebasic/linux-x86_64/libfb.a(sys_chain.o)
 .note.GNU-stack
                0x0000000000000000        0x0 /usr/local/bin/../lib/freebasic/linux-x86_64/libfb.a(sys_delay.o)
 .note.GNU-stack
                0x0000000000000000        0x0 /usr/local/bin/../lib/freebasic/linux-x86_64/libfb.a(sys_execex.o)
 .note.GNU-stack
                0x0000000000000000        0x0 /usr/local/bin/../lib/freebasic/linux-x86_64/libfb.a(sys_fmem.o)
 .note.GNU-stack
                0x0000000000000000        0x0 /usr/local/bin/../lib/freebasic/linux-x86_64/libfb.a(sys_getexename.o)
 .note.GNU-stack
                0x0000000000000000        0x0 /usr/local/bin/../lib/freebasic/linux-x86_64/libfb.a(sys_parseargs.o)
 .note.GNU-stack
                0x0000000000000000        0x0 /usr/local/bin/../lib/freebasic/linux-x86_64/libfb.a(sys_shell.o)
 .note.GNU-stack
                0x0000000000000000        0x0 /usr/local/bin/../lib/freebasic/linux-x86_64/libfb.a(thread_ctx.o)
 .note.GNU-stack
                0x0000000000000000        0x0 /usr/local/bin/../lib/freebasic/linux-x86_64/libfb.a(thread_mutex.o)
 .note.GNU-stack
                0x0000000000000000        0x0 /usr/local/bin/../lib/freebasic/linux-x86_64/libfb.a(time_sleep.o)
 .note.GNU-stack
                0x0000000000000000        0x0 /usr/local/bin/../lib/freebasic/linux-x86_64/libfb.a(time_sleepex.o)
 .note.GNU-stack
                0x0000000000000000        0x0 /usr/local/bin/../lib/freebasic/linux-x86_64/libfb.a(time_timer.o)
 .note.GNU-stack
                0x0000000000000000        0x0 /usr/local/bin/../lib/freebasic/linux-x86_64/libfb.a(vfs_open.o)
 .note.GNU-stack
                0x0000000000000000        0x0 /usr/local/bin/../lib/freebasic/linux-x86_64/libfb.a(con_lineinp.o)
 .note.GNU-stack
                0x0000000000000000        0x0 /usr/local/bin/../lib/freebasic/linux-x86_64/libfb.a(con_print_raw.o)
 .note.GNU-stack
                0x0000000000000000        0x0 /usr/local/bin/../lib/freebasic/linux-x86_64/libfb.a(dev_file_open.o)
 .note.GNU-stack
                0x0000000000000000        0x0 /usr/local/bin/../lib/freebasic/linux-x86_64/libfb.a(dev_file_read.o)
 .note.GNU-stack
                0x0000000000000000        0x0 /usr/local/bin/../lib/freebasic/linux-x86_64/libfb.a(dev_file_read_wstr.o)
 .note.GNU-stack
                0x0000000000000000        0x0 /usr/local/bin/../lib/freebasic/linux-x86_64/libfb.a(dev_file_readline.o)
 .note.GNU-stack
                0x0000000000000000        0x0 /usr/local/bin/../lib/freebasic/linux-x86_64/libfb.a(dev_file_readline_wstr.o)
 .note.GNU-stack
                0x0000000000000000        0x0 /usr/local/bin/../lib/freebasic/linux-x86_64/libfb.a(dev_file_seek.o)
 .note.GNU-stack
                0x0000000000000000        0x0 /usr/local/bin/../lib/freebasic/linux-x86_64/libfb.a(dev_file_size.o)
 .note.GNU-stack
                0x0000000000000000        0x0 /usr/local/bin/../lib/freebasic/linux-x86_64/libfb.a(dev_file_tell.o)
 .note.GNU-stack
                0x0000000000000000        0x0 /usr/local/bin/../lib/freebasic/linux-x86_64/libfb.a(dev_file_unlock.o)
 .note.GNU-stack
                0x0000000000000000        0x0 /usr/local/bin/../lib/freebasic/linux-x86_64/libfb.a(dev_file_write.o)
 .note.GNU-stack
                0x0000000000000000        0x0 /usr/local/bin/../lib/freebasic/linux-x86_64/libfb.a(dev_file_write_wstr.o)
 .note.GNU-stack
                0x0000000000000000        0x0 /usr/local/bin/../lib/freebasic/linux-x86_64/libfb.a(dev_scrn_eof.o)
 .note.GNU-stack
                0x0000000000000000        0x0 /usr/local/bin/../lib/freebasic/linux-x86_64/libfb.a(file_hlock.o)
 .note.GNU-stack
                0x0000000000000000        0x0 /usr/local/bin/../lib/freebasic/linux-x86_64/libfb.a(file_print.o)
 .note.GNU-stack
                0x0000000000000000        0x0 /usr/local/bin/../lib/freebasic/linux-x86_64/libfb.a(file_print_wstr.o)
 .note.GNU-stack
                0x0000000000000000        0x0 /usr/local/bin/../lib/freebasic/linux-x86_64/libfb.a(hinit.o)
 .note.GNU-stack
                0x0000000000000000        0x0 /usr/local/bin/../lib/freebasic/linux-x86_64/libfb.a(hinit_enable_vt100_escapes.o)
 .note.GNU-stack
                0x0000000000000000        0x0 /usr/local/bin/../lib/freebasic/linux-x86_64/libfb.a(hook_getmouse.o)
 .note.GNU-stack
                0x0000000000000000        0x0 /usr/local/bin/../lib/freebasic/linux-x86_64/libfb.a(hook_view_update.o)
 .note.GNU-stack
                0x0000000000000000        0x0 /usr/local/bin/../lib/freebasic/linux-x86_64/libfb.a(io_input.o)
 .note.GNU-stack
                0x0000000000000000        0x0 /usr/local/bin/../lib/freebasic/linux-x86_64/libfb.a(io_mouse.o)
 .note.GNU-stack
                0x0000000000000000        0x0 /usr/local/bin/../lib/freebasic/linux-x86_64/libfb.a(io_printpad.o)
 .note.GNU-stack
                0x0000000000000000        0x0 /usr/local/bin/../lib/freebasic/linux-x86_64/libfb.a(io_printpad_wstr.o)
 .note.GNU-stack
                0x0000000000000000        0x0 /usr/local/bin/../lib/freebasic/linux-x86_64/libfb.a(io_viewupdate.o)
 .note.GNU-stack
                0x0000000000000000        0x0 /usr/local/bin/../lib/freebasic/linux-x86_64/libfb.a(list.o)
 .note.GNU-stack
                0x0000000000000000        0x0 /usr/local/bin/../lib/freebasic/linux-x86_64/libfb.a(listdyn.o)
 .note.GNU-stack
                0x0000000000000000        0x0 /usr/local/bin/../lib/freebasic/linux-x86_64/libfb.a(sys_hshell.o)
 .note.GNU-stack
                0x0000000000000000        0x0 /usr/local/bin/../lib/freebasic/linux-x86_64/libfb.a(dev_file_close.o)
 .note.GNU-stack
                0x0000000000000000        0x0 /usr/local/bin/../lib/freebasic/linux-x86_64/libfb.a(dev_file_eof.o)
 .note.GNU-stack
                0x0000000000000000        0x0 /usr/local/bin/../lib/freebasic/linux-x86_64/libfb.a(dev_file_flush.o)
 .note.GNU-stack
                0x0000000000000000        0x0 /usr/local/bin/../lib/freebasic/linux-x86_64/libfb.a(dev_file_lock.o)
 .note.GNU-stack
                0x0000000000000000        0x0 /usr/local/bin/../lib/freebasic/linux-x86_64/libfb.a(dev_scrn_write.o)
 .note.GNU-stack
                0x0000000000000000        0x0 /usr/local/bin/../lib/freebasic/linux-x86_64/libfb.a(dev_scrn_write_wstr.o)
 .note.GNU-stack
                0x0000000000000000        0x0 /usr/local/bin/../lib/freebasic/linux-x86_64/libfb.a(hook_print_wstr.o)
 .note.GNU-stack
                0x0000000000000000        0x0 /usr/local/bin/../lib/freebasic/linux-x86_64/libfb.a(io_printbuff_wstr.o)
 .note.GNU-stack
                0x0000000000000000        0x0 /usr/local/bin/../lib/freebasic/linux-x86_64/libfb.a(utf_convfrom_wchar.o)
 .note.GNU-stack
                0x0000000000000000        0x0 /usr/local/bin/../lib/freebasic/linux-x86_64/libfb.a(utf_core.o)
 .note.GNU-stack
                0x0000000000000000        0x0 /usr/lib/libc_nonshared.a(elf-init.oS)
 .note.gnu.property
                0x0000000000000000       0x20 /usr/lib/libc_nonshared.a(elf-init.oS)
 .note.GNU-stack
                0x0000000000000000        0x0 /usr/lib/gcc/x86_64-pc-linux-gnu/10.2.0/crtend.o
 .note.gnu.property
                0x0000000000000000       0x20 /usr/lib/gcc/x86_64-pc-linux-gnu/10.2.0/crtend.o
 .note.gnu.property
                0x0000000000000000       0x20 /usr/lib/gcc/x86_64-pc-linux-gnu/10.2.0/../../../../lib/crtn.o
 .note.GNU-stack
                0x0000000000000000        0x0 /usr/lib/gcc/x86_64-pc-linux-gnu/10.2.0/../../../../lib/crtn.o

Memory Configuration

Name             Origin             Length             Attributes
*default*        0x0000000000000000 0xffffffffffffffff

Linker script and memory map

LOAD /usr/local/bin/../lib/freebasic/linux-x86_64/fbextra.x
LOAD /usr/lib/gcc/x86_64-pc-linux-gnu/10.2.0/../../../../lib/crt1.o
LOAD /usr/lib/gcc/x86_64-pc-linux-gnu/10.2.0/../../../../lib/crti.o
LOAD /usr/lib/gcc/x86_64-pc-linux-gnu/10.2.0/crtbegin.o
LOAD /usr/local/bin/../lib/freebasic/linux-x86_64/fbrt0.o
LOAD c64dvd-glsl.o
START GROUP
LOAD /usr/local/bin/../lib/freebasic/linux-x86_64/libfbgfx.a
LOAD /usr/lib/libX11.so
LOAD /usr/lib/libXext.so
LOAD /usr/lib/libXpm.so
LOAD /usr/lib/libXrandr.so
LOAD /usr/lib/libXrender.so
LOAD /usr/lib/libpthread.so
LOAD /usr/lib/libGL.so
LOAD /usr/local/bin/../lib/freebasic/linux-x86_64/libfb.a
LOAD /usr/lib/libtinfo.so
LOAD /usr/lib/libncursesw.so.6
LOAD /usr/lib/libm.so
START GROUP
LOAD /usr/lib/libm.so.6
LOAD /usr/lib/libmvec.so.1
END GROUP
LOAD /usr/lib/libdl.so
LOAD /usr/lib/gcc/x86_64-pc-linux-gnu/10.2.0/libgcc.a
LOAD /usr/lib/gcc/x86_64-pc-linux-gnu/10.2.0/libgcc_eh.a
LOAD /usr/lib/libc.so
START GROUP
LOAD /usr/lib/libc.so.6
LOAD /usr/lib/libc_nonshared.a
LOAD /usr/lib/ld-linux-x86-64.so.2
END GROUP
END GROUP
LOAD /usr/lib/gcc/x86_64-pc-linux-gnu/10.2.0/crtend.o
LOAD /usr/lib/gcc/x86_64-pc-linux-gnu/10.2.0/../../../../lib/crtn.o
                [!provide]                        PROVIDE (__executable_start = SEGMENT_START ("text-segment", 0x400000))
                0x0000000000400270                . = (SEGMENT_START ("text-segment", 0x400000) + SIZEOF_HEADERS)

.interp         0x0000000000400270       0x1c
 *(.interp)
 .interp        0x0000000000400270       0x1c /usr/lib/gcc/x86_64-pc-linux-gnu/10.2.0/../../../../lib/crt1.o

.note.ABI-tag   0x000000000040028c       0x20
 .note.ABI-tag  0x000000000040028c       0x20 /usr/lib/gcc/x86_64-pc-linux-gnu/10.2.0/../../../../lib/crt1.o

.note.gnu.build-id
 *(.note.gnu.build-id)

.hash           0x00000000004002b0      0x68c
 *(.hash)
 .hash          0x00000000004002b0      0x68c /usr/lib/gcc/x86_64-pc-linux-gnu/10.2.0/../../../../lib/crt1.o

.gnu.hash       0x0000000000400940       0x60
 *(.gnu.hash)
 .gnu.hash      0x0000000000400940       0x60 /usr/lib/gcc/x86_64-pc-linux-gnu/10.2.0/../../../../lib/crt1.o

.dynsym         0x00000000004009a0     0x14a0
 *(.dynsym)
 .dynsym        0x00000000004009a0     0x14a0 /usr/lib/gcc/x86_64-pc-linux-gnu/10.2.0/../../../../lib/crt1.o

.dynstr         0x0000000000401e40      0xa93
 *(.dynstr)
 .dynstr        0x0000000000401e40      0xa93 /usr/lib/gcc/x86_64-pc-linux-gnu/10.2.0/../../../../lib/crt1.o

.gnu.version    0x00000000004028d4      0x1b8
 *(.gnu.version)
 .gnu.version   0x00000000004028d4      0x1b8 /usr/lib/gcc/x86_64-pc-linux-gnu/10.2.0/../../../../lib/crt1.o

.gnu.version_d  0x0000000000402a90        0x0
 *(.gnu.version_d)
 .gnu.version_d
                0x0000000000402a90        0x0 /usr/lib/gcc/x86_64-pc-linux-gnu/10.2.0/../../../../lib/crt1.o

.gnu.version_r  0x0000000000402a90      0x100
 *(.gnu.version_r)
 .gnu.version_r
                0x0000000000402a90      0x100 /usr/lib/gcc/x86_64-pc-linux-gnu/10.2.0/../../../../lib/crt1.o

.rela.dyn       0x0000000000402b90      0x1c8
 *(.rela.init)
 *(.rela.text .rela.text.* .rela.gnu.linkonce.t.*)
 .rela.text     0x0000000000402b90        0x0 /usr/lib/gcc/x86_64-pc-linux-gnu/10.2.0/../../../../lib/crt1.o
 .rela.text.startup
                0x0000000000402b90        0x0 /usr/lib/gcc/x86_64-pc-linux-gnu/10.2.0/../../../../lib/crt1.o
 *(.rela.fini)
 *(.rela.rodata .rela.rodata.* .rela.gnu.linkonce.r.*)
 *(.rela.data .rela.data.* .rela.gnu.linkonce.d.*)
 .rela.data.rel.ro
                0x0000000000402b90        0x0 /usr/lib/gcc/x86_64-pc-linux-gnu/10.2.0/../../../../lib/crt1.o
 .rela.data.rel
                0x0000000000402b90       0x30 /usr/lib/gcc/x86_64-pc-linux-gnu/10.2.0/../../../../lib/crt1.o
 *(.rela.tdata .rela.tdata.* .rela.gnu.linkonce.td.*)
 *(.rela.tbss .rela.tbss.* .rela.gnu.linkonce.tb.*)
 *(.rela.ctors)
 *(.rela.dtors)
 *(.rela.got)
 .rela.got      0x0000000000402bc0       0xf0 /usr/lib/gcc/x86_64-pc-linux-gnu/10.2.0/../../../../lib/crt1.o
 *(.rela.bss .rela.bss.* .rela.gnu.linkonce.b.*)
 .rela.bss      0x0000000000402cb0       0xa8 /usr/lib/gcc/x86_64-pc-linux-gnu/10.2.0/../../../../lib/crt1.o
 *(.rela.ldata .rela.ldata.* .rela.gnu.linkonce.l.*)
 *(.rela.lbss .rela.lbss.* .rela.gnu.linkonce.lb.*)
 *(.rela.lrodata .rela.lrodata.* .rela.gnu.linkonce.lr.*)
 *(.rela.ifunc)

.rela.plt       0x0000000000402d58     0x12d8
 *(.rela.plt)
 .rela.plt      0x0000000000402d58     0x12d8 /usr/lib/gcc/x86_64-pc-linux-gnu/10.2.0/../../../../lib/crt1.o
                [!provide]                        PROVIDE (__rela_iplt_start = .)
 *(.rela.iplt)
 .rela.iplt     0x0000000000404030        0x0 /usr/lib/gcc/x86_64-pc-linux-gnu/10.2.0/../../../../lib/crt1.o
                [!provide]                        PROVIDE (__rela_iplt_end = .)
                0x0000000000405000                . = ALIGN (CONSTANT (MAXPAGESIZE))

.init           0x0000000000405000       0x1b
 *(SORT_NONE(.init))
 .init          0x0000000000405000       0x16 /usr/lib/gcc/x86_64-pc-linux-gnu/10.2.0/../../../../lib/crti.o
                0x0000000000405000                _init
 .init          0x0000000000405016        0x5 /usr/lib/gcc/x86_64-pc-linux-gnu/10.2.0/../../../../lib/crtn.o

.plt            0x0000000000405020      0xca0
 *(.plt)
 .plt           0x0000000000405020      0xca0 /usr/lib/gcc/x86_64-pc-linux-gnu/10.2.0/../../../../lib/crt1.o
                0x0000000000405030                tcsetattr@@GLIBC_2.2.5
                0x0000000000405040                XRRFreeScreenConfigInfo
                0x0000000000405050                fileno@@GLIBC_2.2.5
                0x0000000000405060                XUnlockDisplay
                0x0000000000405070                XCreateFontCursor
                0x0000000000405080                pthread_cond_destroy@@GLIBC_2.3.2
                0x0000000000405090                XMoveWindow
                0x00000000004050a0                XFreeCursor
                0x00000000004050b0                fseeko64@@GLIBC_2.2.5
                0x00000000004050c0                memset@@GLIBC_2.2.5
                0x00000000004050d0                XClearWindow
                0x00000000004050e0                snprintf@@GLIBC_2.2.5
                0x00000000004050f0                mmap64@@GLIBC_2.2.5
                0x0000000000405100                wcslen@@GLIBC_2.2.5
                0x0000000000405110                close@@GLIBC_2.2.5
                0x0000000000405120                XListPixmapFormats
                0x0000000000405130                ioctl@@GLIBC_2.2.5
                0x0000000000405140                shmdt@@GLIBC_2.2.5
                0x0000000000405150                XRRSetScreenConfigAndRate
                0x0000000000405160                strncat@@GLIBC_2.2.5
                0x0000000000405170                tgetflag
                0x0000000000405180                XStoreName
                0x0000000000405190                get_avphys_pages@@GLIBC_2.2.5
                0x00000000004051a0                isatty@@GLIBC_2.2.5
                0x00000000004051b0                XFreeColormap
                0x00000000004051c0                XLookupString
                0x00000000004051d0                fseek@@GLIBC_2.2.5
                0x00000000004051e0                pthread_cond_signal@@GLIBC_2.3.2
                0x00000000004051f0                select@@GLIBC_2.2.5
                0x0000000000405200                execvp@@GLIBC_2.2.5
                0x0000000000405210                exit@@GLIBC_2.2.5
                0x0000000000405220                XCreateImage
                0x0000000000405230                strcasecmp@@GLIBC_2.2.5
                0x0000000000405240                XRaiseWindow
                0x0000000000405250                gettimeofday@@GLIBC_2.2.5
                0x0000000000405260                setvbuf@@GLIBC_2.2.5
                0x0000000000405270                XRRSetScreenConfig
                0x0000000000405280                XUngrabPointer
                0x0000000000405290                XDisplayWidth
                0x00000000004052a0                read@@GLIBC_2.2.5
                0x00000000004052b0                malloc@@GLIBC_2.2.5
                0x00000000004052c0                dup@@GLIBC_2.2.5
                0x00000000004052d0                system@@GLIBC_2.2.5
                0x00000000004052e0                XpmCreatePixmapFromData
                0x00000000004052f0                XRRQueryExtension
                0x0000000000405300                XSetWMNormalHints
                0x0000000000405310                XGrabPointer
                0x0000000000405320                XRRQueryVersion
                0x0000000000405330                XCreateWindow
                0x0000000000405340                nearbyint@@GLIBC_2.2.5
                0x0000000000405350                XCreateColormap
                0x0000000000405360                sysconf@@GLIBC_2.2.5
                0x0000000000405370                getpid@@GLIBC_2.2.5
                0x0000000000405380                XDefaultVisual
                0x0000000000405390                pthread_mutex_init@@GLIBC_2.2.5
                0x00000000004053a0                fgets@@GLIBC_2.2.5
                0x00000000004053b0                freopen64@@GLIBC_2.2.5
                0x00000000004053c0                XRRConfigRates
                0x00000000004053d0                XOpenDisplay
                0x00000000004053e0                ioperm@@GLIBC_2.2.5
                0x00000000004053f0                ungetc@@GLIBC_2.2.5
                0x0000000000405400                fputc@@GLIBC_2.2.5
                0x0000000000405410                XDrawPoint
                0x0000000000405420                free@@GLIBC_2.2.5
                0x0000000000405430                XDeleteProperty
                0x0000000000405440                strlen@@GLIBC_2.2.5
                0x0000000000405450                XDestroyWindow
                0x0000000000405460                glActiveTexture
                0x0000000000405470                tgetent
                0x0000000000405480                XCloseDisplay
                0x0000000000405490                pthread_create@@GLIBC_2.2.5
                0x00000000004054a0                pthread_cond_init@@GLIBC_2.3.2
                0x00000000004054b0                __ctype_b_loc@@GLIBC_2.3
                0x00000000004054c0                XShmCreateImage
                0x00000000004054d0                XRRConfigCurrentRate
                0x00000000004054e0                wcstoull@@GLIBC_2.2.5
                0x00000000004054f0                XUnmapWindow
                0x0000000000405500                sprintf@@GLIBC_2.2.5
                0x0000000000405510                mbstowcs@@GLIBC_2.2.5
                0x0000000000405520                XCreatePixmapCursor
                0x0000000000405530                fgetc@@GLIBC_2.2.5
                0x0000000000405540                strrchr@@GLIBC_2.2.5
                0x0000000000405550                XFreeGC
                0x0000000000405560                glRectf
                0x0000000000405570                XDisplayName
                0x0000000000405580                glBindTexture
                0x0000000000405590                XMoveResizeWindow
                0x00000000004055a0                XLockDisplay
                0x00000000004055b0                dlclose@@GLIBC_2.2.5
                0x00000000004055c0                pthread_join@@GLIBC_2.2.5
                0x00000000004055d0                XNextEvent
                0x00000000004055e0                XDefaultRootWindow
                0x00000000004055f0                XSetWMProtocols
                0x0000000000405600                kill@@GLIBC_2.2.5
                0x0000000000405610                usleep@@GLIBC_2.2.5
                0x0000000000405620                open64@@GLIBC_2.2.5
                0x0000000000405630                strstr@@GLIBC_2.2.5
                0x0000000000405640                XDefaultScreen
                0x0000000000405650                XDisplayHeight
                0x0000000000405660                rewind@@GLIBC_2.2.5
                0x0000000000405670                fputs@@GLIBC_2.2.5
                0x0000000000405680                readlink@@GLIBC_2.2.5
                0x0000000000405690                XResizeWindow
                0x00000000004056a0                tputs
                0x00000000004056b0                XUngrabKeyboard
                0x00000000004056c0                getpgid@@GLIBC_2.2.5
                0x00000000004056d0                XCreateBitmapFromData
                0x00000000004056e0                tcgetattr@@GLIBC_2.2.5
                0x00000000004056f0                fcntl64@@GLIBC_2.28
                0x0000000000405700                raise@@GLIBC_2.2.5
                0x0000000000405710                _Exit@@GLIBC_2.2.5
                0x0000000000405720                signal@@GLIBC_2.2.5
                0x0000000000405730                memmove@@GLIBC_2.2.5
                0x0000000000405740                XShmQueryExtension
                0x0000000000405750                waitpid@@GLIBC_2.2.5
                0x0000000000405760                fread@@GLIBC_2.2.5
                0x0000000000405770                XCreateGC
                0x0000000000405780                getenv@@GLIBC_2.2.5
                0x0000000000405790                cfgetospeed@@GLIBC_2.2.5
                0x00000000004057a0                qsort@@GLIBC_2.2.5
                0x00000000004057b0                strdup@@GLIBC_2.2.5
                0x00000000004057c0                XBlackPixel
                0x00000000004057d0                glTexImage2D
                0x00000000004057e0                XSync
                0x00000000004057f0                pthread_mutexattr_settype@@GLIBC_2.2.5
                0x0000000000405800                sincos@@GLIBC_2.2.5
                0x0000000000405810                XStoreColors
                0x0000000000405820                XMaskEvent
                0x0000000000405830                strncasecmp@@GLIBC_2.2.5
                0x0000000000405840                XSendEvent
                0x0000000000405850                __stack_chk_fail@@GLIBC_2.4
                0x0000000000405860                XWarpPointer
                0x0000000000405870                XRRConfigSizes
                0x0000000000405880                XPutImage
                0x0000000000405890                XShmAttach
                0x00000000004058a0                XPeekEvent
                0x00000000004058b0                XShapeCombineMask
                0x00000000004058c0                XInitThreads
                0x00000000004058d0                tgoto
                0x00000000004058e0                strcpy@@GLIBC_2.2.5
                0x00000000004058f0                XRRConfigCurrentConfiguration
                0x0000000000405900                pthread_cond_wait@@GLIBC_2.3.2
                0x0000000000405910                __isoc99_scanf@@GLIBC_2.7
                0x0000000000405920                __ctype_tolower_loc@@GLIBC_2.3
                0x0000000000405930                memcmp@@GLIBC_2.2.5
                0x0000000000405940                XDefineCursor
                0x0000000000405950                calloc@@GLIBC_2.2.5
                0x0000000000405960                munmap@@GLIBC_2.2.5
                0x0000000000405970                shmget@@GLIBC_2.2.5
                0x0000000000405980                feof@@GLIBC_2.2.5
                0x0000000000405990                XInternAtom
                0x00000000004059a0                XGrabKeyboard
                0x00000000004059b0                fclose@@GLIBC_2.2.5
                0x00000000004059c0                dlopen@@GLIBC_2.2.5
                0x00000000004059d0                strncpy@@GLIBC_2.2.5
                0x00000000004059e0                XQueryPointer
                0x00000000004059f0                __xstat64@@GLIBC_2.2.5
                0x0000000000405a00                XUndefineCursor
                0x0000000000405a10                strtoull@@GLIBC_2.2.5
                0x0000000000405a20                dlsym@@GLIBC_2.2.5
                0x0000000000405a30                XGetWindowAttributes
                0x0000000000405a40                XDefaultDepth
                0x0000000000405a50                XRRGetScreenInfo
                0x0000000000405a60                nearbyintf@@GLIBC_2.2.5
                0x0000000000405a70                XChangeProperty
                0x0000000000405a80                XAllocSizeHints
                0x0000000000405a90                XCheckWindowEvent
                0x0000000000405aa0                XShmPutImage
                0x0000000000405ab0                XFreePixmap
                0x0000000000405ac0                fork@@GLIBC_2.2.5
                0x0000000000405ad0                fopen64@@GLIBC_2.2.5
                0x0000000000405ae0                fwrite@@GLIBC_2.2.5
                0x0000000000405af0                pthread_mutex_lock@@GLIBC_2.2.5
                0x0000000000405b00                realloc@@GLIBC_2.2.5
                0x0000000000405b10                setlocale@@GLIBC_2.2.5
                0x0000000000405b20                XReparentWindow
                0x0000000000405b30                tgetstr
                0x0000000000405b40                shmctl@@GLIBC_2.2.5
                0x0000000000405b50                pthread_mutexattr_init@@GLIBC_2.2.5
                0x0000000000405b60                XCreatePixmap
                0x0000000000405b70                XMapRaised
                0x0000000000405b80                fprintf@@GLIBC_2.2.5
                0x0000000000405b90                pthread_mutex_destroy@@GLIBC_2.2.5
                0x0000000000405ba0                write@@GLIBC_2.2.5
                0x0000000000405bb0                ftello64@@GLIBC_2.2.5
                0x0000000000405bc0                tcgetpgrp@@GLIBC_2.2.5
                0x0000000000405bd0                pow@@GLIBC_2.29
                0x0000000000405be0                sqrt@@GLIBC_2.2.5
                0x0000000000405bf0                XQueryTree
                0x0000000000405c00                pthread_mutex_unlock@@GLIBC_2.2.5
                0x0000000000405c10                XShmDetach
                0x0000000000405c20                memcpy@@GLIBC_2.14
                0x0000000000405c30                XSetWMHints
                0x0000000000405c40                XSetWindowColormap
                0x0000000000405c50                glGenTextures
                0x0000000000405c60                strtod@@GLIBC_2.2.5
                0x0000000000405c70                XPending
                0x0000000000405c80                shmat@@GLIBC_2.2.5
                0x0000000000405c90                fflush@@GLIBC_2.2.5
                0x0000000000405ca0                wcstombs@@GLIBC_2.2.5
                0x0000000000405cb0                getc@@GLIBC_2.2.5
 *(.iplt)
 .iplt          0x0000000000405cc0        0x0 /usr/lib/gcc/x86_64-pc-linux-gnu/10.2.0/../../../../lib/crt1.o

.plt.got        0x0000000000405cc0        0x8
 *(.plt.got)
 .plt.got       0x0000000000405cc0        0x8 /usr/lib/gcc/x86_64-pc-linux-gnu/10.2.0/../../../../lib/crt1.o
                0x0000000000405cc0                XFree

.plt.sec
 *(.plt.sec)

.text           0x0000000000405cd0    0x59105
 *(.text.unlikely .text.*_unlikely .text.unlikely.*)
 .text.unlikely
                0x0000000000405cd0        0xa /usr/local/bin/../lib/freebasic/linux-x86_64/libfb.a(dev_scrn_read.o)
 .text.unlikely
                0x0000000000405cda        0xa /usr/local/bin/../lib/freebasic/linux-x86_64/libfb.a(dev_scrn_eof.o)
 .text.unlikely
                0x0000000000405ce4        0x9 /usr/local/bin/../lib/freebasic/linux-x86_64/libfb.a(io_printpad.o)
 .text.unlikely
                0x0000000000405ced        0x9 /usr/local/bin/../lib/freebasic/linux-x86_64/libfb.a(io_printpad_wstr.o)
 *(.text.exit .text.exit.*)
 *(.text.startup .text.startup.*)
 *fill*         0x0000000000405cf6        0xa 
 .text.startup  0x0000000000405d00      0x1cf c64dvd-glsl.o
                0x0000000000405d00                main
 *(.text.hot .text.hot.*)
 *(SORT_BY_NAME(.text.sorted.*))
 *(.text .stub .text.* .gnu.linkonce.t.*)
 *fill*         0x0000000000405ecf        0x1 
 .text          0x0000000000405ed0       0x35 /usr/lib/gcc/x86_64-pc-linux-gnu/10.2.0/../../../../lib/crt1.o
                0x0000000000405ed0                _start
                0x0000000000405f00                _dl_relocate_static_pie
 .text          0x0000000000405f05        0x0 /usr/lib/gcc/x86_64-pc-linux-gnu/10.2.0/../../../../lib/crti.o
 *fill*         0x0000000000405f05        0xb 
 .text          0x0000000000405f10       0xa6 /usr/lib/gcc/x86_64-pc-linux-gnu/10.2.0/crtbegin.o
 *fill*         0x0000000000405fb6        0xa 
 .text          0x0000000000405fc0       0x15 /usr/local/bin/../lib/freebasic/linux-x86_64/fbrt0.o
 *fill*         0x0000000000405fd5        0xb 
 .text          0x0000000000405fe0    0x3c6b4 c64dvd-glsl.o
                0x0000000000405fe0                INS_ASLA
                0x0000000000406040                INS_CLC
                0x0000000000406050                INS_CLD
                0x0000000000406060                INS_CLI
                0x0000000000406070                INS_CLV
                0x0000000000406080                INS_DEX
                0x00000000004060f0                INS_DEY
                0x0000000000406160                INS_JMP
                0x0000000000406170                INS_LSRA
                0x00000000004061c0                INS_ROLA
                0x0000000000406260                INS_RORA
                0x00000000004062d0                INS_SEC
                0x00000000004062e0                INS_SED
                0x00000000004062f0                INS_SEI
                0x0000000000406300                INS_TAX
                0x0000000000406360                INS_TAY
                0x00000000004063c0                INS_TSX
                0x0000000000406420                INS_TXA
                0x0000000000406480                INS_TXS
                0x0000000000406490                INS_TYA
                0x0000000000406510                INS_INX
                0x0000000000406590                INS_INY
                0x0000000000406620                INS_NOP
                0x0000000000406630                INS_UNK
                0x0000000000406640                ERROREXIT
                0x00000000004066c0                GLSCREEN
                0x0000000000407500                SHADERTOY::~SHADERTOY()
                0x0000000000407540                SHADERTOY::COMPILECODE(FBSTRING&)
                0x0000000000407ce0                SHADERTOY::COMPILEFILE(FBSTRING&)
                0x0000000000407eb0                MEMORY_T::~MEMORY_T()
                0x0000000000407ec0                MEMORY_T::SCREENCODE(double)
                0x0000000000408e10                MEMORY_T::PEEKB(double)
                0x0000000000408e30                MEMORY_T::PEEKW(double)
                0x0000000000408eb0                MEMORY_T::ISSYMBOL(FBSTRING, double)
                0x0000000000408f10                MEMORY_T::ISNUMBER(FBSTRING, double)
                0x0000000000409000                MEMORY_T::GETXYZ()
                0x0000000000409480                MEMORY_T::PEEK64(double)
                0x00000000004095b0                INS_R32
                0x00000000004095e0                INS_R64
                0x0000000000409630                MEMORY_T::POKE64(double, double)
                0x000000000043bc90                MEMORY_T::MEMORY_T()
                0x000000000043c950                MEMORY_T::POKEB(double, double)
                0x000000000043fac0                MEMORY_T::POKEW(double, double)
                0x000000000043fb40                INS_W32
                0x000000000043fb70                INS_W64
                0x000000000043fbd0                MEMORY_T::READUBYTE(double)
                0x000000000043fbf0                INS_ADC
                0x000000000043fcb0                INS_AND
                0x000000000043fd10                INS_CMP
                0x000000000043fda0                INS_CPX
                0x000000000043fe30                INS_CPY
                0x000000000043fec0                INS_EOR
                0x000000000043ff20                INS_LDA
                0x000000000043ff80                INS_LDX
                0x000000000043ffe0                INS_LDY
                0x0000000000440040                INS_ORA
                0x00000000004400a0                INS_SBC
                0x0000000000440160                MEMORY_T::READBYTE(double)
                0x0000000000440180                INS_BCC
                0x00000000004401f0                INS_BCS
                0x0000000000440260                INS_BEQ
                0x00000000004402d0                INS_BIT
                0x0000000000440310                INS_BMI
                0x0000000000440380                INS_BNE
                0x00000000004403f0                INS_BPL
                0x0000000000440460                INS_BVC
                0x00000000004404d0                INS_BVS
                0x0000000000440540                MEMORY_T::READUSHORT(double)
                0x00000000004405c0                MEMORY_T::WRITEBYTE(double, double)
                0x00000000004405d0                INS_INC
                0x00000000004406a0                INS_STY
                0x00000000004406d0                INS_STX
                0x0000000000440700                INS_STA
                0x0000000000440730                INS_ROR
                0x0000000000440900                INS_ROL
                0x00000000004409e0                INS_LSR
                0x0000000000440a90                INS_DEC
                0x0000000000440b20                INS_ASL
                0x0000000000440bc0                MEMORY_T::WRITEUBYTE(double, double)
                0x0000000000440bd0                MEMORY_T::WRITEUSHORT(double, double)
                0x0000000000440c50                CPU6510::CPU6510(MEMORY_T*)
                0x0000000000440d90                C64_T::C64_T()
                0x0000000000440f60                CPU6510::~CPU6510()
                0x0000000000440fc0                C64_T::~C64_T()
                0x0000000000441030                CPU6510::operator FBSTRING()
                0x0000000000441700                CPU6510::ADR_UNK()
                0x0000000000441720                CPU6510::ADR_IMM()
                0x0000000000441750                CPU6510::ADR_REL()
                0x0000000000441760                CPU6510::ADR_ABS()
                0x00000000004417b0                CPU6510::ADR_ZERO()
                0x0000000000441800                CPU6510::ADR_ZEROX()
                0x0000000000441860                CPU6510::ADR_ZEROY()
                0x00000000004418c0                CPU6510::ADR_ABSX()
                0x0000000000441920                CPU6510::ADR_ABSY()
                0x0000000000441980                CPU6510::ADR_INDX()
                0x00000000004419f0                CPU6510::ADR_INDY()
                0x0000000000441a60                CPU6510::ADR_IND()
                0x0000000000441ac0                CPU6510::TICK(double)
                0x0000000000441c70                CPU6510::PUSH(double)
                0x0000000000441cb0                INS_BRK
                0x0000000000441d30                INS_JSR
                0x0000000000441d70                INS_PHA
                0x0000000000441d90                INS_PHP
                0x0000000000441da0                CPU6510::PULL()
                0x0000000000441df0                INS_PLA
                0x0000000000441e50                INS_PLP
                0x0000000000441e70                INS_RTI
                0x0000000000441ed0                INS_RTS
                0x0000000000441f20                INTERRUPTSERVICE
 *fill*         0x0000000000442694        0xc 
 .text          0x00000000004426a0      0x149 /usr/local/bin/../lib/freebasic/linux-x86_64/libfbgfx.a(gfx_access.o)
                0x00000000004426a0                fb_GfxLock
                0x0000000000442700                fb_GfxUnlock
                0x00000000004427b0                fb_GfxScreenPtr
 *fill*         0x00000000004427e9        0x7 
 .text          0x00000000004427f0     0x18e7 /usr/local/bin/../lib/freebasic/linux-x86_64/libfbgfx.a(gfx_bload.o)
                0x00000000004440c0                fb_GfxBload
                0x00000000004440d0                fb_GfxBloadQB
 *fill*         0x00000000004440d7        0x9 
 .text          0x00000000004440e0      0x9ca /usr/local/bin/../lib/freebasic/linux-x86_64/libfbgfx.a(gfx_circle.o)
                0x00000000004442b0                fb_GfxEllipse
 *fill*         0x0000000000444aaa        0x6 
 .text          0x0000000000444ab0      0x655 /usr/local/bin/../lib/freebasic/linux-x86_64/libfbgfx.a(gfx_control.o)
                0x0000000000444ab0                fb_GfxControl_s
                0x0000000000444c10                fb_GfxControl_i
 *fill*         0x0000000000445105        0xb 
 .text          0x0000000000445110      0x967 /usr/local/bin/../lib/freebasic/linux-x86_64/libfbgfx.a(gfx_core.o)
                0x00000000004452a0                fb_hPixelSetAlpha4
                0x0000000000445360                fb_hPostEvent_code_start
                0x0000000000445370                fb_hPostEvent
                0x00000000004453f0                fb_hPostEvent_code_end
                0x0000000000445400                fb_hSetPixelTransfer
                0x0000000000445470                fb_hTranslateCoord
                0x0000000000445540                fb_hFixRelative
                0x0000000000445600                fb_hFixCoordsOrder
                0x0000000000445630                fb_hSetupFuncs
                0x0000000000445780                fb_hPrepareTarget
                0x0000000000445970                fb_hGetContext
 *fill*         0x0000000000445a77        0x9 
 .text          0x0000000000445a80      0x74b /usr/local/bin/../lib/freebasic/linux-x86_64/libfbgfx.a(gfx_drawstring.o)
                0x0000000000445a80                fb_GfxDrawString
 *fill*         0x00000000004461cb        0x5 
 .text          0x00000000004461d0      0x2e1 /usr/local/bin/../lib/freebasic/linux-x86_64/libfbgfx.a(gfx_image.o)
                0x0000000000446420                fb_GfxImageCreate
                0x0000000000446460                fb_GfxImageCreateQB
                0x00000000004464a0                fb_GfxImageDestroy
 *fill*         0x00000000004464b1        0xf 
 .text          0x00000000004464c0      0x432 /usr/local/bin/../lib/freebasic/linux-x86_64/libfbgfx.a(gfx_image_convert.o)
                0x00000000004464c0                fb_image_convert_8to8
                0x00000000004464f0                fb_image_convert_8to16
                0x0000000000446550                fb_image_convert_8to32
                0x00000000004465b0                fb_image_convert_24to16
                0x0000000000446600                fb_image_convert_24to32
                0x0000000000446640                fb_image_convert_32to16
                0x0000000000446690                fb_image_convert_32to32
                0x00000000004466c0                fb_image_convert_24bgrto16
                0x0000000000446710                fb_image_convert_24bgrto32
                0x0000000000446740                fb_image_convert_32bgrto16
                0x0000000000446790                fb_image_convert_32bgrto32
                0x00000000004467b0                fb_GfxImageConvertRow
 *fill*         0x00000000004468f2        0xe 
 .text          0x0000000000446900       0xea /usr/local/bin/../lib/freebasic/linux-x86_64/libfbgfx.a(gfx_image_info.o)
                0x0000000000446900                fb_GfxImageInfo
 *fill*         0x00000000004469ea        0x6 
 .text          0x00000000004469f0      0x847 /usr/local/bin/../lib/freebasic/linux-x86_64/libfbgfx.a(gfx_line.o)
                0x0000000000446a40                fb_GfxDrawLine
                0x00000000004470a0                fb_GfxLine
 *fill*         0x0000000000447237        0x9 
 .text          0x0000000000447240      0xc7a /usr/local/bin/../lib/freebasic/linux-x86_64/libfbgfx.a(gfx_opengl.o)
                0x0000000000447240                fb_GfxGetGLProcAddress
                0x0000000000447270                fb_hGL_ExtensionSupported
                0x00000000004472c0                fb_hGL_SetState
                0x0000000000447300                fb_hGL_ImageCreate
                0x0000000000447440                fb_hGL_ScreenCreate
                0x0000000000447630                fb_hGL_ImageDestroy
                0x0000000000447650                fb_hGL_NormalizeParameters
                0x00000000004478d0                fb_hGL_Init
                0x0000000000447b80                fb_hGL_SetPalette
                0x0000000000447be0                fb_hGL_SetupProjection
 *fill*         0x0000000000447eba        0x6 
 .text          0x0000000000447ec0      0x3b8 /usr/local/bin/../lib/freebasic/linux-x86_64/libfbgfx.a(gfx_page.o)
                0x0000000000447ec0                fb_GfxFlip
                0x0000000000448110                fb_GfxPageCopy
                0x0000000000448120                fb_GfxPageSet
 *fill*         0x0000000000448278        0x8 
 .text          0x0000000000448280      0x646 /usr/local/bin/../lib/freebasic/linux-x86_64/libfbgfx.a(gfx_paint.o)
                0x00000000004483a0                fb_GfxPaint
 *fill*         0x00000000004488c6        0xa 
 .text          0x00000000004488d0      0x3f7 /usr/local/bin/../lib/freebasic/linux-x86_64/libfbgfx.a(gfx_palette.o)
                0x00000000004488d0                fb_hMakeColor
                0x0000000000448900                fb_hFixColor
                0x0000000000448940                fb_hRestorePalette
                0x00000000004489a0                fb_hSetPaletteColorRgb
                0x0000000000448a00                fb_hSetPaletteColor
                0x0000000000448ac0                fb_GfxPalette
 *fill*         0x0000000000448cc7        0x9 
 .text          0x0000000000448cd0      0x16c /usr/local/bin/../lib/freebasic/linux-x86_64/libfbgfx.a(gfx_pset.o)
                0x0000000000448cd0                fb_GfxPset
 *fill*         0x0000000000448e3c        0x4 
 .text          0x0000000000448e40      0x479 /usr/local/bin/../lib/freebasic/linux-x86_64/libfbgfx.a(gfx_put.o)
                0x0000000000448eb0                fb_GfxPut
 *fill*         0x00000000004492b9        0x7 
 .text          0x00000000004492c0      0x188 /usr/local/bin/../lib/freebasic/linux-x86_64/libfbgfx.a(gfx_put_alpha.o)
                0x00000000004493a0                fb_hPutAlpha
 *fill*         0x0000000000449448        0x8 
 .text          0x0000000000449450      0x178 /usr/local/bin/../lib/freebasic/linux-x86_64/libfbgfx.a(gfx_put_or.o)
                0x0000000000449450                fb_hPutOrC
                0x0000000000449520                fb_hPutOr
 *fill*         0x00000000004495c8        0x8 
 .text          0x00000000004495d0      0x108 /usr/local/bin/../lib/freebasic/linux-x86_64/libfbgfx.a(gfx_put_pset.o)
                0x00000000004495d0                fb_hPutPSetC
                0x0000000000449630                fb_hPutPSet
 *fill*         0x00000000004496d8        0x8 
 .text          0x00000000004496e0      0xe2e /usr/local/bin/../lib/freebasic/linux-x86_64/libfbgfx.a(gfx_screen.o)
                0x00000000004496e0                fb_GfxViewUpdate
                0x00000000004496f0                fb_hClearCharCells
                0x00000000004497e0                fb_hResetCharCells
                0x000000000044a290                fb_GfxScreen
                0x000000000044a370                fb_GfxScreenQB
                0x000000000044a3d0                fb_GfxScreenRes
                0x000000000044a490                fb_GfxSetWindowTitle
 *fill*         0x000000000044a50e        0x2 
 .text          0x000000000044a510       0xc1 /usr/local/bin/../lib/freebasic/linux-x86_64/libfbgfx.a(gfx_screeninfo.o)
                0x000000000044a510                fb_GfxScreenInfo
 *fill*         0x000000000044a5d1        0xf 
 .text          0x000000000044a5e0      0x26d /usr/local/bin/../lib/freebasic/linux-x86_64/libfbgfx.a(gfx_screenlist.o)
                0x000000000044a620                fb_GfxScreenList
 *fill*         0x000000000044a84d        0x3 
 .text          0x000000000044a850       0x7a /usr/local/bin/../lib/freebasic/linux-x86_64/libfbgfx.a(gfx_setmouse.o)
                0x000000000044a850                fb_GfxSetMouse
 *fill*         0x000000000044a8ca        0x6 
 .text          0x000000000044a8d0       0x58 /usr/local/bin/../lib/freebasic/linux-x86_64/libfbgfx.a(gfx_sleep.o)
                0x000000000044a8d0                fb_GfxSleep
 *fill*         0x000000000044a928        0x8 
 .text          0x000000000044a930       0x6f /usr/local/bin/../lib/freebasic/linux-x86_64/libfbgfx.a(gfx_unix.o)
                0x000000000044a930                fb_hScreenInfo
 .text          0x000000000044a99f        0x0 /usr/local/bin/../lib/freebasic/linux-x86_64/libfbgfx.a(gfx_vars.o)
 *fill*         0x000000000044a99f        0x1 
 .text          0x000000000044a9a0      0x2b3 /usr/local/bin/../lib/freebasic/linux-x86_64/libfbgfx.a(gfx_vgaemu.o)
                0x000000000044a9a0                fb_GfxIn
                0x000000000044aa50                fb_GfxOut
 *fill*         0x000000000044ac53        0xd 
 .text          0x000000000044ac60      0x12c /usr/local/bin/../lib/freebasic/linux-x86_64/libfbgfx.a(gfx_width.o)
                0x000000000044ac60                fb_GfxWidth
 *fill*         0x000000000044ad8c        0x4 
 .text          0x000000000044ad90     0x2348 /usr/local/bin/../lib/freebasic/linux-x86_64/libfbgfx.a(gfx_x11.o)
                0x000000000044b5b0                fb_hX11EnterFullscreen
                0x000000000044b720                fb_hX11LeaveFullscreen
                0x000000000044b820                WaitMapped
                0x000000000044b8a0                fb_hX11InitWindow
                0x000000000044bb90                fb_hXlibInit
                0x000000000044bbc0                fb_hX11Init
                0x000000000044c5d0                fb_hX11Exit
                0x000000000044c800                fb_hX11Lock
                0x000000000044c820                fb_hX11Unlock
                0x000000000044c840                fb_hX11SetPalette
                0x000000000044c8d0                fb_hX11WaitVSync
                0x000000000044c8f0                fb_hX11GetMouse
                0x000000000044ca10                fb_hX11SetMouse
                0x000000000044cc10                fb_hX11SetWindowTitle
                0x000000000044cc30                fb_hX11SetWindowPos
                0x000000000044ce30                fb_hX11FetchModes
                0x000000000044cf80                fb_hX11ScreenInfo
                0x000000000044d0b0                fb_hGetWindowHandle
                0x000000000044d0d0                fb_hGetDisplayHandle
 .text          0x000000000044d0d8        0x0 /usr/local/bin/../lib/freebasic/linux-x86_64/libfbgfx.a(gfx_x11_icon_stub.o)
 *fill*         0x000000000044d0d8        0x8 
 .text          0x000000000044d0e0      0x5cb /usr/local/bin/../lib/freebasic/linux-x86_64/libfbgfx.a(gfx_box.o)
                0x000000000044d0e0                fb_hGfxBox
 *fill*         0x000000000044d6ab        0x5 
 .text          0x000000000044d6b0      0x28e /usr/local/bin/../lib/freebasic/linux-x86_64/libfbgfx.a(gfx_cls.o)
                0x000000000044d6b0                fb_GfxClear
 *fill*         0x000000000044d93e        0x2 
 .text          0x000000000044d940      0x1ff /usr/local/bin/../lib/freebasic/linux-x86_64/libfbgfx.a(gfx_color.o)
                0x000000000044d940                fb_GfxColor
 *fill*         0x000000000044db3f        0x1 
 .text          0x000000000044db40       0x65 /usr/local/bin/../lib/freebasic/linux-x86_64/libfbgfx.a(gfx_data.o)
                0x000000000044db40                fb_hSetupData
 *fill*         0x000000000044dba5        0xb 
 .text          0x000000000044dbb0     0x192d /usr/local/bin/../lib/freebasic/linux-x86_64/libfbgfx.a(gfx_driver_fbdev.o)
                0x000000000044e9c0                fb_hFBDevInfo
 *fill*         0x000000000044f4dd        0x3 
 .text          0x000000000044f4e0        0x1 /usr/local/bin/../lib/freebasic/linux-x86_64/libfbgfx.a(gfx_driver_null.o)
 *fill*         0x000000000044f4e1        0xf 
 .text          0x000000000044f4f0      0x7db /usr/local/bin/../lib/freebasic/linux-x86_64/libfbgfx.a(gfx_driver_opengl_x11.o)
                0x000000000044fc70                fb_hGL_GetProcAddress
 *fill*         0x000000000044fccb        0x5 
 .text          0x000000000044fcd0      0xb31 /usr/local/bin/../lib/freebasic/linux-x86_64/libfbgfx.a(gfx_driver_x11.o)
                0x0000000000450790                fb_hX11WaitUnmapped
 *fill*         0x0000000000450801        0xf 
 .text          0x0000000000450810       0xfe /usr/local/bin/../lib/freebasic/linux-x86_64/libfbgfx.a(gfx_getmouse.o)
                0x0000000000450810                fb_GfxGetMouse
 *fill*         0x000000000045090e        0x2 
 .text          0x0000000000450910      0x213 /usr/local/bin/../lib/freebasic/linux-x86_64/libfbgfx.a(gfx_inkey.o)
                0x0000000000450910                fb_hGfxInputBufferChanged
                0x0000000000450940                fb_hPostKey
                0x0000000000450980                fb_GfxGetkey
                0x0000000000450a40                fb_GfxKeyHit
                0x0000000000450a70                fb_GfxInkey
                0x0000000000450b20                fb_GfxIsRedir
 *fill*         0x0000000000450b23        0xd 
 .text          0x0000000000450b30       0xbe /usr/local/bin/../lib/freebasic/linux-x86_64/libfbgfx.a(gfx_lineinp.o)
                0x0000000000450b30                fb_GfxLineInput
 *fill*         0x0000000000450bee        0x2 
 .text          0x0000000000450bf0       0xa2 /usr/local/bin/../lib/freebasic/linux-x86_64/libfbgfx.a(gfx_lineinp_wstr.o)
                0x0000000000450bf0                fb_GfxLineInputWstr
 *fill*         0x0000000000450c92        0xe 
 .text          0x0000000000450ca0      0x249 /usr/local/bin/../lib/freebasic/linux-x86_64/libfbgfx.a(gfx_lzw.o)
                0x0000000000450ca0                fb_hDecode
 *fill*         0x0000000000450ee9        0x7 
 .text          0x0000000000450ef0       0x61 /usr/local/bin/../lib/freebasic/linux-x86_64/libfbgfx.a(gfx_multikey.o)
                0x0000000000450ef0                fb_GfxMultikey
 *fill*         0x0000000000450f51        0xf 
 .text          0x0000000000450f60      0x929 /usr/local/bin/../lib/freebasic/linux-x86_64/libfbgfx.a(gfx_print.o)
                0x00000000004514e0                fb_GfxPrintBufferEx
                0x0000000000451730                fb_GfxPrintBuffer
                0x0000000000451760                fb_GfxLocateRaw
                0x00000000004517a0                fb_GfxLocate
                0x0000000000451810                fb_GfxGetX
                0x0000000000451820                fb_GfxGetY
                0x0000000000451830                fb_GfxGetXY
                0x0000000000451860                fb_GfxGetSize
 *fill*         0x0000000000451889        0x7 
 .text          0x0000000000451890      0x105 /usr/local/bin/../lib/freebasic/linux-x86_64/libfbgfx.a(gfx_print_wstr.o)
                0x0000000000451890                fb_GfxPrintBufferWstrEx
                0x0000000000451910                fb_GfxPrintBufferWstr
 *fill*         0x0000000000451995        0xb 
 .text          0x00000000004519a0      0x205 /usr/local/bin/../lib/freebasic/linux-x86_64/libfbgfx.a(gfx_readstr.o)
                0x00000000004519a0                fb_GfxReadStr
 *fill*         0x0000000000451ba5        0xb 
 .text          0x0000000000451bb0      0x141 /usr/local/bin/../lib/freebasic/linux-x86_64/libfbgfx.a(gfx_readxy.o)
                0x0000000000451bb0                fb_GfxReadXY
 *fill*         0x0000000000451cf1        0xf 
 .text          0x0000000000451d00      0x451 /usr/local/bin/../lib/freebasic/linux-x86_64/libfbgfx.a(gfx_softcursor.o)
                0x0000000000451dc0                fb_hSoftCursor_code_start
                0x0000000000451dd0                fb_hColorDistance
                0x0000000000451e10                fb_hSoftCursorInit
                0x0000000000451e80                fb_hSoftCursorExit
                0x0000000000451e90                fb_hSoftCursorPut
                0x0000000000452030                fb_hSoftCursorUnput
                0x0000000000452070                fb_hSoftCursorPaletteChanged
                0x0000000000452150                fb_hSoftCursor_code_end
 *fill*         0x0000000000452151        0xf 
 .text          0x0000000000452160      0x23f /usr/local/bin/../lib/freebasic/linux-x86_64/libfbgfx.a(gfx_view.o)
                0x0000000000452160                fb_GfxView
 *fill*         0x000000000045239f        0x1 
 .text          0x00000000004523a0     0x1861 /usr/local/bin/../lib/freebasic/linux-x86_64/libfbgfx.a(gfx_blitter.o)
                0x0000000000453910                fb_hBlit_code_start
                0x0000000000453920                fb_hGetBlitter
                0x0000000000453c00                fb_hBlit_code_end
 *fill*         0x0000000000453c01        0xf 
 .text          0x0000000000453c10       0x99 /usr/local/bin/../lib/freebasic/linux-x86_64/libfb.a(array_destructstr.o)
                0x0000000000453c10                fb_hArrayDtorStr
                0x0000000000453ca0                fb_ArrayDestructStr
 *fill*         0x0000000000453ca9        0x7 
 .text          0x0000000000453cb0       0x97 /usr/local/bin/../lib/freebasic/linux-x86_64/libfb.a(con_input.o)
                0x0000000000453cb0                fb_ConsoleInput
 *fill*         0x0000000000453d47        0x9 
 .text          0x0000000000453d50       0x66 /usr/local/bin/../lib/freebasic/linux-x86_64/libfb.a(con_locate.o)
                0x0000000000453d50                fb_Locate
 *fill*         0x0000000000453db6        0xa 
 .text          0x0000000000453dc0      0x30f /usr/local/bin/../lib/freebasic/linux-x86_64/libfb.a(con_print_tty.o)
                0x0000000000453dc0                fb_ConPrintTTY
 *fill*         0x00000000004540cf        0x1 
 .text          0x00000000004540d0      0x897 /usr/local/bin/../lib/freebasic/linux-x86_64/libfb.a(con_readline.o)
                0x0000000000454170                fb_ConReadLine
 *fill*         0x0000000000454967        0x9 
 .text          0x0000000000454970       0x8c /usr/local/bin/../lib/freebasic/linux-x86_64/libfb.a(data.o)
                0x0000000000454970                fb_DataRestore
                0x00000000004549b0                fb_DataNext
 *fill*         0x00000000004549fc        0x4 
 .text          0x0000000000454a00       0x6c /usr/local/bin/../lib/freebasic/linux-x86_64/libfb.a(data_readlong.o)
                0x0000000000454a00                fb_DataReadLongint
 *fill*         0x0000000000454a6c        0x4 
 .text          0x0000000000454a70       0x6f /usr/local/bin/../lib/freebasic/linux-x86_64/libfb.a(data_readstr.o)
                0x0000000000454a70                fb_DataReadStr
 *fill*         0x0000000000454adf        0x1 
 .text          0x0000000000454ae0       0x6c /usr/local/bin/../lib/freebasic/linux-x86_64/libfb.a(data_readulong.o)
                0x0000000000454ae0                fb_DataReadULongint
 *fill*         0x0000000000454b4c        0x4 
 .text          0x0000000000454b50      0x224 /usr/local/bin/../lib/freebasic/linux-x86_64/libfb.a(dev_scrn_init.o)
                0x0000000000454b50                fb_DevScrnUpdateWidth
                0x0000000000454bb0                fb_DevScrnMaybeUpdateWidth
                0x0000000000454c10                fb_DevScrnInit_Screen
                0x0000000000454c80                fb_DevScrnEnd
                0x0000000000454ca0                fb_DevScrnInit_NoOpen
 *fill*         0x0000000000454d74        0xc 
 .text          0x0000000000454d80      0x13e /usr/local/bin/../lib/freebasic/linux-x86_64/libfb.a(dev_scrn_read.o)
                0x0000000000454d80                fb_DevScrnRead
                0x0000000000454e70                fb_DevScrnInit_Read
 *fill*         0x0000000000454ebe        0x2 
 .text          0x0000000000454ec0       0xdd /usr/local/bin/../lib/freebasic/linux-x86_64/libfb.a(error_getset.o)
                0x0000000000454ec0                fb_ErrorGetNum
                0x0000000000454ee0                fb_ErrorSetNum
                0x0000000000454f00                fb_ErrorGetLineNum
                0x0000000000454f20                fb_ErrorGetModName
                0x0000000000454f40                fb_ErrorSetModName
                0x0000000000454f60                fb_ErrorGetFuncName
                0x0000000000454f80                fb_ErrorSetFuncName
 *fill*         0x0000000000454f9d        0x3 
 .text          0x0000000000454fa0       0xc4 /usr/local/bin/../lib/freebasic/linux-x86_64/libfb.a(file_close.o)
                0x0000000000454fa0                fb_FileCloseEx
                0x0000000000455000                fb_FileClose
                0x0000000000455050                fb_FileCloseAll
 *fill*         0x0000000000455064        0xc 
 .text          0x0000000000455070       0xa6 /usr/local/bin/../lib/freebasic/linux-x86_64/libfb.a(file_eof.o)
                0x0000000000455070                fb_FileEofEx
                0x00000000004550a0                fb_FileEof
 *fill*         0x0000000000455116        0xa 
 .text          0x0000000000455120       0x37 /usr/local/bin/../lib/freebasic/linux-x86_64/libfb.a(file_free.o)
                0x0000000000455120                fb_FileFree
 *fill*         0x0000000000455157        0x9 
 .text          0x0000000000455160      0x596 /usr/local/bin/../lib/freebasic/linux-x86_64/libfb.a(file_get.o)
                0x0000000000455160                fb_FileGetDataEx
                0x0000000000455520                fb_FileGetData
                0x0000000000455580                fb_FileGet
                0x00000000004555e0                fb_FileGetLarge
                0x0000000000455640                fb_FileGetIOB
                0x00000000004556a0                fb_FileGetLargeIOB
 *fill*         0x00000000004556f6        0xa 
 .text          0x0000000000455700       0x2b /usr/local/bin/../lib/freebasic/linux-x86_64/libfb.a(file_hconvpath.o)
                0x0000000000455700                fb_hConvertPath
 *fill*         0x000000000045572b        0x5 
 .text          0x0000000000455730       0xa9 /usr/local/bin/../lib/freebasic/linux-x86_64/libfb.a(file_input_file.o)
                0x0000000000455730                fb_FileInput
 *fill*         0x00000000004557d9        0x7 
 .text          0x00000000004557e0       0x84 /usr/local/bin/../lib/freebasic/linux-x86_64/libfb.a(file_input_str.o)
                0x00000000004557e0                fb_InputString
 *fill*         0x0000000000455864        0xc 
 .text          0x0000000000455870      0x447 /usr/local/bin/../lib/freebasic/linux-x86_64/libfb.a(file_input_tok.o)
                0x0000000000455930                fb_FileInputNextToken
 *fill*         0x0000000000455cb7        0x9 
 .text          0x0000000000455cc0      0x331 /usr/local/bin/../lib/freebasic/linux-x86_64/libfb.a(file_lineinp.o)
                0x0000000000455fb0                fb_FileLineInput
 *fill*         0x0000000000455ff1        0xf 
 .text          0x0000000000456000       0x7a /usr/local/bin/../lib/freebasic/linux-x86_64/libfb.a(file_open.o)
                0x0000000000456000                fb_FileOpenEx
                0x0000000000456020                fb_FileOpen
 *fill*         0x000000000045607a        0x6 
 .text          0x0000000000456080      0x3f9 /usr/local/bin/../lib/freebasic/linux-x86_64/libfb.a(file_put.o)
                0x00000000004562d0                fb_FilePutDataEx
                0x0000000000456300                fb_FilePutData
                0x0000000000456380                fb_FilePut
                0x0000000000456400                fb_FilePutLarge
 *fill*         0x0000000000456479        0x7 
 .text          0x0000000000456480      0x141 /usr/local/bin/../lib/freebasic/linux-x86_64/libfb.a(file_putback.o)
                0x0000000000456480                fb_FilePutBackEx
                0x0000000000456580                fb_FilePutBack
 *fill*         0x00000000004565c1        0xf 
 .text          0x00000000004565d0       0x62 /usr/local/bin/../lib/freebasic/linux-x86_64/libfb.a(file_reset.o)
                0x00000000004565d0                fb_FileReset
 *fill*         0x0000000000456632        0xe 
 .text          0x0000000000456640      0x179 /usr/local/bin/../lib/freebasic/linux-x86_64/libfb.a(file_seek.o)
                0x0000000000456640                fb_FileSeekEx
                0x0000000000456690                fb_FileSeek
                0x0000000000456730                fb_FileSeekLarge
 *fill*         0x00000000004567b9        0x7 
 .text          0x00000000004567c0       0xf1 /usr/local/bin/../lib/freebasic/linux-x86_64/libfb.a(file_size.o)
                0x00000000004567c0                fb_FileSizeEx
                0x0000000000456870                fb_FileSize
 *fill*         0x00000000004568b1        0xf 
 .text          0x00000000004568c0      0x12a /usr/local/bin/../lib/freebasic/linux-x86_64/libfb.a(hdynload.o)
                0x00000000004568c0                fb_hDynLoad
                0x0000000000456970                fb_hDynLoadAlso
                0x00000000004569d0                fb_hDynUnload
 *fill*         0x00000000004569ea        0x6 
 .text          0x00000000004569f0       0x39 /usr/local/bin/../lib/freebasic/linux-x86_64/libfb.a(hook_cls.o)
                0x00000000004569f0                fb_Cls
 *fill*         0x0000000000456a29        0x7 
 .text          0x0000000000456a30       0x96 /usr/local/bin/../lib/freebasic/linux-x86_64/libfb.a(hook_getmouse64.o)
                0x0000000000456a30                fb_GetMouse64
 *fill*         0x0000000000456ac6        0xa 
 .text          0x0000000000456ad0       0x15 /usr/local/bin/../lib/freebasic/linux-x86_64/libfb.a(hook_getsize.o)
                0x0000000000456ad0                fb_GetSize
 *fill*         0x0000000000456ae5        0xb 
 .text          0x0000000000456af0       0x15 /usr/local/bin/../lib/freebasic/linux-x86_64/libfb.a(hook_getx.o)
                0x0000000000456af0                fb_GetX
 *fill*         0x0000000000456b05        0xb 
 .text          0x0000000000456b10       0x15 /usr/local/bin/../lib/freebasic/linux-x86_64/libfb.a(hook_getxy.o)
                0x0000000000456b10                fb_GetXY
 *fill*         0x0000000000456b25        0xb 
 .text          0x0000000000456b30       0x55 /usr/local/bin/../lib/freebasic/linux-x86_64/libfb.a(hook_inkey.o)
                0x0000000000456b30                fb_Inkey
                0x0000000000456b50                fb_Getkey
                0x0000000000456b70                fb_KeyHit
 *fill*         0x0000000000456b85        0xb 
 .text          0x0000000000456b90       0x15 /usr/local/bin/../lib/freebasic/linux-x86_64/libfb.a(hook_isredir.o)
                0x0000000000456b90                fb_IsRedirected
 *fill*         0x0000000000456ba5        0xb 
 .text          0x0000000000456bb0       0x15 /usr/local/bin/../lib/freebasic/linux-x86_64/libfb.a(hook_lineinp.o)
                0x0000000000456bb0                fb_LineInput
 *fill*         0x0000000000456bc5        0xb 
 .text          0x0000000000456bd0       0xdc /usr/local/bin/../lib/freebasic/linux-x86_64/libfb.a(hook_locate_ex.o)
                0x0000000000456bd0                fb_LocateEx
 *fill*         0x0000000000456cac        0x4 
 .text          0x0000000000456cb0       0x5d /usr/local/bin/../lib/freebasic/linux-x86_64/libfb.a(hook_pageset.o)
                0x0000000000456cb0                fb_PageSet
 *fill*         0x0000000000456d0d        0x3 
 .text          0x0000000000456d10       0x61 /usr/local/bin/../lib/freebasic/linux-x86_64/libfb.a(hook_pcopy.o)
                0x0000000000456d10                fb_PageCopy
 *fill*         0x0000000000456d71        0xf 
 .text          0x0000000000456d80       0x5c /usr/local/bin/../lib/freebasic/linux-x86_64/libfb.a(hook_printstr.o)
                0x0000000000456d80                fb_PrintBufferEx
                0x0000000000456da0                fb_PrintBuffer
 *fill*         0x0000000000456ddc        0x4 
 .text          0x0000000000456de0       0x15 /usr/local/bin/../lib/freebasic/linux-x86_64/libfb.a(hook_sleep.o)
                0x0000000000456de0                fb_Sleep
 *fill*         0x0000000000456df5        0xb 
 .text          0x0000000000456e00       0x57 /usr/local/bin/../lib/freebasic/linux-x86_64/libfb.a(hook_width.o)
                0x0000000000456e00                fb_Width
 *fill*         0x0000000000456e57        0x9 
 .text          0x0000000000456e60       0xe8 /usr/local/bin/../lib/freebasic/linux-x86_64/libfb.a(init.o)
                0x0000000000456e60                fb_hRtInit
                0x0000000000456eb0                fb_hRtExit
                0x0000000000456f10                fb_Init
                0x0000000000456f30                fb_End
 *fill*         0x0000000000456f48        0x8 
 .text          0x0000000000456f50      0x15c /usr/local/bin/../lib/freebasic/linux-x86_64/libfb.a(io_cls.o)
                0x0000000000456f50                fb_ConsoleClear
 *fill*         0x00000000004570ac        0x4 
 .text          0x00000000004570b0       0x6e /usr/local/bin/../lib/freebasic/linux-x86_64/libfb.a(io_getsize.o)
                0x00000000004570b0                fb_ConsoleGetSize
 *fill*         0x000000000045711e        0x2 
 .text          0x0000000000457120       0x3e /usr/local/bin/../lib/freebasic/linux-x86_64/libfb.a(io_getx.o)
                0x0000000000457120                fb_ConsoleGetX
 *fill*         0x000000000045715e        0x2 
 .text          0x0000000000457160       0x6e /usr/local/bin/../lib/freebasic/linux-x86_64/libfb.a(io_getxy.o)
                0x0000000000457160                fb_ConsoleGetXY
 *fill*         0x00000000004571ce        0x2 
 .text          0x00000000004571d0       0x2c /usr/local/bin/../lib/freebasic/linux-x86_64/libfb.a(io_hinkey.o)
                0x00000000004571d0                fb_hMakeInkeyStr
 *fill*         0x00000000004571fc        0x4 
 .text          0x0000000000457200      0x47e /usr/local/bin/../lib/freebasic/linux-x86_64/libfb.a(io_inkey.o)
                0x00000000004573f0                fb_hAddCh
                0x0000000000457450                fb_hGetCh
                0x00000000004574c0                fb_ConsoleInkey
                0x0000000000457550                fb_ConsoleGetkey
                0x0000000000457610                fb_ConsoleKeyHit
 *fill*         0x000000000045767e        0x2 
 .text          0x0000000000457680       0x30 /usr/local/bin/../lib/freebasic/linux-x86_64/libfb.a(io_isredir.o)
                0x0000000000457680                fb_ConsoleIsRedirected
 .text          0x00000000004576b0      0x142 /usr/local/bin/../lib/freebasic/linux-x86_64/libfb.a(io_locate.o)
                0x00000000004576b0                fb_ConsoleLocate
 *fill*         0x00000000004577f2        0xe 
 .text          0x0000000000457800       0x36 /usr/local/bin/../lib/freebasic/linux-x86_64/libfb.a(io_maxrow.o)
                0x0000000000457800                fb_ConsoleGetMaxRow
 *fill*         0x0000000000457836        0xa 
 .text          0x0000000000457840      0xa39 /usr/local/bin/../lib/freebasic/linux-x86_64/libfb.a(io_multikey.o)
                0x0000000000458110                fb_ConsoleMultikey
                0x0000000000458190                fb_hConsoleGfxMode
 *fill*         0x0000000000458279        0x7 
 .text          0x0000000000458280        0x6 /usr/local/bin/../lib/freebasic/linux-x86_64/libfb.a(io_pageset.o)
                0x0000000000458280                fb_ConsolePageSet
 *fill*         0x0000000000458286        0xa 
 .text          0x0000000000458290        0xa /usr/local/bin/../lib/freebasic/linux-x86_64/libfb.a(io_pcopy.o)
                0x0000000000458290                fb_ConsolePageCopy
 *fill*         0x000000000045829a        0x6 
 .text          0x00000000004582a0       0xa1 /usr/local/bin/../lib/freebasic/linux-x86_64/libfb.a(io_print.o)
                0x00000000004582a0                fb_PrintStringEx
                0x0000000000458300                fb_PrintString
 *fill*         0x0000000000458341        0xf 
 .text          0x0000000000458350       0xea /usr/local/bin/../lib/freebasic/linux-x86_64/libfb.a(io_print_fix.o)
                0x0000000000458350                fb_PrintFixStringEx
                0x00000000004583a0                fb_PrintFixString
 *fill*         0x000000000045843a        0x6 
 .text          0x0000000000458440       0xea /usr/local/bin/../lib/freebasic/linux-x86_64/libfb.a(io_print_wstr.o)
                0x0000000000458440                fb_PrintWstrEx
                0x0000000000458490                fb_PrintWstr
 *fill*         0x000000000045852a        0x6 
 .text          0x0000000000458530      0x271 /usr/local/bin/../lib/freebasic/linux-x86_64/libfb.a(io_printbuff.o)
                0x0000000000458720                fb_ConsolePrintBufferEx
                0x0000000000458760                fb_ConsolePrintBuffer
 *fill*         0x00000000004587a1        0xf 
 .text          0x00000000004587b0       0xeb /usr/local/bin/../lib/freebasic/linux-x86_64/libfb.a(io_printvoid.o)
                0x00000000004587b0                fb_PrintVoidEx
                0x0000000000458800                fb_PrintVoid
 *fill*         0x000000000045889b        0x5 
 .text          0x00000000004588a0       0xeb /usr/local/bin/../lib/freebasic/linux-x86_64/libfb.a(io_printvoid_wstr.o)
                0x00000000004588a0                fb_PrintVoidWstrEx
                0x00000000004588f0                fb_PrintVoidWstr
 *fill*         0x000000000045898b        0x5 
 .text          0x0000000000458990        0xa /usr/local/bin/../lib/freebasic/linux-x86_64/libfb.a(io_setpos.o)
                0x0000000000458990                fb_SetPos
 *fill*         0x000000000045899a        0x6 
 .text          0x00000000004589a0      0x13a /usr/local/bin/../lib/freebasic/linux-x86_64/libfb.a(io_view.o)
                0x00000000004589a0                fb_ConsoleViewEx
                0x0000000000458ad0                fb_ConsoleView
 *fill*         0x0000000000458ada        0x6 
 .text          0x0000000000458ae0      0x10b /usr/local/bin/../lib/freebasic/linux-x86_64/libfb.a(io_viewhlp.o)
                0x0000000000458ae0                fb_ConsoleGetTopRow
                0x0000000000458b00                fb_ConsoleGetBotRow
                0x0000000000458b50                fb_ConsoleSetTopBotRows
                0x0000000000458b60                fb_ConsoleGetView
 *fill*         0x0000000000458beb        0x5 
 .text          0x0000000000458bf0       0x95 /usr/local/bin/../lib/freebasic/linux-x86_64/libfb.a(io_width.o)
                0x0000000000458bf0                fb_ConsoleWidth
 *fill*         0x0000000000458c85        0xb 
 .text          0x0000000000458c90      0x177 /usr/local/bin/../lib/freebasic/linux-x86_64/libfb.a(io_xfocus.o)
                0x0000000000458c90                fb_hXTermInitFocus
                0x0000000000458d70                fb_hXTermExitFocus
                0x0000000000458db0                fb_hXTermHasFocus
 *fill*         0x0000000000458e07        0x9 
 .text          0x0000000000458e10       0x15 /usr/local/bin/../lib/freebasic/linux-x86_64/libfb.a(scancodes.o)
                0x0000000000458e10                fb_hScancodeToExtendedKey
 *fill*         0x0000000000458e25        0xb 
 .text          0x0000000000458e30      0x120 /usr/local/bin/../lib/freebasic/linux-x86_64/libfb.a(scancodes_x11.o)
                0x0000000000458e30                fb_hInitX11KeycodeToScancodeTb
 .text          0x0000000000458f50       0x58 /usr/local/bin/../lib/freebasic/linux-x86_64/libfb.a(str_asc.o)
                0x0000000000458f50                fb_ASC
 *fill*         0x0000000000458fa8        0x8 
 .text          0x0000000000458fb0      0x27b /usr/local/bin/../lib/freebasic/linux-x86_64/libfb.a(str_assign.o)
                0x0000000000458fb0                fb_StrAssignEx
                0x0000000000459210                fb_StrAssign
                0x0000000000459220                fb_StrInit
 *fill*         0x000000000045922b        0x5 
 .text          0x0000000000459230       0xde /usr/local/bin/../lib/freebasic/linux-x86_64/libfb.a(str_chr.o)
                0x0000000000459230                fb_CHR
 *fill*         0x000000000045930e        0x2 
 .text          0x0000000000459310      0x189 /usr/local/bin/../lib/freebasic/linux-x86_64/libfb.a(str_comp.o)
                0x0000000000459310                fb_StrCompare
 *fill*         0x0000000000459499        0x7 
 .text          0x00000000004594a0      0x176 /usr/local/bin/../lib/freebasic/linux-x86_64/libfb.a(str_concat.o)
                0x00000000004594a0                fb_StrConcat
 *fill*         0x0000000000459616        0xa 
 .text          0x0000000000459620      0x14c /usr/local/bin/../lib/freebasic/linux-x86_64/libfb.a(str_concatassign.o)
                0x0000000000459620                fb_StrConcatAssign
 *fill*         0x000000000045976c        0x4 
 .text          0x0000000000459770      0x1b5 /usr/local/bin/../lib/freebasic/linux-x86_64/libfb.a(str_convfrom.o)
                0x0000000000459770                fb_hStr2Double
                0x00000000004598d0                fb_VAL
 *fill*         0x0000000000459925        0xb 
 .text          0x0000000000459930      0x11e /usr/local/bin/../lib/freebasic/linux-x86_64/libfb.a(str_convfrom_lng.o)
                0x0000000000459930                fb_hStr2Longint
                0x00000000004599f0                fb_VALLNG
 *fill*         0x0000000000459a4e        0x2 
 .text          0x0000000000459a50       0xd5 /usr/local/bin/../lib/freebasic/linux-x86_64/libfb.a(str_convfrom_radlng.o)
                0x0000000000459a50                fb_hStrRadix2Longint
 *fill*         0x0000000000459b25        0xb 
 .text          0x0000000000459b30      0x11e /usr/local/bin/../lib/freebasic/linux-x86_64/libfb.a(str_convfrom_ulng.o)
                0x0000000000459b30                fb_hStr2ULongint
                0x0000000000459bf0                fb_VALULNG
 *fill*         0x0000000000459c4e        0x2 
 .text          0x0000000000459c50       0xd9 /usr/local/bin/../lib/freebasic/linux-x86_64/libfb.a(str_convto.o)
                0x0000000000459c50                fb_IntToStr
                0x0000000000459cc0                fb_UIntToStr
 *fill*         0x0000000000459d29        0x7 
 .text          0x0000000000459d30      0x134 /usr/local/bin/../lib/freebasic/linux-x86_64/libfb.a(str_convto_flt.o)
                0x0000000000459d30                fb_FloatToStr
                0x0000000000459dd0                fb_DoubleToStr
 *fill*         0x0000000000459e64        0xc 
 .text          0x0000000000459e70       0xd9 /usr/local/bin/../lib/freebasic/linux-x86_64/libfb.a(str_convto_lng.o)
                0x0000000000459e70                fb_LongintToStr
                0x0000000000459ee0                fb_ULongintToStr
 *fill*         0x0000000000459f49        0x7 
 .text          0x0000000000459f50      0x5b4 /usr/local/bin/../lib/freebasic/linux-x86_64/libfb.a(str_core.o)
                0x0000000000459f50                fb_hStrAllocTmpDesc
                0x0000000000459fc0                fb_hStrDelTempDesc
                0x000000000045a020                fb_hStrAlloc
                0x000000000045a080                fb_hStrRealloc
                0x000000000045a190                fb_hStrAllocTemp_NoLock
                0x000000000045a2c0                fb_hStrAllocTemp
                0x000000000045a3f0                fb_hStrDelTemp_NoLock
                0x000000000045a460                fb_hStrDelTemp
                0x000000000045a4d0                fb_hStrCopy
 *fill*         0x000000000045a504        0xc 
 .text          0x000000000045a510       0x31 /usr/local/bin/../lib/freebasic/linux-x86_64/libfb.a(str_del.o)
                0x000000000045a510                fb_StrDelete
 *fill*         0x000000000045a541        0xf 
 .text          0x000000000045a550       0xe2 /usr/local/bin/../lib/freebasic/linux-x86_64/libfb.a(str_fill.o)
                0x000000000045a550                fb_StrFill1
                0x000000000045a5b0                fb_StrFill2
 *fill*         0x000000000045a632        0xe 
 .text          0x000000000045a640       0x57 /usr/local/bin/../lib/freebasic/linux-x86_64/libfb.a(str_hex.o)
                0x000000000045a640                fb_HEX_b
                0x000000000045a650                fb_HEX_s
                0x000000000045a660                fb_HEX_i
                0x000000000045a670                fb_HEXEx_b
                0x000000000045a680                fb_HEXEx_s
                0x000000000045a690                fb_HEXEx_i
 *fill*         0x000000000045a697        0x9 
 .text          0x000000000045a6a0       0xc7 /usr/local/bin/../lib/freebasic/linux-x86_64/libfb.a(str_hex_lng.o)
                0x000000000045a6a0                fb_HEXEx_l
                0x000000000045a760                fb_HEX_l
 *fill*         0x000000000045a767        0x9 
 .text          0x000000000045a770       0x81 /usr/local/bin/../lib/freebasic/linux-x86_64/libfb.a(str_hskip.o)
                0x000000000045a770                fb_hStrSkipChar
                0x000000000045a7b0                fb_hStrSkipCharRev
 *fill*         0x000000000045a7f1        0xf 
 .text          0x000000000045a800      0x130 /usr/local/bin/../lib/freebasic/linux-x86_64/libfb.a(str_lcase.o)
                0x000000000045a800                fb_StrLcase2
 .text          0x000000000045a930       0x41 /usr/local/bin/../lib/freebasic/linux-x86_64/libfb.a(str_len.o)
                0x000000000045a930                fb_StrLen
 *fill*         0x000000000045a971        0xf 
 .text          0x000000000045a980       0xb3 /usr/local/bin/../lib/freebasic/linux-x86_64/libfb.a(str_mid.o)
                0x000000000045a980                fb_StrMid
 *fill*         0x000000000045aa33        0xd 
 .text          0x000000000045aa40       0x58 /usr/local/bin/../lib/freebasic/linux-x86_64/libfb.a(str_misc.o)
                0x000000000045aa40                fb_SPACE
 *fill*         0x000000000045aa98        0x8 
 .text          0x000000000045aaa0       0x6a /usr/local/bin/../lib/freebasic/linux-x86_64/libfb.a(str_tempdescf.o)
                0x000000000045aaa0                fb_StrAllocTempDescF
 *fill*         0x000000000045ab0a        0x6 
 .text          0x000000000045ab10       0x86 /usr/local/bin/../lib/freebasic/linux-x86_64/libfb.a(str_tempdescz.o)
                0x000000000045ab10                fb_StrAllocTempDescZEx
                0x000000000045ab50                fb_StrAllocTempDescZ
 *fill*         0x000000000045ab96        0xa 
 .text          0x000000000045aba0       0x59 /usr/local/bin/../lib/freebasic/linux-x86_64/libfb.a(str_tempres.o)
                0x000000000045aba0                fb_StrAllocTempResult
 *fill*         0x000000000045abf9        0x7 
 .text          0x000000000045ac00      0x28b /usr/local/bin/../lib/freebasic/linux-x86_64/libfb.a(strw_convassign.o)
                0x000000000045ac00                fb_WstrAssignFromA
                0x000000000045acb0                fb_WstrAssignToAEx
                0x000000000045ae70                fb_WstrAssignToA
                0x000000000045ae80                fb_WstrAssignToA_Init
 *fill*         0x000000000045ae8b        0x5 
 .text          0x000000000045ae90       0xe3 /usr/local/bin/../lib/freebasic/linux-x86_64/libfb.a(strw_convfrom_lng.o)
                0x000000000045ae90                fb_WstrToLongint
                0x000000000045af40                fb_WstrValLng
 *fill*         0x000000000045af73        0xd 
 .text          0x000000000045af80      0x115 /usr/local/bin/../lib/freebasic/linux-x86_64/libfb.a(strw_convfrom_str.o)
                0x000000000045af80                fb_wstr_ConvFromA
                0x000000000045b040                fb_StrToWstr
 *fill*         0x000000000045b095        0xb 
 .text          0x000000000045b0a0       0xe3 /usr/local/bin/../lib/freebasic/linux-x86_64/libfb.a(strw_convfrom_ulng.o)
                0x000000000045b0a0                fb_WstrToULongint
                0x000000000045b150                fb_WstrValULng
 *fill*         0x000000000045b183        0xd 
 .text          0x000000000045b190      0x119 /usr/local/bin/../lib/freebasic/linux-x86_64/libfb.a(strw_convto_str.o)
                0x000000000045b190                fb_wstr_ConvToA
                0x000000000045b250                fb_WstrToStr
 *fill*         0x000000000045b2a9        0x7 
 .text          0x000000000045b2b0        0xe /usr/local/bin/../lib/freebasic/linux-x86_64/libfb.a(sys_beep.o)
                0x000000000045b2b0                fb_Beep
 *fill*         0x000000000045b2be        0x2 
 .text          0x000000000045b2c0        0xc /usr/local/bin/../lib/freebasic/linux-x86_64/libfb.a(sys_chain.o)
                0x000000000045b2c0                fb_Chain
 *fill*         0x000000000045b2cc        0x4 
 .text          0x000000000045b2d0       0x70 /usr/local/bin/../lib/freebasic/linux-x86_64/libfb.a(sys_delay.o)
                0x000000000045b2d0                fb_Delay
 .text          0x000000000045b340      0x22c /usr/local/bin/../lib/freebasic/linux-x86_64/libfb.a(sys_execex.o)
                0x000000000045b340                fb_ExecEx
 *fill*         0x000000000045b56c        0x4 
 .text          0x000000000045b570       0x19 /usr/local/bin/../lib/freebasic/linux-x86_64/libfb.a(sys_fmem.o)
                0x000000000045b570                fb_GetMemAvail
 *fill*         0x000000000045b589        0x7 
 .text          0x000000000045b590       0xb6 /usr/local/bin/../lib/freebasic/linux-x86_64/libfb.a(sys_getexename.o)
                0x000000000045b590                fb_hGetExeName
 *fill*         0x000000000045b646        0xa 
 .text          0x000000000045b650      0x163 /usr/local/bin/../lib/freebasic/linux-x86_64/libfb.a(sys_parseargs.o)
                0x000000000045b650                fb_hParseArgs
 *fill*         0x000000000045b7b3        0xd 
 .text          0x000000000045b7c0       0x40 /usr/local/bin/../lib/freebasic/linux-x86_64/libfb.a(sys_shell.o)
                0x000000000045b7c0                fb_Shell
 .text          0x000000000045b800       0xdb /usr/local/bin/../lib/freebasic/linux-x86_64/libfb.a(thread_ctx.o)
                0x000000000045b800                fb_TlsGetCtx
                0x000000000045b840                fb_TlsDelCtx
                0x000000000045b890                fb_TlsFreeCtxTb
 *fill*         0x000000000045b8db        0x5 
 .text          0x000000000045b8e0       0x91 /usr/local/bin/../lib/freebasic/linux-x86_64/libfb.a(thread_mutex.o)
                0x000000000045b8e0                fb_MutexCreate
                0x000000000045b910                fb_MutexDestroy
                0x000000000045b940                fb_MutexLock
                0x000000000045b960                fb_MutexUnlock
 *fill*         0x000000000045b971        0xf 
 .text          0x000000000045b980       0x58 /usr/local/bin/../lib/freebasic/linux-x86_64/libfb.a(time_sleep.o)
                0x000000000045b980                fb_ConsoleSleep
 *fill*         0x000000000045b9d8        0x8 
 .text          0x000000000045b9e0       0x40 /usr/local/bin/../lib/freebasic/linux-x86_64/libfb.a(time_sleepex.o)
                0x000000000045b9e0                fb_SleepEx
 .text          0x000000000045ba20       0x61 /usr/local/bin/../lib/freebasic/linux-x86_64/libfb.a(time_timer.o)
                0x000000000045ba20                fb_Timer
 *fill*         0x000000000045ba81        0xf 
 .text          0x000000000045ba90      0x26e /usr/local/bin/../lib/freebasic/linux-x86_64/libfb.a(vfs_open.o)
                0x000000000045ba90                fb_FileOpenVfsRawEx
                0x000000000045bc30                fb_FileOpenVfsEx
 *fill*         0x000000000045bcfe        0x2 
 .text          0x000000000045bd00       0xbe /usr/local/bin/../lib/freebasic/linux-x86_64/libfb.a(con_lineinp.o)
                0x000000000045bd00                fb_ConsoleLineInput
 *fill*         0x000000000045bdbe        0x2 
 .text          0x000000000045bdc0       0x9e /usr/local/bin/../lib/freebasic/linux-x86_64/libfb.a(con_print_raw.o)
                0x000000000045bdc0                fb_ConPrintRaw
 *fill*         0x000000000045be5e        0x2 
 .text          0x000000000045be60      0x29a /usr/local/bin/../lib/freebasic/linux-x86_64/libfb.a(dev_file_open.o)
                0x000000000045be60                fb_hSetFileBufSize
                0x000000000045be70                fb_DevFileOpen
 *fill*         0x000000000045c0fa        0x6 
 .text          0x000000000045c100      0x11d /usr/local/bin/../lib/freebasic/linux-x86_64/libfb.a(dev_file_read.o)
                0x000000000045c100                fb_DevFileRead
 *fill*         0x000000000045c21d        0x3 
 .text          0x000000000045c220      0x174 /usr/local/bin/../lib/freebasic/linux-x86_64/libfb.a(dev_file_read_wstr.o)
                0x000000000045c220                fb_DevFileReadWstr
 *fill*         0x000000000045c394        0xc 
 .text          0x000000000045c3a0      0x26e /usr/local/bin/../lib/freebasic/linux-x86_64/libfb.a(dev_file_readline.o)
                0x000000000045c3b0                fb_DevFileReadLineDumb
                0x000000000045c5d0                fb_DevFileReadLine
 *fill*         0x000000000045c60e        0x2 
 .text          0x000000000045c610       0xdc /usr/local/bin/../lib/freebasic/linux-x86_64/libfb.a(dev_file_readline_wstr.o)
                0x000000000045c610                fb_DevFileReadLineWstr
 *fill*         0x000000000045c6ec        0x4 
 .text          0x000000000045c6f0       0x3a /usr/local/bin/../lib/freebasic/linux-x86_64/libfb.a(dev_file_seek.o)
                0x000000000045c6f0                fb_DevFileSeek
 *fill*         0x000000000045c72a        0x6 
 .text          0x000000000045c730       0xe3 /usr/local/bin/../lib/freebasic/linux-x86_64/libfb.a(dev_file_size.o)
                0x000000000045c730                fb_hDevFileSeekStart
                0x000000000045c770                fb_DevFileGetSize
 *fill*         0x000000000045c813        0xd 
 .text          0x000000000045c820       0x2a /usr/local/bin/../lib/freebasic/linux-x86_64/libfb.a(dev_file_tell.o)
                0x000000000045c820                fb_DevFileTell
 *fill*         0x000000000045c84a        0x6 
 .text          0x000000000045c850       0x22 /usr/local/bin/../lib/freebasic/linux-x86_64/libfb.a(dev_file_unlock.o)
                0x000000000045c850                fb_DevFileUnlock
 *fill*         0x000000000045c872        0xe 
 .text          0x000000000045c880       0xd2 /usr/local/bin/../lib/freebasic/linux-x86_64/libfb.a(dev_file_write.o)
                0x000000000045c880                fb_DevFileWrite
 *fill*         0x000000000045c952        0xe 
 .text          0x000000000045c960      0x110 /usr/local/bin/../lib/freebasic/linux-x86_64/libfb.a(dev_file_write_wstr.o)
                0x000000000045c960                fb_DevFileWriteWstr
 .text          0x000000000045ca70       0xaf /usr/local/bin/../lib/freebasic/linux-x86_64/libfb.a(dev_scrn_eof.o)
                0x000000000045ca70                fb_DevScrnFillInput
                0x000000000045cad0                fb_DevScrnEof
 *fill*         0x000000000045cb1f        0x1 
 .text          0x000000000045cb20      0x100 /usr/local/bin/../lib/freebasic/linux-x86_64/libfb.a(file_hlock.o)
                0x000000000045cb20                fb_hFileLock
                0x000000000045cbb0                fb_hFileUnlock
 .text          0x000000000045cc20       0xc4 /usr/local/bin/../lib/freebasic/linux-x86_64/libfb.a(file_print.o)
                0x000000000045cc20                fb_hFilePrintBufferEx
                0x000000000045cc60                fb_hFilePrintBuffer
 *fill*         0x000000000045cce4        0xc 
 .text          0x000000000045ccf0       0xc4 /usr/local/bin/../lib/freebasic/linux-x86_64/libfb.a(file_print_wstr.o)
                0x000000000045ccf0                fb_hFilePrintBufferWstrEx
                0x000000000045cd30                fb_hFilePrintBufferWstr
 *fill*         0x000000000045cdb4        0xc 
 .text          0x000000000045cdc0      0xdab /usr/local/bin/../lib/freebasic/linux-x86_64/libfb.a(hinit.o)
                0x000000000045ce70                fb_BgLock
                0x000000000045ce80                fb_BgUnlock
                0x000000000045ce90                fb_hStartBgThread
                0x000000000045ced0                fb_hTermOut
                0x000000000045d010                fb_hTermQuery
                0x000000000045d0a0                fb_hRecheckCursorPos
                0x000000000045d110                fb_hRecheckConsoleSize
                0x000000000045d520                fb_hInitConsole
                0x000000000045da60                fb_hExitConsole
                0x000000000045da80                fb_hInit
                0x000000000045dab0                fb_hEnd
 .text          0x000000000045db6b        0x0 /usr/local/bin/../lib/freebasic/linux-x86_64/libfb.a(hinit_enable_vt100_escapes.o)
 *fill*         0x000000000045db6b        0x5 
 .text          0x000000000045db70       0x15 /usr/local/bin/../lib/freebasic/linux-x86_64/libfb.a(hook_getmouse.o)
                0x000000000045db70                fb_GetMouse
 *fill*         0x000000000045db85        0xb 
 .text          0x000000000045db90       0x15 /usr/local/bin/../lib/freebasic/linux-x86_64/libfb.a(hook_view_update.o)
                0x000000000045db90                fb_ViewUpdate
 *fill*         0x000000000045dba5        0xb 
 .text          0x000000000045dbb0        0x5 /usr/local/bin/../lib/freebasic/linux-x86_64/libfb.a(io_input.o)
                0x000000000045dbb0                fb_hConsoleInputBufferChanged
 *fill*         0x000000000045dbb5        0xb 
 .text          0x000000000045dbc0      0x5aa /usr/local/bin/../lib/freebasic/linux-x86_64/libfb.a(io_mouse.o)
                0x000000000045dff0                fb_ConsoleGetMouse
                0x000000000045e160                fb_ConsoleSetMouse
 *fill*         0x000000000045e16a        0x6 
 .text          0x000000000045e170      0x141 /usr/local/bin/../lib/freebasic/linux-x86_64/libfb.a(io_printpad.o)
                0x000000000045e170                fb_PrintPadEx
                0x000000000045e270                fb_PrintPad
 *fill*         0x000000000045e2b1        0xf 
 .text          0x000000000045e2c0      0x141 /usr/local/bin/../lib/freebasic/linux-x86_64/libfb.a(io_printpad_wstr.o)
                0x000000000045e2c0                fb_PrintPadWstrEx
                0x000000000045e3c0                fb_PrintPadWstr
 *fill*         0x000000000045e401        0xf 
 .text          0x000000000045e410       0x3a /usr/local/bin/../lib/freebasic/linux-x86_64/libfb.a(io_viewupdate.o)
                0x000000000045e410                fb_ConsoleViewUpdate
 *fill*         0x000000000045e44a        0x6 
 .text          0x000000000045e450       0xb4 /usr/local/bin/../lib/freebasic/linux-x86_64/libfb.a(list.o)
                0x000000000045e450                fb_hListInit
                0x000000000045e4b0                fb_hListAllocElem
                0x000000000045e4e0                fb_hListFreeElem
 *fill*         0x000000000045e504        0xc 
 .text          0x000000000045e510       0x7f /usr/local/bin/../lib/freebasic/linux-x86_64/libfb.a(listdyn.o)
                0x000000000045e510                fb_hListDynInit
                0x000000000045e520                fb_hListDynElemAdd
                0x000000000045e550                fb_hListDynElemRemove
 *fill*         0x000000000045e58f        0x1 
 .text          0x000000000045e590       0x3c /usr/local/bin/../lib/freebasic/linux-x86_64/libfb.a(sys_hshell.o)
                0x000000000045e590                fb_hShell
 *fill*         0x000000000045e5cc        0x4 
 .text          0x000000000045e5d0       0x22 /usr/local/bin/../lib/freebasic/linux-x86_64/libfb.a(dev_file_close.o)
                0x000000000045e5d0                fb_DevFileClose
 *fill*         0x000000000045e5f2        0xe 
 .text          0x000000000045e600       0x77 /usr/local/bin/../lib/freebasic/linux-x86_64/libfb.a(dev_file_eof.o)
                0x000000000045e600                fb_DevFileEof
 *fill*         0x000000000045e677        0x9 
 .text          0x000000000045e680       0x4a /usr/local/bin/../lib/freebasic/linux-x86_64/libfb.a(dev_file_flush.o)
                0x000000000045e680                fb_DevFileFlush
 *fill*         0x000000000045e6ca        0x6 
 .text          0x000000000045e6d0       0x22 /usr/local/bin/../lib/freebasic/linux-x86_64/libfb.a(dev_file_lock.o)
                0x000000000045e6d0                fb_DevFileLock
 *fill*         0x000000000045e6f2        0xe 
 .text          0x000000000045e700       0x50 /usr/local/bin/../lib/freebasic/linux-x86_64/libfb.a(dev_scrn_write.o)
                0x000000000045e700                fb_DevScrnWrite
                0x000000000045e720                fb_DevScrnInit_Write
 .text          0x000000000045e750       0x50 /usr/local/bin/../lib/freebasic/linux-x86_64/libfb.a(dev_scrn_write_wstr.o)
                0x000000000045e750                fb_DevScrnWriteWstr
                0x000000000045e770                fb_DevScrnInit_WriteWstr
 .text          0x000000000045e7a0       0x5c /usr/local/bin/../lib/freebasic/linux-x86_64/libfb.a(hook_print_wstr.o)
                0x000000000045e7a0                fb_PrintBufferWstrEx
                0x000000000045e7c0                fb_PrintBufferWstr
 *fill*         0x000000000045e7fc        0x4 
 .text          0x000000000045e800      0x257 /usr/local/bin/../lib/freebasic/linux-x86_64/libfb.a(io_printbuff_wstr.o)
                0x000000000045e800                fb_ConsolePrintBufferWstrEx
                0x000000000045ea30                fb_ConsolePrintBufferWstr
 *fill*         0x000000000045ea57        0x9 
 .text          0x000000000045ea60      0x29a /usr/local/bin/../lib/freebasic/linux-x86_64/libfb.a(utf_convfrom_wchar.o)
                0x000000000045ea60                fb_WCharToUTF
 *fill*         0x000000000045ecfa        0x6 
 .text          0x000000000045ed00       0x55 /usr/local/bin/../lib/freebasic/linux-x86_64/libfb.a(utf_core.o)
                0x000000000045ed00                fb_hCharToUTF8
 *fill*         0x000000000045ed55        0xb 
 .text          0x000000000045ed60       0x75 /usr/lib/libc_nonshared.a(elf-init.oS)
                0x000000000045ed60                __libc_csu_init
                0x000000000045edd0                __libc_csu_fini
 .text          0x000000000045edd5        0x0 /usr/lib/gcc/x86_64-pc-linux-gnu/10.2.0/crtend.o
 .text          0x000000000045edd5        0x0 /usr/lib/gcc/x86_64-pc-linux-gnu/10.2.0/../../../../lib/crtn.o
 *(.gnu.warning)

.fini           0x000000000045edd8        0xd
 *(SORT_NONE(.fini))
 .fini          0x000000000045edd8        0x8 /usr/lib/gcc/x86_64-pc-linux-gnu/10.2.0/../../../../lib/crti.o
                0x000000000045edd8                _fini
 .fini          0x000000000045ede0        0x5 /usr/lib/gcc/x86_64-pc-linux-gnu/10.2.0/../../../../lib/crtn.o
                [!provide]                        PROVIDE (__etext = .)
                [!provide]                        PROVIDE (_etext = .)
                [!provide]                        PROVIDE (etext = .)
                0x000000000045f000                . = ALIGN (CONSTANT (MAXPAGESIZE))
                0x000000000045f000                . = SEGMENT_START ("rodata-segment", (ALIGN (CONSTANT (MAXPAGESIZE)) + (. & (CONSTANT (MAXPAGESIZE) - 0x1))))

.rodata         0x000000000045f000     0x7827
 *(.rodata .rodata.* .gnu.linkonce.r.*)
 .rodata.cst4   0x000000000045f000        0x4 /usr/lib/gcc/x86_64-pc-linux-gnu/10.2.0/../../../../lib/crt1.o
                0x000000000045f000                _IO_stdin_used
 .rodata.str1.1
                0x000000000045f004     0x3479 c64dvd-glsl.o
                                       0x3be9 (size before relaxing)
 *fill*         0x000000000046247d        0x3 
 .rodata.str1.8
                0x0000000000462480      0x287 c64dvd-glsl.o
 *fill*         0x0000000000462707        0x1 
 .rodata.cst8   0x0000000000462708     0x1020 c64dvd-glsl.o
 .rodata.cst4   0x0000000000463728       0x24 c64dvd-glsl.o
 *fill*         0x000000000046374c        0x4 
 .rodata.cst16  0x0000000000463750       0xe0 c64dvd-glsl.o
 .rodata.str1.1
                0x0000000000463830        0x3 /usr/local/bin/../lib/freebasic/linux-x86_64/libfbgfx.a(gfx_bload.o)
                                          0x6 (size before relaxing)
 *fill*         0x0000000000463833        0x5 
 .rodata.cst8   0x0000000000463838       0x10 /usr/local/bin/../lib/freebasic/linux-x86_64/libfbgfx.a(gfx_circle.o)
                                         0x20 (size before relaxing)
 .rodata.cst4   0x0000000000463848        0x4 /usr/local/bin/../lib/freebasic/linux-x86_64/libfbgfx.a(gfx_circle.o)
                                          0xc (size before relaxing)
 *fill*         0x000000000046384c        0x4 
 .rodata.cst16  0x0000000000463850       0x10 /usr/local/bin/../lib/freebasic/linux-x86_64/libfbgfx.a(gfx_circle.o)
 .rodata        0x0000000000463860      0x324 /usr/local/bin/../lib/freebasic/linux-x86_64/libfbgfx.a(gfx_control.o)
 .rodata.cst8   0x0000000000463b84        0x8 /usr/local/bin/../lib/freebasic/linux-x86_64/libfbgfx.a(gfx_core.o)
 .rodata        0x0000000000463b84      0x108 /usr/local/bin/../lib/freebasic/linux-x86_64/libfbgfx.a(gfx_opengl.o)
 .rodata.str1.1
                0x0000000000463c8c      0x1bd /usr/local/bin/../lib/freebasic/linux-x86_64/libfbgfx.a(gfx_opengl.o)
 *fill*         0x0000000000463e49        0x3 
 .rodata.cst4   0x0000000000463e4c        0x4 /usr/local/bin/../lib/freebasic/linux-x86_64/libfbgfx.a(gfx_opengl.o)
 .rodata.cst8   0x0000000000463e50        0x8 /usr/local/bin/../lib/freebasic/linux-x86_64/libfbgfx.a(gfx_opengl.o)
                                         0x10 (size before relaxing)
 *fill*         0x0000000000463e58        0x8 
 .rodata        0x0000000000463e60       0x34 /usr/local/bin/../lib/freebasic/linux-x86_64/libfbgfx.a(gfx_palette.o)
 .rodata.cst8   0x0000000000463e94       0x10 /usr/local/bin/../lib/freebasic/linux-x86_64/libfbgfx.a(gfx_palette.o)
 *fill*         0x0000000000463e94        0xc 
 .rodata        0x0000000000463ea0       0x20 /usr/local/bin/../lib/freebasic/linux-x86_64/libfbgfx.a(gfx_put.o)
 .rodata.str1.1
                0x0000000000463ec0        0x6 /usr/local/bin/../lib/freebasic/linux-x86_64/libfbgfx.a(gfx_screen.o)
                                          0xb (size before relaxing)
 *fill*         0x0000000000463ec6       0x1a 
 .rodata        0x0000000000463ee0      0x1a8 /usr/local/bin/../lib/freebasic/linux-x86_64/libfbgfx.a(gfx_screen.o)
 .rodata.cst8   0x0000000000464088        0x8 /usr/local/bin/../lib/freebasic/linux-x86_64/libfbgfx.a(gfx_screen.o)
 .rodata.cst4   0x0000000000464090        0x4 /usr/local/bin/../lib/freebasic/linux-x86_64/libfbgfx.a(gfx_screen.o)
 .rodata.str1.1
                0x0000000000464090        0x1 /usr/local/bin/../lib/freebasic/linux-x86_64/libfbgfx.a(gfx_screeninfo.o)
 .rodata        0x0000000000464090       0xa8 /usr/local/bin/../lib/freebasic/linux-x86_64/libfbgfx.a(gfx_x11.o)
 .rodata.str1.1
                0x0000000000464138       0x61 /usr/local/bin/../lib/freebasic/linux-x86_64/libfbgfx.a(gfx_x11.o)
 *fill*         0x0000000000464199        0x7 
 .rodata        0x00000000004641a0     0x1376 /usr/local/bin/../lib/freebasic/linux-x86_64/libfbgfx.a(gfx_data.o)
 .rodata.str1.1
                0x0000000000465516       0x4a /usr/local/bin/../lib/freebasic/linux-x86_64/libfbgfx.a(gfx_driver_fbdev.o)
 .rodata        0x0000000000465560       0x58 /usr/local/bin/../lib/freebasic/linux-x86_64/libfbgfx.a(gfx_driver_fbdev.o)
 .rodata.cst8   0x00000000004655b8        0x8 /usr/local/bin/../lib/freebasic/linux-x86_64/libfbgfx.a(gfx_driver_fbdev.o)
 .rodata.str1.1
                0x00000000004655c0        0x5 /usr/local/bin/../lib/freebasic/linux-x86_64/libfbgfx.a(gfx_driver_null.o)
 .rodata.str1.1
                0x00000000004655c5       0x69 /usr/local/bin/../lib/freebasic/linux-x86_64/libfbgfx.a(gfx_driver_opengl_x11.o)
 .rodata.str1.1
                0x000000000046562e        0x4 /usr/local/bin/../lib/freebasic/linux-x86_64/libfbgfx.a(gfx_driver_x11.o)
                                          0xa (size before relaxing)
 .rodata.str1.1
                0x0000000000465632        0x3 /usr/local/bin/../lib/freebasic/linux-x86_64/libfbgfx.a(gfx_lineinp.o)
 .rodata.str1.1
                0x0000000000465635        0x3 /usr/local/bin/../lib/freebasic/linux-x86_64/libfbgfx.a(gfx_lineinp_wstr.o)
 *fill*         0x0000000000465635        0xb 
 .rodata        0x0000000000465640       0x58 /usr/local/bin/../lib/freebasic/linux-x86_64/libfbgfx.a(gfx_softcursor.o)
 .rodata        0x0000000000465698       0xe8 /usr/local/bin/../lib/freebasic/linux-x86_64/libfbgfx.a(gfx_blitter.o)
 .rodata        0x0000000000465780       0x28 /usr/local/bin/../lib/freebasic/linux-x86_64/libfb.a(con_print_tty.o)
 .rodata.str1.1
                0x00000000004657a8        0x2 /usr/local/bin/../lib/freebasic/linux-x86_64/libfb.a(con_readline.o)
                                          0x4 (size before relaxing)
 .rodata.str1.1
                0x00000000004657aa        0x1 /usr/local/bin/../lib/freebasic/linux-x86_64/libfb.a(data_readstr.o)
 *fill*         0x00000000004657aa        0x2 
 .rodata        0x00000000004657ac      0x174 /usr/local/bin/../lib/freebasic/linux-x86_64/libfb.a(file_input_tok.o)
 .rodata.str1.1
                0x0000000000465920        0x1 /usr/local/bin/../lib/freebasic/linux-x86_64/libfb.a(init.o)
 .rodata.str1.1
                0x0000000000465920       0x48 /usr/local/bin/../lib/freebasic/linux-x86_64/libfb.a(io_inkey.o)
                                         0x4b (size before relaxing)
 .rodata.str1.1
                0x0000000000465968       0x5d /usr/local/bin/../lib/freebasic/linux-x86_64/libfb.a(io_multikey.o)
 *fill*         0x00000000004659c5       0x1b 
 .rodata        0x00000000004659e0       0xf1 /usr/local/bin/../lib/freebasic/linux-x86_64/libfb.a(io_multikey.o)
 .rodata.str1.1
                0x0000000000465ad1        0xa /usr/local/bin/../lib/freebasic/linux-x86_64/libfb.a(io_printbuff.o)
 .rodata.str1.1
                0x0000000000465adb        0x5 /usr/local/bin/../lib/freebasic/linux-x86_64/libfb.a(io_printvoid.o)
 *fill*         0x0000000000465adb        0x1 
 .rodata.str4.4
                0x0000000000465adc        0xc /usr/local/bin/../lib/freebasic/linux-x86_64/libfb.a(io_printvoid_wstr.o)
                                         0x14 (size before relaxing)
 .rodata.str1.1
                0x0000000000465ae8        0xf /usr/local/bin/../lib/freebasic/linux-x86_64/libfb.a(io_xfocus.o)
                                         0x34 (size before relaxing)
 *fill*         0x0000000000465af7        0x9 
 .rodata        0x0000000000465b00       0x64 /usr/local/bin/../lib/freebasic/linux-x86_64/libfb.a(scancodes.o)
 *fill*         0x0000000000465b64       0x1c 
 .rodata        0x0000000000465b80      0x690 /usr/local/bin/../lib/freebasic/linux-x86_64/libfb.a(scancodes_x11.o)
 .rodata        0x0000000000466210       0xb8 /usr/local/bin/../lib/freebasic/linux-x86_64/libfb.a(str_convfrom.o)
 .rodata        0x00000000004662c8       0xb8 /usr/local/bin/../lib/freebasic/linux-x86_64/libfb.a(str_convfrom_lng.o)
 .rodata        0x0000000000466380       0xb8 /usr/local/bin/../lib/freebasic/linux-x86_64/libfb.a(str_convfrom_ulng.o)
 .rodata.str1.1
                0x0000000000466438        0x6 /usr/local/bin/../lib/freebasic/linux-x86_64/libfb.a(str_convto.o)
 .rodata.str1.1
                0x000000000046643e        0xb /usr/local/bin/../lib/freebasic/linux-x86_64/libfb.a(str_convto_flt.o)
 .rodata.str1.1
                0x0000000000466449        0xa /usr/local/bin/../lib/freebasic/linux-x86_64/libfb.a(str_convto_lng.o)
 *fill*         0x0000000000466453        0xd 
 .rodata        0x0000000000466460       0x10 /usr/local/bin/../lib/freebasic/linux-x86_64/libfb.a(str_hex_lng.o)
 .rodata        0x0000000000466470       0xb8 /usr/local/bin/../lib/freebasic/linux-x86_64/libfb.a(strw_convfrom_lng.o)
 .rodata        0x0000000000466528       0xb8 /usr/local/bin/../lib/freebasic/linux-x86_64/libfb.a(strw_convfrom_ulng.o)
 .rodata.str1.1
                0x00000000004665e0        0xd /usr/local/bin/../lib/freebasic/linux-x86_64/libfb.a(sys_getexename.o)
 *fill*         0x00000000004665ed        0x3 
 .rodata.cst8   0x00000000004665f0       0x10 /usr/local/bin/../lib/freebasic/linux-x86_64/libfb.a(time_timer.o)
 .rodata.str1.1
                0x0000000000466600        0x3 /usr/local/bin/../lib/freebasic/linux-x86_64/libfb.a(con_lineinp.o)
 .rodata.str1.1
                0x0000000000466600        0xf /usr/local/bin/../lib/freebasic/linux-x86_64/libfb.a(dev_file_open.o)
                                         0x18 (size before relaxing)
 *fill*         0x000000000046660f        0x1 
 .rodata        0x0000000000466610       0x18 /usr/local/bin/../lib/freebasic/linux-x86_64/libfb.a(dev_file_size.o)
 .rodata.str1.1
                0x0000000000466628       0x93 /usr/local/bin/../lib/freebasic/linux-x86_64/libfb.a(hinit.o)
                                         0xbb (size before relaxing)
 .rodata.str1.1
                0x00000000004666bb       0x33 /usr/local/bin/../lib/freebasic/linux-x86_64/libfb.a(io_mouse.o)
 .rodata.str1.1
                0x00000000004666ee        0x2 /usr/local/bin/../lib/freebasic/linux-x86_64/libfb.a(io_printpad.o)
 .rodata.str4.4
                0x00000000004666ee        0x8 /usr/local/bin/../lib/freebasic/linux-x86_64/libfb.a(io_printpad_wstr.o)
 .rodata.str1.1
                0x00000000004666ee        0x4 /usr/local/bin/../lib/freebasic/linux-x86_64/libfb.a(io_printbuff_wstr.o)
                                          0x8 (size before relaxing)
 *fill*         0x00000000004666f2        0xe 
 .rodata        0x0000000000466700      0x127 /usr/local/bin/../lib/freebasic/linux-x86_64/libfb.a(utf_core.o)
                0x0000000000466700                __fb_utf8_offsetsTb
                0x0000000000466720                __fb_utf8_trailingTb
                0x0000000000466820                __fb_utf8_bmarkTb

.rodata1
 *(.rodata1)

.eh_frame_hdr
 *(.eh_frame_hdr)
 *(.eh_frame_entry .eh_frame_entry.*)

.eh_frame       0x0000000000466828       0xe0
 *(.eh_frame)
 .eh_frame      0x0000000000466828       0x40 /usr/lib/gcc/x86_64-pc-linux-gnu/10.2.0/../../../../lib/crt1.o
                                         0x5c (size before relaxing)
 *fill*         0x0000000000466868        0x0 
 .eh_frame      0x0000000000466868       0x28 /usr/lib/gcc/x86_64-pc-linux-gnu/10.2.0/../../../../lib/crt1.o
                                         0x40 (size before relaxing)
 .eh_frame      0x0000000000466890       0x18 /usr/lib/gcc/x86_64-pc-linux-gnu/10.2.0/../../../../lib/crt1.o
                                         0x30 (size before relaxing)
 .eh_frame      0x00000000004668a8       0x5c /usr/lib/libc_nonshared.a(elf-init.oS)
                                         0x78 (size before relaxing)
 .eh_frame      0x0000000000466904        0x4 /usr/lib/gcc/x86_64-pc-linux-gnu/10.2.0/crtend.o
 *(.eh_frame.*)

.gcc_except_table
 *(.gcc_except_table .gcc_except_table.*)

.gnu_extab
 *(.gnu_extab*)

.exception_ranges
 *(.exception_ranges*)
                0x0000000000468200                . = DATA_SEGMENT_ALIGN (CONSTANT (MAXPAGESIZE), CONSTANT (COMMONPAGESIZE))

.eh_frame
 *(.eh_frame)
 *(.eh_frame.*)

.gnu_extab
 *(.gnu_extab)

.gcc_except_table
 *(.gcc_except_table .gcc_except_table.*)

.exception_ranges
 *(.exception_ranges*)

.tdata          0x0000000000468200        0x0
                [!provide]                        PROVIDE (__tdata_start = .)
 *(.tdata .tdata.* .gnu.linkonce.td.*)

.tbss
 *(.tbss .tbss.* .gnu.linkonce.tb.*)
 *(.tcommon)

.preinit_array  0x0000000000468200        0x0
                [!provide]                        PROVIDE (__preinit_array_start = .)
 *(.preinit_array)
                [!provide]                        PROVIDE (__preinit_array_end = .)

.init_array     0x0000000000468200       0x10
                0x0000000000468200                PROVIDE (__init_array_start = .)
 *(SORT_BY_INIT_PRIORITY(.init_array.*) SORT_BY_INIT_PRIORITY(.ctors.*))
 .ctors.65435   0x0000000000468200        0x8 /usr/local/bin/../lib/freebasic/linux-x86_64/fbrt0.o
 *(.init_array EXCLUDE_FILE(*crtend?.o *crtend.o *crtbegin?.o *crtbegin.o) .ctors)
 .init_array    0x0000000000468208        0x8 /usr/lib/gcc/x86_64-pc-linux-gnu/10.2.0/crtbegin.o
                0x0000000000468210                PROVIDE (__init_array_end = .)

.fini_array     0x0000000000468210       0x10
                [!provide]                        PROVIDE (__fini_array_start = .)
 *(SORT_BY_INIT_PRIORITY(.fini_array.*) SORT_BY_INIT_PRIORITY(.dtors.*))
 .dtors.65435   0x0000000000468210        0x8 /usr/local/bin/../lib/freebasic/linux-x86_64/fbrt0.o
 *(.fini_array EXCLUDE_FILE(*crtend?.o *crtend.o *crtbegin?.o *crtbegin.o) .dtors)
 .fini_array    0x0000000000468218        0x8 /usr/lib/gcc/x86_64-pc-linux-gnu/10.2.0/crtbegin.o
                [!provide]                        PROVIDE (__fini_array_end = .)

.ctors
 *crtbegin.o(.ctors)
 *crtbegin?.o(.ctors)
 *(EXCLUDE_FILE(*crtend?.o *crtend.o) .ctors)
 *(SORT_BY_NAME(.ctors.*))
 *(.ctors)

.dtors
 *crtbegin.o(.dtors)
 *crtbegin?.o(.dtors)
 *(EXCLUDE_FILE(*crtend?.o *crtend.o) .dtors)
 *(SORT_BY_NAME(.dtors.*))
 *(.dtors)

.jcr
 *(.jcr)

.data.rel.ro    0x0000000000468220     0x3ae8
 *(.data.rel.ro.local* .gnu.linkonce.d.rel.ro.local.*)
 .data.rel.ro.local
                0x0000000000468220     0x37a8 c64dvd-glsl.o
 *fill*         0x000000000046b9c8       0x18 
 .data.rel.ro.local
                0x000000000046b9e0       0x70 /usr/local/bin/../lib/freebasic/linux-x86_64/libfbgfx.a(gfx_data.o)
                0x000000000046b9e0                __fb_palette
                0x000000000046ba20                __fb_font
 *fill*         0x000000000046ba50       0x10 
 .data.rel.ro.local
                0x000000000046ba60       0x70 /usr/local/bin/../lib/freebasic/linux-x86_64/libfbgfx.a(gfx_driver_null.o)
                0x000000000046ba60                __fb_gfxDriverNull
 *fill*         0x000000000046bad0       0x10 
 .data.rel.ro.local
                0x000000000046bae0      0x190 /usr/local/bin/../lib/freebasic/linux-x86_64/libfb.a(io_inkey.o)
 *fill*         0x000000000046bc70       0x10 
 .data.rel.ro.local
                0x000000000046bc80       0x88 /usr/local/bin/../lib/freebasic/linux-x86_64/libfb.a(hinit.o)
 *(.data.rel.ro .data.rel.ro.* .gnu.linkonce.d.rel.ro.*)
 .data.rel.ro   0x000000000046bd08        0x0 /usr/lib/gcc/x86_64-pc-linux-gnu/10.2.0/../../../../lib/crt1.o

.dynamic        0x000000000046bd08      0x280
 *(.dynamic)
 .dynamic       0x000000000046bd08      0x280 /usr/lib/gcc/x86_64-pc-linux-gnu/10.2.0/../../../../lib/crt1.o
                0x000000000046bd08                _DYNAMIC

.got            0x000000000046bf88       0x68
 *(.got)
 .got           0x000000000046bf88       0x68 /usr/lib/gcc/x86_64-pc-linux-gnu/10.2.0/../../../../lib/crt1.o
 *(.igot)
                0x000000000046cfe8                . = DATA_SEGMENT_RELRO_END (., (SIZEOF (.got.plt) >= 0x18)?0x18:0x0)

.got.plt        0x000000000046c000      0x660
 *(.got.plt)
 .got.plt       0x000000000046c000      0x660 /usr/lib/gcc/x86_64-pc-linux-gnu/10.2.0/../../../../lib/crt1.o
                0x000000000046c000                _GLOBAL_OFFSET_TABLE_
 *(.igot.plt)
 .igot.plt      0x000000000046c660        0x0 /usr/lib/gcc/x86_64-pc-linux-gnu/10.2.0/../../../../lib/crt1.o

.data           0x000000000046c660     0x6518
 *(.data .data.* .gnu.linkonce.d.*)
 .data          0x000000000046c660        0x4 /usr/lib/gcc/x86_64-pc-linux-gnu/10.2.0/../../../../lib/crt1.o
                0x000000000046c660                data_start
                0x000000000046c660                __data_start
 .data          0x000000000046c664        0x0 /usr/lib/gcc/x86_64-pc-linux-gnu/10.2.0/../../../../lib/crti.o
 *fill*         0x000000000046c664        0x4 
 .data          0x000000000046c668        0x8 /usr/lib/gcc/x86_64-pc-linux-gnu/10.2.0/crtbegin.o
                0x000000000046c668                __dso_handle
 .data          0x000000000046c670        0x0 /usr/local/bin/../lib/freebasic/linux-x86_64/fbrt0.o
 .data          0x000000000046c670       0x12 c64dvd-glsl.o
 *fill*         0x000000000046c682       0x1e 
 .data.rel.local
                0x000000000046c6a0     0x6184 c64dvd-glsl.o
 .data          0x0000000000472824        0x0 /usr/local/bin/../lib/freebasic/linux-x86_64/libfbgfx.a(gfx_access.o)
 .data          0x0000000000472824        0x0 /usr/local/bin/../lib/freebasic/linux-x86_64/libfbgfx.a(gfx_bload.o)
 .data          0x0000000000472824        0x0 /usr/local/bin/../lib/freebasic/linux-x86_64/libfbgfx.a(gfx_circle.o)
 .data          0x0000000000472824        0x0 /usr/local/bin/../lib/freebasic/linux-x86_64/libfbgfx.a(gfx_control.o)
 .data          0x0000000000472824        0x0 /usr/local/bin/../lib/freebasic/linux-x86_64/libfbgfx.a(gfx_core.o)
 .data          0x0000000000472824        0x0 /usr/local/bin/../lib/freebasic/linux-x86_64/libfbgfx.a(gfx_drawstring.o)
 .data          0x0000000000472824        0x0 /usr/local/bin/../lib/freebasic/linux-x86_64/libfbgfx.a(gfx_image.o)
 .data          0x0000000000472824        0x0 /usr/local/bin/../lib/freebasic/linux-x86_64/libfbgfx.a(gfx_image_convert.o)
 .data          0x0000000000472824        0x0 /usr/local/bin/../lib/freebasic/linux-x86_64/libfbgfx.a(gfx_image_info.o)
 .data          0x0000000000472824        0x0 /usr/local/bin/../lib/freebasic/linux-x86_64/libfbgfx.a(gfx_line.o)
 *fill*         0x0000000000472824       0x1c 
 .data          0x0000000000472840       0x50 /usr/local/bin/../lib/freebasic/linux-x86_64/libfbgfx.a(gfx_opengl.o)
                0x0000000000472840                __fb_gl_params
 .data          0x0000000000472890        0x0 /usr/local/bin/../lib/freebasic/linux-x86_64/libfbgfx.a(gfx_page.o)
 .data          0x0000000000472890        0x0 /usr/local/bin/../lib/freebasic/linux-x86_64/libfbgfx.a(gfx_paint.o)
 .data          0x0000000000472890        0x0 /usr/local/bin/../lib/freebasic/linux-x86_64/libfbgfx.a(gfx_palette.o)
 .data          0x0000000000472890        0x0 /usr/local/bin/../lib/freebasic/linux-x86_64/libfbgfx.a(gfx_pset.o)
 .data          0x0000000000472890        0x0 /usr/local/bin/../lib/freebasic/linux-x86_64/libfbgfx.a(gfx_put.o)
 .data          0x0000000000472890        0x0 /usr/local/bin/../lib/freebasic/linux-x86_64/libfbgfx.a(gfx_put_alpha.o)
 *fill*         0x0000000000472890       0x10 
 .data.rel      0x00000000004728a0       0x20 /usr/local/bin/../lib/freebasic/linux-x86_64/libfbgfx.a(gfx_put_alpha.o)
 .data          0x00000000004728c0        0x0 /usr/local/bin/../lib/freebasic/linux-x86_64/libfbgfx.a(gfx_put_or.o)
 .data.rel.local
                0x00000000004728c0       0x20 /usr/local/bin/../lib/freebasic/linux-x86_64/libfbgfx.a(gfx_put_or.o)
 .data          0x00000000004728e0        0x0 /usr/local/bin/../lib/freebasic/linux-x86_64/libfbgfx.a(gfx_put_pset.o)
 .data.rel.local
                0x00000000004728e0       0x20 /usr/local/bin/../lib/freebasic/linux-x86_64/libfbgfx.a(gfx_put_pset.o)
 .data          0x0000000000472900        0x4 /usr/local/bin/../lib/freebasic/linux-x86_64/libfbgfx.a(gfx_screen.o)
 .data          0x0000000000472904        0x0 /usr/local/bin/../lib/freebasic/linux-x86_64/libfbgfx.a(gfx_screeninfo.o)
 .data          0x0000000000472904        0x0 /usr/local/bin/../lib/freebasic/linux-x86_64/libfbgfx.a(gfx_screenlist.o)
 .data          0x0000000000472904        0x0 /usr/local/bin/../lib/freebasic/linux-x86_64/libfbgfx.a(gfx_setmouse.o)
 .data          0x0000000000472904        0x0 /usr/local/bin/../lib/freebasic/linux-x86_64/libfbgfx.a(gfx_sleep.o)
 .data          0x0000000000472904        0x0 /usr/local/bin/../lib/freebasic/linux-x86_64/libfbgfx.a(gfx_unix.o)
 *fill*         0x0000000000472904       0x1c 
 .data.rel      0x0000000000472920       0x20 /usr/local/bin/../lib/freebasic/linux-x86_64/libfbgfx.a(gfx_unix.o)
                0x0000000000472920                __fb_gfx_drivers_list
 .data          0x0000000000472940        0x0 /usr/local/bin/../lib/freebasic/linux-x86_64/libfbgfx.a(gfx_vars.o)
 .data.rel      0x0000000000472940       0x10 /usr/local/bin/../lib/freebasic/linux-x86_64/libfbgfx.a(gfx_vars.o)
                0x0000000000472940                fb_hMemSet
                0x0000000000472948                fb_hMemCpy
 .data          0x0000000000472950        0x4 /usr/local/bin/../lib/freebasic/linux-x86_64/libfbgfx.a(gfx_vgaemu.o)
 .data          0x0000000000472954        0x0 /usr/local/bin/../lib/freebasic/linux-x86_64/libfbgfx.a(gfx_width.o)
 .data          0x0000000000472954        0x0 /usr/local/bin/../lib/freebasic/linux-x86_64/libfbgfx.a(gfx_x11.o)
 .data          0x0000000000472954        0x0 /usr/local/bin/../lib/freebasic/linux-x86_64/libfbgfx.a(gfx_x11_icon_stub.o)
 .data          0x0000000000472954        0x0 /usr/local/bin/../lib/freebasic/linux-x86_64/libfbgfx.a(gfx_box.o)
 .data          0x0000000000472954        0x0 /usr/local/bin/../lib/freebasic/linux-x86_64/libfbgfx.a(gfx_cls.o)
 .data          0x0000000000472954        0x0 /usr/local/bin/../lib/freebasic/linux-x86_64/libfbgfx.a(gfx_color.o)
 .data          0x0000000000472954        0x0 /usr/local/bin/../lib/freebasic/linux-x86_64/libfbgfx.a(gfx_data.o)
 .data          0x0000000000472954       0x10 /usr/local/bin/../lib/freebasic/linux-x86_64/libfbgfx.a(gfx_driver_fbdev.o)
 *fill*         0x0000000000472964       0x1c 
 .data.rel.local
                0x0000000000472980       0x70 /usr/local/bin/../lib/freebasic/linux-x86_64/libfbgfx.a(gfx_driver_fbdev.o)
                0x0000000000472980                fb_gfxDriverFBDev
 .data          0x00000000004729f0        0x0 /usr/local/bin/../lib/freebasic/linux-x86_64/libfbgfx.a(gfx_driver_null.o)
 .data          0x00000000004729f0        0x0 /usr/local/bin/../lib/freebasic/linux-x86_64/libfbgfx.a(gfx_driver_opengl_x11.o)
 *fill*         0x00000000004729f0       0x10 
 .data.rel      0x0000000000472a00       0x70 /usr/local/bin/../lib/freebasic/linux-x86_64/libfbgfx.a(gfx_driver_opengl_x11.o)
                0x0000000000472a00                fb_gfxDriverOpenGL
 .data          0x0000000000472a70        0x0 /usr/local/bin/../lib/freebasic/linux-x86_64/libfbgfx.a(gfx_driver_x11.o)
 *fill*         0x0000000000472a70       0x10 
 .data.rel      0x0000000000472a80       0x70 /usr/local/bin/../lib/freebasic/linux-x86_64/libfbgfx.a(gfx_driver_x11.o)
                0x0000000000472a80                fb_gfxDriverX11
 .data          0x0000000000472af0        0x0 /usr/local/bin/../lib/freebasic/linux-x86_64/libfbgfx.a(gfx_getmouse.o)
 .data          0x0000000000472af0        0x0 /usr/local/bin/../lib/freebasic/linux-x86_64/libfbgfx.a(gfx_inkey.o)
 .data          0x0000000000472af0        0x0 /usr/local/bin/../lib/freebasic/linux-x86_64/libfbgfx.a(gfx_lineinp.o)
 .data          0x0000000000472af0        0x0 /usr/local/bin/../lib/freebasic/linux-x86_64/libfbgfx.a(gfx_lineinp_wstr.o)
 .data          0x0000000000472af0        0x0 /usr/local/bin/../lib/freebasic/linux-x86_64/libfbgfx.a(gfx_lzw.o)
 .data          0x0000000000472af0        0x0 /usr/local/bin/../lib/freebasic/linux-x86_64/libfbgfx.a(gfx_multikey.o)
 .data          0x0000000000472af0        0x0 /usr/local/bin/../lib/freebasic/linux-x86_64/libfbgfx.a(gfx_print.o)
 .data          0x0000000000472af0        0x0 /usr/local/bin/../lib/freebasic/linux-x86_64/libfbgfx.a(gfx_print_wstr.o)
 .data          0x0000000000472af0        0x0 /usr/local/bin/../lib/freebasic/linux-x86_64/libfbgfx.a(gfx_readstr.o)
 .data          0x0000000000472af0        0x0 /usr/local/bin/../lib/freebasic/linux-x86_64/libfbgfx.a(gfx_readxy.o)
 .data          0x0000000000472af0        0x0 /usr/local/bin/../lib/freebasic/linux-x86_64/libfbgfx.a(gfx_softcursor.o)
 .data          0x0000000000472af0        0x0 /usr/local/bin/../lib/freebasic/linux-x86_64/libfbgfx.a(gfx_view.o)
 .data          0x0000000000472af0        0x0 /usr/local/bin/../lib/freebasic/linux-x86_64/libfbgfx.a(gfx_blitter.o)
 .data          0x0000000000472af0        0x0 /usr/local/bin/../lib/freebasic/linux-x86_64/libfb.a(array_destructstr.o)
 .data          0x0000000000472af0        0x0 /usr/local/bin/../lib/freebasic/linux-x86_64/libfb.a(con_input.o)
 .data          0x0000000000472af0        0x0 /usr/local/bin/../lib/freebasic/linux-x86_64/libfb.a(con_locate.o)
 .data          0x0000000000472af0        0x0 /usr/local/bin/../lib/freebasic/linux-x86_64/libfb.a(con_print_tty.o)
 .data          0x0000000000472af0        0x0 /usr/local/bin/../lib/freebasic/linux-x86_64/libfb.a(con_readline.o)
 .data          0x0000000000472af0        0x0 /usr/local/bin/../lib/freebasic/linux-x86_64/libfb.a(data.o)
 .data          0x0000000000472af0        0x0 /usr/local/bin/../lib/freebasic/linux-x86_64/libfb.a(data_readlong.o)
 .data          0x0000000000472af0        0x0 /usr/local/bin/../lib/freebasic/linux-x86_64/libfb.a(data_readstr.o)
 .data          0x0000000000472af0        0x0 /usr/local/bin/../lib/freebasic/linux-x86_64/libfb.a(data_readulong.o)
 .data          0x0000000000472af0        0x0 /usr/local/bin/../lib/freebasic/linux-x86_64/libfb.a(dev_scrn_init.o)
 .data          0x0000000000472af0        0x0 /usr/local/bin/../lib/freebasic/linux-x86_64/libfb.a(dev_scrn_read.o)
 .data          0x0000000000472af0        0x0 /usr/local/bin/../lib/freebasic/linux-x86_64/libfb.a(error_getset.o)
 .data          0x0000000000472af0        0x0 /usr/local/bin/../lib/freebasic/linux-x86_64/libfb.a(file_close.o)
 .data          0x0000000000472af0        0x0 /usr/local/bin/../lib/freebasic/linux-x86_64/libfb.a(file_eof.o)
 .data          0x0000000000472af0        0x0 /usr/local/bin/../lib/freebasic/linux-x86_64/libfb.a(file_free.o)
 .data          0x0000000000472af0        0x0 /usr/local/bin/../lib/freebasic/linux-x86_64/libfb.a(file_get.o)
 .data          0x0000000000472af0        0x0 /usr/local/bin/../lib/freebasic/linux-x86_64/libfb.a(file_hconvpath.o)
 .data          0x0000000000472af0        0x0 /usr/local/bin/../lib/freebasic/linux-x86_64/libfb.a(file_input_file.o)
 .data          0x0000000000472af0        0x0 /usr/local/bin/../lib/freebasic/linux-x86_64/libfb.a(file_input_str.o)
 .data          0x0000000000472af0        0x0 /usr/local/bin/../lib/freebasic/linux-x86_64/libfb.a(file_input_tok.o)
 .data          0x0000000000472af0        0x0 /usr/local/bin/../lib/freebasic/linux-x86_64/libfb.a(file_lineinp.o)
 .data          0x0000000000472af0        0x0 /usr/local/bin/../lib/freebasic/linux-x86_64/libfb.a(file_open.o)
 .data          0x0000000000472af0        0x0 /usr/local/bin/../lib/freebasic/linux-x86_64/libfb.a(file_put.o)
 .data          0x0000000000472af0        0x0 /usr/local/bin/../lib/freebasic/linux-x86_64/libfb.a(file_putback.o)
 .data          0x0000000000472af0        0x0 /usr/local/bin/../lib/freebasic/linux-x86_64/libfb.a(file_reset.o)
 .data          0x0000000000472af0        0x0 /usr/local/bin/../lib/freebasic/linux-x86_64/libfb.a(file_seek.o)
 .data          0x0000000000472af0        0x0 /usr/local/bin/../lib/freebasic/linux-x86_64/libfb.a(file_size.o)
 .data          0x0000000000472af0        0x0 /usr/local/bin/../lib/freebasic/linux-x86_64/libfb.a(hdynload.o)
 .data          0x0000000000472af0        0x0 /usr/local/bin/../lib/freebasic/linux-x86_64/libfb.a(hook_cls.o)
 .data          0x0000000000472af0        0x0 /usr/local/bin/../lib/freebasic/linux-x86_64/libfb.a(hook_getmouse64.o)
 .data          0x0000000000472af0        0x0 /usr/local/bin/../lib/freebasic/linux-x86_64/libfb.a(hook_getsize.o)
 .data          0x0000000000472af0        0x0 /usr/local/bin/../lib/freebasic/linux-x86_64/libfb.a(hook_getx.o)
 .data          0x0000000000472af0        0x0 /usr/local/bin/../lib/freebasic/linux-x86_64/libfb.a(hook_getxy.o)
 .data          0x0000000000472af0        0x0 /usr/local/bin/../lib/freebasic/linux-x86_64/libfb.a(hook_inkey.o)
 .data          0x0000000000472af0        0x0 /usr/local/bin/../lib/freebasic/linux-x86_64/libfb.a(hook_isredir.o)
 .data          0x0000000000472af0        0x0 /usr/local/bin/../lib/freebasic/linux-x86_64/libfb.a(hook_lineinp.o)
 .data          0x0000000000472af0        0x0 /usr/local/bin/../lib/freebasic/linux-x86_64/libfb.a(hook_locate_ex.o)
 .data          0x0000000000472af0        0x0 /usr/local/bin/../lib/freebasic/linux-x86_64/libfb.a(hook_pageset.o)
 .data          0x0000000000472af0        0x0 /usr/local/bin/../lib/freebasic/linux-x86_64/libfb.a(hook_pcopy.o)
 .data          0x0000000000472af0        0x0 /usr/local/bin/../lib/freebasic/linux-x86_64/libfb.a(hook_printstr.o)
 .data          0x0000000000472af0        0x0 /usr/local/bin/../lib/freebasic/linux-x86_64/libfb.a(hook_sleep.o)
 .data          0x0000000000472af0        0x0 /usr/local/bin/../lib/freebasic/linux-x86_64/libfb.a(hook_width.o)
 .data          0x0000000000472af0        0x0 /usr/local/bin/../lib/freebasic/linux-x86_64/libfb.a(init.o)
 .data          0x0000000000472af0        0x0 /usr/local/bin/../lib/freebasic/linux-x86_64/libfb.a(io_cls.o)
 .data          0x0000000000472af0        0x0 /usr/local/bin/../lib/freebasic/linux-x86_64/libfb.a(io_getsize.o)
 .data          0x0000000000472af0        0x0 /usr/local/bin/../lib/freebasic/linux-x86_64/libfb.a(io_getx.o)
 .data          0x0000000000472af0        0x0 /usr/local/bin/../lib/freebasic/linux-x86_64/libfb.a(io_getxy.o)
 .data          0x0000000000472af0        0x0 /usr/local/bin/../lib/freebasic/linux-x86_64/libfb.a(io_hinkey.o)
 .data          0x0000000000472af0        0x0 /usr/local/bin/../lib/freebasic/linux-x86_64/libfb.a(io_inkey.o)
 .data          0x0000000000472af0        0x0 /usr/local/bin/../lib/freebasic/linux-x86_64/libfb.a(io_isredir.o)
 .data          0x0000000000472af0        0x4 /usr/local/bin/../lib/freebasic/linux-x86_64/libfb.a(io_locate.o)
 .data          0x0000000000472af4        0x0 /usr/local/bin/../lib/freebasic/linux-x86_64/libfb.a(io_maxrow.o)
 .data          0x0000000000472af4        0x0 /usr/local/bin/../lib/freebasic/linux-x86_64/libfb.a(io_multikey.o)
 .data          0x0000000000472af4        0x0 /usr/local/bin/../lib/freebasic/linux-x86_64/libfb.a(io_pageset.o)
 .data          0x0000000000472af4        0x0 /usr/local/bin/../lib/freebasic/linux-x86_64/libfb.a(io_pcopy.o)
 .data          0x0000000000472af4        0x0 /usr/local/bin/../lib/freebasic/linux-x86_64/libfb.a(io_print.o)
 .data          0x0000000000472af4        0x0 /usr/local/bin/../lib/freebasic/linux-x86_64/libfb.a(io_print_fix.o)
 .data          0x0000000000472af4        0x0 /usr/local/bin/../lib/freebasic/linux-x86_64/libfb.a(io_print_wstr.o)
 .data          0x0000000000472af4        0x0 /usr/local/bin/../lib/freebasic/linux-x86_64/libfb.a(io_printbuff.o)
 .data          0x0000000000472af4        0x0 /usr/local/bin/../lib/freebasic/linux-x86_64/libfb.a(io_printvoid.o)
 .data          0x0000000000472af4        0x0 /usr/local/bin/../lib/freebasic/linux-x86_64/libfb.a(io_printvoid_wstr.o)
 .data          0x0000000000472af4        0x0 /usr/local/bin/../lib/freebasic/linux-x86_64/libfb.a(io_setpos.o)
 .data          0x0000000000472af4        0x0 /usr/local/bin/../lib/freebasic/linux-x86_64/libfb.a(io_view.o)
 .data          0x0000000000472af4        0x8 /usr/local/bin/../lib/freebasic/linux-x86_64/libfb.a(io_viewhlp.o)
 .data          0x0000000000472afc        0x0 /usr/local/bin/../lib/freebasic/linux-x86_64/libfb.a(io_width.o)
 .data          0x0000000000472afc        0x0 /usr/local/bin/../lib/freebasic/linux-x86_64/libfb.a(io_xfocus.o)
 .data          0x0000000000472afc        0x0 /usr/local/bin/../lib/freebasic/linux-x86_64/libfb.a(scancodes.o)
 .data          0x0000000000472afc        0x0 /usr/local/bin/../lib/freebasic/linux-x86_64/libfb.a(scancodes_x11.o)
 .data          0x0000000000472afc        0x0 /usr/local/bin/../lib/freebasic/linux-x86_64/libfb.a(str_asc.o)
 .data          0x0000000000472afc        0x0 /usr/local/bin/../lib/freebasic/linux-x86_64/libfb.a(str_assign.o)
 .data          0x0000000000472afc        0x0 /usr/local/bin/../lib/freebasic/linux-x86_64/libfb.a(str_chr.o)
 .data          0x0000000000472afc        0x0 /usr/local/bin/../lib/freebasic/linux-x86_64/libfb.a(str_comp.o)
 .data          0x0000000000472afc        0x0 /usr/local/bin/../lib/freebasic/linux-x86_64/libfb.a(str_concat.o)
 .data          0x0000000000472afc        0x0 /usr/local/bin/../lib/freebasic/linux-x86_64/libfb.a(str_concatassign.o)
 .data          0x0000000000472afc        0x0 /usr/local/bin/../lib/freebasic/linux-x86_64/libfb.a(str_convfrom.o)
 .data          0x0000000000472afc        0x0 /usr/local/bin/../lib/freebasic/linux-x86_64/libfb.a(str_convfrom_lng.o)
 .data          0x0000000000472afc        0x0 /usr/local/bin/../lib/freebasic/linux-x86_64/libfb.a(str_convfrom_radlng.o)
 .data          0x0000000000472afc        0x0 /usr/local/bin/../lib/freebasic/linux-x86_64/libfb.a(str_convfrom_ulng.o)
 .data          0x0000000000472afc        0x0 /usr/local/bin/../lib/freebasic/linux-x86_64/libfb.a(str_convto.o)
 .data          0x0000000000472afc        0x0 /usr/local/bin/../lib/freebasic/linux-x86_64/libfb.a(str_convto_flt.o)
 .data          0x0000000000472afc        0x0 /usr/local/bin/../lib/freebasic/linux-x86_64/libfb.a(str_convto_lng.o)
 .data          0x0000000000472afc        0x0 /usr/local/bin/../lib/freebasic/linux-x86_64/libfb.a(str_core.o)
 .data          0x0000000000472afc        0x0 /usr/local/bin/../lib/freebasic/linux-x86_64/libfb.a(str_del.o)
 .data          0x0000000000472afc        0x0 /usr/local/bin/../lib/freebasic/linux-x86_64/libfb.a(str_fill.o)
 .data          0x0000000000472afc        0x0 /usr/local/bin/../lib/freebasic/linux-x86_64/libfb.a(str_hex.o)
 .data          0x0000000000472afc        0x0 /usr/local/bin/../lib/freebasic/linux-x86_64/libfb.a(str_hex_lng.o)
 .data          0x0000000000472afc        0x0 /usr/local/bin/../lib/freebasic/linux-x86_64/libfb.a(str_hskip.o)
 .data          0x0000000000472afc        0x0 /usr/local/bin/../lib/freebasic/linux-x86_64/libfb.a(str_lcase.o)
 .data          0x0000000000472afc        0x0 /usr/local/bin/../lib/freebasic/linux-x86_64/libfb.a(str_len.o)
 .data          0x0000000000472afc        0x0 /usr/local/bin/../lib/freebasic/linux-x86_64/libfb.a(str_mid.o)
 .data          0x0000000000472afc        0x0 /usr/local/bin/../lib/freebasic/linux-x86_64/libfb.a(str_misc.o)
 .data          0x0000000000472afc        0x0 /usr/local/bin/../lib/freebasic/linux-x86_64/libfb.a(str_tempdescf.o)
 .data          0x0000000000472afc        0x0 /usr/local/bin/../lib/freebasic/linux-x86_64/libfb.a(str_tempdescz.o)
 .data          0x0000000000472afc        0x0 /usr/local/bin/../lib/freebasic/linux-x86_64/libfb.a(str_tempres.o)
 .data          0x0000000000472afc        0x0 /usr/local/bin/../lib/freebasic/linux-x86_64/libfb.a(strw_convassign.o)
 .data          0x0000000000472afc        0x0 /usr/local/bin/../lib/freebasic/linux-x86_64/libfb.a(strw_convfrom_lng.o)
 .data          0x0000000000472afc        0x0 /usr/local/bin/../lib/freebasic/linux-x86_64/libfb.a(strw_convfrom_str.o)
 .data          0x0000000000472afc        0x0 /usr/local/bin/../lib/freebasic/linux-x86_64/libfb.a(strw_convfrom_ulng.o)
 .data          0x0000000000472afc        0x0 /usr/local/bin/../lib/freebasic/linux-x86_64/libfb.a(strw_convto_str.o)
 .data          0x0000000000472afc        0x0 /usr/local/bin/../lib/freebasic/linux-x86_64/libfb.a(sys_beep.o)
 .data          0x0000000000472afc        0x0 /usr/local/bin/../lib/freebasic/linux-x86_64/libfb.a(sys_chain.o)
 .data          0x0000000000472afc        0x0 /usr/local/bin/../lib/freebasic/linux-x86_64/libfb.a(sys_delay.o)
 .data          0x0000000000472afc        0x0 /usr/local/bin/../lib/freebasic/linux-x86_64/libfb.a(sys_execex.o)
 .data          0x0000000000472afc        0x0 /usr/local/bin/../lib/freebasic/linux-x86_64/libfb.a(sys_fmem.o)
 .data          0x0000000000472afc        0x0 /usr/local/bin/../lib/freebasic/linux-x86_64/libfb.a(sys_getexename.o)
 .data          0x0000000000472afc        0x0 /usr/local/bin/../lib/freebasic/linux-x86_64/libfb.a(sys_parseargs.o)
 .data          0x0000000000472afc        0x0 /usr/local/bin/../lib/freebasic/linux-x86_64/libfb.a(sys_shell.o)
 .data          0x0000000000472afc        0x0 /usr/local/bin/../lib/freebasic/linux-x86_64/libfb.a(thread_ctx.o)
 .data          0x0000000000472afc        0x0 /usr/local/bin/../lib/freebasic/linux-x86_64/libfb.a(thread_mutex.o)
 .data          0x0000000000472afc        0x0 /usr/local/bin/../lib/freebasic/linux-x86_64/libfb.a(time_sleep.o)
 .data          0x0000000000472afc        0x0 /usr/local/bin/../lib/freebasic/linux-x86_64/libfb.a(time_sleepex.o)
 .data          0x0000000000472afc        0x0 /usr/local/bin/../lib/freebasic/linux-x86_64/libfb.a(time_timer.o)
 .data          0x0000000000472afc        0x0 /usr/local/bin/../lib/freebasic/linux-x86_64/libfb.a(vfs_open.o)
 .data          0x0000000000472afc        0x0 /usr/local/bin/../lib/freebasic/linux-x86_64/libfb.a(con_lineinp.o)
 .data          0x0000000000472afc        0x0 /usr/local/bin/../lib/freebasic/linux-x86_64/libfb.a(con_print_raw.o)
 .data          0x0000000000472afc        0x0 /usr/local/bin/../lib/freebasic/linux-x86_64/libfb.a(dev_file_open.o)
 *fill*         0x0000000000472afc        0x4 
 .data.rel      0x0000000000472b00       0x70 /usr/local/bin/../lib/freebasic/linux-x86_64/libfb.a(dev_file_open.o)
 .data          0x0000000000472b70        0x0 /usr/local/bin/../lib/freebasic/linux-x86_64/libfb.a(dev_file_read.o)
 .data          0x0000000000472b70        0x0 /usr/local/bin/../lib/freebasic/linux-x86_64/libfb.a(dev_file_read_wstr.o)
 .data          0x0000000000472b70        0x0 /usr/local/bin/../lib/freebasic/linux-x86_64/libfb.a(dev_file_readline.o)
 .data          0x0000000000472b70        0x0 /usr/local/bin/../lib/freebasic/linux-x86_64/libfb.a(dev_file_readline_wstr.o)
 .data          0x0000000000472b70        0x0 /usr/local/bin/../lib/freebasic/linux-x86_64/libfb.a(dev_file_seek.o)
 .data          0x0000000000472b70        0x0 /usr/local/bin/../lib/freebasic/linux-x86_64/libfb.a(dev_file_size.o)
 .data          0x0000000000472b70        0x0 /usr/local/bin/../lib/freebasic/linux-x86_64/libfb.a(dev_file_tell.o)
 .data          0x0000000000472b70        0x0 /usr/local/bin/../lib/freebasic/linux-x86_64/libfb.a(dev_file_unlock.o)
 .data          0x0000000000472b70        0x0 /usr/local/bin/../lib/freebasic/linux-x86_64/libfb.a(dev_file_write.o)
 .data          0x0000000000472b70        0x0 /usr/local/bin/../lib/freebasic/linux-x86_64/libfb.a(dev_file_write_wstr.o)
 .data          0x0000000000472b70        0x0 /usr/local/bin/../lib/freebasic/linux-x86_64/libfb.a(dev_scrn_eof.o)
 .data          0x0000000000472b70        0x0 /usr/local/bin/../lib/freebasic/linux-x86_64/libfb.a(file_hlock.o)
 .data          0x0000000000472b70        0x0 /usr/local/bin/../lib/freebasic/linux-x86_64/libfb.a(file_print.o)
 .data          0x0000000000472b70        0x0 /usr/local/bin/../lib/freebasic/linux-x86_64/libfb.a(file_print_wstr.o)
 .data          0x0000000000472b70        0x0 /usr/local/bin/../lib/freebasic/linux-x86_64/libfb.a(hinit.o)
 .data          0x0000000000472b70        0x4 /usr/local/bin/../lib/freebasic/linux-x86_64/libfb.a(hinit_enable_vt100_escapes.o)
                0x0000000000472b70                __fb_enable_vt100_escapes
 .data          0x0000000000472b74        0x0 /usr/local/bin/../lib/freebasic/linux-x86_64/libfb.a(hook_getmouse.o)
 .data          0x0000000000472b74        0x0 /usr/local/bin/../lib/freebasic/linux-x86_64/libfb.a(hook_view_update.o)
 .data          0x0000000000472b74        0x0 /usr/local/bin/../lib/freebasic/linux-x86_64/libfb.a(io_input.o)
 .data          0x0000000000472b74        0x4 /usr/local/bin/../lib/freebasic/linux-x86_64/libfb.a(io_mouse.o)
 .data          0x0000000000472b78        0x0 /usr/local/bin/../lib/freebasic/linux-x86_64/libfb.a(io_printpad.o)
 .data          0x0000000000472b78        0x0 /usr/local/bin/../lib/freebasic/linux-x86_64/libfb.a(io_printpad_wstr.o)
 .data          0x0000000000472b78        0x0 /usr/local/bin/../lib/freebasic/linux-x86_64/libfb.a(io_viewupdate.o)
 .data          0x0000000000472b78        0x0 /usr/local/bin/../lib/freebasic/linux-x86_64/libfb.a(list.o)
 .data          0x0000000000472b78        0x0 /usr/local/bin/../lib/freebasic/linux-x86_64/libfb.a(listdyn.o)
 .data          0x0000000000472b78        0x0 /usr/local/bin/../lib/freebasic/linux-x86_64/libfb.a(sys_hshell.o)
 .data          0x0000000000472b78        0x0 /usr/local/bin/../lib/freebasic/linux-x86_64/libfb.a(dev_file_close.o)
 .data          0x0000000000472b78        0x0 /usr/local/bin/../lib/freebasic/linux-x86_64/libfb.a(dev_file_eof.o)
 .data          0x0000000000472b78        0x0 /usr/local/bin/../lib/freebasic/linux-x86_64/libfb.a(dev_file_flush.o)
 .data          0x0000000000472b78        0x0 /usr/local/bin/../lib/freebasic/linux-x86_64/libfb.a(dev_file_lock.o)
 .data          0x0000000000472b78        0x0 /usr/local/bin/../lib/freebasic/linux-x86_64/libfb.a(dev_scrn_write.o)
 .data          0x0000000000472b78        0x0 /usr/local/bin/../lib/freebasic/linux-x86_64/libfb.a(dev_scrn_write_wstr.o)
 .data          0x0000000000472b78        0x0 /usr/local/bin/../lib/freebasic/linux-x86_64/libfb.a(hook_print_wstr.o)
 .data          0x0000000000472b78        0x0 /usr/local/bin/../lib/freebasic/linux-x86_64/libfb.a(io_printbuff_wstr.o)
 .data          0x0000000000472b78        0x0 /usr/local/bin/../lib/freebasic/linux-x86_64/libfb.a(utf_convfrom_wchar.o)
 .data          0x0000000000472b78        0x0 /usr/local/bin/../lib/freebasic/linux-x86_64/libfb.a(utf_core.o)
 .data          0x0000000000472b78        0x0 /usr/lib/libc_nonshared.a(elf-init.oS)
 .data          0x0000000000472b78        0x0 /usr/lib/gcc/x86_64-pc-linux-gnu/10.2.0/crtend.o
 .data          0x0000000000472b78        0x0 /usr/lib/gcc/x86_64-pc-linux-gnu/10.2.0/../../../../lib/crtn.o

.tm_clone_table
                0x0000000000472b78        0x0
 .tm_clone_table
                0x0000000000472b78        0x0 /usr/lib/gcc/x86_64-pc-linux-gnu/10.2.0/crtbegin.o
 .tm_clone_table
                0x0000000000472b78        0x0 /usr/lib/gcc/x86_64-pc-linux-gnu/10.2.0/crtend.o

.data1
 *(.data1)
                0x0000000000472b78                _edata = .
                [!provide]                        PROVIDE (edata = .)
                0x0000000000472b78                . = .
                0x0000000000472b78                __bss_start = .

.bss            0x0000000000472b80    0x18c58
 *(.dynbss)
 .dynbss        0x0000000000472b80       0x50 /usr/lib/gcc/x86_64-pc-linux-gnu/10.2.0/../../../../lib/crt1.o
                0x0000000000472b80                PC
                0x0000000000472b88                UP
                0x0000000000472b90                stdin@@GLIBC_2.2.5
                0x0000000000472b98                ospeed
                0x0000000000472ba0                BC
                0x0000000000472bc0                stderr@@GLIBC_2.2.5
                0x0000000000472bc8                stdout@@GLIBC_2.2.5
 *(.bss .bss.* .gnu.linkonce.b.*)
 .bss           0x0000000000472bd0        0x0 /usr/lib/gcc/x86_64-pc-linux-gnu/10.2.0/../../../../lib/crt1.o
 .bss           0x0000000000472bd0        0x0 /usr/lib/gcc/x86_64-pc-linux-gnu/10.2.0/../../../../lib/crti.o
 .bss           0x0000000000472bd0        0x1 /usr/lib/gcc/x86_64-pc-linux-gnu/10.2.0/crtbegin.o
 .bss           0x0000000000472bd1        0x0 /usr/local/bin/../lib/freebasic/linux-x86_64/fbrt0.o
 *fill*         0x0000000000472bd1        0xf 
 .bss           0x0000000000472be0      0x1c0 c64dvd-glsl.o
                0x0000000000472be0                FILENAME$
                0x0000000000472c00                STRCODE$
                0x0000000000472c18                IMAGE$
                0x0000000000472c20                OFFSET$
                0x0000000000472c28                SWCH$
 .bss           0x0000000000472da0        0x0 /usr/local/bin/../lib/freebasic/linux-x86_64/libfbgfx.a(gfx_access.o)
 .bss           0x0000000000472da0        0x0 /usr/local/bin/../lib/freebasic/linux-x86_64/libfbgfx.a(gfx_bload.o)
 .bss           0x0000000000472da0        0x0 /usr/local/bin/../lib/freebasic/linux-x86_64/libfbgfx.a(gfx_circle.o)
 .bss           0x0000000000472da0        0x0 /usr/local/bin/../lib/freebasic/linux-x86_64/libfbgfx.a(gfx_control.o)
 .bss           0x0000000000472da0       0x28 /usr/local/bin/../lib/freebasic/linux-x86_64/libfbgfx.a(gfx_core.o)
 .bss           0x0000000000472dc8        0x0 /usr/local/bin/../lib/freebasic/linux-x86_64/libfbgfx.a(gfx_drawstring.o)
 .bss           0x0000000000472dc8        0x0 /usr/local/bin/../lib/freebasic/linux-x86_64/libfbgfx.a(gfx_image.o)
 .bss           0x0000000000472dc8        0x0 /usr/local/bin/../lib/freebasic/linux-x86_64/libfbgfx.a(gfx_image_convert.o)
 .bss           0x0000000000472dc8        0x0 /usr/local/bin/../lib/freebasic/linux-x86_64/libfbgfx.a(gfx_image_info.o)
 .bss           0x0000000000472dc8        0x0 /usr/local/bin/../lib/freebasic/linux-x86_64/libfbgfx.a(gfx_line.o)
 *fill*         0x0000000000472dc8       0x18 
 .bss           0x0000000000472de0     0x4d40 /usr/local/bin/../lib/freebasic/linux-x86_64/libfbgfx.a(gfx_opengl.o)
                0x0000000000472de0                __fb_gl
 .bss           0x0000000000477b20        0x0 /usr/local/bin/../lib/freebasic/linux-x86_64/libfbgfx.a(gfx_page.o)
 .bss           0x0000000000477b20        0x0 /usr/local/bin/../lib/freebasic/linux-x86_64/libfbgfx.a(gfx_paint.o)
 .bss           0x0000000000477b20        0x0 /usr/local/bin/../lib/freebasic/linux-x86_64/libfbgfx.a(gfx_palette.o)
 .bss           0x0000000000477b20        0x0 /usr/local/bin/../lib/freebasic/linux-x86_64/libfbgfx.a(gfx_pset.o)
 .bss           0x0000000000477b20        0x0 /usr/local/bin/../lib/freebasic/linux-x86_64/libfbgfx.a(gfx_put.o)
 .bss           0x0000000000477b20        0x0 /usr/local/bin/../lib/freebasic/linux-x86_64/libfbgfx.a(gfx_put_alpha.o)
 .bss           0x0000000000477b20        0x0 /usr/local/bin/../lib/freebasic/linux-x86_64/libfbgfx.a(gfx_put_or.o)
 .bss           0x0000000000477b20        0x0 /usr/local/bin/../lib/freebasic/linux-x86_64/libfbgfx.a(gfx_put_pset.o)
 .bss           0x0000000000477b20       0xa0 /usr/local/bin/../lib/freebasic/linux-x86_64/libfbgfx.a(gfx_screen.o)
 .bss           0x0000000000477bc0        0x0 /usr/local/bin/../lib/freebasic/linux-x86_64/libfbgfx.a(gfx_screeninfo.o)
 .bss           0x0000000000477bc0       0x10 /usr/local/bin/../lib/freebasic/linux-x86_64/libfbgfx.a(gfx_screenlist.o)
 .bss           0x0000000000477bd0        0x0 /usr/local/bin/../lib/freebasic/linux-x86_64/libfbgfx.a(gfx_setmouse.o)
 .bss           0x0000000000477bd0        0x0 /usr/local/bin/../lib/freebasic/linux-x86_64/libfbgfx.a(gfx_sleep.o)
 .bss           0x0000000000477bd0        0x0 /usr/local/bin/../lib/freebasic/linux-x86_64/libfbgfx.a(gfx_unix.o)
 .bss           0x0000000000477bd0       0x30 /usr/local/bin/../lib/freebasic/linux-x86_64/libfbgfx.a(gfx_vars.o)
                0x0000000000477bd0                __fb_gfx_driver_name
                0x0000000000477bd8                __fb_window_title
                0x0000000000477be0                __fb_color_conv_16to32
                0x0000000000477be8                fb_hPixelSet
                0x0000000000477bf0                fb_hPixelCpy
                0x0000000000477bf8                __fb_gfx
 .bss           0x0000000000477c00        0x8 /usr/local/bin/../lib/freebasic/linux-x86_64/libfbgfx.a(gfx_vgaemu.o)
 .bss           0x0000000000477c08        0x0 /usr/local/bin/../lib/freebasic/linux-x86_64/libfbgfx.a(gfx_width.o)
 *fill*         0x0000000000477c08       0x18 
 .bss           0x0000000000477c20      0x190 /usr/local/bin/../lib/freebasic/linux-x86_64/libfbgfx.a(gfx_x11.o)
                0x0000000000477c20                fb_x11
 .bss           0x0000000000477db0        0x8 /usr/local/bin/../lib/freebasic/linux-x86_64/libfbgfx.a(gfx_x11_icon_stub.o)
                0x0000000000477db0                fb_program_icon
 .bss           0x0000000000477db8        0x0 /usr/local/bin/../lib/freebasic/linux-x86_64/libfbgfx.a(gfx_box.o)
 .bss           0x0000000000477db8        0x0 /usr/local/bin/../lib/freebasic/linux-x86_64/libfbgfx.a(gfx_cls.o)
 .bss           0x0000000000477db8        0x0 /usr/local/bin/../lib/freebasic/linux-x86_64/libfbgfx.a(gfx_color.o)
 *fill*         0x0000000000477db8        0x8 
 .bss           0x0000000000477dc0     0x2a16 /usr/local/bin/../lib/freebasic/linux-x86_64/libfbgfx.a(gfx_data.o)
 *fill*         0x000000000047a7d6        0xa 
 .bss           0x000000000047a7e0     0x1320 /usr/local/bin/../lib/freebasic/linux-x86_64/libfbgfx.a(gfx_driver_fbdev.o)
 .bss           0x000000000047bb00        0x0 /usr/local/bin/../lib/freebasic/linux-x86_64/libfbgfx.a(gfx_driver_null.o)
 .bss           0x000000000047bb00       0x50 /usr/local/bin/../lib/freebasic/linux-x86_64/libfbgfx.a(gfx_driver_opengl_x11.o)
 *fill*         0x000000000047bb50       0x10 
 .bss           0x000000000047bb60       0x60 /usr/local/bin/../lib/freebasic/linux-x86_64/libfbgfx.a(gfx_driver_x11.o)
 .bss           0x000000000047bbc0        0x0 /usr/local/bin/../lib/freebasic/linux-x86_64/libfbgfx.a(gfx_getmouse.o)
 .bss           0x000000000047bbc0       0x60 /usr/local/bin/../lib/freebasic/linux-x86_64/libfbgfx.a(gfx_inkey.o)
 .bss           0x000000000047bc20        0x0 /usr/local/bin/../lib/freebasic/linux-x86_64/libfbgfx.a(gfx_lineinp.o)
 .bss           0x000000000047bc20        0x0 /usr/local/bin/../lib/freebasic/linux-x86_64/libfbgfx.a(gfx_lineinp_wstr.o)
 .bss           0x000000000047bc20     0x75ae /usr/local/bin/../lib/freebasic/linux-x86_64/libfbgfx.a(gfx_lzw.o)
                0x000000000047bc20                fb_lzw_entry
 .bss           0x00000000004831ce        0x0 /usr/local/bin/../lib/freebasic/linux-x86_64/libfbgfx.a(gfx_multikey.o)
 .bss           0x00000000004831ce        0x0 /usr/local/bin/../lib/freebasic/linux-x86_64/libfbgfx.a(gfx_print.o)
 .bss           0x00000000004831ce        0x0 /usr/local/bin/../lib/freebasic/linux-x86_64/libfbgfx.a(gfx_print_wstr.o)
 .bss           0x00000000004831ce        0x0 /usr/local/bin/../lib/freebasic/linux-x86_64/libfbgfx.a(gfx_readstr.o)
 .bss           0x00000000004831ce        0x0 /usr/local/bin/../lib/freebasic/linux-x86_64/libfbgfx.a(gfx_readxy.o)
 *fill*         0x00000000004831ce        0x2 
 .bss           0x00000000004831d0       0x18 /usr/local/bin/../lib/freebasic/linux-x86_64/libfbgfx.a(gfx_softcursor.o)
                0x00000000004831d0                fb_hSoftCursor_data_end
                0x00000000004831d1                fb_hSoftCursor_data_start
 .bss           0x00000000004831e8        0x0 /usr/local/bin/../lib/freebasic/linux-x86_64/libfbgfx.a(gfx_view.o)
 .bss           0x00000000004831e8        0x0 /usr/local/bin/../lib/freebasic/linux-x86_64/libfbgfx.a(gfx_blitter.o)
 .bss           0x00000000004831e8        0x0 /usr/local/bin/../lib/freebasic/linux-x86_64/libfb.a(array_destructstr.o)
 .bss           0x00000000004831e8        0x0 /usr/local/bin/../lib/freebasic/linux-x86_64/libfb.a(con_input.o)
 .bss           0x00000000004831e8        0x0 /usr/local/bin/../lib/freebasic/linux-x86_64/libfb.a(con_locate.o)
 .bss           0x00000000004831e8        0x0 /usr/local/bin/../lib/freebasic/linux-x86_64/libfb.a(con_print_tty.o)
 .bss           0x00000000004831e8        0x0 /usr/local/bin/../lib/freebasic/linux-x86_64/libfb.a(con_readline.o)
 .bss           0x00000000004831e8        0x8 /usr/local/bin/../lib/freebasic/linux-x86_64/libfb.a(data.o)
                0x00000000004831e8                __fb_data_ptr
 .bss           0x00000000004831f0        0x0 /usr/local/bin/../lib/freebasic/linux-x86_64/libfb.a(data_readlong.o)
 .bss           0x00000000004831f0        0x0 /usr/local/bin/../lib/freebasic/linux-x86_64/libfb.a(data_readstr.o)
 .bss           0x00000000004831f0        0x0 /usr/local/bin/../lib/freebasic/linux-x86_64/libfb.a(data_readulong.o)
 *fill*         0x00000000004831f0       0x10 
 .bss           0x0000000000483200       0x70 /usr/local/bin/../lib/freebasic/linux-x86_64/libfb.a(dev_scrn_init.o)
 .bss           0x0000000000483270        0x0 /usr/local/bin/../lib/freebasic/linux-x86_64/libfb.a(dev_scrn_read.o)
 .bss           0x0000000000483270        0x0 /usr/local/bin/../lib/freebasic/linux-x86_64/libfb.a(error_getset.o)
 .bss           0x0000000000483270        0x0 /usr/local/bin/../lib/freebasic/linux-x86_64/libfb.a(file_close.o)
 .bss           0x0000000000483270        0x0 /usr/local/bin/../lib/freebasic/linux-x86_64/libfb.a(file_eof.o)
 .bss           0x0000000000483270        0x0 /usr/local/bin/../lib/freebasic/linux-x86_64/libfb.a(file_free.o)
 .bss           0x0000000000483270        0x0 /usr/local/bin/../lib/freebasic/linux-x86_64/libfb.a(file_get.o)
 .bss           0x0000000000483270        0x0 /usr/local/bin/../lib/freebasic/linux-x86_64/libfb.a(file_hconvpath.o)
 .bss           0x0000000000483270        0x0 /usr/local/bin/../lib/freebasic/linux-x86_64/libfb.a(file_input_file.o)
 .bss           0x0000000000483270        0x0 /usr/local/bin/../lib/freebasic/linux-x86_64/libfb.a(file_input_str.o)
 .bss           0x0000000000483270        0x0 /usr/local/bin/../lib/freebasic/linux-x86_64/libfb.a(file_input_tok.o)
 .bss           0x0000000000483270        0x0 /usr/local/bin/../lib/freebasic/linux-x86_64/libfb.a(file_lineinp.o)
 .bss           0x0000000000483270        0x0 /usr/local/bin/../lib/freebasic/linux-x86_64/libfb.a(file_open.o)
 .bss           0x0000000000483270        0x0 /usr/local/bin/../lib/freebasic/linux-x86_64/libfb.a(file_put.o)
 .bss           0x0000000000483270        0x0 /usr/local/bin/../lib/freebasic/linux-x86_64/libfb.a(file_putback.o)
 .bss           0x0000000000483270        0x0 /usr/local/bin/../lib/freebasic/linux-x86_64/libfb.a(file_reset.o)
 .bss           0x0000000000483270        0x0 /usr/local/bin/../lib/freebasic/linux-x86_64/libfb.a(file_seek.o)
 .bss           0x0000000000483270        0x0 /usr/local/bin/../lib/freebasic/linux-x86_64/libfb.a(file_size.o)
 .bss           0x0000000000483270        0x0 /usr/local/bin/../lib/freebasic/linux-x86_64/libfb.a(hdynload.o)
 .bss           0x0000000000483270        0x0 /usr/local/bin/../lib/freebasic/linux-x86_64/libfb.a(hook_cls.o)
 .bss           0x0000000000483270        0x0 /usr/local/bin/../lib/freebasic/linux-x86_64/libfb.a(hook_getmouse64.o)
 .bss           0x0000000000483270        0x0 /usr/local/bin/../lib/freebasic/linux-x86_64/libfb.a(hook_getsize.o)
 .bss           0x0000000000483270        0x0 /usr/local/bin/../lib/freebasic/linux-x86_64/libfb.a(hook_getx.o)
 .bss           0x0000000000483270        0x0 /usr/local/bin/../lib/freebasic/linux-x86_64/libfb.a(hook_getxy.o)
 .bss           0x0000000000483270        0x0 /usr/local/bin/../lib/freebasic/linux-x86_64/libfb.a(hook_inkey.o)
 .bss           0x0000000000483270        0x0 /usr/local/bin/../lib/freebasic/linux-x86_64/libfb.a(hook_isredir.o)
 .bss           0x0000000000483270        0x0 /usr/local/bin/../lib/freebasic/linux-x86_64/libfb.a(hook_lineinp.o)
 .bss           0x0000000000483270        0x0 /usr/local/bin/../lib/freebasic/linux-x86_64/libfb.a(hook_locate_ex.o)
 .bss           0x0000000000483270        0x0 /usr/local/bin/../lib/freebasic/linux-x86_64/libfb.a(hook_pageset.o)
 .bss           0x0000000000483270        0x0 /usr/local/bin/../lib/freebasic/linux-x86_64/libfb.a(hook_pcopy.o)
 .bss           0x0000000000483270        0x0 /usr/local/bin/../lib/freebasic/linux-x86_64/libfb.a(hook_printstr.o)
 .bss           0x0000000000483270        0x0 /usr/local/bin/../lib/freebasic/linux-x86_64/libfb.a(hook_sleep.o)
 .bss           0x0000000000483270        0x0 /usr/local/bin/../lib/freebasic/linux-x86_64/libfb.a(hook_width.o)
 *fill*         0x0000000000483270       0x10 
 .bss           0x0000000000483280     0x516c /usr/local/bin/../lib/freebasic/linux-x86_64/libfb.a(init.o)
                0x0000000000483280                __fb_ctx
 .bss           0x00000000004883ec        0x0 /usr/local/bin/../lib/freebasic/linux-x86_64/libfb.a(io_cls.o)
 .bss           0x00000000004883ec        0x0 /usr/local/bin/../lib/freebasic/linux-x86_64/libfb.a(io_getsize.o)
 .bss           0x00000000004883ec        0x0 /usr/local/bin/../lib/freebasic/linux-x86_64/libfb.a(io_getx.o)
 .bss           0x00000000004883ec        0x0 /usr/local/bin/../lib/freebasic/linux-x86_64/libfb.a(io_getxy.o)
 .bss           0x00000000004883ec        0x0 /usr/local/bin/../lib/freebasic/linux-x86_64/libfb.a(io_hinkey.o)
 *fill*         0x00000000004883ec       0x14 
 .bss           0x0000000000488400      0x420 /usr/local/bin/../lib/freebasic/linux-x86_64/libfb.a(io_inkey.o)
 .bss           0x0000000000488820        0x0 /usr/local/bin/../lib/freebasic/linux-x86_64/libfb.a(io_isredir.o)
 .bss           0x0000000000488820        0x0 /usr/local/bin/../lib/freebasic/linux-x86_64/libfb.a(io_locate.o)
 .bss           0x0000000000488820        0x0 /usr/local/bin/../lib/freebasic/linux-x86_64/libfb.a(io_maxrow.o)
 .bss           0x0000000000488820      0x140 /usr/local/bin/../lib/freebasic/linux-x86_64/libfb.a(io_multikey.o)
 .bss           0x0000000000488960        0x0 /usr/local/bin/../lib/freebasic/linux-x86_64/libfb.a(io_pageset.o)
 .bss           0x0000000000488960        0x0 /usr/local/bin/../lib/freebasic/linux-x86_64/libfb.a(io_pcopy.o)
 .bss           0x0000000000488960        0x0 /usr/local/bin/../lib/freebasic/linux-x86_64/libfb.a(io_print.o)
 .bss           0x0000000000488960        0x0 /usr/local/bin/../lib/freebasic/linux-x86_64/libfb.a(io_print_fix.o)
 .bss           0x0000000000488960        0x0 /usr/local/bin/../lib/freebasic/linux-x86_64/libfb.a(io_print_wstr.o)
 .bss           0x0000000000488960        0x0 /usr/local/bin/../lib/freebasic/linux-x86_64/libfb.a(io_printbuff.o)
 .bss           0x0000000000488960        0x0 /usr/local/bin/../lib/freebasic/linux-x86_64/libfb.a(io_printvoid.o)
 .bss           0x0000000000488960        0x0 /usr/local/bin/../lib/freebasic/linux-x86_64/libfb.a(io_printvoid_wstr.o)
 .bss           0x0000000000488960        0x0 /usr/local/bin/../lib/freebasic/linux-x86_64/libfb.a(io_setpos.o)
 .bss           0x0000000000488960        0x0 /usr/local/bin/../lib/freebasic/linux-x86_64/libfb.a(io_view.o)
 .bss           0x0000000000488960        0x0 /usr/local/bin/../lib/freebasic/linux-x86_64/libfb.a(io_viewhlp.o)
 .bss           0x0000000000488960        0x0 /usr/local/bin/../lib/freebasic/linux-x86_64/libfb.a(io_width.o)
 .bss           0x0000000000488960       0x34 /usr/local/bin/../lib/freebasic/linux-x86_64/libfb.a(io_xfocus.o)
 .bss           0x0000000000488994        0x0 /usr/local/bin/../lib/freebasic/linux-x86_64/libfb.a(scancodes.o)
 *fill*         0x0000000000488994        0xc 
 .bss           0x00000000004889a0      0x100 /usr/local/bin/../lib/freebasic/linux-x86_64/libfb.a(scancodes_x11.o)
                0x00000000004889a0                fb_x11keycode_to_scancode
 .bss           0x0000000000488aa0        0x0 /usr/local/bin/../lib/freebasic/linux-x86_64/libfb.a(str_asc.o)
 .bss           0x0000000000488aa0        0x0 /usr/local/bin/../lib/freebasic/linux-x86_64/libfb.a(str_assign.o)
 .bss           0x0000000000488aa0        0x0 /usr/local/bin/../lib/freebasic/linux-x86_64/libfb.a(str_chr.o)
 .bss           0x0000000000488aa0        0x0 /usr/local/bin/../lib/freebasic/linux-x86_64/libfb.a(str_comp.o)
 .bss           0x0000000000488aa0        0x0 /usr/local/bin/../lib/freebasic/linux-x86_64/libfb.a(str_concat.o)
 .bss           0x0000000000488aa0        0x0 /usr/local/bin/../lib/freebasic/linux-x86_64/libfb.a(str_concatassign.o)
 .bss           0x0000000000488aa0        0x0 /usr/local/bin/../lib/freebasic/linux-x86_64/libfb.a(str_convfrom.o)
 .bss           0x0000000000488aa0        0x0 /usr/local/bin/../lib/freebasic/linux-x86_64/libfb.a(str_convfrom_lng.o)
 .bss           0x0000000000488aa0        0x0 /usr/local/bin/../lib/freebasic/linux-x86_64/libfb.a(str_convfrom_radlng.o)
 .bss           0x0000000000488aa0        0x0 /usr/local/bin/../lib/freebasic/linux-x86_64/libfb.a(str_convfrom_ulng.o)
 .bss           0x0000000000488aa0        0x0 /usr/local/bin/../lib/freebasic/linux-x86_64/libfb.a(str_convto.o)
 .bss           0x0000000000488aa0        0x0 /usr/local/bin/../lib/freebasic/linux-x86_64/libfb.a(str_convto_flt.o)
 .bss           0x0000000000488aa0        0x0 /usr/local/bin/../lib/freebasic/linux-x86_64/libfb.a(str_convto_lng.o)
 .bss           0x0000000000488aa0     0x2820 /usr/local/bin/../lib/freebasic/linux-x86_64/libfb.a(str_core.o)
 .bss           0x000000000048b2c0        0x0 /usr/local/bin/../lib/freebasic/linux-x86_64/libfb.a(str_del.o)
 .bss           0x000000000048b2c0        0x0 /usr/local/bin/../lib/freebasic/linux-x86_64/libfb.a(str_fill.o)
 .bss           0x000000000048b2c0        0x0 /usr/local/bin/../lib/freebasic/linux-x86_64/libfb.a(str_hex.o)
 .bss           0x000000000048b2c0        0x0 /usr/local/bin/../lib/freebasic/linux-x86_64/libfb.a(str_hex_lng.o)
 .bss           0x000000000048b2c0        0x0 /usr/local/bin/../lib/freebasic/linux-x86_64/libfb.a(str_hskip.o)
 .bss           0x000000000048b2c0        0x0 /usr/local/bin/../lib/freebasic/linux-x86_64/libfb.a(str_lcase.o)
 .bss           0x000000000048b2c0        0x0 /usr/local/bin/../lib/freebasic/linux-x86_64/libfb.a(str_len.o)
 .bss           0x000000000048b2c0        0x0 /usr/local/bin/../lib/freebasic/linux-x86_64/libfb.a(str_mid.o)
 .bss           0x000000000048b2c0        0x0 /usr/local/bin/../lib/freebasic/linux-x86_64/libfb.a(str_misc.o)
 .bss           0x000000000048b2c0        0x0 /usr/local/bin/../lib/freebasic/linux-x86_64/libfb.a(str_tempdescf.o)
 .bss           0x000000000048b2c0        0x0 /usr/local/bin/../lib/freebasic/linux-x86_64/libfb.a(str_tempdescz.o)
 .bss           0x000000000048b2c0        0x0 /usr/local/bin/../lib/freebasic/linux-x86_64/libfb.a(str_tempres.o)
 .bss           0x000000000048b2c0        0x0 /usr/local/bin/../lib/freebasic/linux-x86_64/libfb.a(strw_convassign.o)
 .bss           0x000000000048b2c0        0x0 /usr/local/bin/../lib/freebasic/linux-x86_64/libfb.a(strw_convfrom_lng.o)
 .bss           0x000000000048b2c0        0x0 /usr/local/bin/../lib/freebasic/linux-x86_64/libfb.a(strw_convfrom_str.o)
 .bss           0x000000000048b2c0        0x0 /usr/local/bin/../lib/freebasic/linux-x86_64/libfb.a(strw_convfrom_ulng.o)
 .bss           0x000000000048b2c0        0x0 /usr/local/bin/../lib/freebasic/linux-x86_64/libfb.a(strw_convto_str.o)
 .bss           0x000000000048b2c0        0x0 /usr/local/bin/../lib/freebasic/linux-x86_64/libfb.a(sys_beep.o)
 .bss           0x000000000048b2c0        0x0 /usr/local/bin/../lib/freebasic/linux-x86_64/libfb.a(sys_chain.o)
 .bss           0x000000000048b2c0        0x0 /usr/local/bin/../lib/freebasic/linux-x86_64/libfb.a(sys_delay.o)
 .bss           0x000000000048b2c0        0x0 /usr/local/bin/../lib/freebasic/linux-x86_64/libfb.a(sys_execex.o)
 .bss           0x000000000048b2c0        0x0 /usr/local/bin/../lib/freebasic/linux-x86_64/libfb.a(sys_fmem.o)
 .bss           0x000000000048b2c0        0x0 /usr/local/bin/../lib/freebasic/linux-x86_64/libfb.a(sys_getexename.o)
 .bss           0x000000000048b2c0        0x0 /usr/local/bin/../lib/freebasic/linux-x86_64/libfb.a(sys_parseargs.o)
 .bss           0x000000000048b2c0        0x0 /usr/local/bin/../lib/freebasic/linux-x86_64/libfb.a(sys_shell.o)
 .bss           0x000000000048b2c0       0x28 /usr/local/bin/../lib/freebasic/linux-x86_64/libfb.a(thread_ctx.o)
 .bss           0x000000000048b2e8        0x0 /usr/local/bin/../lib/freebasic/linux-x86_64/libfb.a(thread_mutex.o)
 .bss           0x000000000048b2e8        0x0 /usr/local/bin/../lib/freebasic/linux-x86_64/libfb.a(time_sleep.o)
 .bss           0x000000000048b2e8        0x0 /usr/local/bin/../lib/freebasic/linux-x86_64/libfb.a(time_sleepex.o)
 .bss           0x000000000048b2e8        0x0 /usr/local/bin/../lib/freebasic/linux-x86_64/libfb.a(time_timer.o)
 .bss           0x000000000048b2e8        0x0 /usr/local/bin/../lib/freebasic/linux-x86_64/libfb.a(vfs_open.o)
 .bss           0x000000000048b2e8        0x0 /usr/local/bin/../lib/freebasic/linux-x86_64/libfb.a(con_lineinp.o)
 .bss           0x000000000048b2e8        0x0 /usr/local/bin/../lib/freebasic/linux-x86_64/libfb.a(con_print_raw.o)
 .bss           0x000000000048b2e8        0x0 /usr/local/bin/../lib/freebasic/linux-x86_64/libfb.a(dev_file_open.o)
 .bss           0x000000000048b2e8        0x0 /usr/local/bin/../lib/freebasic/linux-x86_64/libfb.a(dev_file_read.o)
 .bss           0x000000000048b2e8        0x0 /usr/local/bin/../lib/freebasic/linux-x86_64/libfb.a(dev_file_read_wstr.o)
 .bss           0x000000000048b2e8        0x0 /usr/local/bin/../lib/freebasic/linux-x86_64/libfb.a(dev_file_readline.o)
 .bss           0x000000000048b2e8        0x0 /usr/local/bin/../lib/freebasic/linux-x86_64/libfb.a(dev_file_readline_wstr.o)
 .bss           0x000000000048b2e8        0x0 /usr/local/bin/../lib/freebasic/linux-x86_64/libfb.a(dev_file_seek.o)
 .bss           0x000000000048b2e8        0x0 /usr/local/bin/../lib/freebasic/linux-x86_64/libfb.a(dev_file_size.o)
 .bss           0x000000000048b2e8        0x0 /usr/local/bin/../lib/freebasic/linux-x86_64/libfb.a(dev_file_tell.o)
 .bss           0x000000000048b2e8        0x0 /usr/local/bin/../lib/freebasic/linux-x86_64/libfb.a(dev_file_unlock.o)
 .bss           0x000000000048b2e8        0x0 /usr/local/bin/../lib/freebasic/linux-x86_64/libfb.a(dev_file_write.o)
 .bss           0x000000000048b2e8        0x0 /usr/local/bin/../lib/freebasic/linux-x86_64/libfb.a(dev_file_write_wstr.o)
 .bss           0x000000000048b2e8        0x0 /usr/local/bin/../lib/freebasic/linux-x86_64/libfb.a(dev_scrn_eof.o)
 .bss           0x000000000048b2e8        0x0 /usr/local/bin/../lib/freebasic/linux-x86_64/libfb.a(file_hlock.o)
 .bss           0x000000000048b2e8        0x0 /usr/local/bin/../lib/freebasic/linux-x86_64/libfb.a(file_print.o)
 .bss           0x000000000048b2e8        0x0 /usr/local/bin/../lib/freebasic/linux-x86_64/libfb.a(file_print_wstr.o)
 *fill*         0x000000000048b2e8       0x18 
 .bss           0x000000000048b300      0x3e8 /usr/local/bin/../lib/freebasic/linux-x86_64/libfb.a(hinit.o)
                0x000000000048b300                __fb_con
 .bss           0x000000000048b6e8        0x0 /usr/local/bin/../lib/freebasic/linux-x86_64/libfb.a(hinit_enable_vt100_escapes.o)
 .bss           0x000000000048b6e8        0x0 /usr/local/bin/../lib/freebasic/linux-x86_64/libfb.a(hook_getmouse.o)
 .bss           0x000000000048b6e8        0x0 /usr/local/bin/../lib/freebasic/linux-x86_64/libfb.a(hook_view_update.o)
 .bss           0x000000000048b6e8        0x0 /usr/local/bin/../lib/freebasic/linux-x86_64/libfb.a(io_input.o)
 *fill*         0x000000000048b6e8       0x18 
 .bss           0x000000000048b700       0x48 /usr/local/bin/../lib/freebasic/linux-x86_64/libfb.a(io_mouse.o)
 .bss           0x000000000048b748        0x0 /usr/local/bin/../lib/freebasic/linux-x86_64/libfb.a(io_printpad.o)
 .bss           0x000000000048b748        0x0 /usr/local/bin/../lib/freebasic/linux-x86_64/libfb.a(io_printpad_wstr.o)
 .bss           0x000000000048b748        0x0 /usr/local/bin/../lib/freebasic/linux-x86_64/libfb.a(io_viewupdate.o)
 .bss           0x000000000048b748        0x0 /usr/local/bin/../lib/freebasic/linux-x86_64/libfb.a(list.o)
 .bss           0x000000000048b748        0x0 /usr/local/bin/../lib/freebasic/linux-x86_64/libfb.a(listdyn.o)
 .bss           0x000000000048b748        0x0 /usr/local/bin/../lib/freebasic/linux-x86_64/libfb.a(sys_hshell.o)
 .bss           0x000000000048b748        0x0 /usr/local/bin/../lib/freebasic/linux-x86_64/libfb.a(dev_file_close.o)
 .bss           0x000000000048b748        0x0 /usr/local/bin/../lib/freebasic/linux-x86_64/libfb.a(dev_file_eof.o)
 .bss           0x000000000048b748        0x0 /usr/local/bin/../lib/freebasic/linux-x86_64/libfb.a(dev_file_flush.o)
 .bss           0x000000000048b748        0x0 /usr/local/bin/../lib/freebasic/linux-x86_64/libfb.a(dev_file_lock.o)
 .bss           0x000000000048b748        0x0 /usr/local/bin/../lib/freebasic/linux-x86_64/libfb.a(dev_scrn_write.o)
 .bss           0x000000000048b748        0x0 /usr/local/bin/../lib/freebasic/linux-x86_64/libfb.a(dev_scrn_write_wstr.o)
 .bss           0x000000000048b748        0x0 /usr/local/bin/../lib/freebasic/linux-x86_64/libfb.a(hook_print_wstr.o)
 .bss           0x000000000048b748        0x0 /usr/local/bin/../lib/freebasic/linux-x86_64/libfb.a(io_printbuff_wstr.o)
 .bss           0x000000000048b748        0x0 /usr/local/bin/../lib/freebasic/linux-x86_64/libfb.a(utf_convfrom_wchar.o)
 .bss           0x000000000048b748        0x0 /usr/local/bin/../lib/freebasic/linux-x86_64/libfb.a(utf_core.o)
 .bss           0x000000000048b748        0x0 /usr/lib/libc_nonshared.a(elf-init.oS)
 .bss           0x000000000048b748        0x0 /usr/lib/gcc/x86_64-pc-linux-gnu/10.2.0/crtend.o
 .bss           0x000000000048b748        0x0 /usr/lib/gcc/x86_64-pc-linux-gnu/10.2.0/../../../../lib/crtn.o
 *(COMMON)
 *fill*         0x000000000048b748        0x8 
 COMMON         0x000000000048b750       0x88 c64dvd-glsl.o
                0x000000000048b750                SCR_H$
                0x000000000048b758                RENDER$
                0x000000000048b760                STR_LEN$
                0x000000000048b768                RASTER$
                0x000000000048b770                COMPILER$
                0x000000000048b788                BGIMAGE$
                0x000000000048b790                CNT$
                0x000000000048b798                SCR_POS$
                0x000000000048b7a0                FGIMAGE$
                0x000000000048b7b0                MSG$
                0x000000000048b7c8                SYS_OFFSET$
                0x000000000048b7d0                SCR_W$
                0x000000000048b7d8                . = ALIGN ((. != 0x0)?0x8:0x1)

.lbss
 *(.dynlbss)
 *(.lbss .lbss.* .gnu.linkonce.lb.*)
 *(LARGE_COMMON)
                0x000000000048b7d8                . = ALIGN (0x8)
                0x000000000048b7d8                . = SEGMENT_START ("ldata-segment", .)

.lrodata
 *(.lrodata .lrodata.* .gnu.linkonce.lr.*)

.ldata          0x000000000048d7d8        0x0
 *(.ldata .ldata.* .gnu.linkonce.l.*)
                0x000000000048d7d8                . = ALIGN ((. != 0x0)?0x8:0x1)
                0x000000000048d7d8                . = ALIGN (0x8)
                0x000000000048b7d8                _end = .
                [!provide]                        PROVIDE (end = .)
                0x000000000048d7d8                . = DATA_SEGMENT_END (.)

.stab
 *(.stab)

.stabstr
 *(.stabstr)

.stab.excl
 *(.stab.excl)

.stab.exclstr
 *(.stab.exclstr)

.stab.index
 *(.stab.index)

.stab.indexstr
 *(.stab.indexstr)

.comment        0x0000000000000000       0x12
 *(.comment)
 .comment       0x0000000000000000       0x12 /usr/lib/gcc/x86_64-pc-linux-gnu/10.2.0/../../../../lib/crt1.o
                                         0x39 (size before relaxing)
 .comment       0x0000000000000012       0x13 /usr/lib/gcc/x86_64-pc-linux-gnu/10.2.0/crtbegin.o
 .comment       0x0000000000000012       0x13 /usr/local/bin/../lib/freebasic/linux-x86_64/fbrt0.o
 .comment       0x0000000000000012       0x13 c64dvd-glsl.o
 .comment       0x0000000000000012       0x13 /usr/local/bin/../lib/freebasic/linux-x86_64/libfbgfx.a(gfx_access.o)
 .comment       0x0000000000000012       0x13 /usr/local/bin/../lib/freebasic/linux-x86_64/libfbgfx.a(gfx_bload.o)
 .comment       0x0000000000000012       0x13 /usr/local/bin/../lib/freebasic/linux-x86_64/libfbgfx.a(gfx_circle.o)
 .comment       0x0000000000000012       0x13 /usr/local/bin/../lib/freebasic/linux-x86_64/libfbgfx.a(gfx_control.o)
 .comment       0x0000000000000012       0x13 /usr/local/bin/../lib/freebasic/linux-x86_64/libfbgfx.a(gfx_core.o)
 .comment       0x0000000000000012       0x13 /usr/local/bin/../lib/freebasic/linux-x86_64/libfbgfx.a(gfx_drawstring.o)
 .comment       0x0000000000000012       0x13 /usr/local/bin/../lib/freebasic/linux-x86_64/libfbgfx.a(gfx_image.o)
 .comment       0x0000000000000012       0x13 /usr/local/bin/../lib/freebasic/linux-x86_64/libfbgfx.a(gfx_image_convert.o)
 .comment       0x0000000000000012       0x13 /usr/local/bin/../lib/freebasic/linux-x86_64/libfbgfx.a(gfx_image_info.o)
 .comment       0x0000000000000012       0x13 /usr/local/bin/../lib/freebasic/linux-x86_64/libfbgfx.a(gfx_line.o)
 .comment       0x0000000000000012       0x13 /usr/local/bin/../lib/freebasic/linux-x86_64/libfbgfx.a(gfx_opengl.o)
 .comment       0x0000000000000012       0x13 /usr/local/bin/../lib/freebasic/linux-x86_64/libfbgfx.a(gfx_page.o)
 .comment       0x0000000000000012       0x13 /usr/local/bin/../lib/freebasic/linux-x86_64/libfbgfx.a(gfx_paint.o)
 .comment       0x0000000000000012       0x13 /usr/local/bin/../lib/freebasic/linux-x86_64/libfbgfx.a(gfx_palette.o)
 .comment       0x0000000000000012       0x13 /usr/local/bin/../lib/freebasic/linux-x86_64/libfbgfx.a(gfx_pset.o)
 .comment       0x0000000000000012       0x13 /usr/local/bin/../lib/freebasic/linux-x86_64/libfbgfx.a(gfx_put.o)
 .comment       0x0000000000000012       0x13 /usr/local/bin/../lib/freebasic/linux-x86_64/libfbgfx.a(gfx_put_alpha.o)
 .comment       0x0000000000000012       0x13 /usr/local/bin/../lib/freebasic/linux-x86_64/libfbgfx.a(gfx_put_or.o)
 .comment       0x0000000000000012       0x13 /usr/local/bin/../lib/freebasic/linux-x86_64/libfbgfx.a(gfx_put_pset.o)
 .comment       0x0000000000000012       0x13 /usr/local/bin/../lib/freebasic/linux-x86_64/libfbgfx.a(gfx_screen.o)
 .comment       0x0000000000000012       0x13 /usr/local/bin/../lib/freebasic/linux-x86_64/libfbgfx.a(gfx_screeninfo.o)
 .comment       0x0000000000000012       0x13 /usr/local/bin/../lib/freebasic/linux-x86_64/libfbgfx.a(gfx_screenlist.o)
 .comment       0x0000000000000012       0x13 /usr/local/bin/../lib/freebasic/linux-x86_64/libfbgfx.a(gfx_setmouse.o)
 .comment       0x0000000000000012       0x13 /usr/local/bin/../lib/freebasic/linux-x86_64/libfbgfx.a(gfx_sleep.o)
 .comment       0x0000000000000012       0x13 /usr/local/bin/../lib/freebasic/linux-x86_64/libfbgfx.a(gfx_unix.o)
 .comment       0x0000000000000012       0x13 /usr/local/bin/../lib/freebasic/linux-x86_64/libfbgfx.a(gfx_vars.o)
 .comment       0x0000000000000012       0x13 /usr/local/bin/../lib/freebasic/linux-x86_64/libfbgfx.a(gfx_vgaemu.o)
 .comment       0x0000000000000012       0x13 /usr/local/bin/../lib/freebasic/linux-x86_64/libfbgfx.a(gfx_width.o)
 .comment       0x0000000000000012       0x13 /usr/local/bin/../lib/freebasic/linux-x86_64/libfbgfx.a(gfx_x11.o)
 .comment       0x0000000000000012       0x13 /usr/local/bin/../lib/freebasic/linux-x86_64/libfbgfx.a(gfx_x11_icon_stub.o)
 .comment       0x0000000000000012       0x13 /usr/local/bin/../lib/freebasic/linux-x86_64/libfbgfx.a(gfx_box.o)
 .comment       0x0000000000000012       0x13 /usr/local/bin/../lib/freebasic/linux-x86_64/libfbgfx.a(gfx_cls.o)
 .comment       0x0000000000000012       0x13 /usr/local/bin/../lib/freebasic/linux-x86_64/libfbgfx.a(gfx_color.o)
 .comment       0x0000000000000012       0x13 /usr/local/bin/../lib/freebasic/linux-x86_64/libfbgfx.a(gfx_data.o)
 .comment       0x0000000000000012       0x13 /usr/local/bin/../lib/freebasic/linux-x86_64/libfbgfx.a(gfx_driver_fbdev.o)
 .comment       0x0000000000000012       0x13 /usr/local/bin/../lib/freebasic/linux-x86_64/libfbgfx.a(gfx_driver_null.o)
 .comment       0x0000000000000012       0x13 /usr/local/bin/../lib/freebasic/linux-x86_64/libfbgfx.a(gfx_driver_opengl_x11.o)
 .comment       0x0000000000000012       0x13 /usr/local/bin/../lib/freebasic/linux-x86_64/libfbgfx.a(gfx_driver_x11.o)
 .comment       0x0000000000000012       0x13 /usr/local/bin/../lib/freebasic/linux-x86_64/libfbgfx.a(gfx_getmouse.o)
 .comment       0x0000000000000012       0x13 /usr/local/bin/../lib/freebasic/linux-x86_64/libfbgfx.a(gfx_inkey.o)
 .comment       0x0000000000000012       0x13 /usr/local/bin/../lib/freebasic/linux-x86_64/libfbgfx.a(gfx_lineinp.o)
 .comment       0x0000000000000012       0x13 /usr/local/bin/../lib/freebasic/linux-x86_64/libfbgfx.a(gfx_lineinp_wstr.o)
 .comment       0x0000000000000012       0x13 /usr/local/bin/../lib/freebasic/linux-x86_64/libfbgfx.a(gfx_lzw.o)
 .comment       0x0000000000000012       0x13 /usr/local/bin/../lib/freebasic/linux-x86_64/libfbgfx.a(gfx_multikey.o)
 .comment       0x0000000000000012       0x13 /usr/local/bin/../lib/freebasic/linux-x86_64/libfbgfx.a(gfx_print.o)
 .comment       0x0000000000000012       0x13 /usr/local/bin/../lib/freebasic/linux-x86_64/libfbgfx.a(gfx_print_wstr.o)
 .comment       0x0000000000000012       0x13 /usr/local/bin/../lib/freebasic/linux-x86_64/libfbgfx.a(gfx_readstr.o)
 .comment       0x0000000000000012       0x13 /usr/local/bin/../lib/freebasic/linux-x86_64/libfbgfx.a(gfx_readxy.o)
 .comment       0x0000000000000012       0x13 /usr/local/bin/../lib/freebasic/linux-x86_64/libfbgfx.a(gfx_softcursor.o)
 .comment       0x0000000000000012       0x13 /usr/local/bin/../lib/freebasic/linux-x86_64/libfbgfx.a(gfx_view.o)
 .comment       0x0000000000000012       0x13 /usr/local/bin/../lib/freebasic/linux-x86_64/libfbgfx.a(gfx_blitter.o)
 .comment       0x0000000000000012       0x13 /usr/local/bin/../lib/freebasic/linux-x86_64/libfb.a(array_destructstr.o)
 .comment       0x0000000000000012       0x13 /usr/local/bin/../lib/freebasic/linux-x86_64/libfb.a(con_input.o)
 .comment       0x0000000000000012       0x13 /usr/local/bin/../lib/freebasic/linux-x86_64/libfb.a(con_locate.o)
 .comment       0x0000000000000012       0x13 /usr/local/bin/../lib/freebasic/linux-x86_64/libfb.a(con_print_tty.o)
 .comment       0x0000000000000012       0x13 /usr/local/bin/../lib/freebasic/linux-x86_64/libfb.a(con_readline.o)
 .comment       0x0000000000000012       0x13 /usr/local/bin/../lib/freebasic/linux-x86_64/libfb.a(data.o)
 .comment       0x0000000000000012       0x13 /usr/local/bin/../lib/freebasic/linux-x86_64/libfb.a(data_readlong.o)
 .comment       0x0000000000000012       0x13 /usr/local/bin/../lib/freebasic/linux-x86_64/libfb.a(data_readstr.o)
 .comment       0x0000000000000012       0x13 /usr/local/bin/../lib/freebasic/linux-x86_64/libfb.a(data_readulong.o)
 .comment       0x0000000000000012       0x13 /usr/local/bin/../lib/freebasic/linux-x86_64/libfb.a(dev_scrn_init.o)
 .comment       0x0000000000000012       0x13 /usr/local/bin/../lib/freebasic/linux-x86_64/libfb.a(dev_scrn_read.o)
 .comment       0x0000000000000012       0x13 /usr/local/bin/../lib/freebasic/linux-x86_64/libfb.a(error_getset.o)
 .comment       0x0000000000000012       0x13 /usr/local/bin/../lib/freebasic/linux-x86_64/libfb.a(file_close.o)
 .comment       0x0000000000000012       0x13 /usr/local/bin/../lib/freebasic/linux-x86_64/libfb.a(file_eof.o)
 .comment       0x0000000000000012       0x13 /usr/local/bin/../lib/freebasic/linux-x86_64/libfb.a(file_free.o)
 .comment       0x0000000000000012       0x13 /usr/local/bin/../lib/freebasic/linux-x86_64/libfb.a(file_get.o)
 .comment       0x0000000000000012       0x13 /usr/local/bin/../lib/freebasic/linux-x86_64/libfb.a(file_hconvpath.o)
 .comment       0x0000000000000012       0x13 /usr/local/bin/../lib/freebasic/linux-x86_64/libfb.a(file_input_file.o)
 .comment       0x0000000000000012       0x13 /usr/local/bin/../lib/freebasic/linux-x86_64/libfb.a(file_input_str.o)
 .comment       0x0000000000000012       0x13 /usr/local/bin/../lib/freebasic/linux-x86_64/libfb.a(file_input_tok.o)
 .comment       0x0000000000000012       0x13 /usr/local/bin/../lib/freebasic/linux-x86_64/libfb.a(file_lineinp.o)
 .comment       0x0000000000000012       0x13 /usr/local/bin/../lib/freebasic/linux-x86_64/libfb.a(file_open.o)
 .comment       0x0000000000000012       0x13 /usr/local/bin/../lib/freebasic/linux-x86_64/libfb.a(file_put.o)
 .comment       0x0000000000000012       0x13 /usr/local/bin/../lib/freebasic/linux-x86_64/libfb.a(file_putback.o)
 .comment       0x0000000000000012       0x13 /usr/local/bin/../lib/freebasic/linux-x86_64/libfb.a(file_reset.o)
 .comment       0x0000000000000012       0x13 /usr/local/bin/../lib/freebasic/linux-x86_64/libfb.a(file_seek.o)
 .comment       0x0000000000000012       0x13 /usr/local/bin/../lib/freebasic/linux-x86_64/libfb.a(file_size.o)
 .comment       0x0000000000000012       0x13 /usr/local/bin/../lib/freebasic/linux-x86_64/libfb.a(hdynload.o)
 .comment       0x0000000000000012       0x13 /usr/local/bin/../lib/freebasic/linux-x86_64/libfb.a(hook_cls.o)
 .comment       0x0000000000000012       0x13 /usr/local/bin/../lib/freebasic/linux-x86_64/libfb.a(hook_getmouse64.o)
 .comment       0x0000000000000012       0x13 /usr/local/bin/../lib/freebasic/linux-x86_64/libfb.a(hook_getsize.o)
 .comment       0x0000000000000012       0x13 /usr/local/bin/../lib/freebasic/linux-x86_64/libfb.a(hook_getx.o)
 .comment       0x0000000000000012       0x13 /usr/local/bin/../lib/freebasic/linux-x86_64/libfb.a(hook_getxy.o)
 .comment       0x0000000000000012       0x13 /usr/local/bin/../lib/freebasic/linux-x86_64/libfb.a(hook_inkey.o)
 .comment       0x0000000000000012       0x13 /usr/local/bin/../lib/freebasic/linux-x86_64/libfb.a(hook_isredir.o)
 .comment       0x0000000000000012       0x13 /usr/local/bin/../lib/freebasic/linux-x86_64/libfb.a(hook_lineinp.o)
 .comment       0x0000000000000012       0x13 /usr/local/bin/../lib/freebasic/linux-x86_64/libfb.a(hook_locate_ex.o)
 .comment       0x0000000000000012       0x13 /usr/local/bin/../lib/freebasic/linux-x86_64/libfb.a(hook_pageset.o)
 .comment       0x0000000000000012       0x13 /usr/local/bin/../lib/freebasic/linux-x86_64/libfb.a(hook_pcopy.o)
 .comment       0x0000000000000012       0x13 /usr/local/bin/../lib/freebasic/linux-x86_64/libfb.a(hook_printstr.o)
 .comment       0x0000000000000012       0x13 /usr/local/bin/../lib/freebasic/linux-x86_64/libfb.a(hook_sleep.o)
 .comment       0x0000000000000012       0x13 /usr/local/bin/../lib/freebasic/linux-x86_64/libfb.a(hook_width.o)
 .comment       0x0000000000000012       0x13 /usr/local/bin/../lib/freebasic/linux-x86_64/libfb.a(init.o)
 .comment       0x0000000000000012       0x13 /usr/local/bin/../lib/freebasic/linux-x86_64/libfb.a(io_cls.o)
 .comment       0x0000000000000012       0x13 /usr/local/bin/../lib/freebasic/linux-x86_64/libfb.a(io_getsize.o)
 .comment       0x0000000000000012       0x13 /usr/local/bin/../lib/freebasic/linux-x86_64/libfb.a(io_getx.o)
 .comment       0x0000000000000012       0x13 /usr/local/bin/../lib/freebasic/linux-x86_64/libfb.a(io_getxy.o)
 .comment       0x0000000000000012       0x13 /usr/local/bin/../lib/freebasic/linux-x86_64/libfb.a(io_hinkey.o)
 .comment       0x0000000000000012       0x13 /usr/local/bin/../lib/freebasic/linux-x86_64/libfb.a(io_inkey.o)
 .comment       0x0000000000000012       0x13 /usr/local/bin/../lib/freebasic/linux-x86_64/libfb.a(io_isredir.o)
 .comment       0x0000000000000012       0x13 /usr/local/bin/../lib/freebasic/linux-x86_64/libfb.a(io_locate.o)
 .comment       0x0000000000000012       0x13 /usr/local/bin/../lib/freebasic/linux-x86_64/libfb.a(io_maxrow.o)
 .comment       0x0000000000000012       0x13 /usr/local/bin/../lib/freebasic/linux-x86_64/libfb.a(io_multikey.o)
 .comment       0x0000000000000012       0x13 /usr/local/bin/../lib/freebasic/linux-x86_64/libfb.a(io_pageset.o)
 .comment       0x0000000000000012       0x13 /usr/local/bin/../lib/freebasic/linux-x86_64/libfb.a(io_pcopy.o)
 .comment       0x0000000000000012       0x13 /usr/local/bin/../lib/freebasic/linux-x86_64/libfb.a(io_print.o)
 .comment       0x0000000000000012       0x13 /usr/local/bin/../lib/freebasic/linux-x86_64/libfb.a(io_print_fix.o)
 .comment       0x0000000000000012       0x13 /usr/local/bin/../lib/freebasic/linux-x86_64/libfb.a(io_print_wstr.o)
 .comment       0x0000000000000012       0x13 /usr/local/bin/../lib/freebasic/linux-x86_64/libfb.a(io_printbuff.o)
 .comment       0x0000000000000012       0x13 /usr/local/bin/../lib/freebasic/linux-x86_64/libfb.a(io_printvoid.o)
 .comment       0x0000000000000012       0x13 /usr/local/bin/../lib/freebasic/linux-x86_64/libfb.a(io_printvoid_wstr.o)
 .comment       0x0000000000000012       0x13 /usr/local/bin/../lib/freebasic/linux-x86_64/libfb.a(io_setpos.o)
 .comment       0x0000000000000012       0x13 /usr/local/bin/../lib/freebasic/linux-x86_64/libfb.a(io_view.o)
 .comment       0x0000000000000012       0x13 /usr/local/bin/../lib/freebasic/linux-x86_64/libfb.a(io_viewhlp.o)
 .comment       0x0000000000000012       0x13 /usr/local/bin/../lib/freebasic/linux-x86_64/libfb.a(io_width.o)
 .comment       0x0000000000000012       0x13 /usr/local/bin/../lib/freebasic/linux-x86_64/libfb.a(io_xfocus.o)
 .comment       0x0000000000000012       0x13 /usr/local/bin/../lib/freebasic/linux-x86_64/libfb.a(scancodes.o)
 .comment       0x0000000000000012       0x13 /usr/local/bin/../lib/freebasic/linux-x86_64/libfb.a(scancodes_x11.o)
 .comment       0x0000000000000012       0x13 /usr/local/bin/../lib/freebasic/linux-x86_64/libfb.a(str_asc.o)
 .comment       0x0000000000000012       0x13 /usr/local/bin/../lib/freebasic/linux-x86_64/libfb.a(str_assign.o)
 .comment       0x0000000000000012       0x13 /usr/local/bin/../lib/freebasic/linux-x86_64/libfb.a(str_chr.o)
 .comment       0x0000000000000012       0x13 /usr/local/bin/../lib/freebasic/linux-x86_64/libfb.a(str_comp.o)
 .comment       0x0000000000000012       0x13 /usr/local/bin/../lib/freebasic/linux-x86_64/libfb.a(str_concat.o)
 .comment       0x0000000000000012       0x13 /usr/local/bin/../lib/freebasic/linux-x86_64/libfb.a(str_concatassign.o)
 .comment       0x0000000000000012       0x13 /usr/local/bin/../lib/freebasic/linux-x86_64/libfb.a(str_convfrom.o)
 .comment       0x0000000000000012       0x13 /usr/local/bin/../lib/freebasic/linux-x86_64/libfb.a(str_convfrom_lng.o)
 .comment       0x0000000000000012       0x13 /usr/local/bin/../lib/freebasic/linux-x86_64/libfb.a(str_convfrom_radlng.o)
 .comment       0x0000000000000012       0x13 /usr/local/bin/../lib/freebasic/linux-x86_64/libfb.a(str_convfrom_ulng.o)
 .comment       0x0000000000000012       0x13 /usr/local/bin/../lib/freebasic/linux-x86_64/libfb.a(str_convto.o)
 .comment       0x0000000000000012       0x13 /usr/local/bin/../lib/freebasic/linux-x86_64/libfb.a(str_convto_flt.o)
 .comment       0x0000000000000012       0x13 /usr/local/bin/../lib/freebasic/linux-x86_64/libfb.a(str_convto_lng.o)
 .comment       0x0000000000000012       0x13 /usr/local/bin/../lib/freebasic/linux-x86_64/libfb.a(str_core.o)
 .comment       0x0000000000000012       0x13 /usr/local/bin/../lib/freebasic/linux-x86_64/libfb.a(str_del.o)
 .comment       0x0000000000000012       0x13 /usr/local/bin/../lib/freebasic/linux-x86_64/libfb.a(str_fill.o)
 .comment       0x0000000000000012       0x13 /usr/local/bin/../lib/freebasic/linux-x86_64/libfb.a(str_hex.o)
 .comment       0x0000000000000012       0x13 /usr/local/bin/../lib/freebasic/linux-x86_64/libfb.a(str_hex_lng.o)
 .comment       0x0000000000000012       0x13 /usr/local/bin/../lib/freebasic/linux-x86_64/libfb.a(str_hskip.o)
 .comment       0x0000000000000012       0x13 /usr/local/bin/../lib/freebasic/linux-x86_64/libfb.a(str_lcase.o)
 .comment       0x0000000000000012       0x13 /usr/local/bin/../lib/freebasic/linux-x86_64/libfb.a(str_len.o)
 .comment       0x0000000000000012       0x13 /usr/local/bin/../lib/freebasic/linux-x86_64/libfb.a(str_mid.o)
 .comment       0x0000000000000012       0x13 /usr/local/bin/../lib/freebasic/linux-x86_64/libfb.a(str_misc.o)
 .comment       0x0000000000000012       0x13 /usr/local/bin/../lib/freebasic/linux-x86_64/libfb.a(str_tempdescf.o)
 .comment       0x0000000000000012       0x13 /usr/local/bin/../lib/freebasic/linux-x86_64/libfb.a(str_tempdescz.o)
 .comment       0x0000000000000012       0x13 /usr/local/bin/../lib/freebasic/linux-x86_64/libfb.a(str_tempres.o)
 .comment       0x0000000000000012       0x13 /usr/local/bin/../lib/freebasic/linux-x86_64/libfb.a(strw_convassign.o)
 .comment       0x0000000000000012       0x13 /usr/local/bin/../lib/freebasic/linux-x86_64/libfb.a(strw_convfrom_lng.o)
 .comment       0x0000000000000012       0x13 /usr/local/bin/../lib/freebasic/linux-x86_64/libfb.a(strw_convfrom_str.o)
 .comment       0x0000000000000012       0x13 /usr/local/bin/../lib/freebasic/linux-x86_64/libfb.a(strw_convfrom_ulng.o)
 .comment       0x0000000000000012       0x13 /usr/local/bin/../lib/freebasic/linux-x86_64/libfb.a(strw_convto_str.o)
 .comment       0x0000000000000012       0x13 /usr/local/bin/../lib/freebasic/linux-x86_64/libfb.a(sys_beep.o)
 .comment       0x0000000000000012       0x13 /usr/local/bin/../lib/freebasic/linux-x86_64/libfb.a(sys_chain.o)
 .comment       0x0000000000000012       0x13 /usr/local/bin/../lib/freebasic/linux-x86_64/libfb.a(sys_delay.o)
 .comment       0x0000000000000012       0x13 /usr/local/bin/../lib/freebasic/linux-x86_64/libfb.a(sys_execex.o)
 .comment       0x0000000000000012       0x13 /usr/local/bin/../lib/freebasic/linux-x86_64/libfb.a(sys_fmem.o)
 .comment       0x0000000000000012       0x13 /usr/local/bin/../lib/freebasic/linux-x86_64/libfb.a(sys_getexename.o)
 .comment       0x0000000000000012       0x13 /usr/local/bin/../lib/freebasic/linux-x86_64/libfb.a(sys_parseargs.o)
 .comment       0x0000000000000012       0x13 /usr/local/bin/../lib/freebasic/linux-x86_64/libfb.a(sys_shell.o)
 .comment       0x0000000000000012       0x13 /usr/local/bin/../lib/freebasic/linux-x86_64/libfb.a(thread_ctx.o)
 .comment       0x0000000000000012       0x13 /usr/local/bin/../lib/freebasic/linux-x86_64/libfb.a(thread_mutex.o)
 .comment       0x0000000000000012       0x13 /usr/local/bin/../lib/freebasic/linux-x86_64/libfb.a(time_sleep.o)
 .comment       0x0000000000000012       0x13 /usr/local/bin/../lib/freebasic/linux-x86_64/libfb.a(time_sleepex.o)
 .comment       0x0000000000000012       0x13 /usr/local/bin/../lib/freebasic/linux-x86_64/libfb.a(time_timer.o)
 .comment       0x0000000000000012       0x13 /usr/local/bin/../lib/freebasic/linux-x86_64/libfb.a(vfs_open.o)
 .comment       0x0000000000000012       0x13 /usr/local/bin/../lib/freebasic/linux-x86_64/libfb.a(con_lineinp.o)
 .comment       0x0000000000000012       0x13 /usr/local/bin/../lib/freebasic/linux-x86_64/libfb.a(con_print_raw.o)
 .comment       0x0000000000000012       0x13 /usr/local/bin/../lib/freebasic/linux-x86_64/libfb.a(dev_file_open.o)
 .comment       0x0000000000000012       0x13 /usr/local/bin/../lib/freebasic/linux-x86_64/libfb.a(dev_file_read.o)
 .comment       0x0000000000000012       0x13 /usr/local/bin/../lib/freebasic/linux-x86_64/libfb.a(dev_file_read_wstr.o)
 .comment       0x0000000000000012       0x13 /usr/local/bin/../lib/freebasic/linux-x86_64/libfb.a(dev_file_readline.o)
 .comment       0x0000000000000012       0x13 /usr/local/bin/../lib/freebasic/linux-x86_64/libfb.a(dev_file_readline_wstr.o)
 .comment       0x0000000000000012       0x13 /usr/local/bin/../lib/freebasic/linux-x86_64/libfb.a(dev_file_seek.o)
 .comment       0x0000000000000012       0x13 /usr/local/bin/../lib/freebasic/linux-x86_64/libfb.a(dev_file_size.o)
 .comment       0x0000000000000012       0x13 /usr/local/bin/../lib/freebasic/linux-x86_64/libfb.a(dev_file_tell.o)
 .comment       0x0000000000000012       0x13 /usr/local/bin/../lib/freebasic/linux-x86_64/libfb.a(dev_file_unlock.o)
 .comment       0x0000000000000012       0x13 /usr/local/bin/../lib/freebasic/linux-x86_64/libfb.a(dev_file_write.o)
 .comment       0x0000000000000012       0x13 /usr/local/bin/../lib/freebasic/linux-x86_64/libfb.a(dev_file_write_wstr.o)
 .comment       0x0000000000000012       0x13 /usr/local/bin/../lib/freebasic/linux-x86_64/libfb.a(dev_scrn_eof.o)
 .comment       0x0000000000000012       0x13 /usr/local/bin/../lib/freebasic/linux-x86_64/libfb.a(file_hlock.o)
 .comment       0x0000000000000012       0x13 /usr/local/bin/../lib/freebasic/linux-x86_64/libfb.a(file_print.o)
 .comment       0x0000000000000012       0x13 /usr/local/bin/../lib/freebasic/linux-x86_64/libfb.a(file_print_wstr.o)
 .comment       0x0000000000000012       0x13 /usr/local/bin/../lib/freebasic/linux-x86_64/libfb.a(hinit.o)
 .comment       0x0000000000000012       0x13 /usr/local/bin/../lib/freebasic/linux-x86_64/libfb.a(hinit_enable_vt100_escapes.o)
 .comment       0x0000000000000012       0x13 /usr/local/bin/../lib/freebasic/linux-x86_64/libfb.a(hook_getmouse.o)
 .comment       0x0000000000000012       0x13 /usr/local/bin/../lib/freebasic/linux-x86_64/libfb.a(hook_view_update.o)
 .comment       0x0000000000000012       0x13 /usr/local/bin/../lib/freebasic/linux-x86_64/libfb.a(io_input.o)
 .comment       0x0000000000000012       0x13 /usr/local/bin/../lib/freebasic/linux-x86_64/libfb.a(io_mouse.o)
 .comment       0x0000000000000012       0x13 /usr/local/bin/../lib/freebasic/linux-x86_64/libfb.a(io_printpad.o)
 .comment       0x0000000000000012       0x13 /usr/local/bin/../lib/freebasic/linux-x86_64/libfb.a(io_printpad_wstr.o)
 .comment       0x0000000000000012       0x13 /usr/local/bin/../lib/freebasic/linux-x86_64/libfb.a(io_viewupdate.o)
 .comment       0x0000000000000012       0x13 /usr/local/bin/../lib/freebasic/linux-x86_64/libfb.a(list.o)
 .comment       0x0000000000000012       0x13 /usr/local/bin/../lib/freebasic/linux-x86_64/libfb.a(listdyn.o)
 .comment       0x0000000000000012       0x13 /usr/local/bin/../lib/freebasic/linux-x86_64/libfb.a(sys_hshell.o)
 .comment       0x0000000000000012       0x13 /usr/local/bin/../lib/freebasic/linux-x86_64/libfb.a(dev_file_close.o)
 .comment       0x0000000000000012       0x13 /usr/local/bin/../lib/freebasic/linux-x86_64/libfb.a(dev_file_eof.o)
 .comment       0x0000000000000012       0x13 /usr/local/bin/../lib/freebasic/linux-x86_64/libfb.a(dev_file_flush.o)
 .comment       0x0000000000000012       0x13 /usr/local/bin/../lib/freebasic/linux-x86_64/libfb.a(dev_file_lock.o)
 .comment       0x0000000000000012       0x13 /usr/local/bin/../lib/freebasic/linux-x86_64/libfb.a(dev_scrn_write.o)
 .comment       0x0000000000000012       0x13 /usr/local/bin/../lib/freebasic/linux-x86_64/libfb.a(dev_scrn_write_wstr.o)
 .comment       0x0000000000000012       0x13 /usr/local/bin/../lib/freebasic/linux-x86_64/libfb.a(hook_print_wstr.o)
 .comment       0x0000000000000012       0x13 /usr/local/bin/../lib/freebasic/linux-x86_64/libfb.a(io_printbuff_wstr.o)
 .comment       0x0000000000000012       0x13 /usr/local/bin/../lib/freebasic/linux-x86_64/libfb.a(utf_convfrom_wchar.o)
 .comment       0x0000000000000012       0x13 /usr/local/bin/../lib/freebasic/linux-x86_64/libfb.a(utf_core.o)
 .comment       0x0000000000000012       0x13 /usr/lib/libc_nonshared.a(elf-init.oS)
 .comment       0x0000000000000012       0x13 /usr/lib/gcc/x86_64-pc-linux-gnu/10.2.0/crtend.o

.gnu.build.attributes
 *(.gnu.build.attributes .gnu.build.attributes.*)

.debug
 *(.debug)

.line
 *(.line)

.debug_srcinfo
 *(.debug_srcinfo)

.debug_sfnames
 *(.debug_sfnames)

.debug_aranges
 *(.debug_aranges)

.debug_pubnames
 *(.debug_pubnames)

.debug_info
 *(.debug_info .gnu.linkonce.wi.*)

.debug_abbrev
 *(.debug_abbrev)

.debug_line
 *(.debug_line .debug_line.* .debug_line_end)

.debug_frame
 *(.debug_frame)

.debug_str
 *(.debug_str)

.debug_loc
 *(.debug_loc)

.debug_macinfo
 *(.debug_macinfo)

.debug_weaknames
 *(.debug_weaknames)

.debug_funcnames
 *(.debug_funcnames)

.debug_typenames
 *(.debug_typenames)

.debug_varnames
 *(.debug_varnames)

.debug_pubtypes
 *(.debug_pubtypes)

.debug_ranges
 *(.debug_ranges)

.debug_macro
 *(.debug_macro)

.debug_addr
 *(.debug_addr)

.gnu.attributes
 *(.gnu.attributes)

/DISCARD/
 *(.note.GNU-stack)
 *(.gnu_debuglink)
 *(.gnu.lto_*)
 *(.fbctinf)
OUTPUT(c64dvd-glsl elf64-x86-64)
