  DW_CFA_def_cfa_offset: 24
  DW_CFA_advance_loc: 2 to 000000000042359d
  DW_CFA_def_cfa_offset: 16
  DW_CFA_advance_loc: 2 to 000000000042359f
  DW_CFA_def_cfa_offset: 8
  DW_CFA_advance_loc: 5 to 00000000004235a4
  DW_CFA_restore_state
  DW_CFA_advance_loc: 56 to 00000000004235dc
  DW_CFA_remember_state
  DW_CFA_def_cfa_offset: 56
  DW_CFA_advance_loc: 8 to 00000000004235e4
  DW_CFA_def_cfa_offset: 48
  DW_CFA_advance_loc: 1 to 00000000004235e5
  DW_CFA_def_cfa_offset: 40
  DW_CFA_advance_loc: 2 to 00000000004235e7
  DW_CFA_def_cfa_offset: 32
  DW_CFA_advance_loc: 2 to 00000000004235e9
  DW_CFA_def_cfa_offset: 24
  DW_CFA_advance_loc: 2 to 00000000004235eb
  DW_CFA_def_cfa_offset: 16
  DW_CFA_advance_loc: 2 to 00000000004235ed
  DW_CFA_def_cfa_offset: 8
  DW_CFA_advance_loc: 5 to 00000000004235f2
  DW_CFA_restore_state
  DW_CFA_advance_loc: 46 to 0000000000423620
  DW_CFA_remember_state
  DW_CFA_def_cfa_offset: 56
  DW_CFA_advance_loc: 8 to 0000000000423628
  DW_CFA_def_cfa_offset: 48
  DW_CFA_advance_loc: 1 to 0000000000423629
  DW_CFA_def_cfa_offset: 40
  DW_CFA_advance_loc: 2 to 000000000042362b
  DW_CFA_def_cfa_offset: 32
  DW_CFA_advance_loc: 2 to 000000000042362d
  DW_CFA_def_cfa_offset: 24
  DW_CFA_advance_loc: 2 to 000000000042362f
  DW_CFA_def_cfa_offset: 16
  DW_CFA_advance_loc: 2 to 0000000000423631
  DW_CFA_def_cfa_offset: 8
  DW_CFA_advance_loc: 5 to 0000000000423636
  DW_CFA_restore_state
  DW_CFA_advance_loc: 56 to 000000000042366e
  DW_CFA_remember_state
  DW_CFA_def_cfa_offset: 56
  DW_CFA_advance_loc: 8 to 0000000000423676
  DW_CFA_def_cfa_offset: 48
  DW_CFA_advance_loc: 1 to 0000000000423677
  DW_CFA_def_cfa_offset: 40
  DW_CFA_advance_loc: 2 to 0000000000423679
  DW_CFA_def_cfa_offset: 32
  DW_CFA_advance_loc: 2 to 000000000042367b
  DW_CFA_def_cfa_offset: 24
  DW_CFA_advance_loc: 2 to 000000000042367d
  DW_CFA_def_cfa_offset: 16
  DW_CFA_advance_loc: 2 to 000000000042367f
  DW_CFA_def_cfa_offset: 8
  DW_CFA_advance_loc: 5 to 0000000000423684
  DW_CFA_restore_state
  DW_CFA_advance_loc: 46 to 00000000004236b2
  DW_CFA_remember_state
  DW_CFA_def_cfa_offset: 56
  DW_CFA_advance_loc: 8 to 00000000004236ba
  DW_CFA_def_cfa_offset: 48
  DW_CFA_advance_loc: 1 to 00000000004236bb
  DW_CFA_def_cfa_offset: 40
  DW_CFA_advance_loc: 2 to 00000000004236bd
  DW_CFA_def_cfa_offset: 32
  DW_CFA_advance_loc: 2 to 00000000004236bf
  DW_CFA_def_cfa_offset: 24
  DW_CFA_advance_loc: 2 to 00000000004236c1
  DW_CFA_def_cfa_offset: 16
  DW_CFA_advance_loc: 2 to 00000000004236c3
  DW_CFA_def_cfa_offset: 8
  DW_CFA_advance_loc: 5 to 00000000004236c8
  DW_CFA_restore_state
  DW_CFA_advance_loc: 56 to 0000000000423700
  DW_CFA_remember_state
  DW_CFA_def_cfa_offset: 56
  DW_CFA_advance_loc: 8 to 0000000000423708
  DW_CFA_def_cfa_offset: 48
  DW_CFA_advance_loc: 1 to 0000000000423709
  DW_CFA_def_cfa_offset: 40
  DW_CFA_advance_loc: 2 to 000000000042370b
  DW_CFA_def_cfa_offset: 32
  DW_CFA_advance_loc: 2 to 000000000042370d
  DW_CFA_def_cfa_offset: 24
  DW_CFA_advance_loc: 2 to 000000000042370f
  DW_CFA_def_cfa_offset: 16
  DW_CFA_advance_loc: 2 to 0000000000423711
  DW_CFA_def_cfa_offset: 8
  DW_CFA_advance_loc: 5 to 0000000000423716
  DW_CFA_restore_state
  DW_CFA_advance_loc: 46 to 0000000000423744
  DW_CFA_remember_state
  DW_CFA_def_cfa_offset: 56
  DW_CFA_advance_loc: 8 to 000000000042374c
  DW_CFA_def_cfa_offset: 48
  DW_CFA_advance_loc: 1 to 000000000042374d
  DW_CFA_def_cfa_offset: 40
  DW_CFA_advance_loc: 2 to 000000000042374f
  DW_CFA_def_cfa_offset: 32
  DW_CFA_advance_loc: 2 to 0000000000423751
  DW_CFA_def_cfa_offset: 24
  DW_CFA_advance_loc: 2 to 0000000000423753
  DW_CFA_def_cfa_offset: 16
  DW_CFA_advance_loc: 2 to 0000000000423755
  DW_CFA_def_cfa_offset: 8
  DW_CFA_advance_loc: 5 to 000000000042375a
  DW_CFA_restore_state
  DW_CFA_advance_loc: 56 to 0000000000423792
  DW_CFA_remember_state
  DW_CFA_def_cfa_offset: 56
  DW_CFA_advance_loc: 8 to 000000000042379a
  DW_CFA_def_cfa_offset: 48
  DW_CFA_advance_loc: 1 to 000000000042379b
  DW_CFA_def_cfa_offset: 40
  DW_CFA_advance_loc: 2 to 000000000042379d
  DW_CFA_def_cfa_offset: 32
  DW_CFA_advance_loc: 2 to 000000000042379f
  DW_CFA_def_cfa_offset: 24
  DW_CFA_advance_loc: 2 to 00000000004237a1
  DW_CFA_def_cfa_offset: 16
  DW_CFA_advance_loc: 2 to 00000000004237a3
  DW_CFA_def_cfa_offset: 8
  DW_CFA_advance_loc: 5 to 00000000004237a8
  DW_CFA_restore_state
  DW_CFA_advance_loc: 46 to 00000000004237d6
  DW_CFA_remember_state
  DW_CFA_def_cfa_offset: 56
  DW_CFA_advance_loc: 8 to 00000000004237de
  DW_CFA_def_cfa_offset: 48
  DW_CFA_advance_loc: 1 to 00000000004237df
  DW_CFA_def_cfa_offset: 40
  DW_CFA_advance_loc: 2 to 00000000004237e1
  DW_CFA_def_cfa_offset: 32
  DW_CFA_advance_loc: 2 to 00000000004237e3
  DW_CFA_def_cfa_offset: 24
  DW_CFA_advance_loc: 2 to 00000000004237e5
  DW_CFA_def_cfa_offset: 16
  DW_CFA_advance_loc: 2 to 00000000004237e7
  DW_CFA_def_cfa_offset: 8
  DW_CFA_advance_loc: 5 to 00000000004237ec
  DW_CFA_restore_state
  DW_CFA_advance_loc: 56 to 0000000000423824
  DW_CFA_remember_state
  DW_CFA_def_cfa_offset: 56
  DW_CFA_advance_loc: 8 to 000000000042382c
  DW_CFA_def_cfa_offset: 48
  DW_CFA_advance_loc: 1 to 000000000042382d
  DW_CFA_def_cfa_offset: 40
  DW_CFA_advance_loc: 2 to 000000000042382f
  DW_CFA_def_cfa_offset: 32
  DW_CFA_advance_loc: 2 to 0000000000423831
  DW_CFA_def_cfa_offset: 24
  DW_CFA_advance_loc: 2 to 0000000000423833
  DW_CFA_def_cfa_offset: 16
  DW_CFA_advance_loc: 2 to 0000000000423835
  DW_CFA_def_cfa_offset: 8
  DW_CFA_advance_loc: 5 to 000000000042383a
  DW_CFA_restore_state
  DW_CFA_advance_loc: 46 to 0000000000423868
  DW_CFA_remember_state
  DW_CFA_def_cfa_offset: 56
  DW_CFA_advance_loc: 8 to 0000000000423870
  DW_CFA_def_cfa_offset: 48
  DW_CFA_advance_loc: 1 to 0000000000423871
  DW_CFA_def_cfa_offset: 40
  DW_CFA_advance_loc: 2 to 0000000000423873
  DW_CFA_def_cfa_offset: 32
  DW_CFA_advance_loc: 2 to 0000000000423875
  DW_CFA_def_cfa_offset: 24
  DW_CFA_advance_loc: 2 to 0000000000423877
  DW_CFA_def_cfa_offset: 16
  DW_CFA_advance_loc: 2 to 0000000000423879
  DW_CFA_def_cfa_offset: 8
  DW_CFA_advance_loc: 5 to 000000000042387e
  DW_CFA_restore_state
  DW_CFA_advance_loc: 56 to 00000000004238b6
  DW_CFA_remember_state
  DW_CFA_def_cfa_offset: 56
  DW_CFA_advance_loc: 8 to 00000000004238be
  DW_CFA_def_cfa_offset: 48
  DW_CFA_advance_loc: 1 to 00000000004238bf
  DW_CFA_def_cfa_offset: 40
  DW_CFA_advance_loc: 2 to 00000000004238c1
  DW_CFA_def_cfa_offset: 32
  DW_CFA_advance_loc: 2 to 00000000004238c3
  DW_CFA_def_cfa_offset: 24
  DW_CFA_advance_loc: 2 to 00000000004238c5
  DW_CFA_def_cfa_offset: 16
  DW_CFA_advance_loc: 2 to 00000000004238c7
  DW_CFA_def_cfa_offset: 8
  DW_CFA_advance_loc: 5 to 00000000004238cc
  DW_CFA_restore_state
  DW_CFA_advance_loc: 46 to 00000000004238fa
  DW_CFA_remember_state
  DW_CFA_def_cfa_offset: 56
  DW_CFA_advance_loc: 8 to 0000000000423902
  DW_CFA_def_cfa_offset: 48
  DW_CFA_advance_loc: 1 to 0000000000423903
  DW_CFA_def_cfa_offset: 40
  DW_CFA_advance_loc: 2 to 0000000000423905
  DW_CFA_def_cfa_offset: 32
  DW_CFA_advance_loc: 2 to 0000000000423907
  DW_CFA_def_cfa_offset: 24
  DW_CFA_advance_loc: 2 to 0000000000423909
  DW_CFA_def_cfa_offset: 16
  DW_CFA_advance_loc: 2 to 000000000042390b
  DW_CFA_def_cfa_offset: 8
  DW_CFA_advance_loc: 5 to 0000000000423910
  DW_CFA_restore_state
  DW_CFA_advance_loc: 56 to 0000000000423948
  DW_CFA_remember_state
  DW_CFA_def_cfa_offset: 56
  DW_CFA_advance_loc: 8 to 0000000000423950
  DW_CFA_def_cfa_offset: 48
  DW_CFA_advance_loc: 1 to 0000000000423951
  DW_CFA_def_cfa_offset: 40
  DW_CFA_advance_loc: 2 to 0000000000423953
  DW_CFA_def_cfa_offset: 32
  DW_CFA_advance_loc: 2 to 0000000000423955
  DW_CFA_def_cfa_offset: 24
  DW_CFA_advance_loc: 2 to 0000000000423957
  DW_CFA_def_cfa_offset: 16
  DW_CFA_advance_loc: 2 to 0000000000423959
  DW_CFA_def_cfa_offset: 8
  DW_CFA_advance_loc: 5 to 000000000042395e
  DW_CFA_restore_state
  DW_CFA_advance_loc: 46 to 000000000042398c
  DW_CFA_remember_state
  DW_CFA_def_cfa_offset: 56
  DW_CFA_advance_loc: 8 to 0000000000423994
  DW_CFA_def_cfa_offset: 48
  DW_CFA_advance_loc: 1 to 0000000000423995
  DW_CFA_def_cfa_offset: 40
  DW_CFA_advance_loc: 2 to 0000000000423997
  DW_CFA_def_cfa_offset: 32
  DW_CFA_advance_loc: 2 to 0000000000423999
  DW_CFA_def_cfa_offset: 24
  DW_CFA_advance_loc: 2 to 000000000042399b
  DW_CFA_def_cfa_offset: 16
  DW_CFA_advance_loc: 2 to 000000000042399d
  DW_CFA_def_cfa_offset: 8
  DW_CFA_advance_loc: 5 to 00000000004239a2
  DW_CFA_restore_state
  DW_CFA_advance_loc: 56 to 00000000004239da
  DW_CFA_remember_state
  DW_CFA_def_cfa_offset: 56
  DW_CFA_advance_loc: 8 to 00000000004239e2
  DW_CFA_def_cfa_offset: 48
  DW_CFA_advance_loc: 1 to 00000000004239e3
  DW_CFA_def_cfa_offset: 40
  DW_CFA_advance_loc: 2 to 00000000004239e5
  DW_CFA_def_cfa_offset: 32
  DW_CFA_advance_loc: 2 to 00000000004239e7
  DW_CFA_def_cfa_offset: 24
  DW_CFA_advance_loc: 2 to 00000000004239e9
  DW_CFA_def_cfa_offset: 16
  DW_CFA_advance_loc: 2 to 00000000004239eb
  DW_CFA_def_cfa_offset: 8
  DW_CFA_advance_loc: 5 to 00000000004239f0
  DW_CFA_restore_state
  DW_CFA_advance_loc: 46 to 0000000000423a1e
  DW_CFA_remember_state
  DW_CFA_def_cfa_offset: 56
  DW_CFA_advance_loc: 8 to 0000000000423a26
  DW_CFA_def_cfa_offset: 48
  DW_CFA_advance_loc: 1 to 0000000000423a27
  DW_CFA_def_cfa_offset: 40
  DW_CFA_advance_loc: 2 to 0000000000423a29
  DW_CFA_def_cfa_offset: 32
  DW_CFA_advance_loc: 2 to 0000000000423a2b
  DW_CFA_def_cfa_offset: 24
  DW_CFA_advance_loc: 2 to 0000000000423a2d
  DW_CFA_def_cfa_offset: 16
  DW_CFA_advance_loc: 2 to 0000000000423a2f
  DW_CFA_def_cfa_offset: 8
  DW_CFA_advance_loc: 5 to 0000000000423a34
  DW_CFA_restore_state
  DW_CFA_advance_loc: 56 to 0000000000423a6c
  DW_CFA_remember_state
  DW_CFA_def_cfa_offset: 56
  DW_CFA_advance_loc: 8 to 0000000000423a74
  DW_CFA_def_cfa_offset: 48
  DW_CFA_advance_loc: 1 to 0000000000423a75
  DW_CFA_def_cfa_offset: 40
  DW_CFA_advance_loc: 2 to 0000000000423a77
  DW_CFA_def_cfa_offset: 32
  DW_CFA_advance_loc: 2 to 0000000000423a79
  DW_CFA_def_cfa_offset: 24
  DW_CFA_advance_loc: 2 to 0000000000423a7b
  DW_CFA_def_cfa_offset: 16
  DW_CFA_advance_loc: 2 to 0000000000423a7d
  DW_CFA_def_cfa_offset: 8
  DW_CFA_advance_loc: 5 to 0000000000423a82
  DW_CFA_restore_state
  DW_CFA_advance_loc: 46 to 0000000000423ab0
  DW_CFA_remember_state
  DW_CFA_def_cfa_offset: 56
  DW_CFA_advance_loc: 8 to 0000000000423ab8
  DW_CFA_def_cfa_offset: 48
  DW_CFA_advance_loc: 1 to 0000000000423ab9
  DW_CFA_def_cfa_offset: 40
  DW_CFA_advance_loc: 2 to 0000000000423abb
  DW_CFA_def_cfa_offset: 32
  DW_CFA_advance_loc: 2 to 0000000000423abd
  DW_CFA_def_cfa_offset: 24
  DW_CFA_advance_loc: 2 to 0000000000423abf
  DW_CFA_def_cfa_offset: 16
  DW_CFA_advance_loc: 2 to 0000000000423ac1
  DW_CFA_def_cfa_offset: 8
  DW_CFA_advance_loc: 5 to 0000000000423ac6
  DW_CFA_restore_state
  DW_CFA_advance_loc: 56 to 0000000000423afe
  DW_CFA_remember_state
  DW_CFA_def_cfa_offset: 56
  DW_CFA_advance_loc: 8 to 0000000000423b06
  DW_CFA_def_cfa_offset: 48
  DW_CFA_advance_loc: 1 to 0000000000423b07
  DW_CFA_def_cfa_offset: 40
  DW_CFA_advance_loc: 2 to 0000000000423b09
  DW_CFA_def_cfa_offset: 32
  DW_CFA_advance_loc: 2 to 0000000000423b0b
  DW_CFA_def_cfa_offset: 24
  DW_CFA_advance_loc: 2 to 0000000000423b0d
  DW_CFA_def_cfa_offset: 16
  DW_CFA_advance_loc: 2 to 0000000000423b0f
  DW_CFA_def_cfa_offset: 8
  DW_CFA_advance_loc: 5 to 0000000000423b14
  DW_CFA_restore_state
  DW_CFA_advance_loc: 46 to 0000000000423b42
  DW_CFA_remember_state
  DW_CFA_def_cfa_offset: 56
  DW_CFA_advance_loc: 8 to 0000000000423b4a
  DW_CFA_def_cfa_offset: 48
  DW_CFA_advance_loc: 1 to 0000000000423b4b
  DW_CFA_def_cfa_offset: 40
  DW_CFA_advance_loc: 2 to 0000000000423b4d
  DW_CFA_def_cfa_offset: 32
  DW_CFA_advance_loc: 2 to 0000000000423b4f
  DW_CFA_def_cfa_offset: 24
  DW_CFA_advance_loc: 2 to 0000000000423b51
  DW_CFA_def_cfa_offset: 16
  DW_CFA_advance_loc: 2 to 0000000000423b53
  DW_CFA_def_cfa_offset: 8
  DW_CFA_advance_loc: 5 to 0000000000423b58
  DW_CFA_restore_state
  DW_CFA_advance_loc: 56 to 0000000000423b90
  DW_CFA_remember_state
  DW_CFA_def_cfa_offset: 56
  DW_CFA_advance_loc: 8 to 0000000000423b98
  DW_CFA_def_cfa_offset: 48
  DW_CFA_advance_loc: 1 to 0000000000423b99
  DW_CFA_def_cfa_offset: 40
  DW_CFA_advance_loc: 2 to 0000000000423b9b
  DW_CFA_def_cfa_offset: 32
  DW_CFA_advance_loc: 2 to 0000000000423b9d
  DW_CFA_def_cfa_offset: 24
  DW_CFA_advance_loc: 2 to 0000000000423b9f
  DW_CFA_def_cfa_offset: 16
  DW_CFA_advance_loc: 2 to 0000000000423ba1
  DW_CFA_def_cfa_offset: 8
  DW_CFA_advance_loc: 5 to 0000000000423ba6
  DW_CFA_restore_state
  DW_CFA_advance_loc: 46 to 0000000000423bd4
  DW_CFA_remember_state
  DW_CFA_def_cfa_offset: 56
  DW_CFA_advance_loc: 8 to 0000000000423bdc
  DW_CFA_def_cfa_offset: 48
  DW_CFA_advance_loc: 1 to 0000000000423bdd
  DW_CFA_def_cfa_offset: 40
  DW_CFA_advance_loc: 2 to 0000000000423bdf
  DW_CFA_def_cfa_offset: 32
  DW_CFA_advance_loc: 2 to 0000000000423be1
  DW_CFA_def_cfa_offset: 24
  DW_CFA_advance_loc: 2 to 0000000000423be3
  DW_CFA_def_cfa_offset: 16
  DW_CFA_advance_loc: 2 to 0000000000423be5
  DW_CFA_def_cfa_offset: 8
  DW_CFA_advance_loc: 5 to 0000000000423bea
  DW_CFA_restore_state
  DW_CFA_advance_loc: 56 to 0000000000423c22
  DW_CFA_remember_state
  DW_CFA_def_cfa_offset: 56
  DW_CFA_advance_loc: 8 to 0000000000423c2a
  DW_CFA_def_cfa_offset: 48
  DW_CFA_advance_loc: 1 to 0000000000423c2b
  DW_CFA_def_cfa_offset: 40
  DW_CFA_advance_loc: 2 to 0000000000423c2d
  DW_CFA_def_cfa_offset: 32
  DW_CFA_advance_loc: 2 to 0000000000423c2f
  DW_CFA_def_cfa_offset: 24
  DW_CFA_advance_loc: 2 to 0000000000423c31
  DW_CFA_def_cfa_offset: 16
  DW_CFA_advance_loc: 2 to 0000000000423c33
  DW_CFA_def_cfa_offset: 8
  DW_CFA_advance_loc: 5 to 0000000000423c38
  DW_CFA_restore_state
  DW_CFA_advance_loc: 46 to 0000000000423c66
  DW_CFA_remember_state
  DW_CFA_def_cfa_offset: 56
  DW_CFA_advance_loc: 8 to 0000000000423c6e
  DW_CFA_def_cfa_offset: 48
  DW_CFA_advance_loc: 1 to 0000000000423c6f
  DW_CFA_def_cfa_offset: 40
  DW_CFA_advance_loc: 2 to 0000000000423c71
  DW_CFA_def_cfa_offset: 32
  DW_CFA_advance_loc: 2 to 0000000000423c73
  DW_CFA_def_cfa_offset: 24
  DW_CFA_advance_loc: 2 to 0000000000423c75
  DW_CFA_def_cfa_offset: 16
  DW_CFA_advance_loc: 2 to 0000000000423c77
  DW_CFA_def_cfa_offset: 8
  DW_CFA_advance_loc: 5 to 0000000000423c7c
  DW_CFA_restore_state
  DW_CFA_advance_loc: 56 to 0000000000423cb4
  DW_CFA_remember_state
  DW_CFA_def_cfa_offset: 56
  DW_CFA_advance_loc: 8 to 0000000000423cbc
  DW_CFA_def_cfa_offset: 48
  DW_CFA_advance_loc: 1 to 0000000000423cbd
  DW_CFA_def_cfa_offset: 40
  DW_CFA_advance_loc: 2 to 0000000000423cbf
  DW_CFA_def_cfa_offset: 32
  DW_CFA_advance_loc: 2 to 0000000000423cc1
  DW_CFA_def_cfa_offset: 24
  DW_CFA_advance_loc: 2 to 0000000000423cc3
  DW_CFA_def_cfa_offset: 16
  DW_CFA_advance_loc: 2 to 0000000000423cc5
  DW_CFA_def_cfa_offset: 8
  DW_CFA_advance_loc: 5 to 0000000000423cca
  DW_CFA_restore_state
  DW_CFA_advance_loc: 46 to 0000000000423cf8
  DW_CFA_remember_state
  DW_CFA_def_cfa_offset: 56
  DW_CFA_advance_loc: 8 to 0000000000423d00
  DW_CFA_def_cfa_offset: 48
  DW_CFA_advance_loc: 1 to 0000000000423d01
  DW_CFA_def_cfa_offset: 40
  DW_CFA_advance_loc: 2 to 0000000000423d03
  DW_CFA_def_cfa_offset: 32
  DW_CFA_advance_loc: 2 to 0000000000423d05
  DW_CFA_def_cfa_offset: 24
  DW_CFA_advance_loc: 2 to 0000000000423d07
  DW_CFA_def_cfa_offset: 16
  DW_CFA_advance_loc: 2 to 0000000000423d09
  DW_CFA_def_cfa_offset: 8
  DW_CFA_advance_loc: 5 to 0000000000423d0e
  DW_CFA_restore_state
  DW_CFA_advance_loc: 56 to 0000000000423d46
  DW_CFA_remember_state
  DW_CFA_def_cfa_offset: 56
  DW_CFA_advance_loc: 8 to 0000000000423d4e
  DW_CFA_def_cfa_offset: 48
  DW_CFA_advance_loc: 1 to 0000000000423d4f
  DW_CFA_def_cfa_offset: 40
  DW_CFA_advance_loc: 2 to 0000000000423d51
  DW_CFA_def_cfa_offset: 32
  DW_CFA_advance_loc: 2 to 0000000000423d53
  DW_CFA_def_cfa_offset: 24
  DW_CFA_advance_loc: 2 to 0000000000423d55
  DW_CFA_def_cfa_offset: 16
  DW_CFA_advance_loc: 2 to 0000000000423d57
  DW_CFA_def_cfa_offset: 8
  DW_CFA_advance_loc: 5 to 0000000000423d5c
  DW_CFA_restore_state
  DW_CFA_advance_loc: 46 to 0000000000423d8a
  DW_CFA_remember_state
  DW_CFA_def_cfa_offset: 56
  DW_CFA_advance_loc: 8 to 0000000000423d92
  DW_CFA_def_cfa_offset: 48
  DW_CFA_advance_loc: 1 to 0000000000423d93
  DW_CFA_def_cfa_offset: 40
  DW_CFA_advance_loc: 2 to 0000000000423d95
  DW_CFA_def_cfa_offset: 32
  DW_CFA_advance_loc: 2 to 0000000000423d97
  DW_CFA_def_cfa_offset: 24
  DW_CFA_advance_loc: 2 to 0000000000423d99
  DW_CFA_def_cfa_offset: 16
  DW_CFA_advance_loc: 2 to 0000000000423d9b
  DW_CFA_def_cfa_offset: 8
  DW_CFA_advance_loc: 5 to 0000000000423da0
  DW_CFA_restore_state
  DW_CFA_advance_loc: 56 to 0000000000423dd8
  DW_CFA_remember_state
  DW_CFA_def_cfa_offset: 56
  DW_CFA_advance_loc: 8 to 0000000000423de0
  DW_CFA_def_cfa_offset: 48
  DW_CFA_advance_loc: 1 to 0000000000423de1
  DW_CFA_def_cfa_offset: 40
  DW_CFA_advance_loc: 2 to 0000000000423de3
  DW_CFA_def_cfa_offset: 32
  DW_CFA_advance_loc: 2 to 0000000000423de5
  DW_CFA_def_cfa_offset: 24
  DW_CFA_advance_loc: 2 to 0000000000423de7
  DW_CFA_def_cfa_offset: 16
  DW_CFA_advance_loc: 2 to 0000000000423de9
  DW_CFA_def_cfa_offset: 8
  DW_CFA_advance_loc: 5 to 0000000000423dee
  DW_CFA_restore_state
  DW_CFA_advance_loc: 46 to 0000000000423e1c
  DW_CFA_remember_state
  DW_CFA_def_cfa_offset: 56
  DW_CFA_advance_loc: 8 to 0000000000423e24
  DW_CFA_def_cfa_offset: 48
  DW_CFA_advance_loc: 1 to 0000000000423e25
  DW_CFA_def_cfa_offset: 40
  DW_CFA_advance_loc: 2 to 0000000000423e27
  DW_CFA_def_cfa_offset: 32
  DW_CFA_advance_loc: 2 to 0000000000423e29
  DW_CFA_def_cfa_offset: 24
  DW_CFA_advance_loc: 2 to 0000000000423e2b
  DW_CFA_def_cfa_offset: 16
  DW_CFA_advance_loc: 2 to 0000000000423e2d
  DW_CFA_def_cfa_offset: 8
  DW_CFA_advance_loc: 5 to 0000000000423e32
  DW_CFA_restore_state
  DW_CFA_advance_loc: 56 to 0000000000423e6a
  DW_CFA_remember_state
  DW_CFA_def_cfa_offset: 56
  DW_CFA_advance_loc: 8 to 0000000000423e72
  DW_CFA_def_cfa_offset: 48
  DW_CFA_advance_loc: 1 to 0000000000423e73
  DW_CFA_def_cfa_offset: 40
  DW_CFA_advance_loc: 2 to 0000000000423e75
  DW_CFA_def_cfa_offset: 32
  DW_CFA_advance_loc: 2 to 0000000000423e77
  DW_CFA_def_cfa_offset: 24
  DW_CFA_advance_loc: 2 to 0000000000423e79
  DW_CFA_def_cfa_offset: 16
  DW_CFA_advance_loc: 2 to 0000000000423e7b
  DW_CFA_def_cfa_offset: 8
  DW_CFA_advance_loc: 5 to 0000000000423e80
  DW_CFA_restore_state
  DW_CFA_advance_loc: 46 to 0000000000423eae
  DW_CFA_remember_state
  DW_CFA_def_cfa_offset: 56
  DW_CFA_advance_loc: 8 to 0000000000423eb6
  DW_CFA_def_cfa_offset: 48
  DW_CFA_advance_loc: 1 to 0000000000423eb7
  DW_CFA_def_cfa_offset: 40
  DW_CFA_advance_loc: 2 to 0000000000423eb9
  DW_CFA_def_cfa_offset: 32
  DW_CFA_advance_loc: 2 to 0000000000423ebb
  DW_CFA_def_cfa_offset: 24
  DW_CFA_advance_loc: 2 to 0000000000423ebd
  DW_CFA_def_cfa_offset: 16
  DW_CFA_advance_loc: 2 to 0000000000423ebf
  DW_CFA_def_cfa_offset: 8
  DW_CFA_advance_loc: 5 to 0000000000423ec4
  DW_CFA_restore_state
  DW_CFA_advance_loc: 56 to 0000000000423efc
  DW_CFA_remember_state
  DW_CFA_def_cfa_offset: 56
  DW_CFA_advance_loc: 8 to 0000000000423f04
  DW_CFA_def_cfa_offset: 48
  DW_CFA_advance_loc: 1 to 0000000000423f05
  DW_CFA_def_cfa_offset: 40
  DW_CFA_advance_loc: 2 to 0000000000423f07
  DW_CFA_def_cfa_offset: 32
  DW_CFA_advance_loc: 2 to 0000000000423f09
  DW_CFA_def_cfa_offset: 24
  DW_CFA_advance_loc: 2 to 0000000000423f0b
  DW_CFA_def_cfa_offset: 16
  DW_CFA_advance_loc: 2 to 0000000000423f0d
  DW_CFA_def_cfa_offset: 8
  DW_CFA_advance_loc: 5 to 0000000000423f12
  DW_CFA_restore_state
  DW_CFA_advance_loc: 46 to 0000000000423f40
  DW_CFA_remember_state
  DW_CFA_def_cfa_offset: 56
  DW_CFA_advance_loc: 8 to 0000000000423f48
  DW_CFA_def_cfa_offset: 48
  DW_CFA_advance_loc: 1 to 0000000000423f49
  DW_CFA_def_cfa_offset: 40
  DW_CFA_advance_loc: 2 to 0000000000423f4b
  DW_CFA_def_cfa_offset: 32
  DW_CFA_advance_loc: 2 to 0000000000423f4d
  DW_CFA_def_cfa_offset: 24
  DW_CFA_advance_loc: 2 to 0000000000423f4f
  DW_CFA_def_cfa_offset: 16
  DW_CFA_advance_loc: 2 to 0000000000423f51
  DW_CFA_def_cfa_offset: 8
  DW_CFA_advance_loc: 5 to 0000000000423f56
  DW_CFA_restore_state
  DW_CFA_advance_loc: 56 to 0000000000423f8e
  DW_CFA_remember_state
  DW_CFA_def_cfa_offset: 56
  DW_CFA_advance_loc: 8 to 0000000000423f96
  DW_CFA_def_cfa_offset: 48
  DW_CFA_advance_loc: 1 to 0000000000423f97
  DW_CFA_def_cfa_offset: 40
  DW_CFA_advance_loc: 2 to 0000000000423f99
  DW_CFA_def_cfa_offset: 32
  DW_CFA_advance_loc: 2 to 0000000000423f9b
  DW_CFA_def_cfa_offset: 24
  DW_CFA_advance_loc: 2 to 0000000000423f9d
  DW_CFA_def_cfa_offset: 16
  DW_CFA_advance_loc: 2 to 0000000000423f9f
  DW_CFA_def_cfa_offset: 8
  DW_CFA_advance_loc: 5 to 0000000000423fa4
  DW_CFA_restore_state
  DW_CFA_advance_loc: 46 to 0000000000423fd2
  DW_CFA_remember_state
  DW_CFA_def_cfa_offset: 56
  DW_CFA_advance_loc: 8 to 0000000000423fda
  DW_CFA_def_cfa_offset: 48
  DW_CFA_advance_loc: 1 to 0000000000423fdb
  DW_CFA_def_cfa_offset: 40
  DW_CFA_advance_loc: 2 to 0000000000423fdd
  DW_CFA_def_cfa_offset: 32
  DW_CFA_advance_loc: 2 to 0000000000423fdf
  DW_CFA_def_cfa_offset: 24
  DW_CFA_advance_loc: 2 to 0000000000423fe1
  DW_CFA_def_cfa_offset: 16
  DW_CFA_advance_loc: 2 to 0000000000423fe3
  DW_CFA_def_cfa_offset: 8
  DW_CFA_advance_loc: 5 to 0000000000423fe8
  DW_CFA_restore_state
  DW_CFA_advance_loc: 56 to 0000000000424020
  DW_CFA_remember_state
  DW_CFA_def_cfa_offset: 56
  DW_CFA_advance_loc: 8 to 0000000000424028
  DW_CFA_def_cfa_offset: 48
  DW_CFA_advance_loc: 1 to 0000000000424029
  DW_CFA_def_cfa_offset: 40
  DW_CFA_advance_loc: 2 to 000000000042402b
  DW_CFA_def_cfa_offset: 32
  DW_CFA_advance_loc: 2 to 000000000042402d
  DW_CFA_def_cfa_offset: 24
  DW_CFA_advance_loc: 2 to 000000000042402f
  DW_CFA_def_cfa_offset: 16
  DW_CFA_advance_loc: 2 to 0000000000424031
  DW_CFA_def_cfa_offset: 8
  DW_CFA_advance_loc: 5 to 0000000000424036
  DW_CFA_restore_state
  DW_CFA_advance_loc: 46 to 0000000000424064
  DW_CFA_remember_state
  DW_CFA_def_cfa_offset: 56
  DW_CFA_advance_loc: 8 to 000000000042406c
  DW_CFA_def_cfa_offset: 48
  DW_CFA_advance_loc: 1 to 000000000042406d
  DW_CFA_def_cfa_offset: 40
  DW_CFA_advance_loc: 2 to 000000000042406f
  DW_CFA_def_cfa_offset: 32
  DW_CFA_advance_loc: 2 to 0000000000424071
  DW_CFA_def_cfa_offset: 24
  DW_CFA_advance_loc: 2 to 0000000000424073
  DW_CFA_def_cfa_offset: 16
  DW_CFA_advance_loc: 2 to 0000000000424075
  DW_CFA_def_cfa_offset: 8
  DW_CFA_advance_loc: 5 to 000000000042407a
  DW_CFA_restore_state
  DW_CFA_advance_loc: 56 to 00000000004240b2
  DW_CFA_remember_state
  DW_CFA_def_cfa_offset: 56
  DW_CFA_advance_loc: 8 to 00000000004240ba
  DW_CFA_def_cfa_offset: 48
  DW_CFA_advance_loc: 1 to 00000000004240bb
  DW_CFA_def_cfa_offset: 40
  DW_CFA_advance_loc: 2 to 00000000004240bd
  DW_CFA_def_cfa_offset: 32
  DW_CFA_advance_loc: 2 to 00000000004240bf
  DW_CFA_def_cfa_offset: 24
  DW_CFA_advance_loc: 2 to 00000000004240c1
  DW_CFA_def_cfa_offset: 16
  DW_CFA_advance_loc: 2 to 00000000004240c3
  DW_CFA_def_cfa_offset: 8
  DW_CFA_advance_loc: 5 to 00000000004240c8
  DW_CFA_restore_state
  DW_CFA_advance_loc: 46 to 00000000004240f6
  DW_CFA_remember_state
  DW_CFA_def_cfa_offset: 56
  DW_CFA_advance_loc: 8 to 00000000004240fe
  DW_CFA_def_cfa_offset: 48
  DW_CFA_advance_loc: 1 to 00000000004240ff
  DW_CFA_def_cfa_offset: 40
  DW_CFA_advance_loc: 2 to 0000000000424101
  DW_CFA_def_cfa_offset: 32
  DW_CFA_advance_loc: 2 to 0000000000424103
  DW_CFA_def_cfa_offset: 24
  DW_CFA_advance_loc: 2 to 0000000000424105
  DW_CFA_def_cfa_offset: 16
  DW_CFA_advance_loc: 2 to 0000000000424107
  DW_CFA_def_cfa_offset: 8
  DW_CFA_advance_loc: 5 to 000000000042410c
  DW_CFA_restore_state
  DW_CFA_advance_loc: 56 to 0000000000424144
  DW_CFA_remember_state
  DW_CFA_def_cfa_offset: 56
  DW_CFA_advance_loc: 8 to 000000000042414c
  DW_CFA_def_cfa_offset: 48
  DW_CFA_advance_loc: 1 to 000000000042414d
  DW_CFA_def_cfa_offset: 40
  DW_CFA_advance_loc: 2 to 000000000042414f
  DW_CFA_def_cfa_offset: 32
  DW_CFA_advance_loc: 2 to 0000000000424151
  DW_CFA_def_cfa_offset: 24
  DW_CFA_advance_loc: 2 to 0000000000424153
  DW_CFA_def_cfa_offset: 16
  DW_CFA_advance_loc: 2 to 0000000000424155
  DW_CFA_def_cfa_offset: 8
  DW_CFA_advance_loc: 5 to 000000000042415a
  DW_CFA_restore_state
  DW_CFA_advance_loc: 46 to 0000000000424188
  DW_CFA_remember_state
  DW_CFA_def_cfa_offset: 56
  DW_CFA_advance_loc: 8 to 0000000000424190
  DW_CFA_def_cfa_offset: 48
  DW_CFA_advance_loc: 1 to 0000000000424191
  DW_CFA_def_cfa_offset: 40
  DW_CFA_advance_loc: 2 to 0000000000424193
  DW_CFA_def_cfa_offset: 32
  DW_CFA_advance_loc: 2 to 0000000000424195
  DW_CFA_def_cfa_offset: 24
  DW_CFA_advance_loc: 2 to 0000000000424197
  DW_CFA_def_cfa_offset: 16
  DW_CFA_advance_loc: 2 to 0000000000424199
  DW_CFA_def_cfa_offset: 8
  DW_CFA_advance_loc: 5 to 000000000042419e
  DW_CFA_restore_state
  DW_CFA_advance_loc: 56 to 00000000004241d6
  DW_CFA_remember_state
  DW_CFA_def_cfa_offset: 56
  DW_CFA_advance_loc: 8 to 00000000004241de
  DW_CFA_def_cfa_offset: 48
  DW_CFA_advance_loc: 1 to 00000000004241df
  DW_CFA_def_cfa_offset: 40
  DW_CFA_advance_loc: 2 to 00000000004241e1
  DW_CFA_def_cfa_offset: 32
  DW_CFA_advance_loc: 2 to 00000000004241e3
  DW_CFA_def_cfa_offset: 24
  DW_CFA_advance_loc: 2 to 00000000004241e5
  DW_CFA_def_cfa_offset: 16
  DW_CFA_advance_loc: 2 to 00000000004241e7
  DW_CFA_def_cfa_offset: 8
  DW_CFA_advance_loc: 5 to 00000000004241ec
  DW_CFA_restore_state
  DW_CFA_advance_loc: 46 to 000000000042421a
  DW_CFA_remember_state
  DW_CFA_def_cfa_offset: 56
  DW_CFA_advance_loc: 8 to 0000000000424222
  DW_CFA_def_cfa_offset: 48
  DW_CFA_advance_loc: 1 to 0000000000424223
  DW_CFA_def_cfa_offset: 40
  DW_CFA_advance_loc: 2 to 0000000000424225
  DW_CFA_def_cfa_offset: 32
  DW_CFA_advance_loc: 2 to 0000000000424227
  DW_CFA_def_cfa_offset: 24
  DW_CFA_advance_loc: 2 to 0000000000424229
  DW_CFA_def_cfa_offset: 16
  DW_CFA_advance_loc: 2 to 000000000042422b
  DW_CFA_def_cfa_offset: 8
  DW_CFA_advance_loc: 5 to 0000000000424230
  DW_CFA_restore_state
  DW_CFA_advance_loc: 56 to 0000000000424268
  DW_CFA_remember_state
  DW_CFA_def_cfa_offset: 56
  DW_CFA_advance_loc: 8 to 0000000000424270
  DW_CFA_def_cfa_offset: 48
  DW_CFA_advance_loc: 1 to 0000000000424271
  DW_CFA_def_cfa_offset: 40
  DW_CFA_advance_loc: 2 to 0000000000424273
  DW_CFA_def_cfa_offset: 32
  DW_CFA_advance_loc: 2 to 0000000000424275
  DW_CFA_def_cfa_offset: 24
  DW_CFA_advance_loc: 2 to 0000000000424277
  DW_CFA_def_cfa_offset: 16
  DW_CFA_advance_loc: 2 to 0000000000424279
  DW_CFA_def_cfa_offset: 8
  DW_CFA_advance_loc: 5 to 000000000042427e
  DW_CFA_restore_state
  DW_CFA_advance_loc: 46 to 00000000004242ac
  DW_CFA_remember_state
  DW_CFA_def_cfa_offset: 56
  DW_CFA_advance_loc: 8 to 00000000004242b4
  DW_CFA_def_cfa_offset: 48
  DW_CFA_advance_loc: 1 to 00000000004242b5
  DW_CFA_def_cfa_offset: 40
  DW_CFA_advance_loc: 2 to 00000000004242b7
  DW_CFA_def_cfa_offset: 32
  DW_CFA_advance_loc: 2 to 00000000004242b9
  DW_CFA_def_cfa_offset: 24
  DW_CFA_advance_loc: 2 to 00000000004242bb
  DW_CFA_def_cfa_offset: 16
  DW_CFA_advance_loc: 2 to 00000000004242bd
  DW_CFA_def_cfa_offset: 8
  DW_CFA_advance_loc: 5 to 00000000004242c2
  DW_CFA_restore_state
  DW_CFA_advance_loc: 56 to 00000000004242fa
  DW_CFA_remember_state
  DW_CFA_def_cfa_offset: 56
  DW_CFA_advance_loc: 8 to 0000000000424302
  DW_CFA_def_cfa_offset: 48
  DW_CFA_advance_loc: 1 to 0000000000424303
  DW_CFA_def_cfa_offset: 40
  DW_CFA_advance_loc: 2 to 0000000000424305
  DW_CFA_def_cfa_offset: 32
  DW_CFA_advance_loc: 2 to 0000000000424307
  DW_CFA_def_cfa_offset: 24
  DW_CFA_advance_loc: 2 to 0000000000424309
  DW_CFA_def_cfa_offset: 16
  DW_CFA_advance_loc: 2 to 000000000042430b
  DW_CFA_def_cfa_offset: 8
  DW_CFA_advance_loc: 5 to 0000000000424310
  DW_CFA_restore_state
  DW_CFA_advance_loc: 46 to 000000000042433e
  DW_CFA_remember_state
  DW_CFA_def_cfa_offset: 56
  DW_CFA_advance_loc: 8 to 0000000000424346
  DW_CFA_def_cfa_offset: 48
  DW_CFA_advance_loc: 1 to 0000000000424347
  DW_CFA_def_cfa_offset: 40
  DW_CFA_advance_loc: 2 to 0000000000424349
  DW_CFA_def_cfa_offset: 32
  DW_CFA_advance_loc: 2 to 000000000042434b
  DW_CFA_def_cfa_offset: 24
  DW_CFA_advance_loc: 2 to 000000000042434d
  DW_CFA_def_cfa_offset: 16
  DW_CFA_advance_loc: 2 to 000000000042434f
  DW_CFA_def_cfa_offset: 8
  DW_CFA_advance_loc: 5 to 0000000000424354
  DW_CFA_restore_state
  DW_CFA_advance_loc: 56 to 000000000042438c
  DW_CFA_remember_state
  DW_CFA_def_cfa_offset: 56
  DW_CFA_advance_loc: 8 to 0000000000424394
  DW_CFA_def_cfa_offset: 48
  DW_CFA_advance_loc: 1 to 0000000000424395
  DW_CFA_def_cfa_offset: 40
  DW_CFA_advance_loc: 2 to 0000000000424397
  DW_CFA_def_cfa_offset: 32
  DW_CFA_advance_loc: 2 to 0000000000424399
  DW_CFA_def_cfa_offset: 24
  DW_CFA_advance_loc: 2 to 000000000042439b
  DW_CFA_def_cfa_offset: 16
  DW_CFA_advance_loc: 2 to 000000000042439d
  DW_CFA_def_cfa_offset: 8
  DW_CFA_advance_loc: 5 to 00000000004243a2
  DW_CFA_restore_state
  DW_CFA_advance_loc: 46 to 00000000004243d0
  DW_CFA_remember_state
  DW_CFA_def_cfa_offset: 56
  DW_CFA_advance_loc: 8 to 00000000004243d8
  DW_CFA_def_cfa_offset: 48
  DW_CFA_advance_loc: 1 to 00000000004243d9
  DW_CFA_def_cfa_offset: 40
  DW_CFA_advance_loc: 2 to 00000000004243db
  DW_CFA_def_cfa_offset: 32
  DW_CFA_advance_loc: 2 to 00000000004243dd
  DW_CFA_def_cfa_offset: 24
  DW_CFA_advance_loc: 2 to 00000000004243df
  DW_CFA_def_cfa_offset: 16
  DW_CFA_advance_loc: 2 to 00000000004243e1
  DW_CFA_def_cfa_offset: 8
  DW_CFA_advance_loc: 5 to 00000000004243e6
  DW_CFA_restore_state
  DW_CFA_advance_loc: 56 to 000000000042441e
  DW_CFA_remember_state
  DW_CFA_def_cfa_offset: 56
  DW_CFA_advance_loc: 8 to 0000000000424426
  DW_CFA_def_cfa_offset: 48
  DW_CFA_advance_loc: 1 to 0000000000424427
  DW_CFA_def_cfa_offset: 40
  DW_CFA_advance_loc: 2 to 0000000000424429
  DW_CFA_def_cfa_offset: 32
  DW_CFA_advance_loc: 2 to 000000000042442b
  DW_CFA_def_cfa_offset: 24
  DW_CFA_advance_loc: 2 to 000000000042442d
  DW_CFA_def_cfa_offset: 16
  DW_CFA_advance_loc: 2 to 000000000042442f
  DW_CFA_def_cfa_offset: 8
  DW_CFA_advance_loc: 5 to 0000000000424434
  DW_CFA_restore_state
  DW_CFA_advance_loc: 46 to 0000000000424462
  DW_CFA_remember_state
  DW_CFA_def_cfa_offset: 56
  DW_CFA_advance_loc: 8 to 000000000042446a
  DW_CFA_def_cfa_offset: 48
  DW_CFA_advance_loc: 1 to 000000000042446b
  DW_CFA_def_cfa_offset: 40
  DW_CFA_advance_loc: 2 to 000000000042446d
  DW_CFA_def_cfa_offset: 32
  DW_CFA_advance_loc: 2 to 000000000042446f
  DW_CFA_def_cfa_offset: 24
  DW_CFA_advance_loc: 2 to 0000000000424471
  DW_CFA_def_cfa_offset: 16
  DW_CFA_advance_loc: 2 to 0000000000424473
  DW_CFA_def_cfa_offset: 8
  DW_CFA_advance_loc: 5 to 0000000000424478
  DW_CFA_restore_state
  DW_CFA_advance_loc: 56 to 00000000004244b0
  DW_CFA_remember_state
  DW_CFA_def_cfa_offset: 56
  DW_CFA_advance_loc: 8 to 00000000004244b8
  DW_CFA_def_cfa_offset: 48
  DW_CFA_advance_loc: 1 to 00000000004244b9
  DW_CFA_def_cfa_offset: 40
  DW_CFA_advance_loc: 2 to 00000000004244bb
  DW_CFA_def_cfa_offset: 32
  DW_CFA_advance_loc: 2 to 00000000004244bd
  DW_CFA_def_cfa_offset: 24
  DW_CFA_advance_loc: 2 to 00000000004244bf
  DW_CFA_def_cfa_offset: 16
  DW_CFA_advance_loc: 2 to 00000000004244c1
  DW_CFA_def_cfa_offset: 8
  DW_CFA_advance_loc: 5 to 00000000004244c6
  DW_CFA_restore_state
  DW_CFA_advance_loc: 46 to 00000000004244f4
  DW_CFA_remember_state
  DW_CFA_def_cfa_offset: 56
  DW_CFA_advance_loc: 8 to 00000000004244fc
  DW_CFA_def_cfa_offset: 48
  DW_CFA_advance_loc: 1 to 00000000004244fd
  DW_CFA_def_cfa_offset: 40
  DW_CFA_advance_loc: 2 to 00000000004244ff
  DW_CFA_def_cfa_offset: 32
  DW_CFA_advance_loc: 2 to 0000000000424501
  DW_CFA_def_cfa_offset: 24
  DW_CFA_advance_loc: 2 to 0000000000424503
  DW_CFA_def_cfa_offset: 16
  DW_CFA_advance_loc: 2 to 0000000000424505
  DW_CFA_def_cfa_offset: 8
  DW_CFA_advance_loc: 5 to 000000000042450a
  DW_CFA_restore_state
  DW_CFA_advance_loc: 56 to 0000000000424542
  DW_CFA_remember_state
  DW_CFA_def_cfa_offset: 56
  DW_CFA_advance_loc: 8 to 000000000042454a
  DW_CFA_def_cfa_offset: 48
  DW_CFA_advance_loc: 1 to 000000000042454b
  DW_CFA_def_cfa_offset: 40
  DW_CFA_advance_loc: 2 to 000000000042454d
  DW_CFA_def_cfa_offset: 32
  DW_CFA_advance_loc: 2 to 000000000042454f
  DW_CFA_def_cfa_offset: 24
  DW_CFA_advance_loc: 2 to 0000000000424551
  DW_CFA_def_cfa_offset: 16
  DW_CFA_advance_loc: 2 to 0000000000424553
  DW_CFA_def_cfa_offset: 8
  DW_CFA_advance_loc: 5 to 0000000000424558
  DW_CFA_restore_state
  DW_CFA_advance_loc: 46 to 0000000000424586
  DW_CFA_remember_state
  DW_CFA_def_cfa_offset: 56
  DW_CFA_advance_loc: 8 to 000000000042458e
  DW_CFA_def_cfa_offset: 48
  DW_CFA_advance_loc: 1 to 000000000042458f
  DW_CFA_def_cfa_offset: 40
  DW_CFA_advance_loc: 2 to 0000000000424591
  DW_CFA_def_cfa_offset: 32
  DW_CFA_advance_loc: 2 to 0000000000424593
  DW_CFA_def_cfa_offset: 24
  DW_CFA_advance_loc: 2 to 0000000000424595
  DW_CFA_def_cfa_offset: 16
  DW_CFA_advance_loc: 2 to 0000000000424597
  DW_CFA_def_cfa_offset: 8
  DW_CFA_advance_loc: 5 to 000000000042459c
  DW_CFA_restore_state
  DW_CFA_advance_loc: 56 to 00000000004245d4
  DW_CFA_remember_state
  DW_CFA_def_cfa_offset: 56
  DW_CFA_advance_loc: 8 to 00000000004245dc
  DW_CFA_def_cfa_offset: 48
  DW_CFA_advance_loc: 1 to 00000000004245dd
  DW_CFA_def_cfa_offset: 40
  DW_CFA_advance_loc: 2 to 00000000004245df
  DW_CFA_def_cfa_offset: 32
  DW_CFA_advance_loc: 2 to 00000000004245e1
  DW_CFA_def_cfa_offset: 24
  DW_CFA_advance_loc: 2 to 00000000004245e3
  DW_CFA_def_cfa_offset: 16
  DW_CFA_advance_loc: 2 to 00000000004245e5
  DW_CFA_def_cfa_offset: 8
  DW_CFA_advance_loc: 5 to 00000000004245ea
  DW_CFA_restore_state
  DW_CFA_advance_loc: 46 to 0000000000424618
  DW_CFA_remember_state
  DW_CFA_def_cfa_offset: 56
  DW_CFA_advance_loc: 8 to 0000000000424620
  DW_CFA_def_cfa_offset: 48
  DW_CFA_advance_loc: 1 to 0000000000424621
  DW_CFA_def_cfa_offset: 40
  DW_CFA_advance_loc: 2 to 0000000000424623
  DW_CFA_def_cfa_offset: 32
  DW_CFA_advance_loc: 2 to 0000000000424625
  DW_CFA_def_cfa_offset: 24
  DW_CFA_advance_loc: 2 to 0000000000424627
  DW_CFA_def_cfa_offset: 16
  DW_CFA_advance_loc: 2 to 0000000000424629
  DW_CFA_def_cfa_offset: 8
  DW_CFA_advance_loc: 5 to 000000000042462e
  DW_CFA_restore_state
  DW_CFA_advance_loc: 56 to 0000000000424666
  DW_CFA_remember_state
  DW_CFA_def_cfa_offset: 56
  DW_CFA_advance_loc: 8 to 000000000042466e
  DW_CFA_def_cfa_offset: 48
  DW_CFA_advance_loc: 1 to 000000000042466f
  DW_CFA_def_cfa_offset: 40
  DW_CFA_advance_loc: 2 to 0000000000424671
  DW_CFA_def_cfa_offset: 32
  DW_CFA_advance_loc: 2 to 0000000000424673
  DW_CFA_def_cfa_offset: 24
  DW_CFA_advance_loc: 2 to 0000000000424675
  DW_CFA_def_cfa_offset: 16
  DW_CFA_advance_loc: 2 to 0000000000424677
  DW_CFA_def_cfa_offset: 8
  DW_CFA_advance_loc: 5 to 000000000042467c
  DW_CFA_restore_state
  DW_CFA_advance_loc: 46 to 00000000004246aa
  DW_CFA_remember_state
  DW_CFA_def_cfa_offset: 56
  DW_CFA_advance_loc: 8 to 00000000004246b2
  DW_CFA_def_cfa_offset: 48
  DW_CFA_advance_loc: 1 to 00000000004246b3
  DW_CFA_def_cfa_offset: 40
  DW_CFA_advance_loc: 2 to 00000000004246b5
  DW_CFA_def_cfa_offset: 32
  DW_CFA_advance_loc: 2 to 00000000004246b7
  DW_CFA_def_cfa_offset: 24
  DW_CFA_advance_loc: 2 to 00000000004246b9
  DW_CFA_def_cfa_offset: 16
  DW_CFA_advance_loc: 2 to 00000000004246bb
  DW_CFA_def_cfa_offset: 8
  DW_CFA_advance_loc: 5 to 00000000004246c0
  DW_CFA_restore_state
  DW_CFA_advance_loc: 56 to 00000000004246f8
  DW_CFA_remember_state
  DW_CFA_def_cfa_offset: 56
  DW_CFA_advance_loc: 8 to 0000000000424700
  DW_CFA_def_cfa_offset: 48
  DW_CFA_advance_loc: 1 to 0000000000424701
  DW_CFA_def_cfa_offset: 40
  DW_CFA_advance_loc: 2 to 0000000000424703
  DW_CFA_def_cfa_offset: 32
  DW_CFA_advance_loc: 2 to 0000000000424705
  DW_CFA_def_cfa_offset: 24
  DW_CFA_advance_loc: 2 to 0000000000424707
  DW_CFA_def_cfa_offset: 16
  DW_CFA_advance_loc: 2 to 0000000000424709
  DW_CFA_def_cfa_offset: 8
  DW_CFA_advance_loc: 5 to 000000000042470e
  DW_CFA_restore_state
  DW_CFA_advance_loc: 46 to 000000000042473c
  DW_CFA_remember_state
  DW_CFA_def_cfa_offset: 56
  DW_CFA_advance_loc: 8 to 0000000000424744
  DW_CFA_def_cfa_offset: 48
  DW_CFA_advance_loc: 1 to 0000000000424745
  DW_CFA_def_cfa_offset: 40
  DW_CFA_advance_loc: 2 to 0000000000424747
  DW_CFA_def_cfa_offset: 32
  DW_CFA_advance_loc: 2 to 0000000000424749
  DW_CFA_def_cfa_offset: 24
  DW_CFA_advance_loc: 2 to 000000000042474b
  DW_CFA_def_cfa_offset: 16
  DW_CFA_advance_loc: 2 to 000000000042474d
  DW_CFA_def_cfa_offset: 8
  DW_CFA_advance_loc: 5 to 0000000000424752
  DW_CFA_restore_state
  DW_CFA_advance_loc: 56 to 000000000042478a
  DW_CFA_remember_state
  DW_CFA_def_cfa_offset: 56
  DW_CFA_advance_loc: 8 to 0000000000424792
  DW_CFA_def_cfa_offset: 48
  DW_CFA_advance_loc: 1 to 0000000000424793
  DW_CFA_def_cfa_offset: 40
  DW_CFA_advance_loc: 2 to 0000000000424795
  DW_CFA_def_cfa_offset: 32
  DW_CFA_advance_loc: 2 to 0000000000424797
  DW_CFA_def_cfa_offset: 24
  DW_CFA_advance_loc: 2 to 0000000000424799
  DW_CFA_def_cfa_offset: 16
  DW_CFA_advance_loc: 2 to 000000000042479b
  DW_CFA_def_cfa_offset: 8
  DW_CFA_advance_loc: 5 to 00000000004247a0
  DW_CFA_restore_state
  DW_CFA_advance_loc: 46 to 00000000004247ce
  DW_CFA_remember_state
  DW_CFA_def_cfa_offset: 56
  DW_CFA_advance_loc: 8 to 00000000004247d6
  DW_CFA_def_cfa_offset: 48
  DW_CFA_advance_loc: 1 to 00000000004247d7
  DW_CFA_def_cfa_offset: 40
  DW_CFA_advance_loc: 2 to 00000000004247d9
  DW_CFA_def_cfa_offset: 32
  DW_CFA_advance_loc: 2 to 00000000004247db
  DW_CFA_def_cfa_offset: 24
  DW_CFA_advance_loc: 2 to 00000000004247dd
  DW_CFA_def_cfa_offset: 16
  DW_CFA_advance_loc: 2 to 00000000004247df
  DW_CFA_def_cfa_offset: 8
  DW_CFA_advance_loc: 5 to 00000000004247e4
  DW_CFA_restore_state
  DW_CFA_advance_loc: 56 to 000000000042481c
  DW_CFA_remember_state
  DW_CFA_def_cfa_offset: 56
  DW_CFA_advance_loc: 8 to 0000000000424824
  DW_CFA_def_cfa_offset: 48
  DW_CFA_advance_loc: 1 to 0000000000424825
  DW_CFA_def_cfa_offset: 40
  DW_CFA_advance_loc: 2 to 0000000000424827
  DW_CFA_def_cfa_offset: 32
  DW_CFA_advance_loc: 2 to 0000000000424829
  DW_CFA_def_cfa_offset: 24
  DW_CFA_advance_loc: 2 to 000000000042482b
  DW_CFA_def_cfa_offset: 16
  DW_CFA_advance_loc: 2 to 000000000042482d
  DW_CFA_def_cfa_offset: 8
  DW_CFA_advance_loc: 5 to 0000000000424832
  DW_CFA_restore_state
  DW_CFA_advance_loc: 46 to 0000000000424860
  DW_CFA_remember_state
  DW_CFA_def_cfa_offset: 56
  DW_CFA_advance_loc: 8 to 0000000000424868
  DW_CFA_def_cfa_offset: 48
  DW_CFA_advance_loc: 1 to 0000000000424869
  DW_CFA_def_cfa_offset: 40
  DW_CFA_advance_loc: 2 to 000000000042486b
  DW_CFA_def_cfa_offset: 32
  DW_CFA_advance_loc: 2 to 000000000042486d
  DW_CFA_def_cfa_offset: 24
  DW_CFA_advance_loc: 2 to 000000000042486f
  DW_CFA_def_cfa_offset: 16
  DW_CFA_advance_loc: 2 to 0000000000424871
  DW_CFA_def_cfa_offset: 8
  DW_CFA_advance_loc: 5 to 0000000000424876
  DW_CFA_restore_state
  DW_CFA_advance_loc: 56 to 00000000004248ae
  DW_CFA_remember_state
  DW_CFA_def_cfa_offset: 56
  DW_CFA_advance_loc: 8 to 00000000004248b6
  DW_CFA_def_cfa_offset: 48
  DW_CFA_advance_loc: 1 to 00000000004248b7
  DW_CFA_def_cfa_offset: 40
  DW_CFA_advance_loc: 2 to 00000000004248b9
  DW_CFA_def_cfa_offset: 32
  DW_CFA_advance_loc: 2 to 00000000004248bb
  DW_CFA_def_cfa_offset: 24
  DW_CFA_advance_loc: 2 to 00000000004248bd
  DW_CFA_def_cfa_offset: 16
  DW_CFA_advance_loc: 2 to 00000000004248bf
  DW_CFA_def_cfa_offset: 8
  DW_CFA_advance_loc: 5 to 00000000004248c4
  DW_CFA_restore_state
  DW_CFA_advance_loc: 46 to 00000000004248f2
  DW_CFA_remember_state
  DW_CFA_def_cfa_offset: 56
  DW_CFA_advance_loc: 8 to 00000000004248fa
  DW_CFA_def_cfa_offset: 48
  DW_CFA_advance_loc: 1 to 00000000004248fb
  DW_CFA_def_cfa_offset: 40
  DW_CFA_advance_loc: 2 to 00000000004248fd
  DW_CFA_def_cfa_offset: 32
  DW_CFA_advance_loc: 2 to 00000000004248ff
  DW_CFA_def_cfa_offset: 24
  DW_CFA_advance_loc: 2 to 0000000000424901
  DW_CFA_def_cfa_offset: 16
  DW_CFA_advance_loc: 2 to 0000000000424903
  DW_CFA_def_cfa_offset: 8
  DW_CFA_advance_loc: 5 to 0000000000424908
  DW_CFA_restore_state
  DW_CFA_advance_loc: 56 to 0000000000424940
  DW_CFA_remember_state
  DW_CFA_def_cfa_offset: 56
  DW_CFA_advance_loc: 8 to 0000000000424948
  DW_CFA_def_cfa_offset: 48
  DW_CFA_advance_loc: 1 to 0000000000424949
  DW_CFA_def_cfa_offset: 40
  DW_CFA_advance_loc: 2 to 000000000042494b
  DW_CFA_def_cfa_offset: 32
  DW_CFA_advance_loc: 2 to 000000000042494d
  DW_CFA_def_cfa_offset: 24
  DW_CFA_advance_loc: 2 to 000000000042494f
  DW_CFA_def_cfa_offset: 16
  DW_CFA_advance_loc: 2 to 0000000000424951
  DW_CFA_def_cfa_offset: 8
  DW_CFA_advance_loc: 5 to 0000000000424956
  DW_CFA_restore_state
  DW_CFA_advance_loc: 46 to 0000000000424984
  DW_CFA_remember_state
  DW_CFA_def_cfa_offset: 56
  DW_CFA_advance_loc: 8 to 000000000042498c
  DW_CFA_def_cfa_offset: 48
  DW_CFA_advance_loc: 1 to 000000000042498d
  DW_CFA_def_cfa_offset: 40
  DW_CFA_advance_loc: 2 to 000000000042498f
  DW_CFA_def_cfa_offset: 32
  DW_CFA_advance_loc: 2 to 0000000000424991
  DW_CFA_def_cfa_offset: 24
  DW_CFA_advance_loc: 2 to 0000000000424993
  DW_CFA_def_cfa_offset: 16
  DW_CFA_advance_loc: 2 to 0000000000424995
  DW_CFA_def_cfa_offset: 8
  DW_CFA_advance_loc: 5 to 000000000042499a
  DW_CFA_restore_state
  DW_CFA_advance_loc: 56 to 00000000004249d2
  DW_CFA_remember_state
  DW_CFA_def_cfa_offset: 56
  DW_CFA_advance_loc: 8 to 00000000004249da
  DW_CFA_def_cfa_offset: 48
  DW_CFA_advance_loc: 1 to 00000000004249db
  DW_CFA_def_cfa_offset: 40
  DW_CFA_advance_loc: 2 to 00000000004249dd
  DW_CFA_def_cfa_offset: 32
  DW_CFA_advance_loc: 2 to 00000000004249df
  DW_CFA_def_cfa_offset: 24
  DW_CFA_advance_loc: 2 to 00000000004249e1
  DW_CFA_def_cfa_offset: 16
  DW_CFA_advance_loc: 2 to 00000000004249e3
  DW_CFA_def_cfa_offset: 8
  DW_CFA_advance_loc: 5 to 00000000004249e8
  DW_CFA_restore_state
  DW_CFA_advance_loc: 46 to 0000000000424a16
  DW_CFA_remember_state
  DW_CFA_def_cfa_offset: 56
  DW_CFA_advance_loc: 8 to 0000000000424a1e
  DW_CFA_def_cfa_offset: 48
  DW_CFA_advance_loc: 1 to 0000000000424a1f
  DW_CFA_def_cfa_offset: 40
  DW_CFA_advance_loc: 2 to 0000000000424a21
  DW_CFA_def_cfa_offset: 32
  DW_CFA_advance_loc: 2 to 0000000000424a23
  DW_CFA_def_cfa_offset: 24
  DW_CFA_advance_loc: 2 to 0000000000424a25
  DW_CFA_def_cfa_offset: 16
  DW_CFA_advance_loc: 2 to 0000000000424a27
  DW_CFA_def_cfa_offset: 8
  DW_CFA_advance_loc: 5 to 0000000000424a2c
  DW_CFA_restore_state
  DW_CFA_advance_loc: 56 to 0000000000424a64
  DW_CFA_remember_state
  DW_CFA_def_cfa_offset: 56
  DW_CFA_advance_loc: 8 to 0000000000424a6c
  DW_CFA_def_cfa_offset: 48
  DW_CFA_advance_loc: 1 to 0000000000424a6d
  DW_CFA_def_cfa_offset: 40
  DW_CFA_advance_loc: 2 to 0000000000424a6f
  DW_CFA_def_cfa_offset: 32
  DW_CFA_advance_loc: 2 to 0000000000424a71
  DW_CFA_def_cfa_offset: 24
  DW_CFA_advance_loc: 2 to 0000000000424a73
  DW_CFA_def_cfa_offset: 16
  DW_CFA_advance_loc: 2 to 0000000000424a75
  DW_CFA_def_cfa_offset: 8
  DW_CFA_advance_loc: 5 to 0000000000424a7a
  DW_CFA_restore_state
  DW_CFA_advance_loc: 46 to 0000000000424aa8
  DW_CFA_remember_state
  DW_CFA_def_cfa_offset: 56
  DW_CFA_advance_loc: 8 to 0000000000424ab0
  DW_CFA_def_cfa_offset: 48
  DW_CFA_advance_loc: 1 to 0000000000424ab1
  DW_CFA_def_cfa_offset: 40
  DW_CFA_advance_loc: 2 to 0000000000424ab3
  DW_CFA_def_cfa_offset: 32
  DW_CFA_advance_loc: 2 to 0000000000424ab5
  DW_CFA_def_cfa_offset: 24
  DW_CFA_advance_loc: 2 to 0000000000424ab7
  DW_CFA_def_cfa_offset: 16
  DW_CFA_advance_loc: 2 to 0000000000424ab9
  DW_CFA_def_cfa_offset: 8
  DW_CFA_advance_loc: 5 to 0000000000424abe
  DW_CFA_restore_state
  DW_CFA_advance_loc: 56 to 0000000000424af6
  DW_CFA_remember_state
  DW_CFA_def_cfa_offset: 56
  DW_CFA_advance_loc: 8 to 0000000000424afe
  DW_CFA_def_cfa_offset: 48
  DW_CFA_advance_loc: 1 to 0000000000424aff
  DW_CFA_def_cfa_offset: 40
  DW_CFA_advance_loc: 2 to 0000000000424b01
  DW_CFA_def_cfa_offset: 32
  DW_CFA_advance_loc: 2 to 0000000000424b03
  DW_CFA_def_cfa_offset: 24
  DW_CFA_advance_loc: 2 to 0000000000424b05
  DW_CFA_def_cfa_offset: 16
  DW_CFA_advance_loc: 2 to 0000000000424b07
  DW_CFA_def_cfa_offset: 8
  DW_CFA_advance_loc: 5 to 0000000000424b0c
  DW_CFA_restore_state
  DW_CFA_advance_loc: 46 to 0000000000424b3a
  DW_CFA_remember_state
  DW_CFA_def_cfa_offset: 56
  DW_CFA_advance_loc: 8 to 0000000000424b42
  DW_CFA_def_cfa_offset: 48
  DW_CFA_advance_loc: 1 to 0000000000424b43
  DW_CFA_def_cfa_offset: 40
  DW_CFA_advance_loc: 2 to 0000000000424b45
  DW_CFA_def_cfa_offset: 32
  DW_CFA_advance_loc: 2 to 0000000000424b47
  DW_CFA_def_cfa_offset: 24
  DW_CFA_advance_loc: 2 to 0000000000424b49
  DW_CFA_def_cfa_offset: 16
  DW_CFA_advance_loc: 2 to 0000000000424b4b
  DW_CFA_def_cfa_offset: 8
  DW_CFA_advance_loc: 5 to 0000000000424b50
  DW_CFA_restore_state
  DW_CFA_advance_loc: 56 to 0000000000424b88
  DW_CFA_remember_state
  DW_CFA_def_cfa_offset: 56
  DW_CFA_advance_loc: 8 to 0000000000424b90
  DW_CFA_def_cfa_offset: 48
  DW_CFA_advance_loc: 1 to 0000000000424b91
  DW_CFA_def_cfa_offset: 40
  DW_CFA_advance_loc: 2 to 0000000000424b93
  DW_CFA_def_cfa_offset: 32
  DW_CFA_advance_loc: 2 to 0000000000424b95
  DW_CFA_def_cfa_offset: 24
  DW_CFA_advance_loc: 2 to 0000000000424b97
  DW_CFA_def_cfa_offset: 16
  DW_CFA_advance_loc: 2 to 0000000000424b99
  DW_CFA_def_cfa_offset: 8
  DW_CFA_advance_loc: 5 to 0000000000424b9e
  DW_CFA_restore_state
  DW_CFA_advance_loc: 46 to 0000000000424bcc
  DW_CFA_remember_state
  DW_CFA_def_cfa_offset: 56
  DW_CFA_advance_loc: 8 to 0000000000424bd4
  DW_CFA_def_cfa_offset: 48
  DW_CFA_advance_loc: 1 to 0000000000424bd5
  DW_CFA_def_cfa_offset: 40
  DW_CFA_advance_loc: 2 to 0000000000424bd7
  DW_CFA_def_cfa_offset: 32
  DW_CFA_advance_loc: 2 to 0000000000424bd9
  DW_CFA_def_cfa_offset: 24
  DW_CFA_advance_loc: 2 to 0000000000424bdb
  DW_CFA_def_cfa_offset: 16
  DW_CFA_advance_loc: 2 to 0000000000424bdd
  DW_CFA_def_cfa_offset: 8
  DW_CFA_advance_loc: 5 to 0000000000424be2
  DW_CFA_restore_state
  DW_CFA_advance_loc: 56 to 0000000000424c1a
  DW_CFA_remember_state
  DW_CFA_def_cfa_offset: 56
  DW_CFA_advance_loc: 8 to 0000000000424c22
  DW_CFA_def_cfa_offset: 48
  DW_CFA_advance_loc: 1 to 0000000000424c23
  DW_CFA_def_cfa_offset: 40
  DW_CFA_advance_loc: 2 to 0000000000424c25
  DW_CFA_def_cfa_offset: 32
  DW_CFA_advance_loc: 2 to 0000000000424c27
  DW_CFA_def_cfa_offset: 24
  DW_CFA_advance_loc: 2 to 0000000000424c29
  DW_CFA_def_cfa_offset: 16
  DW_CFA_advance_loc: 2 to 0000000000424c2b
  DW_CFA_def_cfa_offset: 8
  DW_CFA_advance_loc: 5 to 0000000000424c30
  DW_CFA_restore_state
  DW_CFA_advance_loc: 46 to 0000000000424c5e
  DW_CFA_remember_state
  DW_CFA_def_cfa_offset: 56
  DW_CFA_advance_loc: 8 to 0000000000424c66
  DW_CFA_def_cfa_offset: 48
  DW_CFA_advance_loc: 1 to 0000000000424c67
  DW_CFA_def_cfa_offset: 40
  DW_CFA_advance_loc: 2 to 0000000000424c69
  DW_CFA_def_cfa_offset: 32
  DW_CFA_advance_loc: 2 to 0000000000424c6b
  DW_CFA_def_cfa_offset: 24
  DW_CFA_advance_loc: 2 to 0000000000424c6d
  DW_CFA_def_cfa_offset: 16
  DW_CFA_advance_loc: 2 to 0000000000424c6f
  DW_CFA_def_cfa_offset: 8
  DW_CFA_advance_loc: 5 to 0000000000424c74
  DW_CFA_restore_state
  DW_CFA_advance_loc: 56 to 0000000000424cac
  DW_CFA_remember_state
  DW_CFA_def_cfa_offset: 56
  DW_CFA_advance_loc: 8 to 0000000000424cb4
  DW_CFA_def_cfa_offset: 48
  DW_CFA_advance_loc: 1 to 0000000000424cb5
  DW_CFA_def_cfa_offset: 40
  DW_CFA_advance_loc: 2 to 0000000000424cb7
  DW_CFA_def_cfa_offset: 32
  DW_CFA_advance_loc: 2 to 0000000000424cb9
  DW_CFA_def_cfa_offset: 24
  DW_CFA_advance_loc: 2 to 0000000000424cbb
  DW_CFA_def_cfa_offset: 16
  DW_CFA_advance_loc: 2 to 0000000000424cbd
  DW_CFA_def_cfa_offset: 8
  DW_CFA_advance_loc: 5 to 0000000000424cc2
  DW_CFA_restore_state
  DW_CFA_advance_loc: 46 to 0000000000424cf0
  DW_CFA_remember_state
  DW_CFA_def_cfa_offset: 56
  DW_CFA_advance_loc: 8 to 0000000000424cf8
  DW_CFA_def_cfa_offset: 48
  DW_CFA_advance_loc: 1 to 0000000000424cf9
  DW_CFA_def_cfa_offset: 40
  DW_CFA_advance_loc: 2 to 0000000000424cfb
  DW_CFA_def_cfa_offset: 32
  DW_CFA_advance_loc: 2 to 0000000000424cfd
  DW_CFA_def_cfa_offset: 24
  DW_CFA_advance_loc: 2 to 0000000000424cff
  DW_CFA_def_cfa_offset: 16
  DW_CFA_advance_loc: 2 to 0000000000424d01
  DW_CFA_def_cfa_offset: 8
  DW_CFA_advance_loc: 5 to 0000000000424d06
  DW_CFA_restore_state
  DW_CFA_advance_loc: 56 to 0000000000424d3e
  DW_CFA_remember_state
  DW_CFA_def_cfa_offset: 56
  DW_CFA_advance_loc: 8 to 0000000000424d46
  DW_CFA_def_cfa_offset: 48
  DW_CFA_advance_loc: 1 to 0000000000424d47
  DW_CFA_def_cfa_offset: 40
  DW_CFA_advance_loc: 2 to 0000000000424d49
  DW_CFA_def_cfa_offset: 32
  DW_CFA_advance_loc: 2 to 0000000000424d4b
  DW_CFA_def_cfa_offset: 24
  DW_CFA_advance_loc: 2 to 0000000000424d4d
  DW_CFA_def_cfa_offset: 16
  DW_CFA_advance_loc: 2 to 0000000000424d4f
  DW_CFA_def_cfa_offset: 8
  DW_CFA_advance_loc: 5 to 0000000000424d54
  DW_CFA_restore_state
  DW_CFA_advance_loc: 46 to 0000000000424d82
  DW_CFA_remember_state
  DW_CFA_def_cfa_offset: 56
  DW_CFA_advance_loc: 8 to 0000000000424d8a
  DW_CFA_def_cfa_offset: 48
  DW_CFA_advance_loc: 1 to 0000000000424d8b
  DW_CFA_def_cfa_offset: 40
  DW_CFA_advance_loc: 2 to 0000000000424d8d
  DW_CFA_def_cfa_offset: 32
  DW_CFA_advance_loc: 2 to 0000000000424d8f
  DW_CFA_def_cfa_offset: 24
  DW_CFA_advance_loc: 2 to 0000000000424d91
  DW_CFA_def_cfa_offset: 16
  DW_CFA_advance_loc: 2 to 0000000000424d93
  DW_CFA_def_cfa_offset: 8
  DW_CFA_advance_loc: 5 to 0000000000424d98
  DW_CFA_restore_state
  DW_CFA_advance_loc: 56 to 0000000000424dd0
  DW_CFA_remember_state
  DW_CFA_def_cfa_offset: 56
  DW_CFA_advance_loc: 8 to 0000000000424dd8
  DW_CFA_def_cfa_offset: 48
  DW_CFA_advance_loc: 1 to 0000000000424dd9
  DW_CFA_def_cfa_offset: 40
  DW_CFA_advance_loc: 2 to 0000000000424ddb
  DW_CFA_def_cfa_offset: 32
  DW_CFA_advance_loc: 2 to 0000000000424ddd
  DW_CFA_def_cfa_offset: 24
  DW_CFA_advance_loc: 2 to 0000000000424ddf
  DW_CFA_def_cfa_offset: 16
  DW_CFA_advance_loc: 2 to 0000000000424de1
  DW_CFA_def_cfa_offset: 8
  DW_CFA_advance_loc: 5 to 0000000000424de6
  DW_CFA_restore_state
  DW_CFA_advance_loc: 46 to 0000000000424e14
  DW_CFA_remember_state
  DW_CFA_def_cfa_offset: 56
  DW_CFA_advance_loc: 8 to 0000000000424e1c
  DW_CFA_def_cfa_offset: 48
  DW_CFA_advance_loc: 1 to 0000000000424e1d
  DW_CFA_def_cfa_offset: 40
  DW_CFA_advance_loc: 2 to 0000000000424e1f
  DW_CFA_def_cfa_offset: 32
  DW_CFA_advance_loc: 2 to 0000000000424e21
  DW_CFA_def_cfa_offset: 24
  DW_CFA_advance_loc: 2 to 0000000000424e23
  DW_CFA_def_cfa_offset: 16
  DW_CFA_advance_loc: 2 to 0000000000424e25
  DW_CFA_def_cfa_offset: 8
  DW_CFA_advance_loc: 5 to 0000000000424e2a
  DW_CFA_restore_state
  DW_CFA_advance_loc: 56 to 0000000000424e62
  DW_CFA_remember_state
  DW_CFA_def_cfa_offset: 56
  DW_CFA_advance_loc: 8 to 0000000000424e6a
  DW_CFA_def_cfa_offset: 48
  DW_CFA_advance_loc: 1 to 0000000000424e6b
  DW_CFA_def_cfa_offset: 40
  DW_CFA_advance_loc: 2 to 0000000000424e6d
  DW_CFA_def_cfa_offset: 32
  DW_CFA_advance_loc: 2 to 0000000000424e6f
  DW_CFA_def_cfa_offset: 24
  DW_CFA_advance_loc: 2 to 0000000000424e71
  DW_CFA_def_cfa_offset: 16
  DW_CFA_advance_loc: 2 to 0000000000424e73
  DW_CFA_def_cfa_offset: 8
  DW_CFA_advance_loc: 5 to 0000000000424e78
  DW_CFA_restore_state
  DW_CFA_advance_loc: 46 to 0000000000424ea6
  DW_CFA_remember_state
  DW_CFA_def_cfa_offset: 56
  DW_CFA_advance_loc: 8 to 0000000000424eae
  DW_CFA_def_cfa_offset: 48
  DW_CFA_advance_loc: 1 to 0000000000424eaf
  DW_CFA_def_cfa_offset: 40
  DW_CFA_advance_loc: 2 to 0000000000424eb1
  DW_CFA_def_cfa_offset: 32
  DW_CFA_advance_loc: 2 to 0000000000424eb3
  DW_CFA_def_cfa_offset: 24
  DW_CFA_advance_loc: 2 to 0000000000424eb5
  DW_CFA_def_cfa_offset: 16
  DW_CFA_advance_loc: 2 to 0000000000424eb7
  DW_CFA_def_cfa_offset: 8
  DW_CFA_advance_loc: 5 to 0000000000424ebc
  DW_CFA_restore_state
  DW_CFA_advance_loc: 56 to 0000000000424ef4
  DW_CFA_remember_state
  DW_CFA_def_cfa_offset: 56
  DW_CFA_advance_loc: 8 to 0000000000424efc
  DW_CFA_def_cfa_offset: 48
  DW_CFA_advance_loc: 1 to 0000000000424efd
  DW_CFA_def_cfa_offset: 40
  DW_CFA_advance_loc: 2 to 0000000000424eff
  DW_CFA_def_cfa_offset: 32
  DW_CFA_advance_loc: 2 to 0000000000424f01
  DW_CFA_def_cfa_offset: 24
  DW_CFA_advance_loc: 2 to 0000000000424f03
  DW_CFA_def_cfa_offset: 16
  DW_CFA_advance_loc: 2 to 0000000000424f05
  DW_CFA_def_cfa_offset: 8
  DW_CFA_advance_loc: 5 to 0000000000424f0a
  DW_CFA_restore_state
  DW_CFA_advance_loc: 46 to 0000000000424f38
  DW_CFA_remember_state
  DW_CFA_def_cfa_offset: 56
  DW_CFA_advance_loc: 8 to 0000000000424f40
  DW_CFA_def_cfa_offset: 48
  DW_CFA_advance_loc: 1 to 0000000000424f41
  DW_CFA_def_cfa_offset: 40
  DW_CFA_advance_loc: 2 to 0000000000424f43
  DW_CFA_def_cfa_offset: 32
  DW_CFA_advance_loc: 2 to 0000000000424f45
  DW_CFA_def_cfa_offset: 24
  DW_CFA_advance_loc: 2 to 0000000000424f47
  DW_CFA_def_cfa_offset: 16
  DW_CFA_advance_loc: 2 to 0000000000424f49
  DW_CFA_def_cfa_offset: 8
  DW_CFA_advance_loc: 5 to 0000000000424f4e
  DW_CFA_restore_state
  DW_CFA_advance_loc1: 128 to 0000000000424fce
  DW_CFA_remember_state
  DW_CFA_def_cfa_offset: 56
  DW_CFA_advance_loc: 8 to 0000000000424fd6
  DW_CFA_def_cfa_offset: 48
  DW_CFA_advance_loc: 1 to 0000000000424fd7
  DW_CFA_def_cfa_offset: 40
  DW_CFA_advance_loc: 2 to 0000000000424fd9
  DW_CFA_def_cfa_offset: 32
  DW_CFA_advance_loc: 2 to 0000000000424fdb
  DW_CFA_def_cfa_offset: 24
  DW_CFA_advance_loc: 2 to 0000000000424fdd
  DW_CFA_def_cfa_offset: 16
  DW_CFA_advance_loc: 2 to 0000000000424fdf
  DW_CFA_def_cfa_offset: 8
  DW_CFA_advance_loc: 5 to 0000000000424fe4
  DW_CFA_restore_state
  DW_CFA_advance_loc: 46 to 0000000000425012
  DW_CFA_remember_state
  DW_CFA_def_cfa_offset: 56
  DW_CFA_advance_loc: 8 to 000000000042501a
  DW_CFA_def_cfa_offset: 48
  DW_CFA_advance_loc: 1 to 000000000042501b
  DW_CFA_def_cfa_offset: 40
  DW_CFA_advance_loc: 2 to 000000000042501d
  DW_CFA_def_cfa_offset: 32
  DW_CFA_advance_loc: 2 to 000000000042501f
  DW_CFA_def_cfa_offset: 24
  DW_CFA_advance_loc: 2 to 0000000000425021
  DW_CFA_def_cfa_offset: 16
  DW_CFA_advance_loc: 2 to 0000000000425023
  DW_CFA_def_cfa_offset: 8
  DW_CFA_advance_loc: 5 to 0000000000425028
  DW_CFA_restore_state
  DW_CFA_advance_loc: 56 to 0000000000425060
  DW_CFA_remember_state
  DW_CFA_def_cfa_offset: 56
  DW_CFA_advance_loc: 8 to 0000000000425068
  DW_CFA_def_cfa_offset: 48
  DW_CFA_advance_loc: 1 to 0000000000425069
  DW_CFA_def_cfa_offset: 40
  DW_CFA_advance_loc: 2 to 000000000042506b
  DW_CFA_def_cfa_offset: 32
  DW_CFA_advance_loc: 2 to 000000000042506d
  DW_CFA_def_cfa_offset: 24
  DW_CFA_advance_loc: 2 to 000000000042506f
  DW_CFA_def_cfa_offset: 16
  DW_CFA_advance_loc: 2 to 0000000000425071
  DW_CFA_def_cfa_offset: 8
  DW_CFA_advance_loc: 5 to 0000000000425076
  DW_CFA_restore_state
  DW_CFA_advance_loc: 46 to 00000000004250a4
  DW_CFA_remember_state
  DW_CFA_def_cfa_offset: 56
  DW_CFA_advance_loc: 8 to 00000000004250ac
  DW_CFA_def_cfa_offset: 48
  DW_CFA_advance_loc: 1 to 00000000004250ad
  DW_CFA_def_cfa_offset: 40
  DW_CFA_advance_loc: 2 to 00000000004250af
  DW_CFA_def_cfa_offset: 32
  DW_CFA_advance_loc: 2 to 00000000004250b1
  DW_CFA_def_cfa_offset: 24
  DW_CFA_advance_loc: 2 to 00000000004250b3
  DW_CFA_def_cfa_offset: 16
  DW_CFA_advance_loc: 2 to 00000000004250b5
  DW_CFA_def_cfa_offset: 8
  DW_CFA_advance_loc: 5 to 00000000004250ba
  DW_CFA_restore_state
  DW_CFA_advance_loc: 56 to 00000000004250f2
  DW_CFA_remember_state
  DW_CFA_def_cfa_offset: 56
  DW_CFA_advance_loc: 8 to 00000000004250fa
  DW_CFA_def_cfa_offset: 48
  DW_CFA_advance_loc: 1 to 00000000004250fb
  DW_CFA_def_cfa_offset: 40
  DW_CFA_advance_loc: 2 to 00000000004250fd
  DW_CFA_def_cfa_offset: 32
  DW_CFA_advance_loc: 2 to 00000000004250ff
  DW_CFA_def_cfa_offset: 24
  DW_CFA_advance_loc: 2 to 0000000000425101
  DW_CFA_def_cfa_offset: 16
  DW_CFA_advance_loc: 2 to 0000000000425103
  DW_CFA_def_cfa_offset: 8
  DW_CFA_advance_loc: 5 to 0000000000425108
  DW_CFA_restore_state
  DW_CFA_advance_loc: 46 to 0000000000425136
  DW_CFA_remember_state
  DW_CFA_def_cfa_offset: 56
  DW_CFA_advance_loc: 8 to 000000000042513e
  DW_CFA_def_cfa_offset: 48
  DW_CFA_advance_loc: 1 to 000000000042513f
  DW_CFA_def_cfa_offset: 40
  DW_CFA_advance_loc: 2 to 0000000000425141
  DW_CFA_def_cfa_offset: 32
  DW_CFA_advance_loc: 2 to 0000000000425143
  DW_CFA_def_cfa_offset: 24
  DW_CFA_advance_loc: 2 to 0000000000425145
  DW_CFA_def_cfa_offset: 16
  DW_CFA_advance_loc: 2 to 0000000000425147
  DW_CFA_def_cfa_offset: 8
  DW_CFA_advance_loc: 5 to 000000000042514c
  DW_CFA_restore_state
  DW_CFA_advance_loc: 56 to 0000000000425184
  DW_CFA_remember_state
  DW_CFA_def_cfa_offset: 56
  DW_CFA_advance_loc: 8 to 000000000042518c
  DW_CFA_def_cfa_offset: 48
  DW_CFA_advance_loc: 1 to 000000000042518d
  DW_CFA_def_cfa_offset: 40
  DW_CFA_advance_loc: 2 to 000000000042518f
  DW_CFA_def_cfa_offset: 32
  DW_CFA_advance_loc: 2 to 0000000000425191
  DW_CFA_def_cfa_offset: 24
  DW_CFA_advance_loc: 2 to 0000000000425193
  DW_CFA_def_cfa_offset: 16
  DW_CFA_advance_loc: 2 to 0000000000425195
  DW_CFA_def_cfa_offset: 8
  DW_CFA_advance_loc: 5 to 000000000042519a
  DW_CFA_restore_state
  DW_CFA_advance_loc: 46 to 00000000004251c8
  DW_CFA_remember_state
  DW_CFA_def_cfa_offset: 56
  DW_CFA_advance_loc: 11 to 00000000004251d3
  DW_CFA_def_cfa_offset: 48
  DW_CFA_advance_loc: 1 to 00000000004251d4
  DW_CFA_def_cfa_offset: 40
  DW_CFA_advance_loc: 2 to 00000000004251d6
  DW_CFA_def_cfa_offset: 32
  DW_CFA_advance_loc: 2 to 00000000004251d8
  DW_CFA_def_cfa_offset: 24
  DW_CFA_advance_loc: 2 to 00000000004251da
  DW_CFA_def_cfa_offset: 16
  DW_CFA_advance_loc: 2 to 00000000004251dc
  DW_CFA_def_cfa_offset: 8
  DW_CFA_advance_loc: 5 to 00000000004251e1
  DW_CFA_restore_state
  DW_CFA_advance_loc: 56 to 0000000000425219
  DW_CFA_remember_state
  DW_CFA_def_cfa_offset: 56
  DW_CFA_advance_loc: 8 to 0000000000425221
  DW_CFA_def_cfa_offset: 48
  DW_CFA_advance_loc: 1 to 0000000000425222
  DW_CFA_def_cfa_offset: 40
  DW_CFA_advance_loc: 2 to 0000000000425224
  DW_CFA_def_cfa_offset: 32
  DW_CFA_advance_loc: 2 to 0000000000425226
  DW_CFA_def_cfa_offset: 24
  DW_CFA_advance_loc: 2 to 0000000000425228
  DW_CFA_def_cfa_offset: 16
  DW_CFA_advance_loc: 2 to 000000000042522a
  DW_CFA_def_cfa_offset: 8
  DW_CFA_advance_loc: 5 to 000000000042522f
  DW_CFA_restore_state
  DW_CFA_advance_loc: 46 to 000000000042525d
  DW_CFA_remember_state
  DW_CFA_def_cfa_offset: 56
  DW_CFA_advance_loc: 8 to 0000000000425265
  DW_CFA_def_cfa_offset: 48
  DW_CFA_advance_loc: 1 to 0000000000425266
  DW_CFA_def_cfa_offset: 40
  DW_CFA_advance_loc: 2 to 0000000000425268
  DW_CFA_def_cfa_offset: 32
  DW_CFA_advance_loc: 2 to 000000000042526a
  DW_CFA_def_cfa_offset: 24
  DW_CFA_advance_loc: 2 to 000000000042526c
  DW_CFA_def_cfa_offset: 16
  DW_CFA_advance_loc: 2 to 000000000042526e
  DW_CFA_def_cfa_offset: 8
  DW_CFA_advance_loc: 5 to 0000000000425273
  DW_CFA_restore_state
  DW_CFA_advance_loc: 56 to 00000000004252ab
  DW_CFA_remember_state
  DW_CFA_def_cfa_offset: 56
  DW_CFA_advance_loc: 8 to 00000000004252b3
  DW_CFA_def_cfa_offset: 48
  DW_CFA_advance_loc: 1 to 00000000004252b4
  DW_CFA_def_cfa_offset: 40
  DW_CFA_advance_loc: 2 to 00000000004252b6
  DW_CFA_def_cfa_offset: 32
  DW_CFA_advance_loc: 2 to 00000000004252b8
  DW_CFA_def_cfa_offset: 24
  DW_CFA_advance_loc: 2 to 00000000004252ba
  DW_CFA_def_cfa_offset: 16
  DW_CFA_advance_loc: 2 to 00000000004252bc
  DW_CFA_def_cfa_offset: 8
  DW_CFA_advance_loc: 5 to 00000000004252c1
  DW_CFA_restore_state
  DW_CFA_advance_loc: 46 to 00000000004252ef
  DW_CFA_remember_state
  DW_CFA_def_cfa_offset: 56
  DW_CFA_advance_loc: 8 to 00000000004252f7
  DW_CFA_def_cfa_offset: 48
  DW_CFA_advance_loc: 1 to 00000000004252f8
  DW_CFA_def_cfa_offset: 40
  DW_CFA_advance_loc: 2 to 00000000004252fa
  DW_CFA_def_cfa_offset: 32
  DW_CFA_advance_loc: 2 to 00000000004252fc
  DW_CFA_def_cfa_offset: 24
  DW_CFA_advance_loc: 2 to 00000000004252fe
  DW_CFA_def_cfa_offset: 16
  DW_CFA_advance_loc: 2 to 0000000000425300
  DW_CFA_def_cfa_offset: 8
  DW_CFA_advance_loc: 5 to 0000000000425305
  DW_CFA_restore_state
  DW_CFA_advance_loc: 56 to 000000000042533d
  DW_CFA_remember_state
  DW_CFA_def_cfa_offset: 56
  DW_CFA_advance_loc: 8 to 0000000000425345
  DW_CFA_def_cfa_offset: 48
  DW_CFA_advance_loc: 1 to 0000000000425346
  DW_CFA_def_cfa_offset: 40
  DW_CFA_advance_loc: 2 to 0000000000425348
  DW_CFA_def_cfa_offset: 32
  DW_CFA_advance_loc: 2 to 000000000042534a
  DW_CFA_def_cfa_offset: 24
  DW_CFA_advance_loc: 2 to 000000000042534c
  DW_CFA_def_cfa_offset: 16
  DW_CFA_advance_loc: 2 to 000000000042534e
  DW_CFA_def_cfa_offset: 8
  DW_CFA_advance_loc: 5 to 0000000000425353
  DW_CFA_restore_state
  DW_CFA_advance_loc: 46 to 0000000000425381
  DW_CFA_remember_state
  DW_CFA_def_cfa_offset: 56
  DW_CFA_advance_loc: 8 to 0000000000425389
  DW_CFA_def_cfa_offset: 48
  DW_CFA_advance_loc: 1 to 000000000042538a
  DW_CFA_def_cfa_offset: 40
  DW_CFA_advance_loc: 2 to 000000000042538c
  DW_CFA_def_cfa_offset: 32
  DW_CFA_advance_loc: 2 to 000000000042538e
  DW_CFA_def_cfa_offset: 24
  DW_CFA_advance_loc: 2 to 0000000000425390
  DW_CFA_def_cfa_offset: 16
  DW_CFA_advance_loc: 2 to 0000000000425392
  DW_CFA_def_cfa_offset: 8
  DW_CFA_advance_loc: 5 to 0000000000425397
  DW_CFA_restore_state
  DW_CFA_advance_loc: 56 to 00000000004253cf
  DW_CFA_remember_state
  DW_CFA_def_cfa_offset: 56
  DW_CFA_advance_loc: 8 to 00000000004253d7
  DW_CFA_def_cfa_offset: 48
  DW_CFA_advance_loc: 1 to 00000000004253d8
  DW_CFA_def_cfa_offset: 40
  DW_CFA_advance_loc: 2 to 00000000004253da
  DW_CFA_def_cfa_offset: 32
  DW_CFA_advance_loc: 2 to 00000000004253dc
  DW_CFA_def_cfa_offset: 24
  DW_CFA_advance_loc: 2 to 00000000004253de
  DW_CFA_def_cfa_offset: 16
  DW_CFA_advance_loc: 2 to 00000000004253e0
  DW_CFA_def_cfa_offset: 8
  DW_CFA_advance_loc: 5 to 00000000004253e5
  DW_CFA_restore_state
  DW_CFA_advance_loc: 46 to 0000000000425413
  DW_CFA_remember_state
  DW_CFA_def_cfa_offset: 56
  DW_CFA_advance_loc: 8 to 000000000042541b
  DW_CFA_def_cfa_offset: 48
  DW_CFA_advance_loc: 1 to 000000000042541c
  DW_CFA_def_cfa_offset: 40
  DW_CFA_advance_loc: 2 to 000000000042541e
  DW_CFA_def_cfa_offset: 32
  DW_CFA_advance_loc: 2 to 0000000000425420
  DW_CFA_def_cfa_offset: 24
  DW_CFA_advance_loc: 2 to 0000000000425422
  DW_CFA_def_cfa_offset: 16
  DW_CFA_advance_loc: 2 to 0000000000425424
  DW_CFA_def_cfa_offset: 8
  DW_CFA_advance_loc: 5 to 0000000000425429
  DW_CFA_restore_state
  DW_CFA_advance_loc: 56 to 0000000000425461
  DW_CFA_remember_state
  DW_CFA_def_cfa_offset: 56
  DW_CFA_advance_loc: 8 to 0000000000425469
  DW_CFA_def_cfa_offset: 48
  DW_CFA_advance_loc: 1 to 000000000042546a
  DW_CFA_def_cfa_offset: 40
  DW_CFA_advance_loc: 2 to 000000000042546c
  DW_CFA_def_cfa_offset: 32
  DW_CFA_advance_loc: 2 to 000000000042546e
  DW_CFA_def_cfa_offset: 24
  DW_CFA_advance_loc: 2 to 0000000000425470
  DW_CFA_def_cfa_offset: 16
  DW_CFA_advance_loc: 2 to 0000000000425472
  DW_CFA_def_cfa_offset: 8
  DW_CFA_advance_loc: 5 to 0000000000425477
  DW_CFA_restore_state
  DW_CFA_advance_loc: 46 to 00000000004254a5
  DW_CFA_remember_state
  DW_CFA_def_cfa_offset: 56
  DW_CFA_advance_loc: 8 to 00000000004254ad
  DW_CFA_def_cfa_offset: 48
  DW_CFA_advance_loc: 1 to 00000000004254ae
  DW_CFA_def_cfa_offset: 40
  DW_CFA_advance_loc: 2 to 00000000004254b0
  DW_CFA_def_cfa_offset: 32
  DW_CFA_advance_loc: 2 to 00000000004254b2
  DW_CFA_def_cfa_offset: 24
  DW_CFA_advance_loc: 2 to 00000000004254b4
  DW_CFA_def_cfa_offset: 16
  DW_CFA_advance_loc: 2 to 00000000004254b6
  DW_CFA_def_cfa_offset: 8
  DW_CFA_advance_loc: 5 to 00000000004254bb
  DW_CFA_restore_state
  DW_CFA_advance_loc: 56 to 00000000004254f3
  DW_CFA_remember_state
  DW_CFA_def_cfa_offset: 56
  DW_CFA_advance_loc: 8 to 00000000004254fb
  DW_CFA_def_cfa_offset: 48
  DW_CFA_advance_loc: 1 to 00000000004254fc
  DW_CFA_def_cfa_offset: 40
  DW_CFA_advance_loc: 2 to 00000000004254fe
  DW_CFA_def_cfa_offset: 32
  DW_CFA_advance_loc: 2 to 0000000000425500
  DW_CFA_def_cfa_offset: 24
  DW_CFA_advance_loc: 2 to 0000000000425502
  DW_CFA_def_cfa_offset: 16
  DW_CFA_advance_loc: 2 to 0000000000425504
  DW_CFA_def_cfa_offset: 8
  DW_CFA_advance_loc: 5 to 0000000000425509
  DW_CFA_restore_state
  DW_CFA_advance_loc: 46 to 0000000000425537
  DW_CFA_remember_state
  DW_CFA_def_cfa_offset: 56
  DW_CFA_advance_loc: 8 to 000000000042553f
  DW_CFA_def_cfa_offset: 48
  DW_CFA_advance_loc: 1 to 0000000000425540
  DW_CFA_def_cfa_offset: 40
  DW_CFA_advance_loc: 2 to 0000000000425542
  DW_CFA_def_cfa_offset: 32
  DW_CFA_advance_loc: 2 to 0000000000425544
  DW_CFA_def_cfa_offset: 24
  DW_CFA_advance_loc: 2 to 0000000000425546
  DW_CFA_def_cfa_offset: 16
  DW_CFA_advance_loc: 2 to 0000000000425548
  DW_CFA_def_cfa_offset: 8
  DW_CFA_advance_loc: 5 to 000000000042554d
  DW_CFA_restore_state
  DW_CFA_advance_loc: 56 to 0000000000425585
  DW_CFA_remember_state
  DW_CFA_def_cfa_offset: 56
  DW_CFA_advance_loc: 8 to 000000000042558d
  DW_CFA_def_cfa_offset: 48
  DW_CFA_advance_loc: 1 to 000000000042558e
  DW_CFA_def_cfa_offset: 40
  DW_CFA_advance_loc: 2 to 0000000000425590
  DW_CFA_def_cfa_offset: 32
  DW_CFA_advance_loc: 2 to 0000000000425592
  DW_CFA_def_cfa_offset: 24
  DW_CFA_advance_loc: 2 to 0000000000425594
  DW_CFA_def_cfa_offset: 16
  DW_CFA_advance_loc: 2 to 0000000000425596
  DW_CFA_def_cfa_offset: 8
  DW_CFA_advance_loc: 5 to 000000000042559b
  DW_CFA_restore_state
  DW_CFA_advance_loc: 46 to 00000000004255c9
  DW_CFA_remember_state
  DW_CFA_def_cfa_offset: 56
  DW_CFA_advance_loc: 8 to 00000000004255d1
  DW_CFA_def_cfa_offset: 48
  DW_CFA_advance_loc: 1 to 00000000004255d2
  DW_CFA_def_cfa_offset: 40
  DW_CFA_advance_loc: 2 to 00000000004255d4
  DW_CFA_def_cfa_offset: 32
  DW_CFA_advance_loc: 2 to 00000000004255d6
  DW_CFA_def_cfa_offset: 24
  DW_CFA_advance_loc: 2 to 00000000004255d8
  DW_CFA_def_cfa_offset: 16
  DW_CFA_advance_loc: 2 to 00000000004255da
  DW_CFA_def_cfa_offset: 8
  DW_CFA_advance_loc: 5 to 00000000004255df
  DW_CFA_restore_state
  DW_CFA_advance_loc: 56 to 0000000000425617
  DW_CFA_remember_state
  DW_CFA_def_cfa_offset: 56
  DW_CFA_advance_loc: 8 to 000000000042561f
  DW_CFA_def_cfa_offset: 48
  DW_CFA_advance_loc: 1 to 0000000000425620
  DW_CFA_def_cfa_offset: 40
  DW_CFA_advance_loc: 2 to 0000000000425622
  DW_CFA_def_cfa_offset: 32
  DW_CFA_advance_loc: 2 to 0000000000425624
  DW_CFA_def_cfa_offset: 24
  DW_CFA_advance_loc: 2 to 0000000000425626
  DW_CFA_def_cfa_offset: 16
  DW_CFA_advance_loc: 2 to 0000000000425628
  DW_CFA_def_cfa_offset: 8
  DW_CFA_advance_loc: 5 to 000000000042562d
  DW_CFA_restore_state
  DW_CFA_advance_loc: 46 to 000000000042565b
  DW_CFA_remember_state
  DW_CFA_def_cfa_offset: 56
  DW_CFA_advance_loc: 8 to 0000000000425663
  DW_CFA_def_cfa_offset: 48
  DW_CFA_advance_loc: 1 to 0000000000425664
  DW_CFA_def_cfa_offset: 40
  DW_CFA_advance_loc: 2 to 0000000000425666
  DW_CFA_def_cfa_offset: 32
  DW_CFA_advance_loc: 2 to 0000000000425668
  DW_CFA_def_cfa_offset: 24
  DW_CFA_advance_loc: 2 to 000000000042566a
  DW_CFA_def_cfa_offset: 16
  DW_CFA_advance_loc: 2 to 000000000042566c
  DW_CFA_def_cfa_offset: 8
  DW_CFA_advance_loc: 5 to 0000000000425671
  DW_CFA_restore_state
  DW_CFA_advance_loc: 56 to 00000000004256a9
  DW_CFA_remember_state
  DW_CFA_def_cfa_offset: 56
  DW_CFA_advance_loc: 8 to 00000000004256b1
  DW_CFA_def_cfa_offset: 48
  DW_CFA_advance_loc: 1 to 00000000004256b2
  DW_CFA_def_cfa_offset: 40
  DW_CFA_advance_loc: 2 to 00000000004256b4
  DW_CFA_def_cfa_offset: 32
  DW_CFA_advance_loc: 2 to 00000000004256b6
  DW_CFA_def_cfa_offset: 24
  DW_CFA_advance_loc: 2 to 00000000004256b8
  DW_CFA_def_cfa_offset: 16
  DW_CFA_advance_loc: 2 to 00000000004256ba
  DW_CFA_def_cfa_offset: 8
  DW_CFA_advance_loc: 5 to 00000000004256bf
  DW_CFA_restore_state
  DW_CFA_advance_loc: 46 to 00000000004256ed
  DW_CFA_remember_state
  DW_CFA_def_cfa_offset: 56
  DW_CFA_advance_loc: 8 to 00000000004256f5
  DW_CFA_def_cfa_offset: 48
  DW_CFA_advance_loc: 1 to 00000000004256f6
  DW_CFA_def_cfa_offset: 40
  DW_CFA_advance_loc: 2 to 00000000004256f8
  DW_CFA_def_cfa_offset: 32
  DW_CFA_advance_loc: 2 to 00000000004256fa
  DW_CFA_def_cfa_offset: 24
  DW_CFA_advance_loc: 2 to 00000000004256fc
  DW_CFA_def_cfa_offset: 16
  DW_CFA_advance_loc: 2 to 00000000004256fe
  DW_CFA_def_cfa_offset: 8
  DW_CFA_advance_loc: 5 to 0000000000425703
  DW_CFA_restore_state
  DW_CFA_advance_loc: 56 to 000000000042573b
  DW_CFA_remember_state
  DW_CFA_def_cfa_offset: 56
  DW_CFA_advance_loc: 8 to 0000000000425743
  DW_CFA_def_cfa_offset: 48
  DW_CFA_advance_loc: 1 to 0000000000425744
  DW_CFA_def_cfa_offset: 40
  DW_CFA_advance_loc: 2 to 0000000000425746
  DW_CFA_def_cfa_offset: 32
  DW_CFA_advance_loc: 2 to 0000000000425748
  DW_CFA_def_cfa_offset: 24
  DW_CFA_advance_loc: 2 to 000000000042574a
  DW_CFA_def_cfa_offset: 16
  DW_CFA_advance_loc: 2 to 000000000042574c
  DW_CFA_def_cfa_offset: 8
  DW_CFA_advance_loc: 5 to 0000000000425751
  DW_CFA_restore_state
  DW_CFA_advance_loc: 46 to 000000000042577f
  DW_CFA_remember_state
  DW_CFA_def_cfa_offset: 56
  DW_CFA_advance_loc: 8 to 0000000000425787
  DW_CFA_def_cfa_offset: 48
  DW_CFA_advance_loc: 1 to 0000000000425788
  DW_CFA_def_cfa_offset: 40
  DW_CFA_advance_loc: 2 to 000000000042578a
  DW_CFA_def_cfa_offset: 32
  DW_CFA_advance_loc: 2 to 000000000042578c
  DW_CFA_def_cfa_offset: 24
  DW_CFA_advance_loc: 2 to 000000000042578e
  DW_CFA_def_cfa_offset: 16
  DW_CFA_advance_loc: 2 to 0000000000425790
  DW_CFA_def_cfa_offset: 8
  DW_CFA_advance_loc: 5 to 0000000000425795
  DW_CFA_restore_state
  DW_CFA_advance_loc: 56 to 00000000004257cd
  DW_CFA_remember_state
  DW_CFA_def_cfa_offset: 56
  DW_CFA_advance_loc: 8 to 00000000004257d5
  DW_CFA_def_cfa_offset: 48
  DW_CFA_advance_loc: 1 to 00000000004257d6
  DW_CFA_def_cfa_offset: 40
  DW_CFA_advance_loc: 2 to 00000000004257d8
  DW_CFA_def_cfa_offset: 32
  DW_CFA_advance_loc: 2 to 00000000004257da
  DW_CFA_def_cfa_offset: 24
  DW_CFA_advance_loc: 2 to 00000000004257dc
  DW_CFA_def_cfa_offset: 16
  DW_CFA_advance_loc: 2 to 00000000004257de
  DW_CFA_def_cfa_offset: 8
  DW_CFA_advance_loc: 5 to 00000000004257e3
  DW_CFA_restore_state
  DW_CFA_advance_loc: 46 to 0000000000425811
  DW_CFA_remember_state
  DW_CFA_def_cfa_offset: 56
  DW_CFA_advance_loc: 8 to 0000000000425819
  DW_CFA_def_cfa_offset: 48
  DW_CFA_advance_loc: 1 to 000000000042581a
  DW_CFA_def_cfa_offset: 40
  DW_CFA_advance_loc: 2 to 000000000042581c
  DW_CFA_def_cfa_offset: 32
  DW_CFA_advance_loc: 2 to 000000000042581e
  DW_CFA_def_cfa_offset: 24
  DW_CFA_advance_loc: 2 to 0000000000425820
  DW_CFA_def_cfa_offset: 16
  DW_CFA_advance_loc: 2 to 0000000000425822
  DW_CFA_def_cfa_offset: 8
  DW_CFA_advance_loc: 5 to 0000000000425827
  DW_CFA_restore_state
  DW_CFA_advance_loc: 56 to 000000000042585f
  DW_CFA_remember_state
  DW_CFA_def_cfa_offset: 56
  DW_CFA_advance_loc: 8 to 0000000000425867
  DW_CFA_def_cfa_offset: 48
  DW_CFA_advance_loc: 1 to 0000000000425868
  DW_CFA_def_cfa_offset: 40
  DW_CFA_advance_loc: 2 to 000000000042586a
  DW_CFA_def_cfa_offset: 32
  DW_CFA_advance_loc: 2 to 000000000042586c
  DW_CFA_def_cfa_offset: 24
  DW_CFA_advance_loc: 2 to 000000000042586e
  DW_CFA_def_cfa_offset: 16
  DW_CFA_advance_loc: 2 to 0000000000425870
  DW_CFA_def_cfa_offset: 8
  DW_CFA_advance_loc: 5 to 0000000000425875
  DW_CFA_restore_state
  DW_CFA_advance_loc: 46 to 00000000004258a3
  DW_CFA_remember_state
  DW_CFA_def_cfa_offset: 56
  DW_CFA_advance_loc: 8 to 00000000004258ab
  DW_CFA_def_cfa_offset: 48
  DW_CFA_advance_loc: 1 to 00000000004258ac
  DW_CFA_def_cfa_offset: 40
  DW_CFA_advance_loc: 2 to 00000000004258ae
  DW_CFA_def_cfa_offset: 32
  DW_CFA_advance_loc: 2 to 00000000004258b0
  DW_CFA_def_cfa_offset: 24
  DW_CFA_advance_loc: 2 to 00000000004258b2
  DW_CFA_def_cfa_offset: 16
  DW_CFA_advance_loc: 2 to 00000000004258b4
  DW_CFA_def_cfa_offset: 8
  DW_CFA_advance_loc: 5 to 00000000004258b9
  DW_CFA_restore_state
  DW_CFA_advance_loc: 56 to 00000000004258f1
  DW_CFA_remember_state
  DW_CFA_def_cfa_offset: 56
  DW_CFA_advance_loc: 8 to 00000000004258f9
  DW_CFA_def_cfa_offset: 48
  DW_CFA_advance_loc: 1 to 00000000004258fa
  DW_CFA_def_cfa_offset: 40
  DW_CFA_advance_loc: 2 to 00000000004258fc
  DW_CFA_def_cfa_offset: 32
  DW_CFA_advance_loc: 2 to 00000000004258fe
  DW_CFA_def_cfa_offset: 24
  DW_CFA_advance_loc: 2 to 0000000000425900
  DW_CFA_def_cfa_offset: 16
  DW_CFA_advance_loc: 2 to 0000000000425902
  DW_CFA_def_cfa_offset: 8
  DW_CFA_advance_loc: 5 to 0000000000425907
  DW_CFA_restore_state
  DW_CFA_advance_loc: 46 to 0000000000425935
  DW_CFA_remember_state
  DW_CFA_def_cfa_offset: 56
  DW_CFA_advance_loc: 8 to 000000000042593d
  DW_CFA_def_cfa_offset: 48
  DW_CFA_advance_loc: 1 to 000000000042593e
  DW_CFA_def_cfa_offset: 40
  DW_CFA_advance_loc: 2 to 0000000000425940
  DW_CFA_def_cfa_offset: 32
  DW_CFA_advance_loc: 2 to 0000000000425942
  DW_CFA_def_cfa_offset: 24
  DW_CFA_advance_loc: 2 to 0000000000425944
  DW_CFA_def_cfa_offset: 16
  DW_CFA_advance_loc: 2 to 0000000000425946
  DW_CFA_def_cfa_offset: 8
  DW_CFA_advance_loc: 5 to 000000000042594b
  DW_CFA_restore_state
  DW_CFA_advance_loc: 56 to 0000000000425983
  DW_CFA_remember_state
  DW_CFA_def_cfa_offset: 56
  DW_CFA_advance_loc: 8 to 000000000042598b
  DW_CFA_def_cfa_offset: 48
  DW_CFA_advance_loc: 1 to 000000000042598c
  DW_CFA_def_cfa_offset: 40
  DW_CFA_advance_loc: 2 to 000000000042598e
  DW_CFA_def_cfa_offset: 32
  DW_CFA_advance_loc: 2 to 0000000000425990
  DW_CFA_def_cfa_offset: 24
  DW_CFA_advance_loc: 2 to 0000000000425992
  DW_CFA_def_cfa_offset: 16
  DW_CFA_advance_loc: 2 to 0000000000425994
  DW_CFA_def_cfa_offset: 8
  DW_CFA_advance_loc: 5 to 0000000000425999
  DW_CFA_restore_state
  DW_CFA_advance_loc: 46 to 00000000004259c7
  DW_CFA_remember_state
  DW_CFA_def_cfa_offset: 56
  DW_CFA_advance_loc: 8 to 00000000004259cf
  DW_CFA_def_cfa_offset: 48
  DW_CFA_advance_loc: 1 to 00000000004259d0
  DW_CFA_def_cfa_offset: 40
  DW_CFA_advance_loc: 2 to 00000000004259d2
  DW_CFA_def_cfa_offset: 32
  DW_CFA_advance_loc: 2 to 00000000004259d4
  DW_CFA_def_cfa_offset: 24
  DW_CFA_advance_loc: 2 to 00000000004259d6
  DW_CFA_def_cfa_offset: 16
  DW_CFA_advance_loc: 2 to 00000000004259d8
  DW_CFA_def_cfa_offset: 8
  DW_CFA_advance_loc: 5 to 00000000004259dd
  DW_CFA_restore_state
  DW_CFA_advance_loc: 56 to 0000000000425a15
  DW_CFA_remember_state
  DW_CFA_def_cfa_offset: 56
  DW_CFA_advance_loc: 8 to 0000000000425a1d
  DW_CFA_def_cfa_offset: 48
  DW_CFA_advance_loc: 1 to 0000000000425a1e
  DW_CFA_def_cfa_offset: 40
  DW_CFA_advance_loc: 2 to 0000000000425a20
  DW_CFA_def_cfa_offset: 32
  DW_CFA_advance_loc: 2 to 0000000000425a22
  DW_CFA_def_cfa_offset: 24
  DW_CFA_advance_loc: 2 to 0000000000425a24
  DW_CFA_def_cfa_offset: 16
  DW_CFA_advance_loc: 2 to 0000000000425a26
  DW_CFA_def_cfa_offset: 8
  DW_CFA_advance_loc: 5 to 0000000000425a2b
  DW_CFA_restore_state
  DW_CFA_advance_loc: 46 to 0000000000425a59
  DW_CFA_remember_state
  DW_CFA_def_cfa_offset: 56
  DW_CFA_advance_loc: 8 to 0000000000425a61
  DW_CFA_def_cfa_offset: 48
  DW_CFA_advance_loc: 1 to 0000000000425a62
  DW_CFA_def_cfa_offset: 40
  DW_CFA_advance_loc: 2 to 0000000000425a64
  DW_CFA_def_cfa_offset: 32
  DW_CFA_advance_loc: 2 to 0000000000425a66
  DW_CFA_def_cfa_offset: 24
  DW_CFA_advance_loc: 2 to 0000000000425a68
  DW_CFA_def_cfa_offset: 16
  DW_CFA_advance_loc: 2 to 0000000000425a6a
  DW_CFA_def_cfa_offset: 8
  DW_CFA_advance_loc: 5 to 0000000000425a6f
  DW_CFA_restore_state
  DW_CFA_advance_loc: 56 to 0000000000425aa7
  DW_CFA_remember_state
  DW_CFA_def_cfa_offset: 56
  DW_CFA_advance_loc: 8 to 0000000000425aaf
  DW_CFA_def_cfa_offset: 48
  DW_CFA_advance_loc: 1 to 0000000000425ab0
  DW_CFA_def_cfa_offset: 40
  DW_CFA_advance_loc: 2 to 0000000000425ab2
  DW_CFA_def_cfa_offset: 32
  DW_CFA_advance_loc: 2 to 0000000000425ab4
  DW_CFA_def_cfa_offset: 24
  DW_CFA_advance_loc: 2 to 0000000000425ab6
  DW_CFA_def_cfa_offset: 16
  DW_CFA_advance_loc: 2 to 0000000000425ab8
  DW_CFA_def_cfa_offset: 8
  DW_CFA_advance_loc: 5 to 0000000000425abd
  DW_CFA_restore_state
  DW_CFA_advance_loc: 46 to 0000000000425aeb
  DW_CFA_remember_state
  DW_CFA_def_cfa_offset: 56
  DW_CFA_advance_loc: 8 to 0000000000425af3
  DW_CFA_def_cfa_offset: 48
  DW_CFA_advance_loc: 1 to 0000000000425af4
  DW_CFA_def_cfa_offset: 40
  DW_CFA_advance_loc: 2 to 0000000000425af6
  DW_CFA_def_cfa_offset: 32
  DW_CFA_advance_loc: 2 to 0000000000425af8
  DW_CFA_def_cfa_offset: 24
  DW_CFA_advance_loc: 2 to 0000000000425afa
  DW_CFA_def_cfa_offset: 16
  DW_CFA_advance_loc: 2 to 0000000000425afc
  DW_CFA_def_cfa_offset: 8
  DW_CFA_advance_loc: 5 to 0000000000425b01
  DW_CFA_restore_state
  DW_CFA_advance_loc: 56 to 0000000000425b39
  DW_CFA_remember_state
  DW_CFA_def_cfa_offset: 56
  DW_CFA_advance_loc: 8 to 0000000000425b41
  DW_CFA_def_cfa_offset: 48
  DW_CFA_advance_loc: 1 to 0000000000425b42
  DW_CFA_def_cfa_offset: 40
  DW_CFA_advance_loc: 2 to 0000000000425b44
  DW_CFA_def_cfa_offset: 32
  DW_CFA_advance_loc: 2 to 0000000000425b46
  DW_CFA_def_cfa_offset: 24
  DW_CFA_advance_loc: 2 to 0000000000425b48
  DW_CFA_def_cfa_offset: 16
  DW_CFA_advance_loc: 2 to 0000000000425b4a
  DW_CFA_def_cfa_offset: 8
  DW_CFA_advance_loc: 5 to 0000000000425b4f
  DW_CFA_restore_state
  DW_CFA_advance_loc: 46 to 0000000000425b7d
  DW_CFA_remember_state
  DW_CFA_def_cfa_offset: 56
  DW_CFA_advance_loc: 8 to 0000000000425b85
  DW_CFA_def_cfa_offset: 48
  DW_CFA_advance_loc: 1 to 0000000000425b86
  DW_CFA_def_cfa_offset: 40
  DW_CFA_advance_loc: 2 to 0000000000425b88
  DW_CFA_def_cfa_offset: 32
  DW_CFA_advance_loc: 2 to 0000000000425b8a
  DW_CFA_def_cfa_offset: 24
  DW_CFA_advance_loc: 2 to 0000000000425b8c
  DW_CFA_def_cfa_offset: 16
  DW_CFA_advance_loc: 2 to 0000000000425b8e
  DW_CFA_def_cfa_offset: 8
  DW_CFA_advance_loc: 5 to 0000000000425b93
  DW_CFA_restore_state
  DW_CFA_advance_loc: 56 to 0000000000425bcb
  DW_CFA_remember_state
  DW_CFA_def_cfa_offset: 56
  DW_CFA_advance_loc: 8 to 0000000000425bd3
  DW_CFA_def_cfa_offset: 48
  DW_CFA_advance_loc: 1 to 0000000000425bd4
  DW_CFA_def_cfa_offset: 40
  DW_CFA_advance_loc: 2 to 0000000000425bd6
  DW_CFA_def_cfa_offset: 32
  DW_CFA_advance_loc: 2 to 0000000000425bd8
  DW_CFA_def_cfa_offset: 24
  DW_CFA_advance_loc: 2 to 0000000000425bda
  DW_CFA_def_cfa_offset: 16
  DW_CFA_advance_loc: 2 to 0000000000425bdc
  DW_CFA_def_cfa_offset: 8
  DW_CFA_advance_loc: 5 to 0000000000425be1
  DW_CFA_restore_state
  DW_CFA_advance_loc: 46 to 0000000000425c0f
  DW_CFA_remember_state
  DW_CFA_def_cfa_offset: 56
  DW_CFA_advance_loc: 8 to 0000000000425c17
  DW_CFA_def_cfa_offset: 48
  DW_CFA_advance_loc: 1 to 0000000000425c18
  DW_CFA_def_cfa_offset: 40
  DW_CFA_advance_loc: 2 to 0000000000425c1a
  DW_CFA_def_cfa_offset: 32
  DW_CFA_advance_loc: 2 to 0000000000425c1c
  DW_CFA_def_cfa_offset: 24
  DW_CFA_advance_loc: 2 to 0000000000425c1e
  DW_CFA_def_cfa_offset: 16
  DW_CFA_advance_loc: 2 to 0000000000425c20
  DW_CFA_def_cfa_offset: 8
  DW_CFA_advance_loc: 5 to 0000000000425c25
  DW_CFA_restore_state
  DW_CFA_advance_loc: 56 to 0000000000425c5d
  DW_CFA_remember_state
  DW_CFA_def_cfa_offset: 56
  DW_CFA_advance_loc: 8 to 0000000000425c65
  DW_CFA_def_cfa_offset: 48
  DW_CFA_advance_loc: 1 to 0000000000425c66
  DW_CFA_def_cfa_offset: 40
  DW_CFA_advance_loc: 2 to 0000000000425c68
  DW_CFA_def_cfa_offset: 32
  DW_CFA_advance_loc: 2 to 0000000000425c6a
  DW_CFA_def_cfa_offset: 24
  DW_CFA_advance_loc: 2 to 0000000000425c6c
  DW_CFA_def_cfa_offset: 16
  DW_CFA_advance_loc: 2 to 0000000000425c6e
  DW_CFA_def_cfa_offset: 8
  DW_CFA_advance_loc: 5 to 0000000000425c73
  DW_CFA_restore_state
  DW_CFA_advance_loc: 46 to 0000000000425ca1
  DW_CFA_remember_state
  DW_CFA_def_cfa_offset: 56
  DW_CFA_advance_loc: 8 to 0000000000425ca9
  DW_CFA_def_cfa_offset: 48
  DW_CFA_advance_loc: 1 to 0000000000425caa
  DW_CFA_def_cfa_offset: 40
  DW_CFA_advance_loc: 2 to 0000000000425cac
  DW_CFA_def_cfa_offset: 32
  DW_CFA_advance_loc: 2 to 0000000000425cae
  DW_CFA_def_cfa_offset: 24
  DW_CFA_advance_loc: 2 to 0000000000425cb0
  DW_CFA_def_cfa_offset: 16
  DW_CFA_advance_loc: 2 to 0000000000425cb2
  DW_CFA_def_cfa_offset: 8
  DW_CFA_advance_loc: 5 to 0000000000425cb7
  DW_CFA_restore_state
  DW_CFA_advance_loc: 56 to 0000000000425cef
  DW_CFA_remember_state
  DW_CFA_def_cfa_offset: 56
  DW_CFA_advance_loc: 8 to 0000000000425cf7
  DW_CFA_def_cfa_offset: 48
  DW_CFA_advance_loc: 1 to 0000000000425cf8
  DW_CFA_def_cfa_offset: 40
  DW_CFA_advance_loc: 2 to 0000000000425cfa
  DW_CFA_def_cfa_offset: 32
  DW_CFA_advance_loc: 2 to 0000000000425cfc
  DW_CFA_def_cfa_offset: 24
  DW_CFA_advance_loc: 2 to 0000000000425cfe
  DW_CFA_def_cfa_offset: 16
  DW_CFA_advance_loc: 2 to 0000000000425d00
  DW_CFA_def_cfa_offset: 8
  DW_CFA_advance_loc: 5 to 0000000000425d05
  DW_CFA_restore_state
  DW_CFA_advance_loc: 46 to 0000000000425d33
  DW_CFA_remember_state
  DW_CFA_def_cfa_offset: 56
  DW_CFA_advance_loc: 8 to 0000000000425d3b
  DW_CFA_def_cfa_offset: 48
  DW_CFA_advance_loc: 1 to 0000000000425d3c
  DW_CFA_def_cfa_offset: 40
  DW_CFA_advance_loc: 2 to 0000000000425d3e
  DW_CFA_def_cfa_offset: 32
  DW_CFA_advance_loc: 2 to 0000000000425d40
  DW_CFA_def_cfa_offset: 24
  DW_CFA_advance_loc: 2 to 0000000000425d42
  DW_CFA_def_cfa_offset: 16
  DW_CFA_advance_loc: 2 to 0000000000425d44
  DW_CFA_def_cfa_offset: 8
  DW_CFA_advance_loc: 5 to 0000000000425d49
  DW_CFA_restore_state
  DW_CFA_advance_loc: 56 to 0000000000425d81
  DW_CFA_remember_state
  DW_CFA_def_cfa_offset: 56
  DW_CFA_advance_loc: 8 to 0000000000425d89
  DW_CFA_def_cfa_offset: 48
  DW_CFA_advance_loc: 1 to 0000000000425d8a
  DW_CFA_def_cfa_offset: 40
  DW_CFA_advance_loc: 2 to 0000000000425d8c
  DW_CFA_def_cfa_offset: 32
  DW_CFA_advance_loc: 2 to 0000000000425d8e
  DW_CFA_def_cfa_offset: 24
  DW_CFA_advance_loc: 2 to 0000000000425d90
  DW_CFA_def_cfa_offset: 16
  DW_CFA_advance_loc: 2 to 0000000000425d92
  DW_CFA_def_cfa_offset: 8
  DW_CFA_advance_loc: 5 to 0000000000425d97
  DW_CFA_restore_state
  DW_CFA_advance_loc: 46 to 0000000000425dc5
  DW_CFA_remember_state
  DW_CFA_def_cfa_offset: 56
  DW_CFA_advance_loc: 8 to 0000000000425dcd
  DW_CFA_def_cfa_offset: 48
  DW_CFA_advance_loc: 1 to 0000000000425dce
  DW_CFA_def_cfa_offset: 40
  DW_CFA_advance_loc: 2 to 0000000000425dd0
  DW_CFA_def_cfa_offset: 32
  DW_CFA_advance_loc: 2 to 0000000000425dd2
  DW_CFA_def_cfa_offset: 24
  DW_CFA_advance_loc: 2 to 0000000000425dd4
  DW_CFA_def_cfa_offset: 16
  DW_CFA_advance_loc: 2 to 0000000000425dd6
  DW_CFA_def_cfa_offset: 8
  DW_CFA_advance_loc: 5 to 0000000000425ddb
  DW_CFA_restore_state
  DW_CFA_advance_loc: 56 to 0000000000425e13
  DW_CFA_remember_state
  DW_CFA_def_cfa_offset: 56
  DW_CFA_advance_loc: 8 to 0000000000425e1b
  DW_CFA_def_cfa_offset: 48
  DW_CFA_advance_loc: 1 to 0000000000425e1c
  DW_CFA_def_cfa_offset: 40
  DW_CFA_advance_loc: 2 to 0000000000425e1e
  DW_CFA_def_cfa_offset: 32
  DW_CFA_advance_loc: 2 to 0000000000425e20
  DW_CFA_def_cfa_offset: 24
  DW_CFA_advance_loc: 2 to 0000000000425e22
  DW_CFA_def_cfa_offset: 16
  DW_CFA_advance_loc: 2 to 0000000000425e24
  DW_CFA_def_cfa_offset: 8
  DW_CFA_advance_loc: 5 to 0000000000425e29
  DW_CFA_restore_state
  DW_CFA_advance_loc: 46 to 0000000000425e57
  DW_CFA_remember_state
  DW_CFA_def_cfa_offset: 56
  DW_CFA_advance_loc: 8 to 0000000000425e5f
  DW_CFA_def_cfa_offset: 48
  DW_CFA_advance_loc: 1 to 0000000000425e60
  DW_CFA_def_cfa_offset: 40
  DW_CFA_advance_loc: 2 to 0000000000425e62
  DW_CFA_def_cfa_offset: 32
  DW_CFA_advance_loc: 2 to 0000000000425e64
  DW_CFA_def_cfa_offset: 24
  DW_CFA_advance_loc: 2 to 0000000000425e66
  DW_CFA_def_cfa_offset: 16
  DW_CFA_advance_loc: 2 to 0000000000425e68
  DW_CFA_def_cfa_offset: 8
  DW_CFA_advance_loc: 5 to 0000000000425e6d
  DW_CFA_restore_state
  DW_CFA_advance_loc: 56 to 0000000000425ea5
  DW_CFA_remember_state
  DW_CFA_def_cfa_offset: 56
  DW_CFA_advance_loc: 8 to 0000000000425ead
  DW_CFA_def_cfa_offset: 48
  DW_CFA_advance_loc: 1 to 0000000000425eae
  DW_CFA_def_cfa_offset: 40
  DW_CFA_advance_loc: 2 to 0000000000425eb0
  DW_CFA_def_cfa_offset: 32
  DW_CFA_advance_loc: 2 to 0000000000425eb2
  DW_CFA_def_cfa_offset: 24
  DW_CFA_advance_loc: 2 to 0000000000425eb4
  DW_CFA_def_cfa_offset: 16
  DW_CFA_advance_loc: 2 to 0000000000425eb6
  DW_CFA_def_cfa_offset: 8
  DW_CFA_advance_loc: 5 to 0000000000425ebb
  DW_CFA_restore_state
  DW_CFA_advance_loc: 46 to 0000000000425ee9
  DW_CFA_remember_state
  DW_CFA_def_cfa_offset: 56
  DW_CFA_advance_loc: 8 to 0000000000425ef1
  DW_CFA_def_cfa_offset: 48
  DW_CFA_advance_loc: 1 to 0000000000425ef2
  DW_CFA_def_cfa_offset: 40
  DW_CFA_advance_loc: 2 to 0000000000425ef4
  DW_CFA_def_cfa_offset: 32
  DW_CFA_advance_loc: 2 to 0000000000425ef6
  DW_CFA_def_cfa_offset: 24
  DW_CFA_advance_loc: 2 to 0000000000425ef8
  DW_CFA_def_cfa_offset: 16
  DW_CFA_advance_loc: 2 to 0000000000425efa
  DW_CFA_def_cfa_offset: 8
  DW_CFA_advance_loc: 5 to 0000000000425eff
  DW_CFA_restore_state
  DW_CFA_advance_loc: 56 to 0000000000425f37
  DW_CFA_remember_state
  DW_CFA_def_cfa_offset: 56
  DW_CFA_advance_loc: 8 to 0000000000425f3f
  DW_CFA_def_cfa_offset: 48
  DW_CFA_advance_loc: 1 to 0000000000425f40
  DW_CFA_def_cfa_offset: 40
  DW_CFA_advance_loc: 2 to 0000000000425f42
  DW_CFA_def_cfa_offset: 32
  DW_CFA_advance_loc: 2 to 0000000000425f44
  DW_CFA_def_cfa_offset: 24
  DW_CFA_advance_loc: 2 to 0000000000425f46
  DW_CFA_def_cfa_offset: 16
  DW_CFA_advance_loc: 2 to 0000000000425f48
  DW_CFA_def_cfa_offset: 8
  DW_CFA_advance_loc: 5 to 0000000000425f4d
  DW_CFA_restore_state
  DW_CFA_advance_loc: 46 to 0000000000425f7b
  DW_CFA_remember_state
  DW_CFA_def_cfa_offset: 56
  DW_CFA_advance_loc: 8 to 0000000000425f83
  DW_CFA_def_cfa_offset: 48
  DW_CFA_advance_loc: 1 to 0000000000425f84
  DW_CFA_def_cfa_offset: 40
  DW_CFA_advance_loc: 2 to 0000000000425f86
  DW_CFA_def_cfa_offset: 32
  DW_CFA_advance_loc: 2 to 0000000000425f88
  DW_CFA_def_cfa_offset: 24
  DW_CFA_advance_loc: 2 to 0000000000425f8a
  DW_CFA_def_cfa_offset: 16
  DW_CFA_advance_loc: 2 to 0000000000425f8c
  DW_CFA_def_cfa_offset: 8
  DW_CFA_advance_loc: 5 to 0000000000425f91
  DW_CFA_restore_state
  DW_CFA_advance_loc: 56 to 0000000000425fc9
  DW_CFA_remember_state
  DW_CFA_def_cfa_offset: 56
  DW_CFA_advance_loc: 8 to 0000000000425fd1
  DW_CFA_def_cfa_offset: 48
  DW_CFA_advance_loc: 1 to 0000000000425fd2
  DW_CFA_def_cfa_offset: 40
  DW_CFA_advance_loc: 2 to 0000000000425fd4
  DW_CFA_def_cfa_offset: 32
  DW_CFA_advance_loc: 2 to 0000000000425fd6
  DW_CFA_def_cfa_offset: 24
  DW_CFA_advance_loc: 2 to 0000000000425fd8
  DW_CFA_def_cfa_offset: 16
  DW_CFA_advance_loc: 2 to 0000000000425fda
  DW_CFA_def_cfa_offset: 8
  DW_CFA_advance_loc: 5 to 0000000000425fdf
  DW_CFA_restore_state
  DW_CFA_advance_loc: 46 to 000000000042600d
  DW_CFA_remember_state
  DW_CFA_def_cfa_offset: 56
  DW_CFA_advance_loc: 8 to 0000000000426015
  DW_CFA_def_cfa_offset: 48
  DW_CFA_advance_loc: 1 to 0000000000426016
  DW_CFA_def_cfa_offset: 40
  DW_CFA_advance_loc: 2 to 0000000000426018
  DW_CFA_def_cfa_offset: 32
  DW_CFA_advance_loc: 2 to 000000000042601a
  DW_CFA_def_cfa_offset: 24
  DW_CFA_advance_loc: 2 to 000000000042601c
  DW_CFA_def_cfa_offset: 16
  DW_CFA_advance_loc: 2 to 000000000042601e
  DW_CFA_def_cfa_offset: 8
  DW_CFA_advance_loc: 5 to 0000000000426023
  DW_CFA_restore_state
  DW_CFA_advance_loc: 56 to 000000000042605b
  DW_CFA_remember_state
  DW_CFA_def_cfa_offset: 56
  DW_CFA_advance_loc: 8 to 0000000000426063
  DW_CFA_def_cfa_offset: 48
  DW_CFA_advance_loc: 1 to 0000000000426064
  DW_CFA_def_cfa_offset: 40
  DW_CFA_advance_loc: 2 to 0000000000426066
  DW_CFA_def_cfa_offset: 32
  DW_CFA_advance_loc: 2 to 0000000000426068
  DW_CFA_def_cfa_offset: 24
  DW_CFA_advance_loc: 2 to 000000000042606a
  DW_CFA_def_cfa_offset: 16
  DW_CFA_advance_loc: 2 to 000000000042606c
  DW_CFA_def_cfa_offset: 8
  DW_CFA_advance_loc: 5 to 0000000000426071
  DW_CFA_restore_state
  DW_CFA_advance_loc: 46 to 000000000042609f
  DW_CFA_remember_state
  DW_CFA_def_cfa_offset: 56
  DW_CFA_advance_loc: 8 to 00000000004260a7
  DW_CFA_def_cfa_offset: 48
  DW_CFA_advance_loc: 1 to 00000000004260a8
  DW_CFA_def_cfa_offset: 40
  DW_CFA_advance_loc: 2 to 00000000004260aa
  DW_CFA_def_cfa_offset: 32
  DW_CFA_advance_loc: 2 to 00000000004260ac
  DW_CFA_def_cfa_offset: 24
  DW_CFA_advance_loc: 2 to 00000000004260ae
  DW_CFA_def_cfa_offset: 16
  DW_CFA_advance_loc: 2 to 00000000004260b0
  DW_CFA_def_cfa_offset: 8
  DW_CFA_advance_loc: 5 to 00000000004260b5
  DW_CFA_restore_state
  DW_CFA_advance_loc: 56 to 00000000004260ed
  DW_CFA_remember_state
  DW_CFA_def_cfa_offset: 56
  DW_CFA_advance_loc: 8 to 00000000004260f5
  DW_CFA_def_cfa_offset: 48
  DW_CFA_advance_loc: 1 to 00000000004260f6
  DW_CFA_def_cfa_offset: 40
  DW_CFA_advance_loc: 2 to 00000000004260f8
  DW_CFA_def_cfa_offset: 32
  DW_CFA_advance_loc: 2 to 00000000004260fa
  DW_CFA_def_cfa_offset: 24
  DW_CFA_advance_loc: 2 to 00000000004260fc
  DW_CFA_def_cfa_offset: 16
  DW_CFA_advance_loc: 2 to 00000000004260fe
  DW_CFA_def_cfa_offset: 8
  DW_CFA_advance_loc: 5 to 0000000000426103
  DW_CFA_restore_state
  DW_CFA_advance_loc: 46 to 0000000000426131
  DW_CFA_remember_state
  DW_CFA_def_cfa_offset: 56
  DW_CFA_advance_loc: 8 to 0000000000426139
  DW_CFA_def_cfa_offset: 48
  DW_CFA_advance_loc: 1 to 000000000042613a
  DW_CFA_def_cfa_offset: 40
  DW_CFA_advance_loc: 2 to 000000000042613c
  DW_CFA_def_cfa_offset: 32
  DW_CFA_advance_loc: 2 to 000000000042613e
  DW_CFA_def_cfa_offset: 24
  DW_CFA_advance_loc: 2 to 0000000000426140
  DW_CFA_def_cfa_offset: 16
  DW_CFA_advance_loc: 2 to 0000000000426142
  DW_CFA_def_cfa_offset: 8
  DW_CFA_advance_loc: 5 to 0000000000426147
  DW_CFA_restore_state
  DW_CFA_advance_loc: 56 to 000000000042617f
  DW_CFA_remember_state
  DW_CFA_def_cfa_offset: 56
  DW_CFA_advance_loc: 8 to 0000000000426187
  DW_CFA_def_cfa_offset: 48
  DW_CFA_advance_loc: 1 to 0000000000426188
  DW_CFA_def_cfa_offset: 40
  DW_CFA_advance_loc: 2 to 000000000042618a
  DW_CFA_def_cfa_offset: 32
  DW_CFA_advance_loc: 2 to 000000000042618c
  DW_CFA_def_cfa_offset: 24
  DW_CFA_advance_loc: 2 to 000000000042618e
  DW_CFA_def_cfa_offset: 16
  DW_CFA_advance_loc: 2 to 0000000000426190
  DW_CFA_def_cfa_offset: 8
  DW_CFA_advance_loc: 5 to 0000000000426195
  DW_CFA_restore_state
  DW_CFA_advance_loc: 46 to 00000000004261c3
  DW_CFA_remember_state
  DW_CFA_def_cfa_offset: 56
  DW_CFA_advance_loc: 8 to 00000000004261cb
  DW_CFA_def_cfa_offset: 48
  DW_CFA_advance_loc: 1 to 00000000004261cc
  DW_CFA_def_cfa_offset: 40
  DW_CFA_advance_loc: 2 to 00000000004261ce
  DW_CFA_def_cfa_offset: 32
  DW_CFA_advance_loc: 2 to 00000000004261d0
  DW_CFA_def_cfa_offset: 24
  DW_CFA_advance_loc: 2 to 00000000004261d2
  DW_CFA_def_cfa_offset: 16
  DW_CFA_advance_loc: 2 to 00000000004261d4
  DW_CFA_def_cfa_offset: 8
  DW_CFA_advance_loc: 5 to 00000000004261d9
  DW_CFA_restore_state
  DW_CFA_advance_loc: 56 to 0000000000426211
  DW_CFA_remember_state
  DW_CFA_def_cfa_offset: 56
  DW_CFA_advance_loc: 8 to 0000000000426219
  DW_CFA_def_cfa_offset: 48
  DW_CFA_advance_loc: 1 to 000000000042621a
  DW_CFA_def_cfa_offset: 40
  DW_CFA_advance_loc: 2 to 000000000042621c
  DW_CFA_def_cfa_offset: 32
  DW_CFA_advance_loc: 2 to 000000000042621e
  DW_CFA_def_cfa_offset: 24
  DW_CFA_advance_loc: 2 to 0000000000426220
  DW_CFA_def_cfa_offset: 16
  DW_CFA_advance_loc: 2 to 0000000000426222
  DW_CFA_def_cfa_offset: 8
  DW_CFA_advance_loc: 5 to 0000000000426227
  DW_CFA_restore_state
  DW_CFA_advance_loc: 46 to 0000000000426255
  DW_CFA_remember_state
  DW_CFA_def_cfa_offset: 56
  DW_CFA_advance_loc: 8 to 000000000042625d
  DW_CFA_def_cfa_offset: 48
  DW_CFA_advance_loc: 1 to 000000000042625e
  DW_CFA_def_cfa_offset: 40
  DW_CFA_advance_loc: 2 to 0000000000426260
  DW_CFA_def_cfa_offset: 32
  DW_CFA_advance_loc: 2 to 0000000000426262
  DW_CFA_def_cfa_offset: 24
  DW_CFA_advance_loc: 2 to 0000000000426264
  DW_CFA_def_cfa_offset: 16
  DW_CFA_advance_loc: 2 to 0000000000426266
  DW_CFA_def_cfa_offset: 8
  DW_CFA_advance_loc: 5 to 000000000042626b
  DW_CFA_restore_state
  DW_CFA_advance_loc: 56 to 00000000004262a3
  DW_CFA_remember_state
  DW_CFA_def_cfa_offset: 56
  DW_CFA_advance_loc: 8 to 00000000004262ab
  DW_CFA_def_cfa_offset: 48
  DW_CFA_advance_loc: 1 to 00000000004262ac
  DW_CFA_def_cfa_offset: 40
  DW_CFA_advance_loc: 2 to 00000000004262ae
  DW_CFA_def_cfa_offset: 32
  DW_CFA_advance_loc: 2 to 00000000004262b0
  DW_CFA_def_cfa_offset: 24
  DW_CFA_advance_loc: 2 to 00000000004262b2
  DW_CFA_def_cfa_offset: 16
  DW_CFA_advance_loc: 2 to 00000000004262b4
  DW_CFA_def_cfa_offset: 8
  DW_CFA_advance_loc: 5 to 00000000004262b9
  DW_CFA_restore_state
  DW_CFA_advance_loc: 46 to 00000000004262e7
  DW_CFA_remember_state
  DW_CFA_def_cfa_offset: 56
  DW_CFA_advance_loc: 8 to 00000000004262ef
  DW_CFA_def_cfa_offset: 48
  DW_CFA_advance_loc: 1 to 00000000004262f0
  DW_CFA_def_cfa_offset: 40
  DW_CFA_advance_loc: 2 to 00000000004262f2
  DW_CFA_def_cfa_offset: 32
  DW_CFA_advance_loc: 2 to 00000000004262f4
  DW_CFA_def_cfa_offset: 24
  DW_CFA_advance_loc: 2 to 00000000004262f6
  DW_CFA_def_cfa_offset: 16
  DW_CFA_advance_loc: 2 to 00000000004262f8
  DW_CFA_def_cfa_offset: 8
  DW_CFA_advance_loc: 5 to 00000000004262fd
  DW_CFA_restore_state
  DW_CFA_advance_loc: 56 to 0000000000426335
  DW_CFA_remember_state
  DW_CFA_def_cfa_offset: 56
  DW_CFA_advance_loc: 8 to 000000000042633d
  DW_CFA_def_cfa_offset: 48
  DW_CFA_advance_loc: 1 to 000000000042633e
  DW_CFA_def_cfa_offset: 40
  DW_CFA_advance_loc: 2 to 0000000000426340
  DW_CFA_def_cfa_offset: 32
  DW_CFA_advance_loc: 2 to 0000000000426342
  DW_CFA_def_cfa_offset: 24
  DW_CFA_advance_loc: 2 to 0000000000426344
  DW_CFA_def_cfa_offset: 16
  DW_CFA_advance_loc: 2 to 0000000000426346
  DW_CFA_def_cfa_offset: 8
  DW_CFA_advance_loc: 5 to 000000000042634b
  DW_CFA_restore_state
  DW_CFA_advance_loc: 46 to 0000000000426379
  DW_CFA_remember_state
  DW_CFA_def_cfa_offset: 56
  DW_CFA_advance_loc: 8 to 0000000000426381
  DW_CFA_def_cfa_offset: 48
  DW_CFA_advance_loc: 1 to 0000000000426382
  DW_CFA_def_cfa_offset: 40
  DW_CFA_advance_loc: 2 to 0000000000426384
  DW_CFA_def_cfa_offset: 32
  DW_CFA_advance_loc: 2 to 0000000000426386
  DW_CFA_def_cfa_offset: 24
  DW_CFA_advance_loc: 2 to 0000000000426388
  DW_CFA_def_cfa_offset: 16
  DW_CFA_advance_loc: 2 to 000000000042638a
  DW_CFA_def_cfa_offset: 8
  DW_CFA_advance_loc: 5 to 000000000042638f
  DW_CFA_restore_state
  DW_CFA_advance_loc: 56 to 00000000004263c7
  DW_CFA_remember_state
  DW_CFA_def_cfa_offset: 56
  DW_CFA_advance_loc: 8 to 00000000004263cf
  DW_CFA_def_cfa_offset: 48
  DW_CFA_advance_loc: 1 to 00000000004263d0
  DW_CFA_def_cfa_offset: 40
  DW_CFA_advance_loc: 2 to 00000000004263d2
  DW_CFA_def_cfa_offset: 32
  DW_CFA_advance_loc: 2 to 00000000004263d4
  DW_CFA_def_cfa_offset: 24
  DW_CFA_advance_loc: 2 to 00000000004263d6
  DW_CFA_def_cfa_offset: 16
  DW_CFA_advance_loc: 2 to 00000000004263d8
  DW_CFA_def_cfa_offset: 8
  DW_CFA_advance_loc: 5 to 00000000004263dd
  DW_CFA_restore_state
  DW_CFA_advance_loc: 46 to 000000000042640b
  DW_CFA_remember_state
  DW_CFA_def_cfa_offset: 56
  DW_CFA_advance_loc: 8 to 0000000000426413
  DW_CFA_def_cfa_offset: 48
  DW_CFA_advance_loc: 1 to 0000000000426414
  DW_CFA_def_cfa_offset: 40
  DW_CFA_advance_loc: 2 to 0000000000426416
  DW_CFA_def_cfa_offset: 32
  DW_CFA_advance_loc: 2 to 0000000000426418
  DW_CFA_def_cfa_offset: 24
  DW_CFA_advance_loc: 2 to 000000000042641a
  DW_CFA_def_cfa_offset: 16
  DW_CFA_advance_loc: 2 to 000000000042641c
  DW_CFA_def_cfa_offset: 8
  DW_CFA_advance_loc: 5 to 0000000000426421
  DW_CFA_restore_state
  DW_CFA_advance_loc: 56 to 0000000000426459
  DW_CFA_remember_state
  DW_CFA_def_cfa_offset: 56
  DW_CFA_advance_loc: 8 to 0000000000426461
  DW_CFA_def_cfa_offset: 48
  DW_CFA_advance_loc: 1 to 0000000000426462
  DW_CFA_def_cfa_offset: 40
  DW_CFA_advance_loc: 2 to 0000000000426464
  DW_CFA_def_cfa_offset: 32
  DW_CFA_advance_loc: 2 to 0000000000426466
  DW_CFA_def_cfa_offset: 24
  DW_CFA_advance_loc: 2 to 0000000000426468
  DW_CFA_def_cfa_offset: 16
  DW_CFA_advance_loc: 2 to 000000000042646a
  DW_CFA_def_cfa_offset: 8
  DW_CFA_advance_loc: 5 to 000000000042646f
  DW_CFA_restore_state
  DW_CFA_advance_loc: 46 to 000000000042649d
  DW_CFA_remember_state
  DW_CFA_def_cfa_offset: 56
  DW_CFA_advance_loc: 8 to 00000000004264a5
  DW_CFA_def_cfa_offset: 48
  DW_CFA_advance_loc: 1 to 00000000004264a6
  DW_CFA_def_cfa_offset: 40
  DW_CFA_advance_loc: 2 to 00000000004264a8
  DW_CFA_def_cfa_offset: 32
  DW_CFA_advance_loc: 2 to 00000000004264aa
  DW_CFA_def_cfa_offset: 24
  DW_CFA_advance_loc: 2 to 00000000004264ac
  DW_CFA_def_cfa_offset: 16
  DW_CFA_advance_loc: 2 to 00000000004264ae
  DW_CFA_def_cfa_offset: 8
  DW_CFA_advance_loc: 5 to 00000000004264b3
  DW_CFA_restore_state
  DW_CFA_advance_loc: 56 to 00000000004264eb
  DW_CFA_remember_state
  DW_CFA_def_cfa_offset: 56
  DW_CFA_advance_loc: 8 to 00000000004264f3
  DW_CFA_def_cfa_offset: 48
  DW_CFA_advance_loc: 1 to 00000000004264f4
  DW_CFA_def_cfa_offset: 40
  DW_CFA_advance_loc: 2 to 00000000004264f6
  DW_CFA_def_cfa_offset: 32
  DW_CFA_advance_loc: 2 to 00000000004264f8
  DW_CFA_def_cfa_offset: 24
  DW_CFA_advance_loc: 2 to 00000000004264fa
  DW_CFA_def_cfa_offset: 16
  DW_CFA_advance_loc: 2 to 00000000004264fc
  DW_CFA_def_cfa_offset: 8
  DW_CFA_advance_loc: 5 to 0000000000426501
  DW_CFA_restore_state
  DW_CFA_advance_loc: 46 to 000000000042652f
  DW_CFA_remember_state
  DW_CFA_def_cfa_offset: 56
  DW_CFA_advance_loc: 8 to 0000000000426537
  DW_CFA_def_cfa_offset: 48
  DW_CFA_advance_loc: 1 to 0000000000426538
  DW_CFA_def_cfa_offset: 40
  DW_CFA_advance_loc: 2 to 000000000042653a
  DW_CFA_def_cfa_offset: 32
  DW_CFA_advance_loc: 2 to 000000000042653c
  DW_CFA_def_cfa_offset: 24
  DW_CFA_advance_loc: 2 to 000000000042653e
  DW_CFA_def_cfa_offset: 16
  DW_CFA_advance_loc: 2 to 0000000000426540
  DW_CFA_def_cfa_offset: 8
  DW_CFA_advance_loc: 5 to 0000000000426545
  DW_CFA_restore_state
  DW_CFA_advance_loc: 56 to 000000000042657d
  DW_CFA_remember_state
  DW_CFA_def_cfa_offset: 56
  DW_CFA_advance_loc: 8 to 0000000000426585
  DW_CFA_def_cfa_offset: 48
  DW_CFA_advance_loc: 1 to 0000000000426586
  DW_CFA_def_cfa_offset: 40
  DW_CFA_advance_loc: 2 to 0000000000426588
  DW_CFA_def_cfa_offset: 32
  DW_CFA_advance_loc: 2 to 000000000042658a
  DW_CFA_def_cfa_offset: 24
  DW_CFA_advance_loc: 2 to 000000000042658c
  DW_CFA_def_cfa_offset: 16
  DW_CFA_advance_loc: 2 to 000000000042658e
  DW_CFA_def_cfa_offset: 8
  DW_CFA_advance_loc: 5 to 0000000000426593
  DW_CFA_restore_state
  DW_CFA_advance_loc: 46 to 00000000004265c1
  DW_CFA_remember_state
  DW_CFA_def_cfa_offset: 56
  DW_CFA_advance_loc: 8 to 00000000004265c9
  DW_CFA_def_cfa_offset: 48
  DW_CFA_advance_loc: 1 to 00000000004265ca
  DW_CFA_def_cfa_offset: 40
  DW_CFA_advance_loc: 2 to 00000000004265cc
  DW_CFA_def_cfa_offset: 32
  DW_CFA_advance_loc: 2 to 00000000004265ce
  DW_CFA_def_cfa_offset: 24
  DW_CFA_advance_loc: 2 to 00000000004265d0
  DW_CFA_def_cfa_offset: 16
  DW_CFA_advance_loc: 2 to 00000000004265d2
  DW_CFA_def_cfa_offset: 8
  DW_CFA_advance_loc: 5 to 00000000004265d7
  DW_CFA_restore_state
  DW_CFA_advance_loc: 56 to 000000000042660f
  DW_CFA_remember_state
  DW_CFA_def_cfa_offset: 56
  DW_CFA_advance_loc: 8 to 0000000000426617
  DW_CFA_def_cfa_offset: 48
  DW_CFA_advance_loc: 1 to 0000000000426618
  DW_CFA_def_cfa_offset: 40
  DW_CFA_advance_loc: 2 to 000000000042661a
  DW_CFA_def_cfa_offset: 32
  DW_CFA_advance_loc: 2 to 000000000042661c
  DW_CFA_def_cfa_offset: 24
  DW_CFA_advance_loc: 2 to 000000000042661e
  DW_CFA_def_cfa_offset: 16
  DW_CFA_advance_loc: 2 to 0000000000426620
  DW_CFA_def_cfa_offset: 8
  DW_CFA_advance_loc: 5 to 0000000000426625
  DW_CFA_restore_state
  DW_CFA_advance_loc: 46 to 0000000000426653
  DW_CFA_remember_state
  DW_CFA_def_cfa_offset: 56
  DW_CFA_advance_loc: 8 to 000000000042665b
  DW_CFA_def_cfa_offset: 48
  DW_CFA_advance_loc: 1 to 000000000042665c
  DW_CFA_def_cfa_offset: 40
  DW_CFA_advance_loc: 2 to 000000000042665e
  DW_CFA_def_cfa_offset: 32
  DW_CFA_advance_loc: 2 to 0000000000426660
  DW_CFA_def_cfa_offset: 24
  DW_CFA_advance_loc: 2 to 0000000000426662
  DW_CFA_def_cfa_offset: 16
  DW_CFA_advance_loc: 2 to 0000000000426664
  DW_CFA_def_cfa_offset: 8
  DW_CFA_advance_loc: 5 to 0000000000426669
  DW_CFA_restore_state
  DW_CFA_advance_loc: 56 to 00000000004266a1
  DW_CFA_remember_state
  DW_CFA_def_cfa_offset: 56
  DW_CFA_advance_loc: 8 to 00000000004266a9
  DW_CFA_def_cfa_offset: 48
  DW_CFA_advance_loc: 1 to 00000000004266aa
  DW_CFA_def_cfa_offset: 40
  DW_CFA_advance_loc: 2 to 00000000004266ac
  DW_CFA_def_cfa_offset: 32
  DW_CFA_advance_loc: 2 to 00000000004266ae
  DW_CFA_def_cfa_offset: 24
  DW_CFA_advance_loc: 2 to 00000000004266b0
  DW_CFA_def_cfa_offset: 16
  DW_CFA_advance_loc: 2 to 00000000004266b2
  DW_CFA_def_cfa_offset: 8
  DW_CFA_advance_loc: 5 to 00000000004266b7
  DW_CFA_restore_state
  DW_CFA_advance_loc: 46 to 00000000004266e5
  DW_CFA_remember_state
  DW_CFA_def_cfa_offset: 56
  DW_CFA_advance_loc: 8 to 00000000004266ed
  DW_CFA_def_cfa_offset: 48
  DW_CFA_advance_loc: 1 to 00000000004266ee
  DW_CFA_def_cfa_offset: 40
  DW_CFA_advance_loc: 2 to 00000000004266f0
  DW_CFA_def_cfa_offset: 32
  DW_CFA_advance_loc: 2 to 00000000004266f2
  DW_CFA_def_cfa_offset: 24
  DW_CFA_advance_loc: 2 to 00000000004266f4
  DW_CFA_def_cfa_offset: 16
  DW_CFA_advance_loc: 2 to 00000000004266f6
  DW_CFA_def_cfa_offset: 8
  DW_CFA_advance_loc: 5 to 00000000004266fb
  DW_CFA_restore_state
  DW_CFA_advance_loc: 56 to 0000000000426733
  DW_CFA_remember_state
  DW_CFA_def_cfa_offset: 56
  DW_CFA_advance_loc: 8 to 000000000042673b
  DW_CFA_def_cfa_offset: 48
  DW_CFA_advance_loc: 1 to 000000000042673c
  DW_CFA_def_cfa_offset: 40
  DW_CFA_advance_loc: 2 to 000000000042673e
  DW_CFA_def_cfa_offset: 32
  DW_CFA_advance_loc: 2 to 0000000000426740
  DW_CFA_def_cfa_offset: 24
  DW_CFA_advance_loc: 2 to 0000000000426742
  DW_CFA_def_cfa_offset: 16
  DW_CFA_advance_loc: 2 to 0000000000426744
  DW_CFA_def_cfa_offset: 8
  DW_CFA_advance_loc: 5 to 0000000000426749
  DW_CFA_restore_state
  DW_CFA_advance_loc: 46 to 0000000000426777
  DW_CFA_remember_state
  DW_CFA_def_cfa_offset: 56
  DW_CFA_advance_loc: 8 to 000000000042677f
  DW_CFA_def_cfa_offset: 48
  DW_CFA_advance_loc: 1 to 0000000000426780
  DW_CFA_def_cfa_offset: 40
  DW_CFA_advance_loc: 2 to 0000000000426782
  DW_CFA_def_cfa_offset: 32
  DW_CFA_advance_loc: 2 to 0000000000426784
  DW_CFA_def_cfa_offset: 24
  DW_CFA_advance_loc: 2 to 0000000000426786
  DW_CFA_def_cfa_offset: 16
  DW_CFA_advance_loc: 2 to 0000000000426788
  DW_CFA_def_cfa_offset: 8
  DW_CFA_advance_loc: 5 to 000000000042678d
  DW_CFA_restore_state
  DW_CFA_advance_loc: 56 to 00000000004267c5
  DW_CFA_remember_state
  DW_CFA_def_cfa_offset: 56
  DW_CFA_advance_loc: 8 to 00000000004267cd
  DW_CFA_def_cfa_offset: 48
  DW_CFA_advance_loc: 1 to 00000000004267ce
  DW_CFA_def_cfa_offset: 40
  DW_CFA_advance_loc: 2 to 00000000004267d0
  DW_CFA_def_cfa_offset: 32
  DW_CFA_advance_loc: 2 to 00000000004267d2
  DW_CFA_def_cfa_offset: 24
  DW_CFA_advance_loc: 2 to 00000000004267d4
  DW_CFA_def_cfa_offset: 16
  DW_CFA_advance_loc: 2 to 00000000004267d6
  DW_CFA_def_cfa_offset: 8
  DW_CFA_advance_loc: 5 to 00000000004267db
  DW_CFA_restore_state
  DW_CFA_advance_loc: 46 to 0000000000426809
  DW_CFA_remember_state
  DW_CFA_def_cfa_offset: 56
  DW_CFA_advance_loc: 8 to 0000000000426811
  DW_CFA_def_cfa_offset: 48
  DW_CFA_advance_loc: 1 to 0000000000426812
  DW_CFA_def_cfa_offset: 40
  DW_CFA_advance_loc: 2 to 0000000000426814
  DW_CFA_def_cfa_offset: 32
  DW_CFA_advance_loc: 2 to 0000000000426816
  DW_CFA_def_cfa_offset: 24
  DW_CFA_advance_loc: 2 to 0000000000426818
  DW_CFA_def_cfa_offset: 16
  DW_CFA_advance_loc: 2 to 000000000042681a
  DW_CFA_def_cfa_offset: 8
  DW_CFA_advance_loc: 5 to 000000000042681f
  DW_CFA_restore_state
  DW_CFA_advance_loc: 56 to 0000000000426857
  DW_CFA_remember_state
  DW_CFA_def_cfa_offset: 56
  DW_CFA_advance_loc: 8 to 000000000042685f
  DW_CFA_def_cfa_offset: 48
  DW_CFA_advance_loc: 1 to 0000000000426860
  DW_CFA_def_cfa_offset: 40
  DW_CFA_advance_loc: 2 to 0000000000426862
  DW_CFA_def_cfa_offset: 32
  DW_CFA_advance_loc: 2 to 0000000000426864
  DW_CFA_def_cfa_offset: 24
  DW_CFA_advance_loc: 2 to 0000000000426866
  DW_CFA_def_cfa_offset: 16
  DW_CFA_advance_loc: 2 to 0000000000426868
  DW_CFA_def_cfa_offset: 8
  DW_CFA_advance_loc: 5 to 000000000042686d
  DW_CFA_restore_state
  DW_CFA_advance_loc: 46 to 000000000042689b
  DW_CFA_remember_state
  DW_CFA_def_cfa_offset: 56
  DW_CFA_advance_loc: 8 to 00000000004268a3
  DW_CFA_def_cfa_offset: 48
  DW_CFA_advance_loc: 1 to 00000000004268a4
  DW_CFA_def_cfa_offset: 40
  DW_CFA_advance_loc: 2 to 00000000004268a6
  DW_CFA_def_cfa_offset: 32
  DW_CFA_advance_loc: 2 to 00000000004268a8
  DW_CFA_def_cfa_offset: 24
  DW_CFA_advance_loc: 2 to 00000000004268aa
  DW_CFA_def_cfa_offset: 16
  DW_CFA_advance_loc: 2 to 00000000004268ac
  DW_CFA_def_cfa_offset: 8
  DW_CFA_advance_loc: 5 to 00000000004268b1
  DW_CFA_restore_state
  DW_CFA_advance_loc: 56 to 00000000004268e9
  DW_CFA_remember_state
  DW_CFA_def_cfa_offset: 56
  DW_CFA_advance_loc: 8 to 00000000004268f1
  DW_CFA_def_cfa_offset: 48
  DW_CFA_advance_loc: 1 to 00000000004268f2
  DW_CFA_def_cfa_offset: 40
  DW_CFA_advance_loc: 2 to 00000000004268f4
  DW_CFA_def_cfa_offset: 32
  DW_CFA_advance_loc: 2 to 00000000004268f6
  DW_CFA_def_cfa_offset: 24
  DW_CFA_advance_loc: 2 to 00000000004268f8
  DW_CFA_def_cfa_offset: 16
  DW_CFA_advance_loc: 2 to 00000000004268fa
  DW_CFA_def_cfa_offset: 8
  DW_CFA_advance_loc: 5 to 00000000004268ff
  DW_CFA_restore_state
  DW_CFA_advance_loc: 46 to 000000000042692d
  DW_CFA_remember_state
  DW_CFA_def_cfa_offset: 56
  DW_CFA_advance_loc: 8 to 0000000000426935
  DW_CFA_def_cfa_offset: 48
  DW_CFA_advance_loc: 1 to 0000000000426936
  DW_CFA_def_cfa_offset: 40
  DW_CFA_advance_loc: 2 to 0000000000426938
  DW_CFA_def_cfa_offset: 32
  DW_CFA_advance_loc: 2 to 000000000042693a
  DW_CFA_def_cfa_offset: 24
  DW_CFA_advance_loc: 2 to 000000000042693c
  DW_CFA_def_cfa_offset: 16
  DW_CFA_advance_loc: 2 to 000000000042693e
  DW_CFA_def_cfa_offset: 8
  DW_CFA_advance_loc: 5 to 0000000000426943
  DW_CFA_restore_state
  DW_CFA_advance_loc: 56 to 000000000042697b
  DW_CFA_remember_state
  DW_CFA_def_cfa_offset: 56
  DW_CFA_advance_loc: 8 to 0000000000426983
  DW_CFA_def_cfa_offset: 48
  DW_CFA_advance_loc: 1 to 0000000000426984
  DW_CFA_def_cfa_offset: 40
  DW_CFA_advance_loc: 2 to 0000000000426986
  DW_CFA_def_cfa_offset: 32
  DW_CFA_advance_loc: 2 to 0000000000426988
  DW_CFA_def_cfa_offset: 24
  DW_CFA_advance_loc: 2 to 000000000042698a
  DW_CFA_def_cfa_offset: 16
  DW_CFA_advance_loc: 2 to 000000000042698c
  DW_CFA_def_cfa_offset: 8
  DW_CFA_advance_loc: 5 to 0000000000426991
  DW_CFA_restore_state
  DW_CFA_advance_loc: 46 to 00000000004269bf
  DW_CFA_remember_state
  DW_CFA_def_cfa_offset: 56
  DW_CFA_advance_loc: 8 to 00000000004269c7
  DW_CFA_def_cfa_offset: 48
  DW_CFA_advance_loc: 1 to 00000000004269c8
  DW_CFA_def_cfa_offset: 40
  DW_CFA_advance_loc: 2 to 00000000004269ca
  DW_CFA_def_cfa_offset: 32
  DW_CFA_advance_loc: 2 to 00000000004269cc
  DW_CFA_def_cfa_offset: 24
  DW_CFA_advance_loc: 2 to 00000000004269ce
  DW_CFA_def_cfa_offset: 16
  DW_CFA_advance_loc: 2 to 00000000004269d0
  DW_CFA_def_cfa_offset: 8
  DW_CFA_advance_loc: 5 to 00000000004269d5
  DW_CFA_restore_state
  DW_CFA_advance_loc: 56 to 0000000000426a0d
  DW_CFA_remember_state
  DW_CFA_def_cfa_offset: 56
  DW_CFA_advance_loc: 8 to 0000000000426a15
  DW_CFA_def_cfa_offset: 48
  DW_CFA_advance_loc: 1 to 0000000000426a16
  DW_CFA_def_cfa_offset: 40
  DW_CFA_advance_loc: 2 to 0000000000426a18
  DW_CFA_def_cfa_offset: 32
  DW_CFA_advance_loc: 2 to 0000000000426a1a
  DW_CFA_def_cfa_offset: 24
  DW_CFA_advance_loc: 2 to 0000000000426a1c
  DW_CFA_def_cfa_offset: 16
  DW_CFA_advance_loc: 2 to 0000000000426a1e
  DW_CFA_def_cfa_offset: 8
  DW_CFA_advance_loc: 5 to 0000000000426a23
  DW_CFA_restore_state
  DW_CFA_advance_loc: 46 to 0000000000426a51
  DW_CFA_remember_state
  DW_CFA_def_cfa_offset: 56
  DW_CFA_advance_loc: 8 to 0000000000426a59
  DW_CFA_def_cfa_offset: 48
  DW_CFA_advance_loc: 1 to 0000000000426a5a
  DW_CFA_def_cfa_offset: 40
  DW_CFA_advance_loc: 2 to 0000000000426a5c
  DW_CFA_def_cfa_offset: 32
  DW_CFA_advance_loc: 2 to 0000000000426a5e
  DW_CFA_def_cfa_offset: 24
  DW_CFA_advance_loc: 2 to 0000000000426a60
  DW_CFA_def_cfa_offset: 16
  DW_CFA_advance_loc: 2 to 0000000000426a62
  DW_CFA_def_cfa_offset: 8
  DW_CFA_advance_loc: 5 to 0000000000426a67
  DW_CFA_restore_state
  DW_CFA_advance_loc: 56 to 0000000000426a9f
  DW_CFA_remember_state
  DW_CFA_def_cfa_offset: 56
  DW_CFA_advance_loc: 8 to 0000000000426aa7
  DW_CFA_def_cfa_offset: 48
  DW_CFA_advance_loc: 1 to 0000000000426aa8
  DW_CFA_def_cfa_offset: 40
  DW_CFA_advance_loc: 2 to 0000000000426aaa
  DW_CFA_def_cfa_offset: 32
  DW_CFA_advance_loc: 2 to 0000000000426aac
  DW_CFA_def_cfa_offset: 24
  DW_CFA_advance_loc: 2 to 0000000000426aae
  DW_CFA_def_cfa_offset: 16
  DW_CFA_advance_loc: 2 to 0000000000426ab0
  DW_CFA_def_cfa_offset: 8
  DW_CFA_advance_loc: 5 to 0000000000426ab5
  DW_CFA_restore_state
  DW_CFA_advance_loc: 46 to 0000000000426ae3
  DW_CFA_remember_state
  DW_CFA_def_cfa_offset: 56
  DW_CFA_advance_loc: 8 to 0000000000426aeb
  DW_CFA_def_cfa_offset: 48
  DW_CFA_advance_loc: 1 to 0000000000426aec
  DW_CFA_def_cfa_offset: 40
  DW_CFA_advance_loc: 2 to 0000000000426aee
  DW_CFA_def_cfa_offset: 32
  DW_CFA_advance_loc: 2 to 0000000000426af0
  DW_CFA_def_cfa_offset: 24
  DW_CFA_advance_loc: 2 to 0000000000426af2
  DW_CFA_def_cfa_offset: 16
  DW_CFA_advance_loc: 2 to 0000000000426af4
  DW_CFA_def_cfa_offset: 8
  DW_CFA_advance_loc: 5 to 0000000000426af9
  DW_CFA_restore_state
  DW_CFA_advance_loc: 56 to 0000000000426b31
  DW_CFA_remember_state
  DW_CFA_def_cfa_offset: 56
  DW_CFA_advance_loc: 8 to 0000000000426b39
  DW_CFA_def_cfa_offset: 48
  DW_CFA_advance_loc: 1 to 0000000000426b3a
  DW_CFA_def_cfa_offset: 40
  DW_CFA_advance_loc: 2 to 0000000000426b3c
  DW_CFA_def_cfa_offset: 32
  DW_CFA_advance_loc: 2 to 0000000000426b3e
  DW_CFA_def_cfa_offset: 24
  DW_CFA_advance_loc: 2 to 0000000000426b40
  DW_CFA_def_cfa_offset: 16
  DW_CFA_advance_loc: 2 to 0000000000426b42
  DW_CFA_def_cfa_offset: 8
  DW_CFA_advance_loc: 5 to 0000000000426b47
  DW_CFA_restore_state
  DW_CFA_advance_loc: 46 to 0000000000426b75
  DW_CFA_remember_state
  DW_CFA_def_cfa_offset: 56
  DW_CFA_advance_loc: 8 to 0000000000426b7d
  DW_CFA_def_cfa_offset: 48
  DW_CFA_advance_loc: 1 to 0000000000426b7e
  DW_CFA_def_cfa_offset: 40
  DW_CFA_advance_loc: 2 to 0000000000426b80
  DW_CFA_def_cfa_offset: 32
  DW_CFA_advance_loc: 2 to 0000000000426b82
  DW_CFA_def_cfa_offset: 24
  DW_CFA_advance_loc: 2 to 0000000000426b84
  DW_CFA_def_cfa_offset: 16
  DW_CFA_advance_loc: 2 to 0000000000426b86
  DW_CFA_def_cfa_offset: 8
  DW_CFA_advance_loc: 5 to 0000000000426b8b
  DW_CFA_restore_state
  DW_CFA_advance_loc: 56 to 0000000000426bc3
  DW_CFA_remember_state
  DW_CFA_def_cfa_offset: 56
  DW_CFA_advance_loc: 8 to 0000000000426bcb
  DW_CFA_def_cfa_offset: 48
  DW_CFA_advance_loc: 1 to 0000000000426bcc
  DW_CFA_def_cfa_offset: 40
  DW_CFA_advance_loc: 2 to 0000000000426bce
  DW_CFA_def_cfa_offset: 32
  DW_CFA_advance_loc: 2 to 0000000000426bd0
  DW_CFA_def_cfa_offset: 24
  DW_CFA_advance_loc: 2 to 0000000000426bd2
  DW_CFA_def_cfa_offset: 16
  DW_CFA_advance_loc: 2 to 0000000000426bd4
  DW_CFA_def_cfa_offset: 8
  DW_CFA_advance_loc: 5 to 0000000000426bd9
  DW_CFA_restore_state
  DW_CFA_advance_loc: 46 to 0000000000426c07
  DW_CFA_remember_state
  DW_CFA_def_cfa_offset: 56
  DW_CFA_advance_loc: 8 to 0000000000426c0f
  DW_CFA_def_cfa_offset: 48
  DW_CFA_advance_loc: 1 to 0000000000426c10
  DW_CFA_def_cfa_offset: 40
  DW_CFA_advance_loc: 2 to 0000000000426c12
  DW_CFA_def_cfa_offset: 32
  DW_CFA_advance_loc: 2 to 0000000000426c14
  DW_CFA_def_cfa_offset: 24
  DW_CFA_advance_loc: 2 to 0000000000426c16
  DW_CFA_def_cfa_offset: 16
  DW_CFA_advance_loc: 2 to 0000000000426c18
  DW_CFA_def_cfa_offset: 8
  DW_CFA_advance_loc: 5 to 0000000000426c1d
  DW_CFA_restore_state
  DW_CFA_advance_loc: 56 to 0000000000426c55
  DW_CFA_remember_state
  DW_CFA_def_cfa_offset: 56
  DW_CFA_advance_loc: 8 to 0000000000426c5d
  DW_CFA_def_cfa_offset: 48
  DW_CFA_advance_loc: 1 to 0000000000426c5e
  DW_CFA_def_cfa_offset: 40
  DW_CFA_advance_loc: 2 to 0000000000426c60
  DW_CFA_def_cfa_offset: 32
  DW_CFA_advance_loc: 2 to 0000000000426c62
  DW_CFA_def_cfa_offset: 24
  DW_CFA_advance_loc: 2 to 0000000000426c64
  DW_CFA_def_cfa_offset: 16
  DW_CFA_advance_loc: 2 to 0000000000426c66
  DW_CFA_def_cfa_offset: 8
  DW_CFA_advance_loc: 5 to 0000000000426c6b
  DW_CFA_restore_state
  DW_CFA_advance_loc: 46 to 0000000000426c99
  DW_CFA_remember_state
  DW_CFA_def_cfa_offset: 56
  DW_CFA_advance_loc: 8 to 0000000000426ca1
  DW_CFA_def_cfa_offset: 48
  DW_CFA_advance_loc: 1 to 0000000000426ca2
  DW_CFA_def_cfa_offset: 40
  DW_CFA_advance_loc: 2 to 0000000000426ca4
  DW_CFA_def_cfa_offset: 32
  DW_CFA_advance_loc: 2 to 0000000000426ca6
  DW_CFA_def_cfa_offset: 24
  DW_CFA_advance_loc: 2 to 0000000000426ca8
  DW_CFA_def_cfa_offset: 16
  DW_CFA_advance_loc: 2 to 0000000000426caa
  DW_CFA_def_cfa_offset: 8
  DW_CFA_advance_loc: 5 to 0000000000426caf
  DW_CFA_restore_state
  DW_CFA_advance_loc: 56 to 0000000000426ce7
  DW_CFA_remember_state
  DW_CFA_def_cfa_offset: 56
  DW_CFA_advance_loc: 8 to 0000000000426cef
  DW_CFA_def_cfa_offset: 48
  DW_CFA_advance_loc: 1 to 0000000000426cf0
  DW_CFA_def_cfa_offset: 40
  DW_CFA_advance_loc: 2 to 0000000000426cf2
  DW_CFA_def_cfa_offset: 32
  DW_CFA_advance_loc: 2 to 0000000000426cf4
  DW_CFA_def_cfa_offset: 24
  DW_CFA_advance_loc: 2 to 0000000000426cf6
  DW_CFA_def_cfa_offset: 16
  DW_CFA_advance_loc: 2 to 0000000000426cf8
  DW_CFA_def_cfa_offset: 8
  DW_CFA_advance_loc: 5 to 0000000000426cfd
  DW_CFA_restore_state
  DW_CFA_advance_loc: 46 to 0000000000426d2b
  DW_CFA_remember_state
  DW_CFA_def_cfa_offset: 56
  DW_CFA_advance_loc: 8 to 0000000000426d33
  DW_CFA_def_cfa_offset: 48
  DW_CFA_advance_loc: 1 to 0000000000426d34
  DW_CFA_def_cfa_offset: 40
  DW_CFA_advance_loc: 2 to 0000000000426d36
  DW_CFA_def_cfa_offset: 32
  DW_CFA_advance_loc: 2 to 0000000000426d38
  DW_CFA_def_cfa_offset: 24
  DW_CFA_advance_loc: 2 to 0000000000426d3a
  DW_CFA_def_cfa_offset: 16
  DW_CFA_advance_loc: 2 to 0000000000426d3c
  DW_CFA_def_cfa_offset: 8
  DW_CFA_advance_loc: 5 to 0000000000426d41
  DW_CFA_restore_state
  DW_CFA_advance_loc: 56 to 0000000000426d79
  DW_CFA_remember_state
  DW_CFA_def_cfa_offset: 56
  DW_CFA_advance_loc: 8 to 0000000000426d81
  DW_CFA_def_cfa_offset: 48
  DW_CFA_advance_loc: 1 to 0000000000426d82
  DW_CFA_def_cfa_offset: 40
  DW_CFA_advance_loc: 2 to 0000000000426d84
  DW_CFA_def_cfa_offset: 32
  DW_CFA_advance_loc: 2 to 0000000000426d86
  DW_CFA_def_cfa_offset: 24
  DW_CFA_advance_loc: 2 to 0000000000426d88
  DW_CFA_def_cfa_offset: 16
  DW_CFA_advance_loc: 2 to 0000000000426d8a
  DW_CFA_def_cfa_offset: 8
  DW_CFA_advance_loc: 5 to 0000000000426d8f
  DW_CFA_restore_state
  DW_CFA_advance_loc: 46 to 0000000000426dbd
  DW_CFA_remember_state
  DW_CFA_def_cfa_offset: 56
  DW_CFA_advance_loc: 8 to 0000000000426dc5
  DW_CFA_def_cfa_offset: 48
  DW_CFA_advance_loc: 1 to 0000000000426dc6
  DW_CFA_def_cfa_offset: 40
  DW_CFA_advance_loc: 2 to 0000000000426dc8
  DW_CFA_def_cfa_offset: 32
  DW_CFA_advance_loc: 2 to 0000000000426dca
  DW_CFA_def_cfa_offset: 24
  DW_CFA_advance_loc: 2 to 0000000000426dcc
  DW_CFA_def_cfa_offset: 16
  DW_CFA_advance_loc: 2 to 0000000000426dce
  DW_CFA_def_cfa_offset: 8
  DW_CFA_advance_loc: 5 to 0000000000426dd3
  DW_CFA_restore_state
  DW_CFA_advance_loc: 56 to 0000000000426e0b
  DW_CFA_remember_state
  DW_CFA_def_cfa_offset: 56
  DW_CFA_advance_loc: 8 to 0000000000426e13
  DW_CFA_def_cfa_offset: 48
  DW_CFA_advance_loc: 1 to 0000000000426e14
  DW_CFA_def_cfa_offset: 40
  DW_CFA_advance_loc: 2 to 0000000000426e16
  DW_CFA_def_cfa_offset: 32
  DW_CFA_advance_loc: 2 to 0000000000426e18
  DW_CFA_def_cfa_offset: 24
  DW_CFA_advance_loc: 2 to 0000000000426e1a
  DW_CFA_def_cfa_offset: 16
  DW_CFA_advance_loc: 2 to 0000000000426e1c
  DW_CFA_def_cfa_offset: 8
  DW_CFA_advance_loc: 5 to 0000000000426e21
  DW_CFA_restore_state
  DW_CFA_advance_loc: 46 to 0000000000426e4f
  DW_CFA_remember_state
  DW_CFA_def_cfa_offset: 56
  DW_CFA_advance_loc: 8 to 0000000000426e57
  DW_CFA_def_cfa_offset: 48
  DW_CFA_advance_loc: 1 to 0000000000426e58
  DW_CFA_def_cfa_offset: 40
  DW_CFA_advance_loc: 2 to 0000000000426e5a
  DW_CFA_def_cfa_offset: 32
  DW_CFA_advance_loc: 2 to 0000000000426e5c
  DW_CFA_def_cfa_offset: 24
  DW_CFA_advance_loc: 2 to 0000000000426e5e
  DW_CFA_def_cfa_offset: 16
  DW_CFA_advance_loc: 2 to 0000000000426e60
  DW_CFA_def_cfa_offset: 8
  DW_CFA_advance_loc: 5 to 0000000000426e65
  DW_CFA_restore_state
  DW_CFA_advance_loc: 56 to 0000000000426e9d
  DW_CFA_remember_state
  DW_CFA_def_cfa_offset: 56
  DW_CFA_advance_loc: 8 to 0000000000426ea5
  DW_CFA_def_cfa_offset: 48
  DW_CFA_advance_loc: 1 to 0000000000426ea6
  DW_CFA_def_cfa_offset: 40
  DW_CFA_advance_loc: 2 to 0000000000426ea8
  DW_CFA_def_cfa_offset: 32
  DW_CFA_advance_loc: 2 to 0000000000426eaa
  DW_CFA_def_cfa_offset: 24
  DW_CFA_advance_loc: 2 to 0000000000426eac
  DW_CFA_def_cfa_offset: 16
  DW_CFA_advance_loc: 2 to 0000000000426eae
  DW_CFA_def_cfa_offset: 8
  DW_CFA_advance_loc: 5 to 0000000000426eb3
  DW_CFA_restore_state
  DW_CFA_advance_loc: 46 to 0000000000426ee1
  DW_CFA_remember_state
  DW_CFA_def_cfa_offset: 56
  DW_CFA_advance_loc: 8 to 0000000000426ee9
  DW_CFA_def_cfa_offset: 48
  DW_CFA_advance_loc: 1 to 0000000000426eea
  DW_CFA_def_cfa_offset: 40
  DW_CFA_advance_loc: 2 to 0000000000426eec
  DW_CFA_def_cfa_offset: 32
  DW_CFA_advance_loc: 2 to 0000000000426eee
  DW_CFA_def_cfa_offset: 24
  DW_CFA_advance_loc: 2 to 0000000000426ef0
  DW_CFA_def_cfa_offset: 16
  DW_CFA_advance_loc: 2 to 0000000000426ef2
  DW_CFA_def_cfa_offset: 8
  DW_CFA_advance_loc: 5 to 0000000000426ef7
  DW_CFA_restore_state
  DW_CFA_advance_loc: 56 to 0000000000426f2f
  DW_CFA_remember_state
  DW_CFA_def_cfa_offset: 56
  DW_CFA_advance_loc: 8 to 0000000000426f37
  DW_CFA_def_cfa_offset: 48
  DW_CFA_advance_loc: 1 to 0000000000426f38
  DW_CFA_def_cfa_offset: 40
  DW_CFA_advance_loc: 2 to 0000000000426f3a
  DW_CFA_def_cfa_offset: 32
  DW_CFA_advance_loc: 2 to 0000000000426f3c
  DW_CFA_def_cfa_offset: 24
  DW_CFA_advance_loc: 2 to 0000000000426f3e
  DW_CFA_def_cfa_offset: 16
  DW_CFA_advance_loc: 2 to 0000000000426f40
  DW_CFA_def_cfa_offset: 8
  DW_CFA_advance_loc: 5 to 0000000000426f45
  DW_CFA_restore_state
  DW_CFA_advance_loc: 46 to 0000000000426f73
  DW_CFA_remember_state
  DW_CFA_def_cfa_offset: 56
  DW_CFA_advance_loc: 8 to 0000000000426f7b
  DW_CFA_def_cfa_offset: 48
  DW_CFA_advance_loc: 1 to 0000000000426f7c
  DW_CFA_def_cfa_offset: 40
  DW_CFA_advance_loc: 2 to 0000000000426f7e
  DW_CFA_def_cfa_offset: 32
  DW_CFA_advance_loc: 2 to 0000000000426f80
  DW_CFA_def_cfa_offset: 24
  DW_CFA_advance_loc: 2 to 0000000000426f82
  DW_CFA_def_cfa_offset: 16
  DW_CFA_advance_loc: 2 to 0000000000426f84
  DW_CFA_def_cfa_offset: 8
  DW_CFA_advance_loc: 5 to 0000000000426f89
  DW_CFA_restore_state
  DW_CFA_advance_loc: 56 to 0000000000426fc1
  DW_CFA_remember_state
  DW_CFA_def_cfa_offset: 56
  DW_CFA_advance_loc: 8 to 0000000000426fc9
  DW_CFA_def_cfa_offset: 48
  DW_CFA_advance_loc: 1 to 0000000000426fca
  DW_CFA_def_cfa_offset: 40
  DW_CFA_advance_loc: 2 to 0000000000426fcc
  DW_CFA_def_cfa_offset: 32
  DW_CFA_advance_loc: 2 to 0000000000426fce
  DW_CFA_def_cfa_offset: 24
  DW_CFA_advance_loc: 2 to 0000000000426fd0
  DW_CFA_def_cfa_offset: 16
  DW_CFA_advance_loc: 2 to 0000000000426fd2
  DW_CFA_def_cfa_offset: 8
  DW_CFA_advance_loc: 5 to 0000000000426fd7
  DW_CFA_restore_state
  DW_CFA_advance_loc: 46 to 0000000000427005
  DW_CFA_remember_state
  DW_CFA_def_cfa_offset: 56
  DW_CFA_advance_loc: 8 to 000000000042700d
  DW_CFA_def_cfa_offset: 48
  DW_CFA_advance_loc: 1 to 000000000042700e
  DW_CFA_def_cfa_offset: 40
  DW_CFA_advance_loc: 2 to 0000000000427010
  DW_CFA_def_cfa_offset: 32
  DW_CFA_advance_loc: 2 to 0000000000427012
  DW_CFA_def_cfa_offset: 24
  DW_CFA_advance_loc: 2 to 0000000000427014
  DW_CFA_def_cfa_offset: 16
  DW_CFA_advance_loc: 2 to 0000000000427016
  DW_CFA_def_cfa_offset: 8
  DW_CFA_advance_loc: 5 to 000000000042701b
  DW_CFA_restore_state
  DW_CFA_advance_loc: 56 to 0000000000427053
  DW_CFA_remember_state
  DW_CFA_def_cfa_offset: 56
  DW_CFA_advance_loc: 8 to 000000000042705b
  DW_CFA_def_cfa_offset: 48
  DW_CFA_advance_loc: 1 to 000000000042705c
  DW_CFA_def_cfa_offset: 40
  DW_CFA_advance_loc: 2 to 000000000042705e
  DW_CFA_def_cfa_offset: 32
  DW_CFA_advance_loc: 2 to 0000000000427060
  DW_CFA_def_cfa_offset: 24
  DW_CFA_advance_loc: 2 to 0000000000427062
  DW_CFA_def_cfa_offset: 16
  DW_CFA_advance_loc: 2 to 0000000000427064
  DW_CFA_def_cfa_offset: 8
  DW_CFA_advance_loc: 5 to 0000000000427069
  DW_CFA_restore_state
  DW_CFA_advance_loc: 46 to 0000000000427097
  DW_CFA_remember_state
  DW_CFA_def_cfa_offset: 56
  DW_CFA_advance_loc: 8 to 000000000042709f
  DW_CFA_def_cfa_offset: 48
  DW_CFA_advance_loc: 1 to 00000000004270a0
  DW_CFA_def_cfa_offset: 40
  DW_CFA_advance_loc: 2 to 00000000004270a2
  DW_CFA_def_cfa_offset: 32
  DW_CFA_advance_loc: 2 to 00000000004270a4
  DW_CFA_def_cfa_offset: 24
  DW_CFA_advance_loc: 2 to 00000000004270a6
  DW_CFA_def_cfa_offset: 16
  DW_CFA_advance_loc: 2 to 00000000004270a8
  DW_CFA_def_cfa_offset: 8
  DW_CFA_advance_loc: 5 to 00000000004270ad
  DW_CFA_restore_state
  DW_CFA_advance_loc: 56 to 00000000004270e5
  DW_CFA_remember_state
  DW_CFA_def_cfa_offset: 56
  DW_CFA_advance_loc: 8 to 00000000004270ed
  DW_CFA_def_cfa_offset: 48
  DW_CFA_advance_loc: 1 to 00000000004270ee
  DW_CFA_def_cfa_offset: 40
  DW_CFA_advance_loc: 2 to 00000000004270f0
  DW_CFA_def_cfa_offset: 32
  DW_CFA_advance_loc: 2 to 00000000004270f2
  DW_CFA_def_cfa_offset: 24
  DW_CFA_advance_loc: 2 to 00000000004270f4
  DW_CFA_def_cfa_offset: 16
  DW_CFA_advance_loc: 2 to 00000000004270f6
  DW_CFA_def_cfa_offset: 8
  DW_CFA_advance_loc: 5 to 00000000004270fb
  DW_CFA_restore_state
  DW_CFA_advance_loc: 46 to 0000000000427129
  DW_CFA_remember_state
  DW_CFA_def_cfa_offset: 56
  DW_CFA_advance_loc: 8 to 0000000000427131
  DW_CFA_def_cfa_offset: 48
  DW_CFA_advance_loc: 1 to 0000000000427132
  DW_CFA_def_cfa_offset: 40
  DW_CFA_advance_loc: 2 to 0000000000427134
  DW_CFA_def_cfa_offset: 32
  DW_CFA_advance_loc: 2 to 0000000000427136
  DW_CFA_def_cfa_offset: 24
  DW_CFA_advance_loc: 2 to 0000000000427138
  DW_CFA_def_cfa_offset: 16
  DW_CFA_advance_loc: 2 to 000000000042713a
  DW_CFA_def_cfa_offset: 8
  DW_CFA_advance_loc: 5 to 000000000042713f
  DW_CFA_restore_state
  DW_CFA_advance_loc: 56 to 0000000000427177
  DW_CFA_remember_state
  DW_CFA_def_cfa_offset: 56
  DW_CFA_advance_loc: 8 to 000000000042717f
  DW_CFA_def_cfa_offset: 48
  DW_CFA_advance_loc: 1 to 0000000000427180
  DW_CFA_def_cfa_offset: 40
  DW_CFA_advance_loc: 2 to 0000000000427182
  DW_CFA_def_cfa_offset: 32
  DW_CFA_advance_loc: 2 to 0000000000427184
  DW_CFA_def_cfa_offset: 24
  DW_CFA_advance_loc: 2 to 0000000000427186
  DW_CFA_def_cfa_offset: 16
  DW_CFA_advance_loc: 2 to 0000000000427188
  DW_CFA_def_cfa_offset: 8
  DW_CFA_advance_loc: 5 to 000000000042718d
  DW_CFA_restore_state
  DW_CFA_advance_loc: 46 to 00000000004271bb
  DW_CFA_remember_state
  DW_CFA_def_cfa_offset: 56
  DW_CFA_advance_loc: 8 to 00000000004271c3
  DW_CFA_def_cfa_offset: 48
  DW_CFA_advance_loc: 1 to 00000000004271c4
  DW_CFA_def_cfa_offset: 40
  DW_CFA_advance_loc: 2 to 00000000004271c6
  DW_CFA_def_cfa_offset: 32
  DW_CFA_advance_loc: 2 to 00000000004271c8
  DW_CFA_def_cfa_offset: 24
  DW_CFA_advance_loc: 2 to 00000000004271ca
  DW_CFA_def_cfa_offset: 16
  DW_CFA_advance_loc: 2 to 00000000004271cc
  DW_CFA_def_cfa_offset: 8
  DW_CFA_advance_loc: 5 to 00000000004271d1
  DW_CFA_restore_state
  DW_CFA_advance_loc: 56 to 0000000000427209
  DW_CFA_remember_state
  DW_CFA_def_cfa_offset: 56
  DW_CFA_advance_loc: 8 to 0000000000427211
  DW_CFA_def_cfa_offset: 48
  DW_CFA_advance_loc: 1 to 0000000000427212
  DW_CFA_def_cfa_offset: 40
  DW_CFA_advance_loc: 2 to 0000000000427214
  DW_CFA_def_cfa_offset: 32
  DW_CFA_advance_loc: 2 to 0000000000427216
  DW_CFA_def_cfa_offset: 24
  DW_CFA_advance_loc: 2 to 0000000000427218
  DW_CFA_def_cfa_offset: 16
  DW_CFA_advance_loc: 2 to 000000000042721a
  DW_CFA_def_cfa_offset: 8
  DW_CFA_advance_loc: 5 to 000000000042721f
  DW_CFA_restore_state
  DW_CFA_advance_loc: 46 to 000000000042724d
  DW_CFA_remember_state
  DW_CFA_def_cfa_offset: 56
  DW_CFA_advance_loc: 8 to 0000000000427255
  DW_CFA_def_cfa_offset: 48
  DW_CFA_advance_loc: 1 to 0000000000427256
  DW_CFA_def_cfa_offset: 40
  DW_CFA_advance_loc: 2 to 0000000000427258
  DW_CFA_def_cfa_offset: 32
  DW_CFA_advance_loc: 2 to 000000000042725a
  DW_CFA_def_cfa_offset: 24
  DW_CFA_advance_loc: 2 to 000000000042725c
  DW_CFA_def_cfa_offset: 16
  DW_CFA_advance_loc: 2 to 000000000042725e
  DW_CFA_def_cfa_offset: 8
  DW_CFA_advance_loc: 5 to 0000000000427263
  DW_CFA_restore_state
  DW_CFA_advance_loc: 56 to 000000000042729b
  DW_CFA_remember_state
  DW_CFA_def_cfa_offset: 56
  DW_CFA_advance_loc: 8 to 00000000004272a3
  DW_CFA_def_cfa_offset: 48
  DW_CFA_advance_loc: 1 to 00000000004272a4
  DW_CFA_def_cfa_offset: 40
  DW_CFA_advance_loc: 2 to 00000000004272a6
  DW_CFA_def_cfa_offset: 32
  DW_CFA_advance_loc: 2 to 00000000004272a8
  DW_CFA_def_cfa_offset: 24
  DW_CFA_advance_loc: 2 to 00000000004272aa
  DW_CFA_def_cfa_offset: 16
  DW_CFA_advance_loc: 2 to 00000000004272ac
  DW_CFA_def_cfa_offset: 8
  DW_CFA_advance_loc: 5 to 00000000004272b1
  DW_CFA_restore_state
  DW_CFA_advance_loc: 46 to 00000000004272df
  DW_CFA_remember_state
  DW_CFA_def_cfa_offset: 56
  DW_CFA_advance_loc: 8 to 00000000004272e7
  DW_CFA_def_cfa_offset: 48
  DW_CFA_advance_loc: 1 to 00000000004272e8
  DW_CFA_def_cfa_offset: 40
  DW_CFA_advance_loc: 2 to 00000000004272ea
  DW_CFA_def_cfa_offset: 32
  DW_CFA_advance_loc: 2 to 00000000004272ec
  DW_CFA_def_cfa_offset: 24
  DW_CFA_advance_loc: 2 to 00000000004272ee
  DW_CFA_def_cfa_offset: 16
  DW_CFA_advance_loc: 2 to 00000000004272f0
  DW_CFA_def_cfa_offset: 8
  DW_CFA_advance_loc: 5 to 00000000004272f5
  DW_CFA_restore_state
  DW_CFA_advance_loc: 56 to 000000000042732d
  DW_CFA_remember_state
  DW_CFA_def_cfa_offset: 56
  DW_CFA_advance_loc: 8 to 0000000000427335
  DW_CFA_def_cfa_offset: 48
  DW_CFA_advance_loc: 1 to 0000000000427336
  DW_CFA_def_cfa_offset: 40
  DW_CFA_advance_loc: 2 to 0000000000427338
  DW_CFA_def_cfa_offset: 32
  DW_CFA_advance_loc: 2 to 000000000042733a
  DW_CFA_def_cfa_offset: 24
  DW_CFA_advance_loc: 2 to 000000000042733c
  DW_CFA_def_cfa_offset: 16
  DW_CFA_advance_loc: 2 to 000000000042733e
  DW_CFA_def_cfa_offset: 8
  DW_CFA_advance_loc: 5 to 0000000000427343
  DW_CFA_restore_state
  DW_CFA_advance_loc: 46 to 0000000000427371
  DW_CFA_remember_state
  DW_CFA_def_cfa_offset: 56
  DW_CFA_advance_loc: 8 to 0000000000427379
  DW_CFA_def_cfa_offset: 48
  DW_CFA_advance_loc: 1 to 000000000042737a
  DW_CFA_def_cfa_offset: 40
  DW_CFA_advance_loc: 2 to 000000000042737c
  DW_CFA_def_cfa_offset: 32
  DW_CFA_advance_loc: 2 to 000000000042737e
  DW_CFA_def_cfa_offset: 24
  DW_CFA_advance_loc: 2 to 0000000000427380
  DW_CFA_def_cfa_offset: 16
  DW_CFA_advance_loc: 2 to 0000000000427382
  DW_CFA_def_cfa_offset: 8
  DW_CFA_advance_loc: 5 to 0000000000427387
  DW_CFA_restore_state
  DW_CFA_advance_loc: 56 to 00000000004273bf
  DW_CFA_remember_state
  DW_CFA_def_cfa_offset: 56
  DW_CFA_advance_loc: 8 to 00000000004273c7
  DW_CFA_def_cfa_offset: 48
  DW_CFA_advance_loc: 1 to 00000000004273c8
  DW_CFA_def_cfa_offset: 40
  DW_CFA_advance_loc: 2 to 00000000004273ca
  DW_CFA_def_cfa_offset: 32
  DW_CFA_advance_loc: 2 to 00000000004273cc
  DW_CFA_def_cfa_offset: 24
  DW_CFA_advance_loc: 2 to 00000000004273ce
  DW_CFA_def_cfa_offset: 16
  DW_CFA_advance_loc: 2 to 00000000004273d0
  DW_CFA_def_cfa_offset: 8
  DW_CFA_advance_loc: 5 to 00000000004273d5
  DW_CFA_restore_state
  DW_CFA_advance_loc: 46 to 0000000000427403
  DW_CFA_remember_state
  DW_CFA_def_cfa_offset: 56
  DW_CFA_advance_loc: 8 to 000000000042740b
  DW_CFA_def_cfa_offset: 48
  DW_CFA_advance_loc: 1 to 000000000042740c
  DW_CFA_def_cfa_offset: 40
  DW_CFA_advance_loc: 2 to 000000000042740e
  DW_CFA_def_cfa_offset: 32
  DW_CFA_advance_loc: 2 to 0000000000427410
  DW_CFA_def_cfa_offset: 24
  DW_CFA_advance_loc: 2 to 0000000000427412
  DW_CFA_def_cfa_offset: 16
  DW_CFA_advance_loc: 2 to 0000000000427414
  DW_CFA_def_cfa_offset: 8
  DW_CFA_advance_loc: 5 to 0000000000427419
  DW_CFA_restore_state
  DW_CFA_advance_loc: 56 to 0000000000427451
  DW_CFA_remember_state
  DW_CFA_def_cfa_offset: 56
  DW_CFA_advance_loc: 8 to 0000000000427459
  DW_CFA_def_cfa_offset: 48
  DW_CFA_advance_loc: 1 to 000000000042745a
  DW_CFA_def_cfa_offset: 40
  DW_CFA_advance_loc: 2 to 000000000042745c
  DW_CFA_def_cfa_offset: 32
  DW_CFA_advance_loc: 2 to 000000000042745e
  DW_CFA_def_cfa_offset: 24
  DW_CFA_advance_loc: 2 to 0000000000427460
  DW_CFA_def_cfa_offset: 16
  DW_CFA_advance_loc: 2 to 0000000000427462
  DW_CFA_def_cfa_offset: 8
  DW_CFA_advance_loc: 5 to 0000000000427467
  DW_CFA_restore_state
  DW_CFA_advance_loc: 46 to 0000000000427495
  DW_CFA_remember_state
  DW_CFA_def_cfa_offset: 56
  DW_CFA_advance_loc: 8 to 000000000042749d
  DW_CFA_def_cfa_offset: 48
  DW_CFA_advance_loc: 1 to 000000000042749e
  DW_CFA_def_cfa_offset: 40
  DW_CFA_advance_loc: 2 to 00000000004274a0
  DW_CFA_def_cfa_offset: 32
  DW_CFA_advance_loc: 2 to 00000000004274a2
  DW_CFA_def_cfa_offset: 24
  DW_CFA_advance_loc: 2 to 00000000004274a4
  DW_CFA_def_cfa_offset: 16
  DW_CFA_advance_loc: 2 to 00000000004274a6
  DW_CFA_def_cfa_offset: 8
  DW_CFA_advance_loc: 5 to 00000000004274ab
  DW_CFA_restore_state
  DW_CFA_advance_loc: 56 to 00000000004274e3
  DW_CFA_remember_state
  DW_CFA_def_cfa_offset: 56
  DW_CFA_advance_loc: 8 to 00000000004274eb
  DW_CFA_def_cfa_offset: 48
  DW_CFA_advance_loc: 1 to 00000000004274ec
  DW_CFA_def_cfa_offset: 40
  DW_CFA_advance_loc: 2 to 00000000004274ee
  DW_CFA_def_cfa_offset: 32
  DW_CFA_advance_loc: 2 to 00000000004274f0
  DW_CFA_def_cfa_offset: 24
  DW_CFA_advance_loc: 2 to 00000000004274f2
  DW_CFA_def_cfa_offset: 16
  DW_CFA_advance_loc: 2 to 00000000004274f4
  DW_CFA_def_cfa_offset: 8
  DW_CFA_advance_loc: 5 to 00000000004274f9
  DW_CFA_restore_state
  DW_CFA_advance_loc: 46 to 0000000000427527
  DW_CFA_remember_state
  DW_CFA_def_cfa_offset: 56
  DW_CFA_advance_loc: 8 to 000000000042752f
  DW_CFA_def_cfa_offset: 48
  DW_CFA_advance_loc: 1 to 0000000000427530
  DW_CFA_def_cfa_offset: 40
  DW_CFA_advance_loc: 2 to 0000000000427532
  DW_CFA_def_cfa_offset: 32
  DW_CFA_advance_loc: 2 to 0000000000427534
  DW_CFA_def_cfa_offset: 24
  DW_CFA_advance_loc: 2 to 0000000000427536
  DW_CFA_def_cfa_offset: 16
  DW_CFA_advance_loc: 2 to 0000000000427538
  DW_CFA_def_cfa_offset: 8
  DW_CFA_advance_loc: 5 to 000000000042753d
  DW_CFA_restore_state
  DW_CFA_advance_loc: 56 to 0000000000427575
  DW_CFA_remember_state
  DW_CFA_def_cfa_offset: 56
  DW_CFA_advance_loc: 8 to 000000000042757d
  DW_CFA_def_cfa_offset: 48
  DW_CFA_advance_loc: 1 to 000000000042757e
  DW_CFA_def_cfa_offset: 40
  DW_CFA_advance_loc: 2 to 0000000000427580
  DW_CFA_def_cfa_offset: 32
  DW_CFA_advance_loc: 2 to 0000000000427582
  DW_CFA_def_cfa_offset: 24
  DW_CFA_advance_loc: 2 to 0000000000427584
  DW_CFA_def_cfa_offset: 16
  DW_CFA_advance_loc: 2 to 0000000000427586
  DW_CFA_def_cfa_offset: 8
  DW_CFA_advance_loc: 5 to 000000000042758b
  DW_CFA_restore_state
  DW_CFA_advance_loc: 46 to 00000000004275b9
  DW_CFA_remember_state
  DW_CFA_def_cfa_offset: 56
  DW_CFA_advance_loc: 8 to 00000000004275c1
  DW_CFA_def_cfa_offset: 48
  DW_CFA_advance_loc: 1 to 00000000004275c2
  DW_CFA_def_cfa_offset: 40
  DW_CFA_advance_loc: 2 to 00000000004275c4
  DW_CFA_def_cfa_offset: 32
  DW_CFA_advance_loc: 2 to 00000000004275c6
  DW_CFA_def_cfa_offset: 24
  DW_CFA_advance_loc: 2 to 00000000004275c8
  DW_CFA_def_cfa_offset: 16
  DW_CFA_advance_loc: 2 to 00000000004275ca
  DW_CFA_def_cfa_offset: 8
  DW_CFA_advance_loc: 5 to 00000000004275cf
  DW_CFA_restore_state
  DW_CFA_advance_loc: 56 to 0000000000427607
  DW_CFA_remember_state
  DW_CFA_def_cfa_offset: 56
  DW_CFA_advance_loc: 8 to 000000000042760f
  DW_CFA_def_cfa_offset: 48
  DW_CFA_advance_loc: 1 to 0000000000427610
  DW_CFA_def_cfa_offset: 40
  DW_CFA_advance_loc: 2 to 0000000000427612
  DW_CFA_def_cfa_offset: 32
  DW_CFA_advance_loc: 2 to 0000000000427614
  DW_CFA_def_cfa_offset: 24
  DW_CFA_advance_loc: 2 to 0000000000427616
  DW_CFA_def_cfa_offset: 16
  DW_CFA_advance_loc: 2 to 0000000000427618
  DW_CFA_def_cfa_offset: 8
  DW_CFA_advance_loc: 5 to 000000000042761d
  DW_CFA_restore_state
  DW_CFA_advance_loc: 46 to 000000000042764b
  DW_CFA_remember_state
  DW_CFA_def_cfa_offset: 56
  DW_CFA_advance_loc: 8 to 0000000000427653
  DW_CFA_def_cfa_offset: 48
  DW_CFA_advance_loc: 1 to 0000000000427654
  DW_CFA_def_cfa_offset: 40
  DW_CFA_advance_loc: 2 to 0000000000427656
  DW_CFA_def_cfa_offset: 32
  DW_CFA_advance_loc: 2 to 0000000000427658
  DW_CFA_def_cfa_offset: 24
  DW_CFA_advance_loc: 2 to 000000000042765a
  DW_CFA_def_cfa_offset: 16
  DW_CFA_advance_loc: 2 to 000000000042765c
  DW_CFA_def_cfa_offset: 8
  DW_CFA_advance_loc: 5 to 0000000000427661
  DW_CFA_restore_state
  DW_CFA_advance_loc: 56 to 0000000000427699
  DW_CFA_remember_state
  DW_CFA_def_cfa_offset: 56
  DW_CFA_advance_loc: 8 to 00000000004276a1
  DW_CFA_def_cfa_offset: 48
  DW_CFA_advance_loc: 1 to 00000000004276a2
  DW_CFA_def_cfa_offset: 40
  DW_CFA_advance_loc: 2 to 00000000004276a4
  DW_CFA_def_cfa_offset: 32
  DW_CFA_advance_loc: 2 to 00000000004276a6
  DW_CFA_def_cfa_offset: 24
  DW_CFA_advance_loc: 2 to 00000000004276a8
  DW_CFA_def_cfa_offset: 16
  DW_CFA_advance_loc: 2 to 00000000004276aa
  DW_CFA_def_cfa_offset: 8
  DW_CFA_advance_loc: 5 to 00000000004276af
  DW_CFA_restore_state
  DW_CFA_advance_loc: 46 to 00000000004276dd
  DW_CFA_remember_state
  DW_CFA_def_cfa_offset: 56
  DW_CFA_advance_loc: 8 to 00000000004276e5
  DW_CFA_def_cfa_offset: 48
  DW_CFA_advance_loc: 1 to 00000000004276e6
  DW_CFA_def_cfa_offset: 40
  DW_CFA_advance_loc: 2 to 00000000004276e8
  DW_CFA_def_cfa_offset: 32
  DW_CFA_advance_loc: 2 to 00000000004276ea
  DW_CFA_def_cfa_offset: 24
  DW_CFA_advance_loc: 2 to 00000000004276ec
  DW_CFA_def_cfa_offset: 16
  DW_CFA_advance_loc: 2 to 00000000004276ee
  DW_CFA_def_cfa_offset: 8
  DW_CFA_advance_loc: 5 to 00000000004276f3
  DW_CFA_restore_state
  DW_CFA_advance_loc: 56 to 000000000042772b
  DW_CFA_remember_state
  DW_CFA_def_cfa_offset: 56
  DW_CFA_advance_loc: 8 to 0000000000427733
  DW_CFA_def_cfa_offset: 48
  DW_CFA_advance_loc: 1 to 0000000000427734
  DW_CFA_def_cfa_offset: 40
  DW_CFA_advance_loc: 2 to 0000000000427736
  DW_CFA_def_cfa_offset: 32
  DW_CFA_advance_loc: 2 to 0000000000427738
  DW_CFA_def_cfa_offset: 24
  DW_CFA_advance_loc: 2 to 000000000042773a
  DW_CFA_def_cfa_offset: 16
  DW_CFA_advance_loc: 2 to 000000000042773c
  DW_CFA_def_cfa_offset: 8
  DW_CFA_advance_loc: 5 to 0000000000427741
  DW_CFA_restore_state
  DW_CFA_advance_loc: 46 to 000000000042776f
  DW_CFA_remember_state
  DW_CFA_def_cfa_offset: 56
  DW_CFA_advance_loc: 8 to 0000000000427777
  DW_CFA_def_cfa_offset: 48
  DW_CFA_advance_loc: 1 to 0000000000427778
  DW_CFA_def_cfa_offset: 40
  DW_CFA_advance_loc: 2 to 000000000042777a
  DW_CFA_def_cfa_offset: 32
  DW_CFA_advance_loc: 2 to 000000000042777c
  DW_CFA_def_cfa_offset: 24
  DW_CFA_advance_loc: 2 to 000000000042777e
  DW_CFA_def_cfa_offset: 16
  DW_CFA_advance_loc: 2 to 0000000000427780
  DW_CFA_def_cfa_offset: 8
  DW_CFA_advance_loc: 5 to 0000000000427785
  DW_CFA_restore_state
  DW_CFA_advance_loc: 56 to 00000000004277bd
  DW_CFA_remember_state
  DW_CFA_def_cfa_offset: 56
  DW_CFA_advance_loc: 8 to 00000000004277c5
  DW_CFA_def_cfa_offset: 48
  DW_CFA_advance_loc: 1 to 00000000004277c6
  DW_CFA_def_cfa_offset: 40
  DW_CFA_advance_loc: 2 to 00000000004277c8
  DW_CFA_def_cfa_offset: 32
  DW_CFA_advance_loc: 2 to 00000000004277ca
  DW_CFA_def_cfa_offset: 24
  DW_CFA_advance_loc: 2 to 00000000004277cc
  DW_CFA_def_cfa_offset: 16
  DW_CFA_advance_loc: 2 to 00000000004277ce
  DW_CFA_def_cfa_offset: 8
  DW_CFA_advance_loc: 5 to 00000000004277d3
  DW_CFA_restore_state
  DW_CFA_advance_loc: 46 to 0000000000427801
  DW_CFA_remember_state
  DW_CFA_def_cfa_offset: 56
  DW_CFA_advance_loc: 8 to 0000000000427809
  DW_CFA_def_cfa_offset: 48
  DW_CFA_advance_loc: 1 to 000000000042780a
  DW_CFA_def_cfa_offset: 40
  DW_CFA_advance_loc: 2 to 000000000042780c
  DW_CFA_def_cfa_offset: 32
  DW_CFA_advance_loc: 2 to 000000000042780e
  DW_CFA_def_cfa_offset: 24
  DW_CFA_advance_loc: 2 to 0000000000427810
  DW_CFA_def_cfa_offset: 16
  DW_CFA_advance_loc: 2 to 0000000000427812
  DW_CFA_def_cfa_offset: 8
  DW_CFA_advance_loc: 5 to 0000000000427817
  DW_CFA_restore_state
  DW_CFA_advance_loc: 56 to 000000000042784f
  DW_CFA_remember_state
  DW_CFA_def_cfa_offset: 56
  DW_CFA_advance_loc: 8 to 0000000000427857
  DW_CFA_def_cfa_offset: 48
  DW_CFA_advance_loc: 1 to 0000000000427858
  DW_CFA_def_cfa_offset: 40
  DW_CFA_advance_loc: 2 to 000000000042785a
  DW_CFA_def_cfa_offset: 32
  DW_CFA_advance_loc: 2 to 000000000042785c
  DW_CFA_def_cfa_offset: 24
  DW_CFA_advance_loc: 2 to 000000000042785e
  DW_CFA_def_cfa_offset: 16
  DW_CFA_advance_loc: 2 to 0000000000427860
  DW_CFA_def_cfa_offset: 8
  DW_CFA_advance_loc: 5 to 0000000000427865
  DW_CFA_restore_state
  DW_CFA_advance_loc: 46 to 0000000000427893
  DW_CFA_remember_state
  DW_CFA_def_cfa_offset: 56
  DW_CFA_advance_loc: 8 to 000000000042789b
  DW_CFA_def_cfa_offset: 48
  DW_CFA_advance_loc: 1 to 000000000042789c
  DW_CFA_def_cfa_offset: 40
  DW_CFA_advance_loc: 2 to 000000000042789e
  DW_CFA_def_cfa_offset: 32
  DW_CFA_advance_loc: 2 to 00000000004278a0
  DW_CFA_def_cfa_offset: 24
  DW_CFA_advance_loc: 2 to 00000000004278a2
  DW_CFA_def_cfa_offset: 16
  DW_CFA_advance_loc: 2 to 00000000004278a4
  DW_CFA_def_cfa_offset: 8
  DW_CFA_advance_loc: 5 to 00000000004278a9
  DW_CFA_restore_state
  DW_CFA_advance_loc: 56 to 00000000004278e1
  DW_CFA_remember_state
  DW_CFA_def_cfa_offset: 56
  DW_CFA_advance_loc: 8 to 00000000004278e9
  DW_CFA_def_cfa_offset: 48
  DW_CFA_advance_loc: 1 to 00000000004278ea
  DW_CFA_def_cfa_offset: 40
  DW_CFA_advance_loc: 2 to 00000000004278ec
  DW_CFA_def_cfa_offset: 32
  DW_CFA_advance_loc: 2 to 00000000004278ee
  DW_CFA_def_cfa_offset: 24
  DW_CFA_advance_loc: 2 to 00000000004278f0
  DW_CFA_def_cfa_offset: 16
  DW_CFA_advance_loc: 2 to 00000000004278f2
  DW_CFA_def_cfa_offset: 8
  DW_CFA_advance_loc: 5 to 00000000004278f7
  DW_CFA_restore_state
  DW_CFA_advance_loc: 46 to 0000000000427925
  DW_CFA_remember_state
  DW_CFA_def_cfa_offset: 56
  DW_CFA_advance_loc: 8 to 000000000042792d
  DW_CFA_def_cfa_offset: 48
  DW_CFA_advance_loc: 1 to 000000000042792e
  DW_CFA_def_cfa_offset: 40
  DW_CFA_advance_loc: 2 to 0000000000427930
  DW_CFA_def_cfa_offset: 32
  DW_CFA_advance_loc: 2 to 0000000000427932
  DW_CFA_def_cfa_offset: 24
  DW_CFA_advance_loc: 2 to 0000000000427934
  DW_CFA_def_cfa_offset: 16
  DW_CFA_advance_loc: 2 to 0000000000427936
  DW_CFA_def_cfa_offset: 8
  DW_CFA_advance_loc: 5 to 000000000042793b
  DW_CFA_restore_state
  DW_CFA_advance_loc: 56 to 0000000000427973
  DW_CFA_remember_state
  DW_CFA_def_cfa_offset: 56
  DW_CFA_advance_loc: 8 to 000000000042797b
  DW_CFA_def_cfa_offset: 48
  DW_CFA_advance_loc: 1 to 000000000042797c
  DW_CFA_def_cfa_offset: 40
  DW_CFA_advance_loc: 2 to 000000000042797e
  DW_CFA_def_cfa_offset: 32
  DW_CFA_advance_loc: 2 to 0000000000427980
  DW_CFA_def_cfa_offset: 24
  DW_CFA_advance_loc: 2 to 0000000000427982
  DW_CFA_def_cfa_offset: 16
  DW_CFA_advance_loc: 2 to 0000000000427984
  DW_CFA_def_cfa_offset: 8
  DW_CFA_advance_loc: 5 to 0000000000427989
  DW_CFA_restore_state
  DW_CFA_advance_loc: 46 to 00000000004279b7
  DW_CFA_remember_state
  DW_CFA_def_cfa_offset: 56
  DW_CFA_advance_loc: 8 to 00000000004279bf
  DW_CFA_def_cfa_offset: 48
  DW_CFA_advance_loc: 1 to 00000000004279c0
  DW_CFA_def_cfa_offset: 40
  DW_CFA_advance_loc: 2 to 00000000004279c2
  DW_CFA_def_cfa_offset: 32
  DW_CFA_advance_loc: 2 to 00000000004279c4
  DW_CFA_def_cfa_offset: 24
  DW_CFA_advance_loc: 2 to 00000000004279c6
  DW_CFA_def_cfa_offset: 16
  DW_CFA_advance_loc: 2 to 00000000004279c8
  DW_CFA_def_cfa_offset: 8
  DW_CFA_advance_loc: 5 to 00000000004279cd
  DW_CFA_restore_state
  DW_CFA_advance_loc: 56 to 0000000000427a05
  DW_CFA_remember_state
  DW_CFA_def_cfa_offset: 56
  DW_CFA_advance_loc: 8 to 0000000000427a0d
  DW_CFA_def_cfa_offset: 48
  DW_CFA_advance_loc: 1 to 0000000000427a0e
  DW_CFA_def_cfa_offset: 40
  DW_CFA_advance_loc: 2 to 0000000000427a10
  DW_CFA_def_cfa_offset: 32
  DW_CFA_advance_loc: 2 to 0000000000427a12
  DW_CFA_def_cfa_offset: 24
  DW_CFA_advance_loc: 2 to 0000000000427a14
  DW_CFA_def_cfa_offset: 16
  DW_CFA_advance_loc: 2 to 0000000000427a16
  DW_CFA_def_cfa_offset: 8
  DW_CFA_advance_loc: 5 to 0000000000427a1b
  DW_CFA_restore_state
  DW_CFA_advance_loc: 46 to 0000000000427a49
  DW_CFA_remember_state
  DW_CFA_def_cfa_offset: 56
  DW_CFA_advance_loc: 8 to 0000000000427a51
  DW_CFA_def_cfa_offset: 48
  DW_CFA_advance_loc: 1 to 0000000000427a52
  DW_CFA_def_cfa_offset: 40
  DW_CFA_advance_loc: 2 to 0000000000427a54
  DW_CFA_def_cfa_offset: 32
  DW_CFA_advance_loc: 2 to 0000000000427a56
  DW_CFA_def_cfa_offset: 24
  DW_CFA_advance_loc: 2 to 0000000000427a58
  DW_CFA_def_cfa_offset: 16
  DW_CFA_advance_loc: 2 to 0000000000427a5a
  DW_CFA_def_cfa_offset: 8
  DW_CFA_advance_loc: 5 to 0000000000427a5f
  DW_CFA_restore_state
  DW_CFA_advance_loc: 56 to 0000000000427a97
  DW_CFA_remember_state
  DW_CFA_def_cfa_offset: 56
  DW_CFA_advance_loc: 8 to 0000000000427a9f
  DW_CFA_def_cfa_offset: 48
  DW_CFA_advance_loc: 1 to 0000000000427aa0
  DW_CFA_def_cfa_offset: 40
  DW_CFA_advance_loc: 2 to 0000000000427aa2
  DW_CFA_def_cfa_offset: 32
  DW_CFA_advance_loc: 2 to 0000000000427aa4
  DW_CFA_def_cfa_offset: 24
  DW_CFA_advance_loc: 2 to 0000000000427aa6
  DW_CFA_def_cfa_offset: 16
  DW_CFA_advance_loc: 2 to 0000000000427aa8
  DW_CFA_def_cfa_offset: 8
  DW_CFA_advance_loc: 5 to 0000000000427aad
  DW_CFA_restore_state
  DW_CFA_advance_loc: 46 to 0000000000427adb
  DW_CFA_remember_state
  DW_CFA_def_cfa_offset: 56
  DW_CFA_advance_loc: 8 to 0000000000427ae3
  DW_CFA_def_cfa_offset: 48
  DW_CFA_advance_loc: 1 to 0000000000427ae4
  DW_CFA_def_cfa_offset: 40
  DW_CFA_advance_loc: 2 to 0000000000427ae6
  DW_CFA_def_cfa_offset: 32
  DW_CFA_advance_loc: 2 to 0000000000427ae8
  DW_CFA_def_cfa_offset: 24
  DW_CFA_advance_loc: 2 to 0000000000427aea
  DW_CFA_def_cfa_offset: 16
  DW_CFA_advance_loc: 2 to 0000000000427aec
  DW_CFA_def_cfa_offset: 8
  DW_CFA_advance_loc: 5 to 0000000000427af1
  DW_CFA_restore_state
  DW_CFA_advance_loc: 56 to 0000000000427b29
  DW_CFA_remember_state
  DW_CFA_def_cfa_offset: 56
  DW_CFA_advance_loc: 8 to 0000000000427b31
  DW_CFA_def_cfa_offset: 48
  DW_CFA_advance_loc: 1 to 0000000000427b32
  DW_CFA_def_cfa_offset: 40
  DW_CFA_advance_loc: 2 to 0000000000427b34
  DW_CFA_def_cfa_offset: 32
  DW_CFA_advance_loc: 2 to 0000000000427b36
  DW_CFA_def_cfa_offset: 24
  DW_CFA_advance_loc: 2 to 0000000000427b38
  DW_CFA_def_cfa_offset: 16
  DW_CFA_advance_loc: 2 to 0000000000427b3a
  DW_CFA_def_cfa_offset: 8
  DW_CFA_advance_loc: 5 to 0000000000427b3f
  DW_CFA_restore_state
  DW_CFA_advance_loc: 46 to 0000000000427b6d
  DW_CFA_remember_state
  DW_CFA_def_cfa_offset: 56
  DW_CFA_advance_loc: 8 to 0000000000427b75
  DW_CFA_def_cfa_offset: 48
  DW_CFA_advance_loc: 1 to 0000000000427b76
  DW_CFA_def_cfa_offset: 40
  DW_CFA_advance_loc: 2 to 0000000000427b78
  DW_CFA_def_cfa_offset: 32
  DW_CFA_advance_loc: 2 to 0000000000427b7a
  DW_CFA_def_cfa_offset: 24
  DW_CFA_advance_loc: 2 to 0000000000427b7c
  DW_CFA_def_cfa_offset: 16
  DW_CFA_advance_loc: 2 to 0000000000427b7e
  DW_CFA_def_cfa_offset: 8
  DW_CFA_advance_loc: 5 to 0000000000427b83
  DW_CFA_restore_state
  DW_CFA_advance_loc: 56 to 0000000000427bbb
  DW_CFA_remember_state
  DW_CFA_def_cfa_offset: 56
  DW_CFA_advance_loc: 8 to 0000000000427bc3
  DW_CFA_def_cfa_offset: 48
  DW_CFA_advance_loc: 1 to 0000000000427bc4
  DW_CFA_def_cfa_offset: 40
  DW_CFA_advance_loc: 2 to 0000000000427bc6
  DW_CFA_def_cfa_offset: 32
  DW_CFA_advance_loc: 2 to 0000000000427bc8
  DW_CFA_def_cfa_offset: 24
  DW_CFA_advance_loc: 2 to 0000000000427bca
  DW_CFA_def_cfa_offset: 16
  DW_CFA_advance_loc: 2 to 0000000000427bcc
  DW_CFA_def_cfa_offset: 8
  DW_CFA_advance_loc: 5 to 0000000000427bd1
  DW_CFA_restore_state
  DW_CFA_advance_loc: 46 to 0000000000427bff
  DW_CFA_remember_state
  DW_CFA_def_cfa_offset: 56
  DW_CFA_advance_loc: 8 to 0000000000427c07
  DW_CFA_def_cfa_offset: 48
  DW_CFA_advance_loc: 1 to 0000000000427c08
  DW_CFA_def_cfa_offset: 40
  DW_CFA_advance_loc: 2 to 0000000000427c0a
  DW_CFA_def_cfa_offset: 32
  DW_CFA_advance_loc: 2 to 0000000000427c0c
  DW_CFA_def_cfa_offset: 24
  DW_CFA_advance_loc: 2 to 0000000000427c0e
  DW_CFA_def_cfa_offset: 16
  DW_CFA_advance_loc: 2 to 0000000000427c10
  DW_CFA_def_cfa_offset: 8
  DW_CFA_advance_loc: 5 to 0000000000427c15
  DW_CFA_restore_state
  DW_CFA_advance_loc: 56 to 0000000000427c4d
  DW_CFA_remember_state
  DW_CFA_def_cfa_offset: 56
  DW_CFA_advance_loc: 8 to 0000000000427c55
  DW_CFA_def_cfa_offset: 48
  DW_CFA_advance_loc: 1 to 0000000000427c56
  DW_CFA_def_cfa_offset: 40
  DW_CFA_advance_loc: 2 to 0000000000427c58
  DW_CFA_def_cfa_offset: 32
  DW_CFA_advance_loc: 2 to 0000000000427c5a
  DW_CFA_def_cfa_offset: 24
  DW_CFA_advance_loc: 2 to 0000000000427c5c
  DW_CFA_def_cfa_offset: 16
  DW_CFA_advance_loc: 2 to 0000000000427c5e
  DW_CFA_def_cfa_offset: 8
  DW_CFA_advance_loc: 5 to 0000000000427c63
  DW_CFA_restore_state
  DW_CFA_advance_loc: 46 to 0000000000427c91
  DW_CFA_remember_state
  DW_CFA_def_cfa_offset: 56
  DW_CFA_advance_loc: 8 to 0000000000427c99
  DW_CFA_def_cfa_offset: 48
  DW_CFA_advance_loc: 1 to 0000000000427c9a
  DW_CFA_def_cfa_offset: 40
  DW_CFA_advance_loc: 2 to 0000000000427c9c
  DW_CFA_def_cfa_offset: 32
  DW_CFA_advance_loc: 2 to 0000000000427c9e
  DW_CFA_def_cfa_offset: 24
  DW_CFA_advance_loc: 2 to 0000000000427ca0
  DW_CFA_def_cfa_offset: 16
  DW_CFA_advance_loc: 2 to 0000000000427ca2
  DW_CFA_def_cfa_offset: 8
  DW_CFA_advance_loc: 5 to 0000000000427ca7
  DW_CFA_restore_state
  DW_CFA_advance_loc: 56 to 0000000000427cdf
  DW_CFA_remember_state
  DW_CFA_def_cfa_offset: 56
  DW_CFA_advance_loc: 8 to 0000000000427ce7
  DW_CFA_def_cfa_offset: 48
  DW_CFA_advance_loc: 1 to 0000000000427ce8
  DW_CFA_def_cfa_offset: 40
  DW_CFA_advance_loc: 2 to 0000000000427cea
  DW_CFA_def_cfa_offset: 32
  DW_CFA_advance_loc: 2 to 0000000000427cec
  DW_CFA_def_cfa_offset: 24
  DW_CFA_advance_loc: 2 to 0000000000427cee
  DW_CFA_def_cfa_offset: 16
  DW_CFA_advance_loc: 2 to 0000000000427cf0
  DW_CFA_def_cfa_offset: 8
  DW_CFA_advance_loc: 5 to 0000000000427cf5
  DW_CFA_restore_state
  DW_CFA_advance_loc: 46 to 0000000000427d23
  DW_CFA_remember_state
  DW_CFA_def_cfa_offset: 56
  DW_CFA_advance_loc: 8 to 0000000000427d2b
  DW_CFA_def_cfa_offset: 48
  DW_CFA_advance_loc: 1 to 0000000000427d2c
  DW_CFA_def_cfa_offset: 40
  DW_CFA_advance_loc: 2 to 0000000000427d2e
  DW_CFA_def_cfa_offset: 32
  DW_CFA_advance_loc: 2 to 0000000000427d30
  DW_CFA_def_cfa_offset: 24
  DW_CFA_advance_loc: 2 to 0000000000427d32
  DW_CFA_def_cfa_offset: 16
  DW_CFA_advance_loc: 2 to 0000000000427d34
  DW_CFA_def_cfa_offset: 8
  DW_CFA_advance_loc: 5 to 0000000000427d39
  DW_CFA_restore_state
  DW_CFA_advance_loc: 56 to 0000000000427d71
  DW_CFA_remember_state
  DW_CFA_def_cfa_offset: 56
  DW_CFA_advance_loc: 8 to 0000000000427d79
  DW_CFA_def_cfa_offset: 48
  DW_CFA_advance_loc: 1 to 0000000000427d7a
  DW_CFA_def_cfa_offset: 40
  DW_CFA_advance_loc: 2 to 0000000000427d7c
  DW_CFA_def_cfa_offset: 32
  DW_CFA_advance_loc: 2 to 0000000000427d7e
  DW_CFA_def_cfa_offset: 24
  DW_CFA_advance_loc: 2 to 0000000000427d80
  DW_CFA_def_cfa_offset: 16
  DW_CFA_advance_loc: 2 to 0000000000427d82
  DW_CFA_def_cfa_offset: 8
  DW_CFA_advance_loc: 5 to 0000000000427d87
  DW_CFA_restore_state
  DW_CFA_advance_loc2: 2923 to 00000000004288f2
  DW_CFA_remember_state
  DW_CFA_def_cfa_offset: 56
  DW_CFA_advance_loc: 8 to 00000000004288fa
  DW_CFA_def_cfa_offset: 48
  DW_CFA_advance_loc: 1 to 00000000004288fb
  DW_CFA_def_cfa_offset: 40
  DW_CFA_advance_loc: 2 to 00000000004288fd
  DW_CFA_def_cfa_offset: 32
  DW_CFA_advance_loc: 2 to 00000000004288ff
  DW_CFA_def_cfa_offset: 24
  DW_CFA_advance_loc: 2 to 0000000000428901
  DW_CFA_def_cfa_offset: 16
  DW_CFA_advance_loc: 2 to 0000000000428903
  DW_CFA_def_cfa_offset: 8
  DW_CFA_advance_loc: 5 to 0000000000428908
  DW_CFA_restore_state
  DW_CFA_advance_loc: 50 to 000000000042893a
  DW_CFA_remember_state
  DW_CFA_def_cfa_offset: 56
  DW_CFA_advance_loc: 8 to 0000000000428942
  DW_CFA_def_cfa_offset: 48
  DW_CFA_advance_loc: 1 to 0000000000428943
  DW_CFA_def_cfa_offset: 40
  DW_CFA_advance_loc: 2 to 0000000000428945
  DW_CFA_def_cfa_offset: 32
  DW_CFA_advance_loc: 2 to 0000000000428947
  DW_CFA_def_cfa_offset: 24
  DW_CFA_advance_loc: 2 to 0000000000428949
  DW_CFA_def_cfa_offset: 16
  DW_CFA_advance_loc: 2 to 000000000042894b
  DW_CFA_def_cfa_offset: 8
  DW_CFA_advance_loc: 5 to 0000000000428950
  DW_CFA_restore_state
  DW_CFA_advance_loc: 51 to 0000000000428983
  DW_CFA_remember_state
  DW_CFA_def_cfa_offset: 56
  DW_CFA_advance_loc: 8 to 000000000042898b
  DW_CFA_def_cfa_offset: 48
  DW_CFA_advance_loc: 1 to 000000000042898c
  DW_CFA_def_cfa_offset: 40
  DW_CFA_advance_loc: 2 to 000000000042898e
  DW_CFA_def_cfa_offset: 32
  DW_CFA_advance_loc: 2 to 0000000000428990
  DW_CFA_def_cfa_offset: 24
  DW_CFA_advance_loc: 2 to 0000000000428992
  DW_CFA_def_cfa_offset: 16
  DW_CFA_advance_loc: 2 to 0000000000428994
  DW_CFA_def_cfa_offset: 8
  DW_CFA_advance_loc: 5 to 0000000000428999
  DW_CFA_restore_state
  DW_CFA_advance_loc: 46 to 00000000004289c7
  DW_CFA_remember_state
  DW_CFA_def_cfa_offset: 56
  DW_CFA_advance_loc: 8 to 00000000004289cf
  DW_CFA_def_cfa_offset: 48
  DW_CFA_advance_loc: 1 to 00000000004289d0
  DW_CFA_def_cfa_offset: 40
  DW_CFA_advance_loc: 2 to 00000000004289d2
  DW_CFA_def_cfa_offset: 32
  DW_CFA_advance_loc: 2 to 00000000004289d4
  DW_CFA_def_cfa_offset: 24
  DW_CFA_advance_loc: 2 to 00000000004289d6
  DW_CFA_def_cfa_offset: 16
  DW_CFA_advance_loc: 2 to 00000000004289d8
  DW_CFA_def_cfa_offset: 8
  DW_CFA_advance_loc: 5 to 00000000004289dd
  DW_CFA_restore_state
  DW_CFA_advance_loc: 56 to 0000000000428a15
  DW_CFA_remember_state
  DW_CFA_def_cfa_offset: 56
  DW_CFA_advance_loc: 8 to 0000000000428a1d
  DW_CFA_def_cfa_offset: 48
  DW_CFA_advance_loc: 1 to 0000000000428a1e
  DW_CFA_def_cfa_offset: 40
  DW_CFA_advance_loc: 2 to 0000000000428a20
  DW_CFA_def_cfa_offset: 32
  DW_CFA_advance_loc: 2 to 0000000000428a22
  DW_CFA_def_cfa_offset: 24
  DW_CFA_advance_loc: 2 to 0000000000428a24
  DW_CFA_def_cfa_offset: 16
  DW_CFA_advance_loc: 2 to 0000000000428a26
  DW_CFA_def_cfa_offset: 8
  DW_CFA_advance_loc: 5 to 0000000000428a2b
  DW_CFA_restore_state
  DW_CFA_advance_loc: 46 to 0000000000428a59
  DW_CFA_remember_state
  DW_CFA_def_cfa_offset: 56
  DW_CFA_advance_loc: 8 to 0000000000428a61
  DW_CFA_def_cfa_offset: 48
  DW_CFA_advance_loc: 1 to 0000000000428a62
  DW_CFA_def_cfa_offset: 40
  DW_CFA_advance_loc: 2 to 0000000000428a64
  DW_CFA_def_cfa_offset: 32
  DW_CFA_advance_loc: 2 to 0000000000428a66
  DW_CFA_def_cfa_offset: 24
  DW_CFA_advance_loc: 2 to 0000000000428a68
  DW_CFA_def_cfa_offset: 16
  DW_CFA_advance_loc: 2 to 0000000000428a6a
  DW_CFA_def_cfa_offset: 8
  DW_CFA_advance_loc: 5 to 0000000000428a6f
  DW_CFA_restore_state
  DW_CFA_advance_loc: 56 to 0000000000428aa7
  DW_CFA_remember_state
  DW_CFA_def_cfa_offset: 56
  DW_CFA_advance_loc: 8 to 0000000000428aaf
  DW_CFA_def_cfa_offset: 48
  DW_CFA_advance_loc: 1 to 0000000000428ab0
  DW_CFA_def_cfa_offset: 40
  DW_CFA_advance_loc: 2 to 0000000000428ab2
  DW_CFA_def_cfa_offset: 32
  DW_CFA_advance_loc: 2 to 0000000000428ab4
  DW_CFA_def_cfa_offset: 24
  DW_CFA_advance_loc: 2 to 0000000000428ab6
  DW_CFA_def_cfa_offset: 16
  DW_CFA_advance_loc: 2 to 0000000000428ab8
  DW_CFA_def_cfa_offset: 8
  DW_CFA_advance_loc: 5 to 0000000000428abd
  DW_CFA_restore_state
  DW_CFA_advance_loc: 46 to 0000000000428aeb
  DW_CFA_remember_state
  DW_CFA_def_cfa_offset: 56
  DW_CFA_advance_loc: 8 to 0000000000428af3
  DW_CFA_def_cfa_offset: 48
  DW_CFA_advance_loc: 1 to 0000000000428af4
  DW_CFA_def_cfa_offset: 40
  DW_CFA_advance_loc: 2 to 0000000000428af6
  DW_CFA_def_cfa_offset: 32
  DW_CFA_advance_loc: 2 to 0000000000428af8
  DW_CFA_def_cfa_offset: 24
  DW_CFA_advance_loc: 2 to 0000000000428afa
  DW_CFA_def_cfa_offset: 16
  DW_CFA_advance_loc: 2 to 0000000000428afc
  DW_CFA_def_cfa_offset: 8
  DW_CFA_advance_loc: 5 to 0000000000428b01
  DW_CFA_restore_state
  DW_CFA_advance_loc: 56 to 0000000000428b39
  DW_CFA_remember_state
  DW_CFA_def_cfa_offset: 56
  DW_CFA_advance_loc: 8 to 0000000000428b41
  DW_CFA_def_cfa_offset: 48
  DW_CFA_advance_loc: 1 to 0000000000428b42
  DW_CFA_def_cfa_offset: 40
  DW_CFA_advance_loc: 2 to 0000000000428b44
  DW_CFA_def_cfa_offset: 32
  DW_CFA_advance_loc: 2 to 0000000000428b46
  DW_CFA_def_cfa_offset: 24
  DW_CFA_advance_loc: 2 to 0000000000428b48
  DW_CFA_def_cfa_offset: 16
  DW_CFA_advance_loc: 2 to 0000000000428b4a
  DW_CFA_def_cfa_offset: 8
  DW_CFA_advance_loc: 5 to 0000000000428b4f
  DW_CFA_restore_state
  DW_CFA_advance_loc: 46 to 0000000000428b7d
  DW_CFA_remember_state
  DW_CFA_def_cfa_offset: 56
  DW_CFA_advance_loc: 8 to 0000000000428b85
  DW_CFA_def_cfa_offset: 48
  DW_CFA_advance_loc: 1 to 0000000000428b86
  DW_CFA_def_cfa_offset: 40
  DW_CFA_advance_loc: 2 to 0000000000428b88
  DW_CFA_def_cfa_offset: 32
  DW_CFA_advance_loc: 2 to 0000000000428b8a
  DW_CFA_def_cfa_offset: 24
  DW_CFA_advance_loc: 2 to 0000000000428b8c
  DW_CFA_def_cfa_offset: 16
  DW_CFA_advance_loc: 2 to 0000000000428b8e
  DW_CFA_def_cfa_offset: 8
  DW_CFA_advance_loc: 5 to 0000000000428b93
  DW_CFA_restore_state
  DW_CFA_advance_loc: 56 to 0000000000428bcb
  DW_CFA_remember_state
  DW_CFA_def_cfa_offset: 56
  DW_CFA_advance_loc: 8 to 0000000000428bd3
  DW_CFA_def_cfa_offset: 48
  DW_CFA_advance_loc: 1 to 0000000000428bd4
  DW_CFA_def_cfa_offset: 40
  DW_CFA_advance_loc: 2 to 0000000000428bd6
  DW_CFA_def_cfa_offset: 32
  DW_CFA_advance_loc: 2 to 0000000000428bd8
  DW_CFA_def_cfa_offset: 24
  DW_CFA_advance_loc: 2 to 0000000000428bda
  DW_CFA_def_cfa_offset: 16
  DW_CFA_advance_loc: 2 to 0000000000428bdc
  DW_CFA_def_cfa_offset: 8
  DW_CFA_advance_loc: 5 to 0000000000428be1
  DW_CFA_restore_state
  DW_CFA_advance_loc: 46 to 0000000000428c0f
  DW_CFA_remember_state
  DW_CFA_def_cfa_offset: 56
  DW_CFA_advance_loc: 8 to 0000000000428c17
  DW_CFA_def_cfa_offset: 48
  DW_CFA_advance_loc: 1 to 0000000000428c18
  DW_CFA_def_cfa_offset: 40
  DW_CFA_advance_loc: 2 to 0000000000428c1a
  DW_CFA_def_cfa_offset: 32
  DW_CFA_advance_loc: 2 to 0000000000428c1c
  DW_CFA_def_cfa_offset: 24
  DW_CFA_advance_loc: 2 to 0000000000428c1e
  DW_CFA_def_cfa_offset: 16
  DW_CFA_advance_loc: 2 to 0000000000428c20
  DW_CFA_def_cfa_offset: 8
  DW_CFA_advance_loc: 5 to 0000000000428c25
  DW_CFA_restore_state
  DW_CFA_advance_loc: 56 to 0000000000428c5d
  DW_CFA_remember_state
  DW_CFA_def_cfa_offset: 56
  DW_CFA_advance_loc: 8 to 0000000000428c65
  DW_CFA_def_cfa_offset: 48
  DW_CFA_advance_loc: 1 to 0000000000428c66
  DW_CFA_def_cfa_offset: 40
  DW_CFA_advance_loc: 2 to 0000000000428c68
  DW_CFA_def_cfa_offset: 32
  DW_CFA_advance_loc: 2 to 0000000000428c6a
  DW_CFA_def_cfa_offset: 24
  DW_CFA_advance_loc: 2 to 0000000000428c6c
  DW_CFA_def_cfa_offset: 16
  DW_CFA_advance_loc: 2 to 0000000000428c6e
  DW_CFA_def_cfa_offset: 8
  DW_CFA_advance_loc: 5 to 0000000000428c73
  DW_CFA_restore_state
  DW_CFA_advance_loc: 46 to 0000000000428ca1
  DW_CFA_remember_state
  DW_CFA_def_cfa_offset: 56
  DW_CFA_advance_loc: 8 to 0000000000428ca9
  DW_CFA_def_cfa_offset: 48
  DW_CFA_advance_loc: 1 to 0000000000428caa
  DW_CFA_def_cfa_offset: 40
  DW_CFA_advance_loc: 2 to 0000000000428cac
  DW_CFA_def_cfa_offset: 32
  DW_CFA_advance_loc: 2 to 0000000000428cae
  DW_CFA_def_cfa_offset: 24
  DW_CFA_advance_loc: 2 to 0000000000428cb0
  DW_CFA_def_cfa_offset: 16
  DW_CFA_advance_loc: 2 to 0000000000428cb2
  DW_CFA_def_cfa_offset: 8
  DW_CFA_advance_loc: 5 to 0000000000428cb7
  DW_CFA_restore_state
  DW_CFA_advance_loc: 56 to 0000000000428cef
  DW_CFA_remember_state
  DW_CFA_def_cfa_offset: 56
  DW_CFA_advance_loc: 8 to 0000000000428cf7
  DW_CFA_def_cfa_offset: 48
  DW_CFA_advance_loc: 1 to 0000000000428cf8
  DW_CFA_def_cfa_offset: 40
  DW_CFA_advance_loc: 2 to 0000000000428cfa
  DW_CFA_def_cfa_offset: 32
  DW_CFA_advance_loc: 2 to 0000000000428cfc
  DW_CFA_def_cfa_offset: 24
  DW_CFA_advance_loc: 2 to 0000000000428cfe
  DW_CFA_def_cfa_offset: 16
  DW_CFA_advance_loc: 2 to 0000000000428d00
  DW_CFA_def_cfa_offset: 8
  DW_CFA_advance_loc: 5 to 0000000000428d05
  DW_CFA_restore_state
  DW_CFA_advance_loc: 46 to 0000000000428d33
  DW_CFA_remember_state
  DW_CFA_def_cfa_offset: 56
  DW_CFA_advance_loc: 8 to 0000000000428d3b
  DW_CFA_def_cfa_offset: 48
  DW_CFA_advance_loc: 1 to 0000000000428d3c
  DW_CFA_def_cfa_offset: 40
  DW_CFA_advance_loc: 2 to 0000000000428d3e
  DW_CFA_def_cfa_offset: 32
  DW_CFA_advance_loc: 2 to 0000000000428d40
  DW_CFA_def_cfa_offset: 24
  DW_CFA_advance_loc: 2 to 0000000000428d42
  DW_CFA_def_cfa_offset: 16
  DW_CFA_advance_loc: 2 to 0000000000428d44
  DW_CFA_def_cfa_offset: 8
  DW_CFA_advance_loc: 5 to 0000000000428d49
  DW_CFA_restore_state
  DW_CFA_advance_loc: 56 to 0000000000428d81
  DW_CFA_remember_state
  DW_CFA_def_cfa_offset: 56
  DW_CFA_advance_loc: 8 to 0000000000428d89
  DW_CFA_def_cfa_offset: 48
  DW_CFA_advance_loc: 1 to 0000000000428d8a
  DW_CFA_def_cfa_offset: 40
  DW_CFA_advance_loc: 2 to 0000000000428d8c
  DW_CFA_def_cfa_offset: 32
  DW_CFA_advance_loc: 2 to 0000000000428d8e
  DW_CFA_def_cfa_offset: 24
  DW_CFA_advance_loc: 2 to 0000000000428d90
  DW_CFA_def_cfa_offset: 16
  DW_CFA_advance_loc: 2 to 0000000000428d92
  DW_CFA_def_cfa_offset: 8
  DW_CFA_advance_loc: 5 to 0000000000428d97
  DW_CFA_restore_state
  DW_CFA_advance_loc: 56 to 0000000000428dcf
  DW_CFA_remember_state
  DW_CFA_def_cfa_offset: 56
  DW_CFA_advance_loc: 8 to 0000000000428dd7
  DW_CFA_def_cfa_offset: 48
  DW_CFA_advance_loc: 1 to 0000000000428dd8
  DW_CFA_def_cfa_offset: 40
  DW_CFA_advance_loc: 2 to 0000000000428dda
  DW_CFA_def_cfa_offset: 32
  DW_CFA_advance_loc: 2 to 0000000000428ddc
  DW_CFA_def_cfa_offset: 24
  DW_CFA_advance_loc: 2 to 0000000000428dde
  DW_CFA_def_cfa_offset: 16
  DW_CFA_advance_loc: 2 to 0000000000428de0
  DW_CFA_def_cfa_offset: 8
  DW_CFA_advance_loc: 5 to 0000000000428de5
  DW_CFA_restore_state
  DW_CFA_advance_loc: 46 to 0000000000428e13
  DW_CFA_remember_state
  DW_CFA_def_cfa_offset: 56
  DW_CFA_advance_loc: 8 to 0000000000428e1b
  DW_CFA_def_cfa_offset: 48
  DW_CFA_advance_loc: 1 to 0000000000428e1c
  DW_CFA_def_cfa_offset: 40
  DW_CFA_advance_loc: 2 to 0000000000428e1e
  DW_CFA_def_cfa_offset: 32
  DW_CFA_advance_loc: 2 to 0000000000428e20
  DW_CFA_def_cfa_offset: 24
  DW_CFA_advance_loc: 2 to 0000000000428e22
  DW_CFA_def_cfa_offset: 16
  DW_CFA_advance_loc: 2 to 0000000000428e24
  DW_CFA_def_cfa_offset: 8
  DW_CFA_advance_loc: 5 to 0000000000428e29
  DW_CFA_restore_state
  DW_CFA_advance_loc: 56 to 0000000000428e61
  DW_CFA_remember_state
  DW_CFA_def_cfa_offset: 56
  DW_CFA_advance_loc: 8 to 0000000000428e69
  DW_CFA_def_cfa_offset: 48
  DW_CFA_advance_loc: 1 to 0000000000428e6a
  DW_CFA_def_cfa_offset: 40
  DW_CFA_advance_loc: 2 to 0000000000428e6c
  DW_CFA_def_cfa_offset: 32
  DW_CFA_advance_loc: 2 to 0000000000428e6e
  DW_CFA_def_cfa_offset: 24
  DW_CFA_advance_loc: 2 to 0000000000428e70
  DW_CFA_def_cfa_offset: 16
  DW_CFA_advance_loc: 2 to 0000000000428e72
  DW_CFA_def_cfa_offset: 8
  DW_CFA_advance_loc: 5 to 0000000000428e77
  DW_CFA_restore_state
  DW_CFA_advance_loc: 46 to 0000000000428ea5
  DW_CFA_remember_state
  DW_CFA_def_cfa_offset: 56
  DW_CFA_advance_loc: 8 to 0000000000428ead
  DW_CFA_def_cfa_offset: 48
  DW_CFA_advance_loc: 1 to 0000000000428eae
  DW_CFA_def_cfa_offset: 40
  DW_CFA_advance_loc: 2 to 0000000000428eb0
  DW_CFA_def_cfa_offset: 32
  DW_CFA_advance_loc: 2 to 0000000000428eb2
  DW_CFA_def_cfa_offset: 24
  DW_CFA_advance_loc: 2 to 0000000000428eb4
  DW_CFA_def_cfa_offset: 16
  DW_CFA_advance_loc: 2 to 0000000000428eb6
  DW_CFA_def_cfa_offset: 8
  DW_CFA_advance_loc: 5 to 0000000000428ebb
  DW_CFA_restore_state
  DW_CFA_advance_loc: 56 to 0000000000428ef3
  DW_CFA_remember_state
  DW_CFA_def_cfa_offset: 56
  DW_CFA_advance_loc: 8 to 0000000000428efb
  DW_CFA_def_cfa_offset: 48
  DW_CFA_advance_loc: 1 to 0000000000428efc
  DW_CFA_def_cfa_offset: 40
  DW_CFA_advance_loc: 2 to 0000000000428efe
  DW_CFA_def_cfa_offset: 32
  DW_CFA_advance_loc: 2 to 0000000000428f00
  DW_CFA_def_cfa_offset: 24
  DW_CFA_advance_loc: 2 to 0000000000428f02
  DW_CFA_def_cfa_offset: 16
  DW_CFA_advance_loc: 2 to 0000000000428f04
  DW_CFA_def_cfa_offset: 8
  DW_CFA_advance_loc: 5 to 0000000000428f09
  DW_CFA_restore_state
  DW_CFA_advance_loc: 46 to 0000000000428f37
  DW_CFA_remember_state
  DW_CFA_def_cfa_offset: 56
  DW_CFA_advance_loc: 8 to 0000000000428f3f
  DW_CFA_def_cfa_offset: 48
  DW_CFA_advance_loc: 1 to 0000000000428f40
  DW_CFA_def_cfa_offset: 40
  DW_CFA_advance_loc: 2 to 0000000000428f42
  DW_CFA_def_cfa_offset: 32
  DW_CFA_advance_loc: 2 to 0000000000428f44
  DW_CFA_def_cfa_offset: 24
  DW_CFA_advance_loc: 2 to 0000000000428f46
  DW_CFA_def_cfa_offset: 16
  DW_CFA_advance_loc: 2 to 0000000000428f48
  DW_CFA_def_cfa_offset: 8
  DW_CFA_advance_loc: 5 to 0000000000428f4d
  DW_CFA_restore_state
  DW_CFA_advance_loc: 56 to 0000000000428f85
  DW_CFA_remember_state
  DW_CFA_def_cfa_offset: 56
  DW_CFA_advance_loc: 8 to 0000000000428f8d
  DW_CFA_def_cfa_offset: 48
  DW_CFA_advance_loc: 1 to 0000000000428f8e
  DW_CFA_def_cfa_offset: 40
  DW_CFA_advance_loc: 2 to 0000000000428f90
  DW_CFA_def_cfa_offset: 32
  DW_CFA_advance_loc: 2 to 0000000000428f92
  DW_CFA_def_cfa_offset: 24
  DW_CFA_advance_loc: 2 to 0000000000428f94
  DW_CFA_def_cfa_offset: 16
  DW_CFA_advance_loc: 2 to 0000000000428f96
  DW_CFA_def_cfa_offset: 8
  DW_CFA_advance_loc: 5 to 0000000000428f9b
  DW_CFA_restore_state
  DW_CFA_advance_loc: 46 to 0000000000428fc9
  DW_CFA_remember_state
  DW_CFA_def_cfa_offset: 56
  DW_CFA_advance_loc: 8 to 0000000000428fd1
  DW_CFA_def_cfa_offset: 48
  DW_CFA_advance_loc: 1 to 0000000000428fd2
  DW_CFA_def_cfa_offset: 40
  DW_CFA_advance_loc: 2 to 0000000000428fd4
  DW_CFA_def_cfa_offset: 32
  DW_CFA_advance_loc: 2 to 0000000000428fd6
  DW_CFA_def_cfa_offset: 24
  DW_CFA_advance_loc: 2 to 0000000000428fd8
  DW_CFA_def_cfa_offset: 16
  DW_CFA_advance_loc: 2 to 0000000000428fda
  DW_CFA_def_cfa_offset: 8
  DW_CFA_advance_loc: 5 to 0000000000428fdf
  DW_CFA_restore_state
  DW_CFA_advance_loc: 56 to 0000000000429017
  DW_CFA_remember_state
  DW_CFA_def_cfa_offset: 56
  DW_CFA_advance_loc: 8 to 000000000042901f
  DW_CFA_def_cfa_offset: 48
  DW_CFA_advance_loc: 1 to 0000000000429020
  DW_CFA_def_cfa_offset: 40
  DW_CFA_advance_loc: 2 to 0000000000429022
  DW_CFA_def_cfa_offset: 32
  DW_CFA_advance_loc: 2 to 0000000000429024
  DW_CFA_def_cfa_offset: 24
  DW_CFA_advance_loc: 2 to 0000000000429026
  DW_CFA_def_cfa_offset: 16
  DW_CFA_advance_loc: 2 to 0000000000429028
  DW_CFA_def_cfa_offset: 8
  DW_CFA_advance_loc: 5 to 000000000042902d
  DW_CFA_restore_state
  DW_CFA_advance_loc: 46 to 000000000042905b
  DW_CFA_remember_state
  DW_CFA_def_cfa_offset: 56
  DW_CFA_advance_loc: 8 to 0000000000429063
  DW_CFA_def_cfa_offset: 48
  DW_CFA_advance_loc: 1 to 0000000000429064
  DW_CFA_def_cfa_offset: 40
  DW_CFA_advance_loc: 2 to 0000000000429066
  DW_CFA_def_cfa_offset: 32
  DW_CFA_advance_loc: 2 to 0000000000429068
  DW_CFA_def_cfa_offset: 24
  DW_CFA_advance_loc: 2 to 000000000042906a
  DW_CFA_def_cfa_offset: 16
  DW_CFA_advance_loc: 2 to 000000000042906c
  DW_CFA_def_cfa_offset: 8
  DW_CFA_advance_loc: 5 to 0000000000429071
  DW_CFA_restore_state
  DW_CFA_advance_loc: 56 to 00000000004290a9
  DW_CFA_remember_state
  DW_CFA_def_cfa_offset: 56
  DW_CFA_advance_loc: 8 to 00000000004290b1
  DW_CFA_def_cfa_offset: 48
  DW_CFA_advance_loc: 1 to 00000000004290b2
  DW_CFA_def_cfa_offset: 40
  DW_CFA_advance_loc: 2 to 00000000004290b4
  DW_CFA_def_cfa_offset: 32
  DW_CFA_advance_loc: 2 to 00000000004290b6
  DW_CFA_def_cfa_offset: 24
  DW_CFA_advance_loc: 2 to 00000000004290b8
  DW_CFA_def_cfa_offset: 16
  DW_CFA_advance_loc: 2 to 00000000004290ba
  DW_CFA_def_cfa_offset: 8
  DW_CFA_advance_loc: 5 to 00000000004290bf
  DW_CFA_restore_state
  DW_CFA_advance_loc: 46 to 00000000004290ed
  DW_CFA_remember_state
  DW_CFA_def_cfa_offset: 56
  DW_CFA_advance_loc: 8 to 00000000004290f5
  DW_CFA_def_cfa_offset: 48
  DW_CFA_advance_loc: 1 to 00000000004290f6
  DW_CFA_def_cfa_offset: 40
  DW_CFA_advance_loc: 2 to 00000000004290f8
  DW_CFA_def_cfa_offset: 32
  DW_CFA_advance_loc: 2 to 00000000004290fa
  DW_CFA_def_cfa_offset: 24
  DW_CFA_advance_loc: 2 to 00000000004290fc
  DW_CFA_def_cfa_offset: 16
  DW_CFA_advance_loc: 2 to 00000000004290fe
  DW_CFA_def_cfa_offset: 8
  DW_CFA_advance_loc: 5 to 0000000000429103
  DW_CFA_restore_state
  DW_CFA_advance_loc: 56 to 000000000042913b
  DW_CFA_remember_state
  DW_CFA_def_cfa_offset: 56
  DW_CFA_advance_loc: 8 to 0000000000429143
  DW_CFA_def_cfa_offset: 48
  DW_CFA_advance_loc: 1 to 0000000000429144
  DW_CFA_def_cfa_offset: 40
  DW_CFA_advance_loc: 2 to 0000000000429146
  DW_CFA_def_cfa_offset: 32
  DW_CFA_advance_loc: 2 to 0000000000429148
  DW_CFA_def_cfa_offset: 24
  DW_CFA_advance_loc: 2 to 000000000042914a
  DW_CFA_def_cfa_offset: 16
  DW_CFA_advance_loc: 2 to 000000000042914c
  DW_CFA_def_cfa_offset: 8
  DW_CFA_advance_loc: 5 to 0000000000429151
  DW_CFA_restore_state
  DW_CFA_advance_loc: 46 to 000000000042917f
  DW_CFA_remember_state
  DW_CFA_def_cfa_offset: 56
  DW_CFA_advance_loc: 8 to 0000000000429187
  DW_CFA_def_cfa_offset: 48
  DW_CFA_advance_loc: 1 to 0000000000429188
  DW_CFA_def_cfa_offset: 40
  DW_CFA_advance_loc: 2 to 000000000042918a
  DW_CFA_def_cfa_offset: 32
  DW_CFA_advance_loc: 2 to 000000000042918c
  DW_CFA_def_cfa_offset: 24
  DW_CFA_advance_loc: 2 to 000000000042918e
  DW_CFA_def_cfa_offset: 16
  DW_CFA_advance_loc: 2 to 0000000000429190
  DW_CFA_def_cfa_offset: 8
  DW_CFA_advance_loc: 5 to 0000000000429195
  DW_CFA_restore_state
  DW_CFA_advance_loc: 56 to 00000000004291cd
  DW_CFA_remember_state
  DW_CFA_def_cfa_offset: 56
  DW_CFA_advance_loc: 8 to 00000000004291d5
  DW_CFA_def_cfa_offset: 48
  DW_CFA_advance_loc: 1 to 00000000004291d6
  DW_CFA_def_cfa_offset: 40
  DW_CFA_advance_loc: 2 to 00000000004291d8
  DW_CFA_def_cfa_offset: 32
  DW_CFA_advance_loc: 2 to 00000000004291da
  DW_CFA_def_cfa_offset: 24
  DW_CFA_advance_loc: 2 to 00000000004291dc
  DW_CFA_def_cfa_offset: 16
  DW_CFA_advance_loc: 2 to 00000000004291de
  DW_CFA_def_cfa_offset: 8
  DW_CFA_advance_loc: 5 to 00000000004291e3
  DW_CFA_restore_state
  DW_CFA_advance_loc: 46 to 0000000000429211
  DW_CFA_remember_state
  DW_CFA_def_cfa_offset: 56
  DW_CFA_advance_loc: 8 to 0000000000429219
  DW_CFA_def_cfa_offset: 48
  DW_CFA_advance_loc: 1 to 000000000042921a
  DW_CFA_def_cfa_offset: 40
  DW_CFA_advance_loc: 2 to 000000000042921c
  DW_CFA_def_cfa_offset: 32
  DW_CFA_advance_loc: 2 to 000000000042921e
  DW_CFA_def_cfa_offset: 24
  DW_CFA_advance_loc: 2 to 0000000000429220
  DW_CFA_def_cfa_offset: 16
  DW_CFA_advance_loc: 2 to 0000000000429222
  DW_CFA_def_cfa_offset: 8
  DW_CFA_advance_loc: 5 to 0000000000429227
  DW_CFA_restore_state
  DW_CFA_advance_loc: 56 to 000000000042925f
  DW_CFA_remember_state
  DW_CFA_def_cfa_offset: 56
  DW_CFA_advance_loc: 8 to 0000000000429267
  DW_CFA_def_cfa_offset: 48
  DW_CFA_advance_loc: 1 to 0000000000429268
  DW_CFA_def_cfa_offset: 40
  DW_CFA_advance_loc: 2 to 000000000042926a
  DW_CFA_def_cfa_offset: 32
  DW_CFA_advance_loc: 2 to 000000000042926c
  DW_CFA_def_cfa_offset: 24
  DW_CFA_advance_loc: 2 to 000000000042926e
  DW_CFA_def_cfa_offset: 16
  DW_CFA_advance_loc: 2 to 0000000000429270
  DW_CFA_def_cfa_offset: 8
  DW_CFA_advance_loc: 5 to 0000000000429275
  DW_CFA_restore_state
  DW_CFA_advance_loc: 46 to 00000000004292a3
  DW_CFA_remember_state
  DW_CFA_def_cfa_offset: 56
  DW_CFA_advance_loc: 8 to 00000000004292ab
  DW_CFA_def_cfa_offset: 48
  DW_CFA_advance_loc: 1 to 00000000004292ac
  DW_CFA_def_cfa_offset: 40
  DW_CFA_advance_loc: 2 to 00000000004292ae
  DW_CFA_def_cfa_offset: 32
  DW_CFA_advance_loc: 2 to 00000000004292b0
  DW_CFA_def_cfa_offset: 24
  DW_CFA_advance_loc: 2 to 00000000004292b2
  DW_CFA_def_cfa_offset: 16
  DW_CFA_advance_loc: 2 to 00000000004292b4
  DW_CFA_def_cfa_offset: 8
  DW_CFA_advance_loc: 5 to 00000000004292b9
  DW_CFA_restore_state
  DW_CFA_advance_loc: 56 to 00000000004292f1
  DW_CFA_remember_state
  DW_CFA_def_cfa_offset: 56
  DW_CFA_advance_loc: 8 to 00000000004292f9
  DW_CFA_def_cfa_offset: 48
  DW_CFA_advance_loc: 1 to 00000000004292fa
  DW_CFA_def_cfa_offset: 40
  DW_CFA_advance_loc: 2 to 00000000004292fc
  DW_CFA_def_cfa_offset: 32
  DW_CFA_advance_loc: 2 to 00000000004292fe
  DW_CFA_def_cfa_offset: 24
  DW_CFA_advance_loc: 2 to 0000000000429300
  DW_CFA_def_cfa_offset: 16
  DW_CFA_advance_loc: 2 to 0000000000429302
  DW_CFA_def_cfa_offset: 8
  DW_CFA_advance_loc: 5 to 0000000000429307
  DW_CFA_restore_state
  DW_CFA_advance_loc: 46 to 0000000000429335
  DW_CFA_remember_state
  DW_CFA_def_cfa_offset: 56
  DW_CFA_advance_loc: 8 to 000000000042933d
  DW_CFA_def_cfa_offset: 48
  DW_CFA_advance_loc: 1 to 000000000042933e
  DW_CFA_def_cfa_offset: 40
  DW_CFA_advance_loc: 2 to 0000000000429340
  DW_CFA_def_cfa_offset: 32
  DW_CFA_advance_loc: 2 to 0000000000429342
  DW_CFA_def_cfa_offset: 24
  DW_CFA_advance_loc: 2 to 0000000000429344
  DW_CFA_def_cfa_offset: 16
  DW_CFA_advance_loc: 2 to 0000000000429346
  DW_CFA_def_cfa_offset: 8
  DW_CFA_advance_loc: 5 to 000000000042934b
  DW_CFA_restore_state
  DW_CFA_advance_loc: 56 to 0000000000429383
  DW_CFA_remember_state
  DW_CFA_def_cfa_offset: 56
  DW_CFA_advance_loc: 8 to 000000000042938b
  DW_CFA_def_cfa_offset: 48
  DW_CFA_advance_loc: 1 to 000000000042938c
  DW_CFA_def_cfa_offset: 40
  DW_CFA_advance_loc: 2 to 000000000042938e
  DW_CFA_def_cfa_offset: 32
  DW_CFA_advance_loc: 2 to 0000000000429390
  DW_CFA_def_cfa_offset: 24
  DW_CFA_advance_loc: 2 to 0000000000429392
  DW_CFA_def_cfa_offset: 16
  DW_CFA_advance_loc: 2 to 0000000000429394
  DW_CFA_def_cfa_offset: 8
  DW_CFA_advance_loc: 5 to 0000000000429399
  DW_CFA_restore_state
  DW_CFA_advance_loc: 46 to 00000000004293c7
  DW_CFA_remember_state
  DW_CFA_def_cfa_offset: 56
  DW_CFA_advance_loc: 8 to 00000000004293cf
  DW_CFA_def_cfa_offset: 48
  DW_CFA_advance_loc: 1 to 00000000004293d0
  DW_CFA_def_cfa_offset: 40
  DW_CFA_advance_loc: 2 to 00000000004293d2
  DW_CFA_def_cfa_offset: 32
  DW_CFA_advance_loc: 2 to 00000000004293d4
  DW_CFA_def_cfa_offset: 24
  DW_CFA_advance_loc: 2 to 00000000004293d6
  DW_CFA_def_cfa_offset: 16
  DW_CFA_advance_loc: 2 to 00000000004293d8
  DW_CFA_def_cfa_offset: 8
  DW_CFA_advance_loc: 5 to 00000000004293dd
  DW_CFA_restore_state
  DW_CFA_advance_loc: 56 to 0000000000429415
  DW_CFA_remember_state
  DW_CFA_def_cfa_offset: 56
  DW_CFA_advance_loc: 8 to 000000000042941d
  DW_CFA_def_cfa_offset: 48
  DW_CFA_advance_loc: 1 to 000000000042941e
  DW_CFA_def_cfa_offset: 40
  DW_CFA_advance_loc: 2 to 0000000000429420
  DW_CFA_def_cfa_offset: 32
  DW_CFA_advance_loc: 2 to 0000000000429422
  DW_CFA_def_cfa_offset: 24
  DW_CFA_advance_loc: 2 to 0000000000429424
  DW_CFA_def_cfa_offset: 16
  DW_CFA_advance_loc: 2 to 0000000000429426
  DW_CFA_def_cfa_offset: 8
  DW_CFA_advance_loc: 5 to 000000000042942b
  DW_CFA_restore_state
  DW_CFA_advance_loc: 46 to 0000000000429459
  DW_CFA_remember_state
  DW_CFA_def_cfa_offset: 56
  DW_CFA_advance_loc: 8 to 0000000000429461
  DW_CFA_def_cfa_offset: 48
  DW_CFA_advance_loc: 1 to 0000000000429462
  DW_CFA_def_cfa_offset: 40
  DW_CFA_advance_loc: 2 to 0000000000429464
  DW_CFA_def_cfa_offset: 32
  DW_CFA_advance_loc: 2 to 0000000000429466
  DW_CFA_def_cfa_offset: 24
  DW_CFA_advance_loc: 2 to 0000000000429468
  DW_CFA_def_cfa_offset: 16
  DW_CFA_advance_loc: 2 to 000000000042946a
  DW_CFA_def_cfa_offset: 8
  DW_CFA_advance_loc: 5 to 000000000042946f
  DW_CFA_restore_state
  DW_CFA_advance_loc: 56 to 00000000004294a7
  DW_CFA_remember_state
  DW_CFA_def_cfa_offset: 56
  DW_CFA_advance_loc: 8 to 00000000004294af
  DW_CFA_def_cfa_offset: 48
  DW_CFA_advance_loc: 1 to 00000000004294b0
  DW_CFA_def_cfa_offset: 40
  DW_CFA_advance_loc: 2 to 00000000004294b2
  DW_CFA_def_cfa_offset: 32
  DW_CFA_advance_loc: 2 to 00000000004294b4
  DW_CFA_def_cfa_offset: 24
  DW_CFA_advance_loc: 2 to 00000000004294b6
  DW_CFA_def_cfa_offset: 16
  DW_CFA_advance_loc: 2 to 00000000004294b8
  DW_CFA_def_cfa_offset: 8
  DW_CFA_advance_loc: 5 to 00000000004294bd
  DW_CFA_restore_state
  DW_CFA_advance_loc: 46 to 00000000004294eb
  DW_CFA_remember_state
  DW_CFA_def_cfa_offset: 56
  DW_CFA_advance_loc: 8 to 00000000004294f3
  DW_CFA_def_cfa_offset: 48
  DW_CFA_advance_loc: 1 to 00000000004294f4
  DW_CFA_def_cfa_offset: 40
  DW_CFA_advance_loc: 2 to 00000000004294f6
  DW_CFA_def_cfa_offset: 32
  DW_CFA_advance_loc: 2 to 00000000004294f8
  DW_CFA_def_cfa_offset: 24
  DW_CFA_advance_loc: 2 to 00000000004294fa
  DW_CFA_def_cfa_offset: 16
  DW_CFA_advance_loc: 2 to 00000000004294fc
  DW_CFA_def_cfa_offset: 8
  DW_CFA_advance_loc: 5 to 0000000000429501
  DW_CFA_restore_state
  DW_CFA_advance_loc: 56 to 0000000000429539
  DW_CFA_remember_state
  DW_CFA_def_cfa_offset: 56
  DW_CFA_advance_loc: 8 to 0000000000429541
  DW_CFA_def_cfa_offset: 48
  DW_CFA_advance_loc: 1 to 0000000000429542
  DW_CFA_def_cfa_offset: 40
  DW_CFA_advance_loc: 2 to 0000000000429544
  DW_CFA_def_cfa_offset: 32
  DW_CFA_advance_loc: 2 to 0000000000429546
  DW_CFA_def_cfa_offset: 24
  DW_CFA_advance_loc: 2 to 0000000000429548
  DW_CFA_def_cfa_offset: 16
  DW_CFA_advance_loc: 2 to 000000000042954a
  DW_CFA_def_cfa_offset: 8
  DW_CFA_advance_loc: 5 to 000000000042954f
  DW_CFA_restore_state
  DW_CFA_advance_loc: 46 to 000000000042957d
  DW_CFA_remember_state
  DW_CFA_def_cfa_offset: 56
  DW_CFA_advance_loc: 8 to 0000000000429585
  DW_CFA_def_cfa_offset: 48
  DW_CFA_advance_loc: 1 to 0000000000429586
  DW_CFA_def_cfa_offset: 40
  DW_CFA_advance_loc: 2 to 0000000000429588
  DW_CFA_def_cfa_offset: 32
  DW_CFA_advance_loc: 2 to 000000000042958a
  DW_CFA_def_cfa_offset: 24
  DW_CFA_advance_loc: 2 to 000000000042958c
  DW_CFA_def_cfa_offset: 16
  DW_CFA_advance_loc: 2 to 000000000042958e
  DW_CFA_def_cfa_offset: 8
  DW_CFA_advance_loc: 5 to 0000000000429593
  DW_CFA_restore_state
  DW_CFA_advance_loc: 56 to 00000000004295cb
  DW_CFA_remember_state
  DW_CFA_def_cfa_offset: 56
  DW_CFA_advance_loc: 8 to 00000000004295d3
  DW_CFA_def_cfa_offset: 48
  DW_CFA_advance_loc: 1 to 00000000004295d4
  DW_CFA_def_cfa_offset: 40
  DW_CFA_advance_loc: 2 to 00000000004295d6
  DW_CFA_def_cfa_offset: 32
  DW_CFA_advance_loc: 2 to 00000000004295d8
  DW_CFA_def_cfa_offset: 24
  DW_CFA_advance_loc: 2 to 00000000004295da
  DW_CFA_def_cfa_offset: 16
  DW_CFA_advance_loc: 2 to 00000000004295dc
  DW_CFA_def_cfa_offset: 8
  DW_CFA_advance_loc: 5 to 00000000004295e1
  DW_CFA_restore_state
  DW_CFA_advance_loc: 46 to 000000000042960f
  DW_CFA_remember_state
  DW_CFA_def_cfa_offset: 56
  DW_CFA_advance_loc: 8 to 0000000000429617
  DW_CFA_def_cfa_offset: 48
  DW_CFA_advance_loc: 1 to 0000000000429618
  DW_CFA_def_cfa_offset: 40
  DW_CFA_advance_loc: 2 to 000000000042961a
  DW_CFA_def_cfa_offset: 32
  DW_CFA_advance_loc: 2 to 000000000042961c
  DW_CFA_def_cfa_offset: 24
  DW_CFA_advance_loc: 2 to 000000000042961e
  DW_CFA_def_cfa_offset: 16
  DW_CFA_advance_loc: 2 to 0000000000429620
  DW_CFA_def_cfa_offset: 8
  DW_CFA_advance_loc: 5 to 0000000000429625
  DW_CFA_restore_state
  DW_CFA_advance_loc: 56 to 000000000042965d
  DW_CFA_remember_state
  DW_CFA_def_cfa_offset: 56
  DW_CFA_advance_loc: 8 to 0000000000429665
  DW_CFA_def_cfa_offset: 48
  DW_CFA_advance_loc: 1 to 0000000000429666
  DW_CFA_def_cfa_offset: 40
  DW_CFA_advance_loc: 2 to 0000000000429668
  DW_CFA_def_cfa_offset: 32
  DW_CFA_advance_loc: 2 to 000000000042966a
  DW_CFA_def_cfa_offset: 24
  DW_CFA_advance_loc: 2 to 000000000042966c
  DW_CFA_def_cfa_offset: 16
  DW_CFA_advance_loc: 2 to 000000000042966e
  DW_CFA_def_cfa_offset: 8
  DW_CFA_advance_loc: 5 to 0000000000429673
  DW_CFA_restore_state
  DW_CFA_advance_loc: 46 to 00000000004296a1
  DW_CFA_remember_state
  DW_CFA_def_cfa_offset: 56
  DW_CFA_advance_loc: 8 to 00000000004296a9
  DW_CFA_def_cfa_offset: 48
  DW_CFA_advance_loc: 1 to 00000000004296aa
  DW_CFA_def_cfa_offset: 40
  DW_CFA_advance_loc: 2 to 00000000004296ac
  DW_CFA_def_cfa_offset: 32
  DW_CFA_advance_loc: 2 to 00000000004296ae
  DW_CFA_def_cfa_offset: 24
  DW_CFA_advance_loc: 2 to 00000000004296b0
  DW_CFA_def_cfa_offset: 16
  DW_CFA_advance_loc: 2 to 00000000004296b2
  DW_CFA_def_cfa_offset: 8
  DW_CFA_advance_loc: 5 to 00000000004296b7
  DW_CFA_restore_state
  DW_CFA_advance_loc: 56 to 00000000004296ef
  DW_CFA_remember_state
  DW_CFA_def_cfa_offset: 56
  DW_CFA_advance_loc: 8 to 00000000004296f7
  DW_CFA_def_cfa_offset: 48
  DW_CFA_advance_loc: 1 to 00000000004296f8
  DW_CFA_def_cfa_offset: 40
  DW_CFA_advance_loc: 2 to 00000000004296fa
  DW_CFA_def_cfa_offset: 32
  DW_CFA_advance_loc: 2 to 00000000004296fc
  DW_CFA_def_cfa_offset: 24
  DW_CFA_advance_loc: 2 to 00000000004296fe
  DW_CFA_def_cfa_offset: 16
  DW_CFA_advance_loc: 2 to 0000000000429700
  DW_CFA_def_cfa_offset: 8
  DW_CFA_advance_loc: 5 to 0000000000429705
  DW_CFA_restore_state
  DW_CFA_advance_loc: 46 to 0000000000429733
  DW_CFA_remember_state
  DW_CFA_def_cfa_offset: 56
  DW_CFA_advance_loc: 8 to 000000000042973b
  DW_CFA_def_cfa_offset: 48
  DW_CFA_advance_loc: 1 to 000000000042973c
  DW_CFA_def_cfa_offset: 40
  DW_CFA_advance_loc: 2 to 000000000042973e
  DW_CFA_def_cfa_offset: 32
  DW_CFA_advance_loc: 2 to 0000000000429740
  DW_CFA_def_cfa_offset: 24
  DW_CFA_advance_loc: 2 to 0000000000429742
  DW_CFA_def_cfa_offset: 16
  DW_CFA_advance_loc: 2 to 0000000000429744
  DW_CFA_def_cfa_offset: 8
  DW_CFA_advance_loc: 5 to 0000000000429749
  DW_CFA_restore_state
  DW_CFA_advance_loc: 56 to 0000000000429781
  DW_CFA_remember_state
  DW_CFA_def_cfa_offset: 56
  DW_CFA_advance_loc: 8 to 0000000000429789
  DW_CFA_def_cfa_offset: 48
  DW_CFA_advance_loc: 1 to 000000000042978a
  DW_CFA_def_cfa_offset: 40
  DW_CFA_advance_loc: 2 to 000000000042978c
  DW_CFA_def_cfa_offset: 32
  DW_CFA_advance_loc: 2 to 000000000042978e
  DW_CFA_def_cfa_offset: 24
  DW_CFA_advance_loc: 2 to 0000000000429790
  DW_CFA_def_cfa_offset: 16
  DW_CFA_advance_loc: 2 to 0000000000429792
  DW_CFA_def_cfa_offset: 8
  DW_CFA_advance_loc: 5 to 0000000000429797
  DW_CFA_restore_state
  DW_CFA_advance_loc: 46 to 00000000004297c5
  DW_CFA_remember_state
  DW_CFA_def_cfa_offset: 56
  DW_CFA_advance_loc: 8 to 00000000004297cd
  DW_CFA_def_cfa_offset: 48
  DW_CFA_advance_loc: 1 to 00000000004297ce
  DW_CFA_def_cfa_offset: 40
  DW_CFA_advance_loc: 2 to 00000000004297d0
  DW_CFA_def_cfa_offset: 32
  DW_CFA_advance_loc: 2 to 00000000004297d2
  DW_CFA_def_cfa_offset: 24
  DW_CFA_advance_loc: 2 to 00000000004297d4
  DW_CFA_def_cfa_offset: 16
  DW_CFA_advance_loc: 2 to 00000000004297d6
  DW_CFA_def_cfa_offset: 8
  DW_CFA_advance_loc: 5 to 00000000004297db
  DW_CFA_restore_state
  DW_CFA_advance_loc: 56 to 0000000000429813
  DW_CFA_remember_state
  DW_CFA_def_cfa_offset: 56
  DW_CFA_advance_loc: 8 to 000000000042981b
  DW_CFA_def_cfa_offset: 48
  DW_CFA_advance_loc: 1 to 000000000042981c
  DW_CFA_def_cfa_offset: 40
  DW_CFA_advance_loc: 2 to 000000000042981e
  DW_CFA_def_cfa_offset: 32
  DW_CFA_advance_loc: 2 to 0000000000429820
  DW_CFA_def_cfa_offset: 24
  DW_CFA_advance_loc: 2 to 0000000000429822
  DW_CFA_def_cfa_offset: 16
  DW_CFA_advance_loc: 2 to 0000000000429824
  DW_CFA_def_cfa_offset: 8
  DW_CFA_advance_loc: 5 to 0000000000429829
  DW_CFA_restore_state
  DW_CFA_advance_loc: 46 to 0000000000429857
  DW_CFA_remember_state
  DW_CFA_def_cfa_offset: 56
  DW_CFA_advance_loc: 8 to 000000000042985f
  DW_CFA_def_cfa_offset: 48
  DW_CFA_advance_loc: 1 to 0000000000429860
  DW_CFA_def_cfa_offset: 40
  DW_CFA_advance_loc: 2 to 0000000000429862
  DW_CFA_def_cfa_offset: 32
  DW_CFA_advance_loc: 2 to 0000000000429864
  DW_CFA_def_cfa_offset: 24
  DW_CFA_advance_loc: 2 to 0000000000429866
  DW_CFA_def_cfa_offset: 16
  DW_CFA_advance_loc: 2 to 0000000000429868
  DW_CFA_def_cfa_offset: 8
  DW_CFA_advance_loc: 5 to 000000000042986d
  DW_CFA_restore_state
  DW_CFA_advance_loc: 56 to 00000000004298a5
  DW_CFA_remember_state
  DW_CFA_def_cfa_offset: 56
  DW_CFA_advance_loc: 8 to 00000000004298ad
  DW_CFA_def_cfa_offset: 48
  DW_CFA_advance_loc: 1 to 00000000004298ae
  DW_CFA_def_cfa_offset: 40
  DW_CFA_advance_loc: 2 to 00000000004298b0
  DW_CFA_def_cfa_offset: 32
  DW_CFA_advance_loc: 2 to 00000000004298b2
  DW_CFA_def_cfa_offset: 24
  DW_CFA_advance_loc: 2 to 00000000004298b4
  DW_CFA_def_cfa_offset: 16
  DW_CFA_advance_loc: 2 to 00000000004298b6
  DW_CFA_def_cfa_offset: 8
  DW_CFA_advance_loc: 5 to 00000000004298bb
  DW_CFA_restore_state
  DW_CFA_advance_loc: 46 to 00000000004298e9
  DW_CFA_remember_state
  DW_CFA_def_cfa_offset: 56
  DW_CFA_advance_loc: 8 to 00000000004298f1
