  449634:	7a 31                	jp     449667 <MEMORY_T::POKE64(double, double)+0x3fe57>
  449636:	75 2f                	jne    449667 <MEMORY_T::POKE64(double, double)+0x3fe57>
;   mov(mem64(49457),mem64(49456) shl 24 add &HFFCCFF)
  449638:	48 8b 44 24 10       	mov    rax,QWORD PTR [rsp+0x10]
  44963d:	f2 0f 10 80 80 09 06 	movsd  xmm0,QWORD PTR [rax+0x60980]
  449644:	00 
  449645:	e8 06 bd fb ff       	call   405350 <nearbyint@plt>
  44964a:	f2 48 0f 2c c0       	cvttsd2si rax,xmm0
  44964f:	66 0f ef c0          	pxor   xmm0,xmm0
  449653:	48 c1 e0 18          	shl    rax,0x18
  449657:	48 05 ff cc ff 00    	add    rax,0xffccff
  44965d:	f2 48 0f 2a c0       	cvtsi2sd xmm0,rax
;   jmp L1826
  449662:	e9 60 21 fc ff       	jmp    40b7c7 <MEMORY_T::POKE64(double, double)+0x1fb7>
;   cmp v eq peek(ubyte,@nibbles(&B1101)) shl peek(ubyte,@nibbles(&B0100)) jmp L1778
  449667:	4c 89 da             	mov    rdx,r11
  44966a:	66 0f ef c0          	pxor   xmm0,xmm0
  44966e:	48 d3 e2             	shl    rdx,cl
  449671:	f2 48 0f 2a c2       	cvtsi2sd xmm0,rdx
  449676:	66 0f 2e 44 24 18    	ucomisd xmm0,QWORD PTR [rsp+0x18]
  44967c:	7a 31                	jp     4496af <MEMORY_T::POKE64(double, double)+0x3fe9f>
  44967e:	75 2f                	jne    4496af <MEMORY_T::POKE64(double, double)+0x3fe9f>
;   mov(mem64(49457),mem64(49456) shl 24 add &HFFFF00)
  449680:	48 8b 44 24 10       	mov    rax,QWORD PTR [rsp+0x10]
  449685:	f2 0f 10 80 80 09 06 	movsd  xmm0,QWORD PTR [rax+0x60980]
  44968c:	00 
  44968d:	e8 be bc fb ff       	call   405350 <nearbyint@plt>
  449692:	f2 48 0f 2c c0       	cvttsd2si rax,xmm0
  449697:	66 0f ef c0          	pxor   xmm0,xmm0
  44969b:	48 c1 e0 18          	shl    rax,0x18
  44969f:	48 05 00 ff ff 00    	add    rax,0xffff00
  4496a5:	f2 48 0f 2a c0       	cvtsi2sd xmm0,rax
;   jmp L1826
  4496aa:	e9 18 21 fc ff       	jmp    40b7c7 <MEMORY_T::POKE64(double, double)+0x1fb7>
;   cmp v eq peek(ubyte,@nibbles(&B1101)) shl peek(ubyte,@nibbles(&B0100)) add peek(ubyte,@nibbles(&B0001)) jmp L1779
  4496af:	48 8d 04 16          	lea    rax,[rsi+rdx*1]
  4496b3:	66 0f ef c0          	pxor   xmm0,xmm0
  4496b7:	f2 48 0f 2a c0       	cvtsi2sd xmm0,rax
  4496bc:	66 0f 2e 44 24 18    	ucomisd xmm0,QWORD PTR [rsp+0x18]
  4496c2:	7a 31                	jp     4496f5 <MEMORY_T::POKE64(double, double)+0x3fee5>
  4496c4:	75 2f                	jne    4496f5 <MEMORY_T::POKE64(double, double)+0x3fee5>
;   mov(mem64(49457),mem64(49456) shl 24 add &HFFFF33)
  4496c6:	48 8b 44 24 10       	mov    rax,QWORD PTR [rsp+0x10]
  4496cb:	f2 0f 10 80 80 09 06 	movsd  xmm0,QWORD PTR [rax+0x60980]
  4496d2:	00 
  4496d3:	e8 78 bc fb ff       	call   405350 <nearbyint@plt>
  4496d8:	f2 48 0f 2c c0       	cvttsd2si rax,xmm0
  4496dd:	66 0f ef c0          	pxor   xmm0,xmm0
  4496e1:	48 c1 e0 18          	shl    rax,0x18
  4496e5:	48 05 33 ff ff 00    	add    rax,0xffff33
  4496eb:	f2 48 0f 2a c0       	cvtsi2sd xmm0,rax
;   jmp L1826
  4496f0:	e9 d2 20 fc ff       	jmp    40b7c7 <MEMORY_T::POKE64(double, double)+0x1fb7>
;   cmp v eq peek(ubyte,@nibbles(&B1101)) shl peek(ubyte,@nibbles(&B0100)) add peek(ubyte,@nibbles(&B0010)) jmp L1780
  4496f5:	48 8d 04 17          	lea    rax,[rdi+rdx*1]
  4496f9:	66 0f ef c0          	pxor   xmm0,xmm0
  4496fd:	f2 48 0f 2a c0       	cvtsi2sd xmm0,rax
  449702:	66 0f 2e 44 24 18    	ucomisd xmm0,QWORD PTR [rsp+0x18]
  449708:	7a 31                	jp     44973b <MEMORY_T::POKE64(double, double)+0x3ff2b>
  44970a:	75 2f                	jne    44973b <MEMORY_T::POKE64(double, double)+0x3ff2b>
;   mov(mem64(49457),mem64(49456) shl 24 add &HFFFF66)
  44970c:	48 8b 44 24 10       	mov    rax,QWORD PTR [rsp+0x10]
  449711:	f2 0f 10 80 80 09 06 	movsd  xmm0,QWORD PTR [rax+0x60980]
  449718:	00 
  449719:	e8 32 bc fb ff       	call   405350 <nearbyint@plt>
  44971e:	f2 48 0f 2c c0       	cvttsd2si rax,xmm0
  449723:	66 0f ef c0          	pxor   xmm0,xmm0
  449727:	48 c1 e0 18          	shl    rax,0x18
  44972b:	48 05 66 ff ff 00    	add    rax,0xffff66
  449731:	f2 48 0f 2a c0       	cvtsi2sd xmm0,rax
;   jmp L1826
  449736:	e9 8c 20 fc ff       	jmp    40b7c7 <MEMORY_T::POKE64(double, double)+0x1fb7>
;   cmp v eq peek(ubyte,@nibbles(&B1101)) shl peek(ubyte,@nibbles(&B0100)) add peek(ubyte,@nibbles(&B0011)) jmp L1781
  44973b:	49 8d 04 10          	lea    rax,[r8+rdx*1]
  44973f:	66 0f ef c0          	pxor   xmm0,xmm0
  449743:	f2 48 0f 2a c0       	cvtsi2sd xmm0,rax
  449748:	66 0f 2e 44 24 18    	ucomisd xmm0,QWORD PTR [rsp+0x18]
  44974e:	7a 31                	jp     449781 <MEMORY_T::POKE64(double, double)+0x3ff71>
  449750:	75 2f                	jne    449781 <MEMORY_T::POKE64(double, double)+0x3ff71>
;   mov(mem64(49457),mem64(49456) shl 24 add &HFFFF99)
  449752:	48 8b 44 24 10       	mov    rax,QWORD PTR [rsp+0x10]
  449757:	f2 0f 10 80 80 09 06 	movsd  xmm0,QWORD PTR [rax+0x60980]
  44975e:	00 
  44975f:	e8 ec bb fb ff       	call   405350 <nearbyint@plt>
  449764:	f2 48 0f 2c c0       	cvttsd2si rax,xmm0
  449769:	66 0f ef c0          	pxor   xmm0,xmm0
  44976d:	48 c1 e0 18          	shl    rax,0x18
  449771:	48 05 99 ff ff 00    	add    rax,0xffff99
  449777:	f2 48 0f 2a c0       	cvtsi2sd xmm0,rax
;   jmp L1826
  44977c:	e9 46 20 fc ff       	jmp    40b7c7 <MEMORY_T::POKE64(double, double)+0x1fb7>
;   cmp v eq peek(ubyte,@nibbles(&B1101)) shl peek(ubyte,@nibbles(&B0100)) add peek(ubyte,@nibbles(&B0100)) jmp L1782
  449781:	48 8b 44 24 20       	mov    rax,QWORD PTR [rsp+0x20]
  449786:	66 0f ef c0          	pxor   xmm0,xmm0
  44978a:	48 01 d0             	add    rax,rdx
  44978d:	f2 48 0f 2a c0       	cvtsi2sd xmm0,rax
  449792:	66 0f 2e 44 24 18    	ucomisd xmm0,QWORD PTR [rsp+0x18]
  449798:	7a 31                	jp     4497cb <MEMORY_T::POKE64(double, double)+0x3ffbb>
  44979a:	75 2f                	jne    4497cb <MEMORY_T::POKE64(double, double)+0x3ffbb>
;   mov(mem64(49457),mem64(49456) shl 24 add &HFFFFCC)
  44979c:	48 8b 44 24 10       	mov    rax,QWORD PTR [rsp+0x10]
  4497a1:	f2 0f 10 80 80 09 06 	movsd  xmm0,QWORD PTR [rax+0x60980]
  4497a8:	00 
  4497a9:	e8 a2 bb fb ff       	call   405350 <nearbyint@plt>
  4497ae:	f2 48 0f 2c c0       	cvttsd2si rax,xmm0
  4497b3:	66 0f ef c0          	pxor   xmm0,xmm0
  4497b7:	48 c1 e0 18          	shl    rax,0x18
  4497bb:	48 05 cc ff ff 00    	add    rax,0xffffcc
  4497c1:	f2 48 0f 2a c0       	cvtsi2sd xmm0,rax
;   jmp L1826
  4497c6:	e9 fc 1f fc ff       	jmp    40b7c7 <MEMORY_T::POKE64(double, double)+0x1fb7>
;   cmp v eq peek(ubyte,@nibbles(&B1101)) shl peek(ubyte,@nibbles(&B0100)) add peek(ubyte,@nibbles(&B0101)) jmp L1783
  4497cb:	48 8b 44 24 60       	mov    rax,QWORD PTR [rsp+0x60]
  4497d0:	66 0f ef c0          	pxor   xmm0,xmm0
  4497d4:	48 01 d0             	add    rax,rdx
  4497d7:	f2 48 0f 2a c0       	cvtsi2sd xmm0,rax
  4497dc:	66 0f 2e 44 24 18    	ucomisd xmm0,QWORD PTR [rsp+0x18]
  4497e2:	7a 31                	jp     449815 <MEMORY_T::POKE64(double, double)+0x40005>
  4497e4:	75 2f                	jne    449815 <MEMORY_T::POKE64(double, double)+0x40005>
;   mov(mem64(49457),mem64(49456) shl 24 add &HFFFFFF)
  4497e6:	48 8b 44 24 10       	mov    rax,QWORD PTR [rsp+0x10]
  4497eb:	f2 0f 10 80 80 09 06 	movsd  xmm0,QWORD PTR [rax+0x60980]
  4497f2:	00 
  4497f3:	e8 58 bb fb ff       	call   405350 <nearbyint@plt>
  4497f8:	f2 48 0f 2c c0       	cvttsd2si rax,xmm0
  4497fd:	66 0f ef c0          	pxor   xmm0,xmm0
  449801:	48 c1 e0 18          	shl    rax,0x18
  449805:	48 05 ff ff ff 00    	add    rax,0xffffff
  44980b:	f2 48 0f 2a c0       	cvtsi2sd xmm0,rax
;   jmp L1826
  449810:	e9 b2 1f fc ff       	jmp    40b7c7 <MEMORY_T::POKE64(double, double)+0x1fb7>
;   cmp v eq peek(ubyte,@nibbles(&B1101)) shl peek(ubyte,@nibbles(&B0100)) add peek(ubyte,@nibbles(&B0110)) jmp L1784
  449815:	48 8b 44 24 30       	mov    rax,QWORD PTR [rsp+0x30]
  44981a:	66 0f ef c0          	pxor   xmm0,xmm0
  44981e:	48 01 d0             	add    rax,rdx
  449821:	f2 48 0f 2a c0       	cvtsi2sd xmm0,rax
  449826:	66 0f 2e 44 24 18    	ucomisd xmm0,QWORD PTR [rsp+0x18]
  44982c:	7a 31                	jp     44985f <MEMORY_T::POKE64(double, double)+0x4004f>
  44982e:	75 2f                	jne    44985f <MEMORY_T::POKE64(double, double)+0x4004f>
;   mov(mem64(49457),mem64(49456) shl 24 add &HE0E0E0)
  449830:	48 8b 44 24 10       	mov    rax,QWORD PTR [rsp+0x10]
  449835:	f2 0f 10 80 80 09 06 	movsd  xmm0,QWORD PTR [rax+0x60980]
  44983c:	00 
  44983d:	e8 0e bb fb ff       	call   405350 <nearbyint@plt>
  449842:	f2 48 0f 2c c0       	cvttsd2si rax,xmm0
  449847:	66 0f ef c0          	pxor   xmm0,xmm0
  44984b:	48 c1 e0 18          	shl    rax,0x18
  44984f:	48 05 e0 e0 e0 00    	add    rax,0xe0e0e0
  449855:	f2 48 0f 2a c0       	cvtsi2sd xmm0,rax
;   jmp L1826
  44985a:	e9 68 1f fc ff       	jmp    40b7c7 <MEMORY_T::POKE64(double, double)+0x1fb7>
;   cmp v eq peek(ubyte,@nibbles(&B1101)) shl peek(ubyte,@nibbles(&B0100)) add peek(ubyte,@nibbles(&B0111)) jmp L1785
  44985f:	49 8d 04 17          	lea    rax,[r15+rdx*1]
  449863:	66 0f ef c0          	pxor   xmm0,xmm0
  449867:	f2 48 0f 2a c0       	cvtsi2sd xmm0,rax
  44986c:	66 0f 2e 44 24 18    	ucomisd xmm0,QWORD PTR [rsp+0x18]
  449872:	7a 31                	jp     4498a5 <MEMORY_T::POKE64(double, double)+0x40095>
  449874:	75 2f                	jne    4498a5 <MEMORY_T::POKE64(double, double)+0x40095>
;   mov(mem64(49457),mem64(49456) shl 24 add &HC1C1C1)
  449876:	48 8b 44 24 10       	mov    rax,QWORD PTR [rsp+0x10]
  44987b:	f2 0f 10 80 80 09 06 	movsd  xmm0,QWORD PTR [rax+0x60980]
  449882:	00 
  449883:	e8 c8 ba fb ff       	call   405350 <nearbyint@plt>
  449888:	f2 48 0f 2c c0       	cvttsd2si rax,xmm0
  44988d:	66 0f ef c0          	pxor   xmm0,xmm0
  449891:	48 c1 e0 18          	shl    rax,0x18
  449895:	48 05 c1 c1 c1 00    	add    rax,0xc1c1c1
  44989b:	f2 48 0f 2a c0       	cvtsi2sd xmm0,rax
;   jmp L1826
  4498a0:	e9 22 1f fc ff       	jmp    40b7c7 <MEMORY_T::POKE64(double, double)+0x1fb7>
;   cmp v eq peek(ubyte,@nibbles(&B1101)) shl peek(ubyte,@nibbles(&B0100)) add peek(ubyte,@nibbles(&B1000)) jmp L1786
  4498a5:	49 8d 04 16          	lea    rax,[r14+rdx*1]
  4498a9:	66 0f ef c0          	pxor   xmm0,xmm0
  4498ad:	f2 48 0f 2a c0       	cvtsi2sd xmm0,rax
  4498b2:	66 0f 2e 44 24 18    	ucomisd xmm0,QWORD PTR [rsp+0x18]
  4498b8:	7a 31                	jp     4498eb <MEMORY_T::POKE64(double, double)+0x400db>
  4498ba:	75 2f                	jne    4498eb <MEMORY_T::POKE64(double, double)+0x400db>
;   mov(mem64(49457),mem64(49456) shl 24 add &HA2A2A2)
  4498bc:	48 8b 44 24 10       	mov    rax,QWORD PTR [rsp+0x10]
  4498c1:	f2 0f 10 80 80 09 06 	movsd  xmm0,QWORD PTR [rax+0x60980]
  4498c8:	00 
  4498c9:	e8 82 ba fb ff       	call   405350 <nearbyint@plt>
  4498ce:	f2 48 0f 2c c0       	cvttsd2si rax,xmm0
  4498d3:	66 0f ef c0          	pxor   xmm0,xmm0
  4498d7:	48 c1 e0 18          	shl    rax,0x18
  4498db:	48 05 a2 a2 a2 00    	add    rax,0xa2a2a2
  4498e1:	f2 48 0f 2a c0       	cvtsi2sd xmm0,rax
;   jmp L1826
  4498e6:	e9 dc 1e fc ff       	jmp    40b7c7 <MEMORY_T::POKE64(double, double)+0x1fb7>
;   cmp v eq peek(ubyte,@nibbles(&B1101)) shl peek(ubyte,@nibbles(&B0100)) add peek(ubyte,@nibbles(&B1001)) jmp L1787
  4498eb:	49 8d 44 15 00       	lea    rax,[r13+rdx*1+0x0]
  4498f0:	66 0f ef c0          	pxor   xmm0,xmm0
  4498f4:	f2 48 0f 2a c0       	cvtsi2sd xmm0,rax
  4498f9:	66 0f 2e 44 24 18    	ucomisd xmm0,QWORD PTR [rsp+0x18]
  4498ff:	7a 31                	jp     449932 <MEMORY_T::POKE64(double, double)+0x40122>
  449901:	75 2f                	jne    449932 <MEMORY_T::POKE64(double, double)+0x40122>
;   mov(mem64(49457),mem64(49456) shl 24 add &H838383)
  449903:	48 8b 44 24 10       	mov    rax,QWORD PTR [rsp+0x10]
  449908:	f2 0f 10 80 80 09 06 	movsd  xmm0,QWORD PTR [rax+0x60980]
  44990f:	00 
  449910:	e8 3b ba fb ff       	call   405350 <nearbyint@plt>
  449915:	f2 48 0f 2c c0       	cvttsd2si rax,xmm0
  44991a:	66 0f ef c0          	pxor   xmm0,xmm0
  44991e:	48 c1 e0 18          	shl    rax,0x18
  449922:	48 05 83 83 83 00    	add    rax,0x838383
  449928:	f2 48 0f 2a c0       	cvtsi2sd xmm0,rax
;   jmp L1826
  44992d:	e9 95 1e fc ff       	jmp    40b7c7 <MEMORY_T::POKE64(double, double)+0x1fb7>
;   cmp v eq peek(ubyte,@nibbles(&B1101)) shl peek(ubyte,@nibbles(&B0100)) add peek(ubyte,@nibbles(&B1010)) jmp L1788
  449932:	49 8d 04 14          	lea    rax,[r12+rdx*1]
  449936:	66 0f ef c0          	pxor   xmm0,xmm0
  44993a:	f2 48 0f 2a c0       	cvtsi2sd xmm0,rax
  44993f:	66 0f 2e 44 24 18    	ucomisd xmm0,QWORD PTR [rsp+0x18]
  449945:	7a 31                	jp     449978 <MEMORY_T::POKE64(double, double)+0x40168>
  449947:	75 2f                	jne    449978 <MEMORY_T::POKE64(double, double)+0x40168>
;   mov(mem64(49457),mem64(49456) shl 24 add &H646464)
  449949:	48 8b 44 24 10       	mov    rax,QWORD PTR [rsp+0x10]
  44994e:	f2 0f 10 80 80 09 06 	movsd  xmm0,QWORD PTR [rax+0x60980]
  449955:	00 
  449956:	e8 f5 b9 fb ff       	call   405350 <nearbyint@plt>
  44995b:	f2 48 0f 2c c0       	cvttsd2si rax,xmm0
  449960:	66 0f ef c0          	pxor   xmm0,xmm0
  449964:	48 c1 e0 18          	shl    rax,0x18
  449968:	48 05 64 64 64 00    	add    rax,0x646464
  44996e:	f2 48 0f 2a c0       	cvtsi2sd xmm0,rax
;   jmp L1826
  449973:	e9 4f 1e fc ff       	jmp    40b7c7 <MEMORY_T::POKE64(double, double)+0x1fb7>
;   cmp v eq peek(ubyte,@nibbles(&B1101)) shl peek(ubyte,@nibbles(&B0100)) add peek(ubyte,@nibbles(&B1011)) jmp L1789
  449978:	48 8d 44 15 00       	lea    rax,[rbp+rdx*1+0x0]
  44997d:	66 0f ef c0          	pxor   xmm0,xmm0
  449981:	f2 48 0f 2a c0       	cvtsi2sd xmm0,rax
  449986:	66 0f 2e 44 24 18    	ucomisd xmm0,QWORD PTR [rsp+0x18]
  44998c:	7a 31                	jp     4499bf <MEMORY_T::POKE64(double, double)+0x401af>
  44998e:	75 2f                	jne    4499bf <MEMORY_T::POKE64(double, double)+0x401af>
;   mov(mem64(49457),mem64(49456) shl 24 add &H454545)
  449990:	48 8b 44 24 10       	mov    rax,QWORD PTR [rsp+0x10]
  449995:	f2 0f 10 80 80 09 06 	movsd  xmm0,QWORD PTR [rax+0x60980]
  44999c:	00 
  44999d:	e8 ae b9 fb ff       	call   405350 <nearbyint@plt>
  4499a2:	f2 48 0f 2c c0       	cvttsd2si rax,xmm0
  4499a7:	66 0f ef c0          	pxor   xmm0,xmm0
  4499ab:	48 c1 e0 18          	shl    rax,0x18
  4499af:	48 05 45 45 45 00    	add    rax,0x454545
  4499b5:	f2 48 0f 2a c0       	cvtsi2sd xmm0,rax
;   jmp L1826
  4499ba:	e9 08 1e fc ff       	jmp    40b7c7 <MEMORY_T::POKE64(double, double)+0x1fb7>
;   cmp v eq peek(ubyte,@nibbles(&B1101)) shl peek(ubyte,@nibbles(&B0100)) add peek(ubyte,@nibbles(&B1100)) jmp L1790
  4499bf:	48 8d 04 13          	lea    rax,[rbx+rdx*1]
  4499c3:	66 0f ef c0          	pxor   xmm0,xmm0
  4499c7:	f2 48 0f 2a c0       	cvtsi2sd xmm0,rax
  4499cc:	66 0f 2e 44 24 18    	ucomisd xmm0,QWORD PTR [rsp+0x18]
  4499d2:	7a 31                	jp     449a05 <MEMORY_T::POKE64(double, double)+0x401f5>
  4499d4:	75 2f                	jne    449a05 <MEMORY_T::POKE64(double, double)+0x401f5>
;   mov(mem64(49457),mem64(49456) shl 24 add &H464646)
  4499d6:	48 8b 44 24 10       	mov    rax,QWORD PTR [rsp+0x10]
  4499db:	f2 0f 10 80 80 09 06 	movsd  xmm0,QWORD PTR [rax+0x60980]
  4499e2:	00 
  4499e3:	e8 68 b9 fb ff       	call   405350 <nearbyint@plt>
  4499e8:	f2 48 0f 2c c0       	cvttsd2si rax,xmm0
  4499ed:	66 0f ef c0          	pxor   xmm0,xmm0
  4499f1:	48 c1 e0 18          	shl    rax,0x18
  4499f5:	48 05 46 46 46 00    	add    rax,0x464646
  4499fb:	f2 48 0f 2a c0       	cvtsi2sd xmm0,rax
;   jmp L1826
  449a00:	e9 c2 1d fc ff       	jmp    40b7c7 <MEMORY_T::POKE64(double, double)+0x1fb7>
;   cmp v eq peek(ubyte,@nibbles(&B1101)) shl peek(ubyte,@nibbles(&B0100)) add peek(ubyte,@nibbles(&B1101)) jmp L1791
  449a05:	49 8d 04 13          	lea    rax,[r11+rdx*1]
  449a09:	66 0f ef c0          	pxor   xmm0,xmm0
  449a0d:	f2 48 0f 2a c0       	cvtsi2sd xmm0,rax
  449a12:	66 0f 2e 44 24 18    	ucomisd xmm0,QWORD PTR [rsp+0x18]
  449a18:	7a 31                	jp     449a4b <MEMORY_T::POKE64(double, double)+0x4023b>
  449a1a:	75 2f                	jne    449a4b <MEMORY_T::POKE64(double, double)+0x4023b>
;   mov(mem64(49457),mem64(49456) shl 24 add &H070707)
  449a1c:	48 8b 44 24 10       	mov    rax,QWORD PTR [rsp+0x10]
  449a21:	f2 0f 10 80 80 09 06 	movsd  xmm0,QWORD PTR [rax+0x60980]
  449a28:	00 
  449a29:	e8 22 b9 fb ff       	call   405350 <nearbyint@plt>
  449a2e:	f2 48 0f 2c c0       	cvttsd2si rax,xmm0
  449a33:	66 0f ef c0          	pxor   xmm0,xmm0
  449a37:	48 c1 e0 18          	shl    rax,0x18
  449a3b:	48 05 07 07 07 00    	add    rax,0x70707
  449a41:	f2 48 0f 2a c0       	cvtsi2sd xmm0,rax
;   jmp L1826
  449a46:	e9 7c 1d fc ff       	jmp    40b7c7 <MEMORY_T::POKE64(double, double)+0x1fb7>
;   cmp v eq peek(ubyte,@nibbles(&B1101)) shl peek(ubyte,@nibbles(&B0100)) add peek(ubyte,@nibbles(&B1110)) jmp L1792
  449a4b:	49 8d 04 12          	lea    rax,[r10+rdx*1]
  449a4f:	66 0f ef c0          	pxor   xmm0,xmm0
  449a53:	f2 48 0f 2a c0       	cvtsi2sd xmm0,rax
  449a58:	66 0f 2e 44 24 18    	ucomisd xmm0,QWORD PTR [rsp+0x18]
  449a5e:	7a 31                	jp     449a91 <MEMORY_T::POKE64(double, double)+0x40281>
  449a60:	75 2f                	jne    449a91 <MEMORY_T::POKE64(double, double)+0x40281>
;   mov(mem64(49457),mem64(49456) shl 24 add &H330000)
  449a62:	48 8b 44 24 10       	mov    rax,QWORD PTR [rsp+0x10]
  449a67:	f2 0f 10 80 80 09 06 	movsd  xmm0,QWORD PTR [rax+0x60980]
  449a6e:	00 
  449a6f:	e8 dc b8 fb ff       	call   405350 <nearbyint@plt>
  449a74:	f2 48 0f 2c c0       	cvttsd2si rax,xmm0
  449a79:	66 0f ef c0          	pxor   xmm0,xmm0
  449a7d:	48 c1 e0 18          	shl    rax,0x18
  449a81:	48 05 00 00 33 00    	add    rax,0x330000
  449a87:	f2 48 0f 2a c0       	cvtsi2sd xmm0,rax
;   jmp L1826
  449a8c:	e9 36 1d fc ff       	jmp    40b7c7 <MEMORY_T::POKE64(double, double)+0x1fb7>
;   cmp v eq peek(ubyte,@nibbles(&B1101)) shl peek(ubyte,@nibbles(&B0100)) add peek(ubyte,@nibbles(&B1111)) jmp L1793
  449a91:	49 8d 04 11          	lea    rax,[r9+rdx*1]
  449a95:	66 0f ef c0          	pxor   xmm0,xmm0
  449a99:	f2 48 0f 2a c0       	cvtsi2sd xmm0,rax
  449a9e:	66 0f 2e 44 24 18    	ucomisd xmm0,QWORD PTR [rsp+0x18]
  449aa4:	7a 2b                	jp     449ad1 <MEMORY_T::POKE64(double, double)+0x402c1>
  449aa6:	75 29                	jne    449ad1 <MEMORY_T::POKE64(double, double)+0x402c1>
;   mov(mem64(49457),mem64(49456) shl 24 add &H000000)
  449aa8:	48 8b 44 24 10       	mov    rax,QWORD PTR [rsp+0x10]
  449aad:	f2 0f 10 80 80 09 06 	movsd  xmm0,QWORD PTR [rax+0x60980]
  449ab4:	00 
  449ab5:	e8 96 b8 fb ff       	call   405350 <nearbyint@plt>
  449aba:	f2 48 0f 2c c0       	cvttsd2si rax,xmm0
  449abf:	66 0f ef c0          	pxor   xmm0,xmm0
  449ac3:	48 c1 e0 18          	shl    rax,0x18
  449ac7:	f2 48 0f 2a c0       	cvtsi2sd xmm0,rax
;   jmp L1826
  449acc:	e9 f6 1c fc ff       	jmp    40b7c7 <MEMORY_T::POKE64(double, double)+0x1fb7>
;   cmp v eq peek(ubyte,@nibbles(&B1110)) shl peek(ubyte,@nibbles(&B0100)) jmp L1794
  449ad1:	4c 89 d2             	mov    rdx,r10
  449ad4:	66 0f ef c0          	pxor   xmm0,xmm0
  449ad8:	48 d3 e2             	shl    rdx,cl
  449adb:	f2 48 0f 2a c2       	cvtsi2sd xmm0,rdx
  449ae0:	66 0f 2e 44 24 18    	ucomisd xmm0,QWORD PTR [rsp+0x18]
  449ae6:	7a 31                	jp     449b19 <MEMORY_T::POKE64(double, double)+0x40309>
  449ae8:	75 2f                	jne    449b19 <MEMORY_T::POKE64(double, double)+0x40309>
;   mov(mem64(49457),mem64(49456) shl 24 add &H660000)
  449aea:	48 8b 44 24 10       	mov    rax,QWORD PTR [rsp+0x10]
  449aef:	f2 0f 10 80 80 09 06 	movsd  xmm0,QWORD PTR [rax+0x60980]
  449af6:	00 
  449af7:	e8 54 b8 fb ff       	call   405350 <nearbyint@plt>
  449afc:	f2 48 0f 2c c0       	cvttsd2si rax,xmm0
  449b01:	66 0f ef c0          	pxor   xmm0,xmm0
  449b05:	48 c1 e0 18          	shl    rax,0x18
  449b09:	48 05 00 00 66 00    	add    rax,0x660000
  449b0f:	f2 48 0f 2a c0       	cvtsi2sd xmm0,rax
;   jmp L1826
  449b14:	e9 ae 1c fc ff       	jmp    40b7c7 <MEMORY_T::POKE64(double, double)+0x1fb7>
;   cmp v eq peek(ubyte,@nibbles(&B1110)) shl peek(ubyte,@nibbles(&B0100)) add peek(ubyte,@nibbles(&B0001)) jmp L1795
  449b19:	48 8d 04 16          	lea    rax,[rsi+rdx*1]
  449b1d:	66 0f ef c0          	pxor   xmm0,xmm0
  449b21:	f2 48 0f 2a c0       	cvtsi2sd xmm0,rax
  449b26:	66 0f 2e 44 24 18    	ucomisd xmm0,QWORD PTR [rsp+0x18]
  449b2c:	7a 31                	jp     449b5f <MEMORY_T::POKE64(double, double)+0x4034f>
  449b2e:	75 2f                	jne    449b5f <MEMORY_T::POKE64(double, double)+0x4034f>
;   mov(mem64(49457),mem64(49456) shl 24 add &H990000)
  449b30:	48 8b 44 24 10       	mov    rax,QWORD PTR [rsp+0x10]
  449b35:	f2 0f 10 80 80 09 06 	movsd  xmm0,QWORD PTR [rax+0x60980]
  449b3c:	00 
  449b3d:	e8 0e b8 fb ff       	call   405350 <nearbyint@plt>
  449b42:	f2 48 0f 2c c0       	cvttsd2si rax,xmm0
  449b47:	66 0f ef c0          	pxor   xmm0,xmm0
  449b4b:	48 c1 e0 18          	shl    rax,0x18
  449b4f:	48 05 00 00 99 00    	add    rax,0x990000
  449b55:	f2 48 0f 2a c0       	cvtsi2sd xmm0,rax
;   jmp L1826
  449b5a:	e9 68 1c fc ff       	jmp    40b7c7 <MEMORY_T::POKE64(double, double)+0x1fb7>
;   cmp v eq peek(ubyte,@nibbles(&B1110)) shl peek(ubyte,@nibbles(&B0100)) add peek(ubyte,@nibbles(&B0010)) jmp L1796
  449b5f:	48 8d 04 17          	lea    rax,[rdi+rdx*1]
  449b63:	66 0f ef c0          	pxor   xmm0,xmm0
  449b67:	f2 48 0f 2a c0       	cvtsi2sd xmm0,rax
  449b6c:	66 0f 2e 44 24 18    	ucomisd xmm0,QWORD PTR [rsp+0x18]
  449b72:	7a 31                	jp     449ba5 <MEMORY_T::POKE64(double, double)+0x40395>
  449b74:	75 2f                	jne    449ba5 <MEMORY_T::POKE64(double, double)+0x40395>
;   mov(mem64(49457),mem64(49456) shl 24 add &HCC0000)
  449b76:	48 8b 44 24 10       	mov    rax,QWORD PTR [rsp+0x10]
  449b7b:	f2 0f 10 80 80 09 06 	movsd  xmm0,QWORD PTR [rax+0x60980]
  449b82:	00 
  449b83:	e8 c8 b7 fb ff       	call   405350 <nearbyint@plt>
  449b88:	f2 48 0f 2c c0       	cvttsd2si rax,xmm0
  449b8d:	66 0f ef c0          	pxor   xmm0,xmm0
  449b91:	48 c1 e0 18          	shl    rax,0x18
  449b95:	48 05 00 00 cc 00    	add    rax,0xcc0000
  449b9b:	f2 48 0f 2a c0       	cvtsi2sd xmm0,rax
;   jmp L1826
  449ba0:	e9 22 1c fc ff       	jmp    40b7c7 <MEMORY_T::POKE64(double, double)+0x1fb7>
;   cmp v eq peek(ubyte,@nibbles(&B1110)) shl peek(ubyte,@nibbles(&B0100)) add peek(ubyte,@nibbles(&B0011)) jmp L1797
  449ba5:	49 8d 04 10          	lea    rax,[r8+rdx*1]
  449ba9:	66 0f ef c0          	pxor   xmm0,xmm0
  449bad:	f2 48 0f 2a c0       	cvtsi2sd xmm0,rax
  449bb2:	66 0f 2e 44 24 18    	ucomisd xmm0,QWORD PTR [rsp+0x18]
  449bb8:	7a 31                	jp     449beb <MEMORY_T::POKE64(double, double)+0x403db>
  449bba:	75 2f                	jne    449beb <MEMORY_T::POKE64(double, double)+0x403db>
;   mov(mem64(49457),mem64(49456) shl 24 add &HFF0000)
  449bbc:	48 8b 44 24 10       	mov    rax,QWORD PTR [rsp+0x10]
  449bc1:	f2 0f 10 80 80 09 06 	movsd  xmm0,QWORD PTR [rax+0x60980]
  449bc8:	00 
  449bc9:	e8 82 b7 fb ff       	call   405350 <nearbyint@plt>
  449bce:	f2 48 0f 2c c0       	cvttsd2si rax,xmm0
  449bd3:	66 0f ef c0          	pxor   xmm0,xmm0
  449bd7:	48 c1 e0 18          	shl    rax,0x18
  449bdb:	48 05 00 00 ff 00    	add    rax,0xff0000
  449be1:	f2 48 0f 2a c0       	cvtsi2sd xmm0,rax
;   jmp L1826
  449be6:	e9 dc 1b fc ff       	jmp    40b7c7 <MEMORY_T::POKE64(double, double)+0x1fb7>
;   cmp v eq peek(ubyte,@nibbles(&B1110)) shl peek(ubyte,@nibbles(&B0100)) add peek(ubyte,@nibbles(&B0100)) jmp L1798
  449beb:	48 8b 44 24 20       	mov    rax,QWORD PTR [rsp+0x20]
  449bf0:	66 0f ef c0          	pxor   xmm0,xmm0
  449bf4:	48 01 d0             	add    rax,rdx
  449bf7:	f2 48 0f 2a c0       	cvtsi2sd xmm0,rax
  449bfc:	66 0f 2e 44 24 18    	ucomisd xmm0,QWORD PTR [rsp+0x18]
  449c02:	7a 31                	jp     449c35 <MEMORY_T::POKE64(double, double)+0x40425>
  449c04:	75 2f                	jne    449c35 <MEMORY_T::POKE64(double, double)+0x40425>
;   mov(mem64(49457),mem64(49456) shl 24 add &HCC3300)
  449c06:	48 8b 44 24 10       	mov    rax,QWORD PTR [rsp+0x10]
  449c0b:	f2 0f 10 80 80 09 06 	movsd  xmm0,QWORD PTR [rax+0x60980]
  449c12:	00 
  449c13:	e8 38 b7 fb ff       	call   405350 <nearbyint@plt>
  449c18:	f2 48 0f 2c c0       	cvttsd2si rax,xmm0
  449c1d:	66 0f ef c0          	pxor   xmm0,xmm0
  449c21:	48 c1 e0 18          	shl    rax,0x18
  449c25:	48 05 00 33 cc 00    	add    rax,0xcc3300
  449c2b:	f2 48 0f 2a c0       	cvtsi2sd xmm0,rax
;   jmp L1826
  449c30:	e9 92 1b fc ff       	jmp    40b7c7 <MEMORY_T::POKE64(double, double)+0x1fb7>
;   cmp v eq peek(ubyte,@nibbles(&B1110)) shl peek(ubyte,@nibbles(&B0100)) add peek(ubyte,@nibbles(&B0101)) jmp L1799
  449c35:	48 8b 44 24 60       	mov    rax,QWORD PTR [rsp+0x60]
  449c3a:	66 0f ef c0          	pxor   xmm0,xmm0
  449c3e:	48 01 d0             	add    rax,rdx
  449c41:	f2 48 0f 2a c0       	cvtsi2sd xmm0,rax
  449c46:	66 0f 2e 44 24 18    	ucomisd xmm0,QWORD PTR [rsp+0x18]
  449c4c:	7a 31                	jp     449c7f <MEMORY_T::POKE64(double, double)+0x4046f>
  449c4e:	75 2f                	jne    449c7f <MEMORY_T::POKE64(double, double)+0x4046f>
;   mov(mem64(49457),mem64(49456) shl 24 add &H996600)
  449c50:	48 8b 44 24 10       	mov    rax,QWORD PTR [rsp+0x10]
  449c55:	f2 0f 10 80 80 09 06 	movsd  xmm0,QWORD PTR [rax+0x60980]
  449c5c:	00 
  449c5d:	e8 ee b6 fb ff       	call   405350 <nearbyint@plt>
  449c62:	f2 48 0f 2c c0       	cvttsd2si rax,xmm0
  449c67:	66 0f ef c0          	pxor   xmm0,xmm0
  449c6b:	48 c1 e0 18          	shl    rax,0x18
  449c6f:	48 05 00 66 99 00    	add    rax,0x996600
  449c75:	f2 48 0f 2a c0       	cvtsi2sd xmm0,rax
;   jmp L1826
  449c7a:	e9 48 1b fc ff       	jmp    40b7c7 <MEMORY_T::POKE64(double, double)+0x1fb7>
;   cmp v eq peek(ubyte,@nibbles(&B1110)) shl peek(ubyte,@nibbles(&B0100)) add peek(ubyte,@nibbles(&B0110)) jmp L1800
  449c7f:	48 8b 44 24 30       	mov    rax,QWORD PTR [rsp+0x30]
  449c84:	66 0f ef c0          	pxor   xmm0,xmm0
  449c88:	48 01 d0             	add    rax,rdx
  449c8b:	f2 48 0f 2a c0       	cvtsi2sd xmm0,rax
  449c90:	66 0f 2e 44 24 18    	ucomisd xmm0,QWORD PTR [rsp+0x18]
  449c96:	7a 31                	jp     449cc9 <MEMORY_T::POKE64(double, double)+0x404b9>
  449c98:	75 2f                	jne    449cc9 <MEMORY_T::POKE64(double, double)+0x404b9>
;   mov(mem64(49457),mem64(49456) shl 24 add &H669900)
  449c9a:	48 8b 44 24 10       	mov    rax,QWORD PTR [rsp+0x10]
  449c9f:	f2 0f 10 80 80 09 06 	movsd  xmm0,QWORD PTR [rax+0x60980]
  449ca6:	00 
  449ca7:	e8 a4 b6 fb ff       	call   405350 <nearbyint@plt>
  449cac:	f2 48 0f 2c c0       	cvttsd2si rax,xmm0
  449cb1:	66 0f ef c0          	pxor   xmm0,xmm0
  449cb5:	48 c1 e0 18          	shl    rax,0x18
  449cb9:	48 05 00 99 66 00    	add    rax,0x669900
  449cbf:	f2 48 0f 2a c0       	cvtsi2sd xmm0,rax
;   jmp L1826
  449cc4:	e9 fe 1a fc ff       	jmp    40b7c7 <MEMORY_T::POKE64(double, double)+0x1fb7>
;   cmp v eq peek(ubyte,@nibbles(&B1110)) shl peek(ubyte,@nibbles(&B0100)) add peek(ubyte,@nibbles(&B0111)) jmp L1801
  449cc9:	49 8d 04 17          	lea    rax,[r15+rdx*1]
  449ccd:	66 0f ef c0          	pxor   xmm0,xmm0
  449cd1:	f2 48 0f 2a c0       	cvtsi2sd xmm0,rax
  449cd6:	66 0f 2e 44 24 18    	ucomisd xmm0,QWORD PTR [rsp+0x18]
  449cdc:	7a 31                	jp     449d0f <MEMORY_T::POKE64(double, double)+0x404ff>
  449cde:	75 2f                	jne    449d0f <MEMORY_T::POKE64(double, double)+0x404ff>
;   mov(mem64(49457),mem64(49456) shl 24 add &H33CC00)
  449ce0:	48 8b 44 24 10       	mov    rax,QWORD PTR [rsp+0x10]
  449ce5:	f2 0f 10 80 80 09 06 	movsd  xmm0,QWORD PTR [rax+0x60980]
  449cec:	00 
  449ced:	e8 5e b6 fb ff       	call   405350 <nearbyint@plt>
  449cf2:	f2 48 0f 2c c0       	cvttsd2si rax,xmm0
  449cf7:	66 0f ef c0          	pxor   xmm0,xmm0
  449cfb:	48 c1 e0 18          	shl    rax,0x18
  449cff:	48 05 00 cc 33 00    	add    rax,0x33cc00
  449d05:	f2 48 0f 2a c0       	cvtsi2sd xmm0,rax
;   jmp L1826
  449d0a:	e9 b8 1a fc ff       	jmp    40b7c7 <MEMORY_T::POKE64(double, double)+0x1fb7>
;   cmp v eq peek(ubyte,@nibbles(&B1110)) shl peek(ubyte,@nibbles(&B0100)) add peek(ubyte,@nibbles(&B1000)) jmp L1802
  449d0f:	49 8d 04 16          	lea    rax,[r14+rdx*1]
  449d13:	66 0f ef c0          	pxor   xmm0,xmm0
  449d17:	f2 48 0f 2a c0       	cvtsi2sd xmm0,rax
  449d1c:	66 0f 2e 44 24 18    	ucomisd xmm0,QWORD PTR [rsp+0x18]
  449d22:	7a 31                	jp     449d55 <MEMORY_T::POKE64(double, double)+0x40545>
  449d24:	75 2f                	jne    449d55 <MEMORY_T::POKE64(double, double)+0x40545>
;   mov(mem64(49457),mem64(49456) shl 24 add &H00FF00)
  449d26:	48 8b 44 24 10       	mov    rax,QWORD PTR [rsp+0x10]
  449d2b:	f2 0f 10 80 80 09 06 	movsd  xmm0,QWORD PTR [rax+0x60980]
  449d32:	00 
  449d33:	e8 18 b6 fb ff       	call   405350 <nearbyint@plt>
  449d38:	f2 48 0f 2c c0       	cvttsd2si rax,xmm0
  449d3d:	66 0f ef c0          	pxor   xmm0,xmm0
  449d41:	48 c1 e0 18          	shl    rax,0x18
  449d45:	48 05 00 ff 00 00    	add    rax,0xff00
  449d4b:	f2 48 0f 2a c0       	cvtsi2sd xmm0,rax
;   jmp L1826
  449d50:	e9 72 1a fc ff       	jmp    40b7c7 <MEMORY_T::POKE64(double, double)+0x1fb7>
;   cmp v eq peek(ubyte,@nibbles(&B1110)) shl peek(ubyte,@nibbles(&B0100)) add peek(ubyte,@nibbles(&B1001)) jmp L1803
  449d55:	49 8d 44 15 00       	lea    rax,[r13+rdx*1+0x0]
  449d5a:	66 0f ef c0          	pxor   xmm0,xmm0
  449d5e:	f2 48 0f 2a c0       	cvtsi2sd xmm0,rax
  449d63:	66 0f 2e 44 24 18    	ucomisd xmm0,QWORD PTR [rsp+0x18]
  449d69:	7a 31                	jp     449d9c <MEMORY_T::POKE64(double, double)+0x4058c>
  449d6b:	75 2f                	jne    449d9c <MEMORY_T::POKE64(double, double)+0x4058c>
;   mov(mem64(49457),mem64(49456) shl 24 add &H00CC33)
  449d6d:	48 8b 44 24 10       	mov    rax,QWORD PTR [rsp+0x10]
  449d72:	f2 0f 10 80 80 09 06 	movsd  xmm0,QWORD PTR [rax+0x60980]
  449d79:	00 
  449d7a:	e8 d1 b5 fb ff       	call   405350 <nearbyint@plt>
  449d7f:	f2 48 0f 2c c0       	cvttsd2si rax,xmm0
  449d84:	66 0f ef c0          	pxor   xmm0,xmm0
  449d88:	48 c1 e0 18          	shl    rax,0x18
  449d8c:	48 05 33 cc 00 00    	add    rax,0xcc33
  449d92:	f2 48 0f 2a c0       	cvtsi2sd xmm0,rax
;   jmp L1826
  449d97:	e9 2b 1a fc ff       	jmp    40b7c7 <MEMORY_T::POKE64(double, double)+0x1fb7>
;   cmp v eq peek(ubyte,@nibbles(&B1110)) shl peek(ubyte,@nibbles(&B0100)) add peek(ubyte,@nibbles(&B1010)) jmp L1804
  449d9c:	49 8d 04 14          	lea    rax,[r12+rdx*1]
  449da0:	66 0f ef c0          	pxor   xmm0,xmm0
  449da4:	f2 48 0f 2a c0       	cvtsi2sd xmm0,rax
  449da9:	66 0f 2e 44 24 18    	ucomisd xmm0,QWORD PTR [rsp+0x18]
  449daf:	7a 31                	jp     449de2 <MEMORY_T::POKE64(double, double)+0x405d2>
  449db1:	75 2f                	jne    449de2 <MEMORY_T::POKE64(double, double)+0x405d2>
;   mov(mem64(49457),mem64(49456) shl 24 add &H009966)
  449db3:	48 8b 44 24 10       	mov    rax,QWORD PTR [rsp+0x10]
  449db8:	f2 0f 10 80 80 09 06 	movsd  xmm0,QWORD PTR [rax+0x60980]
  449dbf:	00 
  449dc0:	e8 8b b5 fb ff       	call   405350 <nearbyint@plt>
  449dc5:	f2 48 0f 2c c0       	cvttsd2si rax,xmm0
  449dca:	66 0f ef c0          	pxor   xmm0,xmm0
  449dce:	48 c1 e0 18          	shl    rax,0x18
  449dd2:	48 05 66 99 00 00    	add    rax,0x9966
  449dd8:	f2 48 0f 2a c0       	cvtsi2sd xmm0,rax
;   jmp L1826
  449ddd:	e9 e5 19 fc ff       	jmp    40b7c7 <MEMORY_T::POKE64(double, double)+0x1fb7>
;   cmp v eq peek(ubyte,@nibbles(&B1110)) shl peek(ubyte,@nibbles(&B0100)) add peek(ubyte,@nibbles(&B1011)) jmp L1805
  449de2:	48 8d 44 15 00       	lea    rax,[rbp+rdx*1+0x0]
  449de7:	66 0f ef c0          	pxor   xmm0,xmm0
  449deb:	f2 48 0f 2a c0       	cvtsi2sd xmm0,rax
  449df0:	66 0f 2e 44 24 18    	ucomisd xmm0,QWORD PTR [rsp+0x18]
  449df6:	7a 31                	jp     449e29 <MEMORY_T::POKE64(double, double)+0x40619>
  449df8:	75 2f                	jne    449e29 <MEMORY_T::POKE64(double, double)+0x40619>
;   mov(mem64(49457),mem64(49456) shl 24 add &H006699)
  449dfa:	48 8b 44 24 10       	mov    rax,QWORD PTR [rsp+0x10]
  449dff:	f2 0f 10 80 80 09 06 	movsd  xmm0,QWORD PTR [rax+0x60980]
  449e06:	00 
  449e07:	e8 44 b5 fb ff       	call   405350 <nearbyint@plt>
  449e0c:	f2 48 0f 2c c0       	cvttsd2si rax,xmm0
  449e11:	66 0f ef c0          	pxor   xmm0,xmm0
  449e15:	48 c1 e0 18          	shl    rax,0x18
  449e19:	48 05 99 66 00 00    	add    rax,0x6699
  449e1f:	f2 48 0f 2a c0       	cvtsi2sd xmm0,rax
;   jmp L1826
  449e24:	e9 9e 19 fc ff       	jmp    40b7c7 <MEMORY_T::POKE64(double, double)+0x1fb7>
;   cmp v eq peek(ubyte,@nibbles(&B1110)) shl peek(ubyte,@nibbles(&B0100)) add peek(ubyte,@nibbles(&B1100)) jmp L1806
  449e29:	48 8d 04 13          	lea    rax,[rbx+rdx*1]
  449e2d:	66 0f ef c0          	pxor   xmm0,xmm0
  449e31:	f2 48 0f 2a c0       	cvtsi2sd xmm0,rax
  449e36:	66 0f 2e 44 24 18    	ucomisd xmm0,QWORD PTR [rsp+0x18]
  449e3c:	7a 31                	jp     449e6f <MEMORY_T::POKE64(double, double)+0x4065f>
  449e3e:	75 2f                	jne    449e6f <MEMORY_T::POKE64(double, double)+0x4065f>
;   mov(mem64(49457),mem64(49456) shl 24 add &H0033CC)
  449e40:	48 8b 44 24 10       	mov    rax,QWORD PTR [rsp+0x10]
  449e45:	f2 0f 10 80 80 09 06 	movsd  xmm0,QWORD PTR [rax+0x60980]
  449e4c:	00 
  449e4d:	e8 fe b4 fb ff       	call   405350 <nearbyint@plt>
  449e52:	f2 48 0f 2c c0       	cvttsd2si rax,xmm0
  449e57:	66 0f ef c0          	pxor   xmm0,xmm0
  449e5b:	48 c1 e0 18          	shl    rax,0x18
  449e5f:	48 05 cc 33 00 00    	add    rax,0x33cc
  449e65:	f2 48 0f 2a c0       	cvtsi2sd xmm0,rax
;   jmp L1826
  449e6a:	e9 58 19 fc ff       	jmp    40b7c7 <MEMORY_T::POKE64(double, double)+0x1fb7>
;   cmp v eq peek(ubyte,@nibbles(&B1110)) shl peek(ubyte,@nibbles(&B0100)) add peek(ubyte,@nibbles(&B1101)) jmp L1807
  449e6f:	49 8d 04 13          	lea    rax,[r11+rdx*1]
  449e73:	66 0f ef c0          	pxor   xmm0,xmm0
  449e77:	f2 48 0f 2a c0       	cvtsi2sd xmm0,rax
  449e7c:	66 0f 2e 44 24 18    	ucomisd xmm0,QWORD PTR [rsp+0x18]
  449e82:	7a 31                	jp     449eb5 <MEMORY_T::POKE64(double, double)+0x406a5>
  449e84:	75 2f                	jne    449eb5 <MEMORY_T::POKE64(double, double)+0x406a5>
;   mov(mem64(49457),mem64(49456) shl 24 add &H0000FF)
  449e86:	48 8b 44 24 10       	mov    rax,QWORD PTR [rsp+0x10]
  449e8b:	f2 0f 10 80 80 09 06 	movsd  xmm0,QWORD PTR [rax+0x60980]
  449e92:	00 
  449e93:	e8 b8 b4 fb ff       	call   405350 <nearbyint@plt>
  449e98:	f2 48 0f 2c c0       	cvttsd2si rax,xmm0
  449e9d:	66 0f ef c0          	pxor   xmm0,xmm0
  449ea1:	48 c1 e0 18          	shl    rax,0x18
  449ea5:	48 05 ff 00 00 00    	add    rax,0xff
  449eab:	f2 48 0f 2a c0       	cvtsi2sd xmm0,rax
;   jmp L1826
  449eb0:	e9 12 19 fc ff       	jmp    40b7c7 <MEMORY_T::POKE64(double, double)+0x1fb7>
;   cmp v eq peek(ubyte,@nibbles(&B1110)) shl peek(ubyte,@nibbles(&B0100)) add peek(ubyte,@nibbles(&B1110)) jmp L1808
  449eb5:	49 8d 04 12          	lea    rax,[r10+rdx*1]
  449eb9:	66 0f ef c0          	pxor   xmm0,xmm0
  449ebd:	f2 48 0f 2a c0       	cvtsi2sd xmm0,rax
  449ec2:	66 0f 2e 44 24 18    	ucomisd xmm0,QWORD PTR [rsp+0x18]
  449ec8:	7a 31                	jp     449efb <MEMORY_T::POKE64(double, double)+0x406eb>
  449eca:	75 2f                	jne    449efb <MEMORY_T::POKE64(double, double)+0x406eb>
;   mov(mem64(49457),mem64(49456) shl 24 add &H3300CC)
  449ecc:	48 8b 44 24 10       	mov    rax,QWORD PTR [rsp+0x10]
  449ed1:	f2 0f 10 80 80 09 06 	movsd  xmm0,QWORD PTR [rax+0x60980]
  449ed8:	00 
  449ed9:	e8 72 b4 fb ff       	call   405350 <nearbyint@plt>
  449ede:	f2 48 0f 2c c0       	cvttsd2si rax,xmm0
  449ee3:	66 0f ef c0          	pxor   xmm0,xmm0
  449ee7:	48 c1 e0 18          	shl    rax,0x18
  449eeb:	48 05 cc 00 33 00    	add    rax,0x3300cc
  449ef1:	f2 48 0f 2a c0       	cvtsi2sd xmm0,rax
;   jmp L1826
  449ef6:	e9 cc 18 fc ff       	jmp    40b7c7 <MEMORY_T::POKE64(double, double)+0x1fb7>
;   cmp v eq peek(ubyte,@nibbles(&B1110)) shl peek(ubyte,@nibbles(&B0100)) add peek(ubyte,@nibbles(&B1111)) jmp L1809
  449efb:	49 8d 04 11          	lea    rax,[r9+rdx*1]
  449eff:	66 0f ef c0          	pxor   xmm0,xmm0
  449f03:	f2 48 0f 2a c0       	cvtsi2sd xmm0,rax
  449f08:	66 0f 2e 44 24 18    	ucomisd xmm0,QWORD PTR [rsp+0x18]
  449f0e:	7a 31                	jp     449f41 <MEMORY_T::POKE64(double, double)+0x40731>
  449f10:	75 2f                	jne    449f41 <MEMORY_T::POKE64(double, double)+0x40731>
;   mov(mem64(49457),mem64(49456) shl 24 add &H660099)
  449f12:	48 8b 44 24 10       	mov    rax,QWORD PTR [rsp+0x10]
  449f17:	f2 0f 10 80 80 09 06 	movsd  xmm0,QWORD PTR [rax+0x60980]
  449f1e:	00 
  449f1f:	e8 2c b4 fb ff       	call   405350 <nearbyint@plt>
  449f24:	f2 48 0f 2c c0       	cvttsd2si rax,xmm0
  449f29:	66 0f ef c0          	pxor   xmm0,xmm0
  449f2d:	48 c1 e0 18          	shl    rax,0x18
  449f31:	48 05 99 00 66 00    	add    rax,0x660099
  449f37:	f2 48 0f 2a c0       	cvtsi2sd xmm0,rax
;   jmp L1826
  449f3c:	e9 86 18 fc ff       	jmp    40b7c7 <MEMORY_T::POKE64(double, double)+0x1fb7>
;   cmp v eq peek(ubyte,@nibbles(&B1111)) shl peek(ubyte,@nibbles(&B0100)) jmp L1810
  449f41:	4c 89 ca             	mov    rdx,r9
  449f44:	66 0f ef c0          	pxor   xmm0,xmm0
  449f48:	48 d3 e2             	shl    rdx,cl
  449f4b:	f2 48 0f 2a c2       	cvtsi2sd xmm0,rdx
  449f50:	66 0f 2e 44 24 18    	ucomisd xmm0,QWORD PTR [rsp+0x18]
  449f56:	7a 31                	jp     449f89 <MEMORY_T::POKE64(double, double)+0x40779>
  449f58:	75 2f                	jne    449f89 <MEMORY_T::POKE64(double, double)+0x40779>
;   mov(mem64(49457),mem64(49456) shl 24 add &H990066)
  449f5a:	48 8b 44 24 10       	mov    rax,QWORD PTR [rsp+0x10]
  449f5f:	f2 0f 10 80 80 09 06 	movsd  xmm0,QWORD PTR [rax+0x60980]
  449f66:	00 
  449f67:	e8 e4 b3 fb ff       	call   405350 <nearbyint@plt>
  449f6c:	f2 48 0f 2c c0       	cvttsd2si rax,xmm0
  449f71:	66 0f ef c0          	pxor   xmm0,xmm0
  449f75:	48 c1 e0 18          	shl    rax,0x18
  449f79:	48 05 66 00 99 00    	add    rax,0x990066
  449f7f:	f2 48 0f 2a c0       	cvtsi2sd xmm0,rax
;   jmp L1826
  449f84:	e9 3e 18 fc ff       	jmp    40b7c7 <MEMORY_T::POKE64(double, double)+0x1fb7>
;   cmp v eq peek(ubyte,@nibbles(&B1111)) shl peek(ubyte,@nibbles(&B0100)) add peek(ubyte,@nibbles(&B0001)) jmp L1811
  449f89:	48 8d 04 16          	lea    rax,[rsi+rdx*1]
  449f8d:	66 0f ef c0          	pxor   xmm0,xmm0
  449f91:	f2 48 0f 2a c0       	cvtsi2sd xmm0,rax
  449f96:	66 0f 2e 44 24 18    	ucomisd xmm0,QWORD PTR [rsp+0x18]
  449f9c:	7a 31                	jp     449fcf <MEMORY_T::POKE64(double, double)+0x407bf>
  449f9e:	75 2f                	jne    449fcf <MEMORY_T::POKE64(double, double)+0x407bf>
;   mov(mem64(49457),mem64(49456) shl 24 add &HCC0033)
  449fa0:	48 8b 44 24 10       	mov    rax,QWORD PTR [rsp+0x10]
  449fa5:	f2 0f 10 80 80 09 06 	movsd  xmm0,QWORD PTR [rax+0x60980]
  449fac:	00 
  449fad:	e8 9e b3 fb ff       	call   405350 <nearbyint@plt>
  449fb2:	f2 48 0f 2c c0       	cvttsd2si rax,xmm0
  449fb7:	66 0f ef c0          	pxor   xmm0,xmm0
  449fbb:	48 c1 e0 18          	shl    rax,0x18
  449fbf:	48 05 33 00 cc 00    	add    rax,0xcc0033
  449fc5:	f2 48 0f 2a c0       	cvtsi2sd xmm0,rax
;   jmp L1826
  449fca:	e9 f8 17 fc ff       	jmp    40b7c7 <MEMORY_T::POKE64(double, double)+0x1fb7>
;   cmp v eq peek(ubyte,@nibbles(&B1111)) shl peek(ubyte,@nibbles(&B0100)) add peek(ubyte,@nibbles(&B0010)) jmp L1812
  449fcf:	48 8d 04 17          	lea    rax,[rdi+rdx*1]
  449fd3:	66 0f ef c0          	pxor   xmm0,xmm0
  449fd7:	f2 48 0f 2a c0       	cvtsi2sd xmm0,rax
  449fdc:	66 0f 2e 44 24 18    	ucomisd xmm0,QWORD PTR [rsp+0x18]
  449fe2:	7a 31                	jp     44a015 <MEMORY_T::POKE64(double, double)+0x40805>
  449fe4:	75 2f                	jne    44a015 <MEMORY_T::POKE64(double, double)+0x40805>
;   mov(mem64(49457),mem64(49456) shl 24 add &HFF0000)
  449fe6:	48 8b 44 24 10       	mov    rax,QWORD PTR [rsp+0x10]
  449feb:	f2 0f 10 80 80 09 06 	movsd  xmm0,QWORD PTR [rax+0x60980]
  449ff2:	00 
  449ff3:	e8 58 b3 fb ff       	call   405350 <nearbyint@plt>
  449ff8:	f2 48 0f 2c c0       	cvttsd2si rax,xmm0
  449ffd:	66 0f ef c0          	pxor   xmm0,xmm0
  44a001:	48 c1 e0 18          	shl    rax,0x18
  44a005:	48 05 00 00 ff 00    	add    rax,0xff0000
  44a00b:	f2 48 0f 2a c0       	cvtsi2sd xmm0,rax
;   jmp L1826
  44a010:	e9 b2 17 fc ff       	jmp    40b7c7 <MEMORY_T::POKE64(double, double)+0x1fb7>
;   cmp v eq peek(ubyte,@nibbles(&B1111)) shl peek(ubyte,@nibbles(&B0100)) add peek(ubyte,@nibbles(&B0011)) jmp L1813
  44a015:	49 8d 04 10          	lea    rax,[r8+rdx*1]
  44a019:	66 0f ef c0          	pxor   xmm0,xmm0
  44a01d:	f2 48 0f 2a c0       	cvtsi2sd xmm0,rax
  44a022:	66 0f 2e 44 24 18    	ucomisd xmm0,QWORD PTR [rsp+0x18]
  44a028:	7a 31                	jp     44a05b <MEMORY_T::POKE64(double, double)+0x4084b>
  44a02a:	75 2f                	jne    44a05b <MEMORY_T::POKE64(double, double)+0x4084b>
;   mov(mem64(49457),mem64(49456) shl 24 add &HCC3300)
  44a02c:	48 8b 44 24 10       	mov    rax,QWORD PTR [rsp+0x10]
  44a031:	f2 0f 10 80 80 09 06 	movsd  xmm0,QWORD PTR [rax+0x60980]
  44a038:	00 
  44a039:	e8 12 b3 fb ff       	call   405350 <nearbyint@plt>
  44a03e:	f2 48 0f 2c c0       	cvttsd2si rax,xmm0
  44a043:	66 0f ef c0          	pxor   xmm0,xmm0
  44a047:	48 c1 e0 18          	shl    rax,0x18
  44a04b:	48 05 00 33 cc 00    	add    rax,0xcc3300
  44a051:	f2 48 0f 2a c0       	cvtsi2sd xmm0,rax
;   jmp L1826
  44a056:	e9 6c 17 fc ff       	jmp    40b7c7 <MEMORY_T::POKE64(double, double)+0x1fb7>
;   cmp v eq peek(ubyte,@nibbles(&B1111)) shl peek(ubyte,@nibbles(&B0100)) add peek(ubyte,@nibbles(&B0100)) jmp L1814
  44a05b:	48 8b 44 24 20       	mov    rax,QWORD PTR [rsp+0x20]
  44a060:	66 0f ef c0          	pxor   xmm0,xmm0
  44a064:	48 01 d0             	add    rax,rdx
  44a067:	f2 48 0f 2a c0       	cvtsi2sd xmm0,rax
  44a06c:	66 0f 2e 44 24 18    	ucomisd xmm0,QWORD PTR [rsp+0x18]
  44a072:	7a 31                	jp     44a0a5 <MEMORY_T::POKE64(double, double)+0x40895>
  44a074:	75 2f                	jne    44a0a5 <MEMORY_T::POKE64(double, double)+0x40895>
;   mov(mem64(49457),mem64(49456) shl 24 add &H996600)
  44a076:	48 8b 44 24 10       	mov    rax,QWORD PTR [rsp+0x10]
  44a07b:	f2 0f 10 80 80 09 06 	movsd  xmm0,QWORD PTR [rax+0x60980]
  44a082:	00 
  44a083:	e8 c8 b2 fb ff       	call   405350 <nearbyint@plt>
  44a088:	f2 48 0f 2c c0       	cvttsd2si rax,xmm0
  44a08d:	66 0f ef c0          	pxor   xmm0,xmm0
  44a091:	48 c1 e0 18          	shl    rax,0x18
  44a095:	48 05 00 66 99 00    	add    rax,0x996600
  44a09b:	f2 48 0f 2a c0       	cvtsi2sd xmm0,rax
;   jmp L1826
  44a0a0:	e9 22 17 fc ff       	jmp    40b7c7 <MEMORY_T::POKE64(double, double)+0x1fb7>
;   cmp v eq peek(ubyte,@nibbles(&B1111)) shl peek(ubyte,@nibbles(&B0100)) add peek(ubyte,@nibbles(&B0101)) jmp L1815
  44a0a5:	48 8b 44 24 60       	mov    rax,QWORD PTR [rsp+0x60]
  44a0aa:	66 0f ef c0          	pxor   xmm0,xmm0
  44a0ae:	48 01 d0             	add    rax,rdx
  44a0b1:	f2 48 0f 2a c0       	cvtsi2sd xmm0,rax
  44a0b6:	66 0f 2e 44 24 18    	ucomisd xmm0,QWORD PTR [rsp+0x18]
  44a0bc:	7a 31                	jp     44a0ef <MEMORY_T::POKE64(double, double)+0x408df>
  44a0be:	75 2f                	jne    44a0ef <MEMORY_T::POKE64(double, double)+0x408df>
;   mov(mem64(49457),mem64(49456) shl 24 add &H669900)
  44a0c0:	48 8b 44 24 10       	mov    rax,QWORD PTR [rsp+0x10]
  44a0c5:	f2 0f 10 80 80 09 06 	movsd  xmm0,QWORD PTR [rax+0x60980]
  44a0cc:	00 
  44a0cd:	e8 7e b2 fb ff       	call   405350 <nearbyint@plt>
  44a0d2:	f2 48 0f 2c c0       	cvttsd2si rax,xmm0
  44a0d7:	66 0f ef c0          	pxor   xmm0,xmm0
  44a0db:	48 c1 e0 18          	shl    rax,0x18
  44a0df:	48 05 00 99 66 00    	add    rax,0x669900
  44a0e5:	f2 48 0f 2a c0       	cvtsi2sd xmm0,rax
;   jmp L1826
  44a0ea:	e9 d8 16 fc ff       	jmp    40b7c7 <MEMORY_T::POKE64(double, double)+0x1fb7>
;   cmp v eq peek(ubyte,@nibbles(&B1111)) shl peek(ubyte,@nibbles(&B0100)) add peek(ubyte,@nibbles(&B0110)) jmp L1816
  44a0ef:	48 8b 44 24 30       	mov    rax,QWORD PTR [rsp+0x30]
  44a0f4:	66 0f ef c0          	pxor   xmm0,xmm0
  44a0f8:	48 01 d0             	add    rax,rdx
  44a0fb:	f2 48 0f 2a c0       	cvtsi2sd xmm0,rax
  44a100:	66 0f 2e 44 24 18    	ucomisd xmm0,QWORD PTR [rsp+0x18]
  44a106:	7a 31                	jp     44a139 <MEMORY_T::POKE64(double, double)+0x40929>
  44a108:	75 2f                	jne    44a139 <MEMORY_T::POKE64(double, double)+0x40929>
;   mov(mem64(49457),mem64(49456) shl 24 add &H33CC00)
  44a10a:	48 8b 44 24 10       	mov    rax,QWORD PTR [rsp+0x10]
  44a10f:	f2 0f 10 80 80 09 06 	movsd  xmm0,QWORD PTR [rax+0x60980]
  44a116:	00 
  44a117:	e8 34 b2 fb ff       	call   405350 <nearbyint@plt>
  44a11c:	f2 48 0f 2c c0       	cvttsd2si rax,xmm0
  44a121:	66 0f ef c0          	pxor   xmm0,xmm0
  44a125:	48 c1 e0 18          	shl    rax,0x18
  44a129:	48 05 00 cc 33 00    	add    rax,0x33cc00
  44a12f:	f2 48 0f 2a c0       	cvtsi2sd xmm0,rax
;   jmp L1826
  44a134:	e9 8e 16 fc ff       	jmp    40b7c7 <MEMORY_T::POKE64(double, double)+0x1fb7>
;   cmp v eq peek(ubyte,@nibbles(&B1111)) shl peek(ubyte,@nibbles(&B0100)) add peek(ubyte,@nibbles(&B0111)) jmp L1817
  44a139:	49 8d 04 17          	lea    rax,[r15+rdx*1]
  44a13d:	66 0f ef c0          	pxor   xmm0,xmm0
  44a141:	f2 48 0f 2a c0       	cvtsi2sd xmm0,rax
  44a146:	66 0f 2e 44 24 18    	ucomisd xmm0,QWORD PTR [rsp+0x18]
  44a14c:	7a 31                	jp     44a17f <MEMORY_T::POKE64(double, double)+0x4096f>
  44a14e:	75 2f                	jne    44a17f <MEMORY_T::POKE64(double, double)+0x4096f>
;   mov(mem64(49457),mem64(49456) shl 24 add &HFFB000)
  44a150:	48 8b 44 24 10       	mov    rax,QWORD PTR [rsp+0x10]
  44a155:	f2 0f 10 80 80 09 06 	movsd  xmm0,QWORD PTR [rax+0x60980]
  44a15c:	00 
  44a15d:	e8 ee b1 fb ff       	call   405350 <nearbyint@plt>
  44a162:	f2 48 0f 2c c0       	cvttsd2si rax,xmm0
  44a167:	66 0f ef c0          	pxor   xmm0,xmm0
  44a16b:	48 c1 e0 18          	shl    rax,0x18
  44a16f:	48 05 00 b0 ff 00    	add    rax,0xffb000
  44a175:	f2 48 0f 2a c0       	cvtsi2sd xmm0,rax
;   jmp L1826
  44a17a:	e9 48 16 fc ff       	jmp    40b7c7 <MEMORY_T::POKE64(double, double)+0x1fb7>
;   cmp v eq peek(ubyte,@nibbles(&B1111)) shl peek(ubyte,@nibbles(&B0100)) add peek(ubyte,@nibbles(&B1000)) jmp L1818
  44a17f:	49 8d 04 16          	lea    rax,[r14+rdx*1]
  44a183:	66 0f ef c0          	pxor   xmm0,xmm0
  44a187:	f2 48 0f 2a c0       	cvtsi2sd xmm0,rax
  44a18c:	66 0f 2e 44 24 18    	ucomisd xmm0,QWORD PTR [rsp+0x18]
  44a192:	7a 31                	jp     44a1c5 <MEMORY_T::POKE64(double, double)+0x409b5>
  44a194:	75 2f                	jne    44a1c5 <MEMORY_T::POKE64(double, double)+0x409b5>
;   mov(mem64(49457),mem64(49456) shl 24 add &HFFC000)
  44a196:	48 8b 44 24 10       	mov    rax,QWORD PTR [rsp+0x10]
  44a19b:	f2 0f 10 80 80 09 06 	movsd  xmm0,QWORD PTR [rax+0x60980]
  44a1a2:	00 
  44a1a3:	e8 a8 b1 fb ff       	call   405350 <nearbyint@plt>
  44a1a8:	f2 48 0f 2c c0       	cvttsd2si rax,xmm0
  44a1ad:	66 0f ef c0          	pxor   xmm0,xmm0
  44a1b1:	48 c1 e0 18          	shl    rax,0x18
  44a1b5:	48 05 00 c0 ff 00    	add    rax,0xffc000
  44a1bb:	f2 48 0f 2a c0       	cvtsi2sd xmm0,rax
;   jmp L1826
  44a1c0:	e9 02 16 fc ff       	jmp    40b7c7 <MEMORY_T::POKE64(double, double)+0x1fb7>
;   cmp v eq peek(ubyte,@nibbles(&B1111)) shl peek(ubyte,@nibbles(&B0100)) add peek(ubyte,@nibbles(&B1001)) jmp L1819
  44a1c5:	49 8d 44 15 00       	lea    rax,[r13+rdx*1+0x0]
  44a1ca:	66 0f ef c0          	pxor   xmm0,xmm0
  44a1ce:	f2 48 0f 2a c0       	cvtsi2sd xmm0,rax
  44a1d3:	66 0f 2e 44 24 18    	ucomisd xmm0,QWORD PTR [rsp+0x18]
  44a1d9:	7a 31                	jp     44a20c <MEMORY_T::POKE64(double, double)+0x409fc>
  44a1db:	75 2f                	jne    44a20c <MEMORY_T::POKE64(double, double)+0x409fc>
;   mov(mem64(49457),mem64(49456) shl 24 add &H33FF00)
  44a1dd:	48 8b 44 24 10       	mov    rax,QWORD PTR [rsp+0x10]
  44a1e2:	f2 0f 10 80 80 09 06 	movsd  xmm0,QWORD PTR [rax+0x60980]
  44a1e9:	00 
  44a1ea:	e8 61 b1 fb ff       	call   405350 <nearbyint@plt>
  44a1ef:	f2 48 0f 2c c0       	cvttsd2si rax,xmm0
  44a1f4:	66 0f ef c0          	pxor   xmm0,xmm0
  44a1f8:	48 c1 e0 18          	shl    rax,0x18
  44a1fc:	48 05 00 ff 33 00    	add    rax,0x33ff00
  44a202:	f2 48 0f 2a c0       	cvtsi2sd xmm0,rax
;   jmp L1826
  44a207:	e9 bb 15 fc ff       	jmp    40b7c7 <MEMORY_T::POKE64(double, double)+0x1fb7>
;   cmp v eq peek(ubyte,@nibbles(&B1111)) shl peek(ubyte,@nibbles(&B0100)) add peek(ubyte,@nibbles(&B1010)) jmp L1820
  44a20c:	49 8d 04 14          	lea    rax,[r12+rdx*1]
  44a210:	66 0f ef c0          	pxor   xmm0,xmm0
  44a214:	f2 48 0f 2a c0       	cvtsi2sd xmm0,rax
  44a219:	66 0f 2e 44 24 18    	ucomisd xmm0,QWORD PTR [rsp+0x18]
  44a21f:	7a 31                	jp     44a252 <MEMORY_T::POKE64(double, double)+0x40a42>
  44a221:	75 2f                	jne    44a252 <MEMORY_T::POKE64(double, double)+0x40a42>
;   mov(mem64(49457),mem64(49456) shl 24 add &H33FF33)
  44a223:	48 8b 44 24 10       	mov    rax,QWORD PTR [rsp+0x10]
  44a228:	f2 0f 10 80 80 09 06 	movsd  xmm0,QWORD PTR [rax+0x60980]
  44a22f:	00 
  44a230:	e8 1b b1 fb ff       	call   405350 <nearbyint@plt>
  44a235:	f2 48 0f 2c c0       	cvttsd2si rax,xmm0
  44a23a:	66 0f ef c0          	pxor   xmm0,xmm0
  44a23e:	48 c1 e0 18          	shl    rax,0x18
  44a242:	48 05 33 ff 33 00    	add    rax,0x33ff33
  44a248:	f2 48 0f 2a c0       	cvtsi2sd xmm0,rax
;   jmp L1826
  44a24d:	e9 75 15 fc ff       	jmp    40b7c7 <MEMORY_T::POKE64(double, double)+0x1fb7>
;   cmp v eq peek(ubyte,@nibbles(&B1111)) shl peek(ubyte,@nibbles(&B0100)) add peek(ubyte,@nibbles(&B1011)) jmp L1821
  44a252:	48 8d 44 15 00       	lea    rax,[rbp+rdx*1+0x0]
  44a257:	66 0f ef c0          	pxor   xmm0,xmm0
  44a25b:	f2 48 0f 2a c0       	cvtsi2sd xmm0,rax
  44a260:	66 0f 2e 44 24 18    	ucomisd xmm0,QWORD PTR [rsp+0x18]
  44a266:	7a 31                	jp     44a299 <MEMORY_T::POKE64(double, double)+0x40a89>
  44a268:	75 2f                	jne    44a299 <MEMORY_T::POKE64(double, double)+0x40a89>
;   mov(mem64(49457),mem64(49456) shl 24 add &H00FF33)
  44a26a:	48 8b 44 24 10       	mov    rax,QWORD PTR [rsp+0x10]
  44a26f:	f2 0f 10 80 80 09 06 	movsd  xmm0,QWORD PTR [rax+0x60980]
  44a276:	00 
  44a277:	e8 d4 b0 fb ff       	call   405350 <nearbyint@plt>
  44a27c:	f2 48 0f 2c c0       	cvttsd2si rax,xmm0
  44a281:	66 0f ef c0          	pxor   xmm0,xmm0
  44a285:	48 c1 e0 18          	shl    rax,0x18
  44a289:	48 05 33 ff 00 00    	add    rax,0xff33
  44a28f:	f2 48 0f 2a c0       	cvtsi2sd xmm0,rax
;   jmp L1826
  44a294:	e9 2e 15 fc ff       	jmp    40b7c7 <MEMORY_T::POKE64(double, double)+0x1fb7>
;   cmp v eq peek(ubyte,@nibbles(&B1111)) shl peek(ubyte,@nibbles(&B0100)) add peek(ubyte,@nibbles(&B1100)) jmp L1822
  44a299:	48 8d 04 13          	lea    rax,[rbx+rdx*1]
  44a29d:	66 0f ef c0          	pxor   xmm0,xmm0
  44a2a1:	f2 48 0f 2a c0       	cvtsi2sd xmm0,rax
  44a2a6:	66 0f 2e 44 24 18    	ucomisd xmm0,QWORD PTR [rsp+0x18]
  44a2ac:	7a 31                	jp     44a2df <MEMORY_T::POKE64(double, double)+0x40acf>
  44a2ae:	75 2f                	jne    44a2df <MEMORY_T::POKE64(double, double)+0x40acf>
;   mov(mem64(49457),mem64(49456) shl 24 add &H66FF66)
  44a2b0:	48 8b 44 24 10       	mov    rax,QWORD PTR [rsp+0x10]
  44a2b5:	f2 0f 10 80 80 09 06 	movsd  xmm0,QWORD PTR [rax+0x60980]
  44a2bc:	00 
  44a2bd:	e8 8e b0 fb ff       	call   405350 <nearbyint@plt>
  44a2c2:	f2 48 0f 2c c0       	cvttsd2si rax,xmm0
  44a2c7:	66 0f ef c0          	pxor   xmm0,xmm0
  44a2cb:	48 c1 e0 18          	shl    rax,0x18
  44a2cf:	48 05 66 ff 66 00    	add    rax,0x66ff66
  44a2d5:	f2 48 0f 2a c0       	cvtsi2sd xmm0,rax
;   jmp L1826
  44a2da:	e9 e8 14 fc ff       	jmp    40b7c7 <MEMORY_T::POKE64(double, double)+0x1fb7>
;   cmp v eq peek(ubyte,@nibbles(&B1111)) shl peek(ubyte,@nibbles(&B0100)) add peek(ubyte,@nibbles(&B1101)) jmp L1823
  44a2df:	49 8d 04 13          	lea    rax,[r11+rdx*1]
  44a2e3:	66 0f ef c0          	pxor   xmm0,xmm0
  44a2e7:	f2 48 0f 2a c0       	cvtsi2sd xmm0,rax
  44a2ec:	66 0f 2e 44 24 18    	ucomisd xmm0,QWORD PTR [rsp+0x18]
  44a2f2:	7a 31                	jp     44a325 <MEMORY_T::POKE64(double, double)+0x40b15>
  44a2f4:	75 2f                	jne    44a325 <MEMORY_T::POKE64(double, double)+0x40b15>
;   mov(mem64(49457),mem64(49456) shl 24 add &H00FF66)
  44a2f6:	48 8b 44 24 10       	mov    rax,QWORD PTR [rsp+0x10]
  44a2fb:	f2 0f 10 80 80 09 06 	movsd  xmm0,QWORD PTR [rax+0x60980]
  44a302:	00 
  44a303:	e8 48 b0 fb ff       	call   405350 <nearbyint@plt>
  44a308:	f2 48 0f 2c c0       	cvttsd2si rax,xmm0
  44a30d:	66 0f ef c0          	pxor   xmm0,xmm0
  44a311:	48 c1 e0 18          	shl    rax,0x18
  44a315:	48 05 66 ff 00 00    	add    rax,0xff66
  44a31b:	f2 48 0f 2a c0       	cvtsi2sd xmm0,rax
;   jmp L1826
  44a320:	e9 a2 14 fc ff       	jmp    40b7c7 <MEMORY_T::POKE64(double, double)+0x1fb7>
;   cmp v eq peek(ubyte,@nibbles(&B1111)) shl peek(ubyte,@nibbles(&B0100)) add peek(ubyte,@nibbles(&B1110)) jmp L1824
  44a325:	49 8d 04 12          	lea    rax,[r10+rdx*1]
  44a329:	66 0f ef c0          	pxor   xmm0,xmm0
  44a32d:	f2 48 0f 2a c0       	cvtsi2sd xmm0,rax
  44a332:	66 0f 2e 44 24 18    	ucomisd xmm0,QWORD PTR [rsp+0x18]
  44a338:	7a 31                	jp     44a36b <MEMORY_T::POKE64(double, double)+0x40b5b>
  44a33a:	75 2f                	jne    44a36b <MEMORY_T::POKE64(double, double)+0x40b5b>
;   mov(mem64(49457),mem64(49456) shl 24 add &H282828)
  44a33c:	48 8b 44 24 10       	mov    rax,QWORD PTR [rsp+0x10]
  44a341:	f2 0f 10 80 80 09 06 	movsd  xmm0,QWORD PTR [rax+0x60980]
  44a348:	00 
  44a349:	e8 02 b0 fb ff       	call   405350 <nearbyint@plt>
  44a34e:	f2 48 0f 2c c0       	cvttsd2si rax,xmm0
  44a353:	66 0f ef c0          	pxor   xmm0,xmm0
  44a357:	48 c1 e0 18          	shl    rax,0x18
  44a35b:	48 05 28 28 28 00    	add    rax,0x282828
  44a361:	f2 48 0f 2a c0       	cvtsi2sd xmm0,rax
;   jmp L1826
  44a366:	e9 5c 14 fc ff       	jmp    40b7c7 <MEMORY_T::POKE64(double, double)+0x1fb7>
;   cmp v eq peek(ubyte,@nibbles(&B1111)) shl peek(ubyte,@nibbles(&B0100)) add peek(ubyte,@nibbles(&B1111)) jmp L1825
  44a36b:	49 8d 04 11          	lea    rax,[r9+rdx*1]
  44a36f:	66 0f ef c0          	pxor   xmm0,xmm0
  44a373:	f2 48 0f 2a c0       	cvtsi2sd xmm0,rax
  44a378:	66 0f 2e 44 24 18    	ucomisd xmm0,QWORD PTR [rsp+0x18]
  44a37e:	0f 8a ac 15 fc ff    	jp     40b930 <MEMORY_T::POKE64(double, double)+0x2120>
  44a384:	0f 85 a6 15 fc ff    	jne    40b930 <MEMORY_T::POKE64(double, double)+0x2120>
;   mov(mem64(49457),mem64(49456) shl 24 add &H282828)
  44a38a:	48 8b 44 24 10       	mov    rax,QWORD PTR [rsp+0x10]
  44a38f:	f2 0f 10 80 80 09 06 	movsd  xmm0,QWORD PTR [rax+0x60980]
  44a396:	00 
  44a397:	e8 b4 af fb ff       	call   405350 <nearbyint@plt>
  44a39c:	f2 48 0f 2c c0       	cvttsd2si rax,xmm0
  44a3a1:	66 0f ef c0          	pxor   xmm0,xmm0
  44a3a5:	48 c1 e0 18          	shl    rax,0x18
  44a3a9:	48 05 28 28 28 00    	add    rax,0x282828
  44a3af:	f2 48 0f 2a c0       	cvtsi2sd xmm0,rax
;   jmp L1826
  44a3b4:	e9 0e 14 fc ff       	jmp    40b7c7 <MEMORY_T::POKE64(double, double)+0x1fb7>
  44a3b9:	0f 1f 80 00 00 00 00 	nop    DWORD PTR [rax+0x0]

000000000044a3c0 <MEMORY_T::MEMORY_T()>:
;constructor MEMORY_T
  44a3c0:	41 57                	push   r15
;  poke double,@sys_offset,                                               peek(ubyte,@nibbles(&B1100))   shl peek(ubyte,@nibbles(&B1100))
  44a3c2:	ba 00 00 00 08       	mov    edx,0x8000000
  44a3c7:	31 f6                	xor    esi,esi
;constructor MEMORY_T
  44a3c9:	41 56                	push   r14
  44a3cb:	4c 8d 35 c6 88 03 00 	lea    r14,[rip+0x388c6]        # 482c98 <C$>
  44a3d2:	41 55                	push   r13
  44a3d4:	41 54                	push   r12
;  poke integer,@i,                                                    peek(integer,@i) add peek(ubyte,@nibbles(&B0001))
  44a3d6:	4c 8d 25 c4 89 05 00 	lea    r12,[rip+0x589c4]        # 4a2da1 <NIBBLES$+0x1>
;constructor MEMORY_T
  44a3dd:	55                   	push   rbp
;  cmp                                                                    peek(integer,@i)  ls peek(ubyte,@nibbles(&B0001)) shl peek(ubyte,@nibbles(&B1000)) add peek(ubyte,@nibbles(&B1111)) shl peek(ubyte,@nibbles(&B0100)) add peek(ubyte,@nibbles(&B1111)) jmp L1
  44a3de:	4d 8d 7c 24 07       	lea    r15,[r12+0x7]
  44a3e3:	4d 8d 6c 24 0e       	lea    r13,[r12+0xe]
;constructor MEMORY_T
  44a3e8:	53                   	push   rbx
  44a3e9:	48 89 fb             	mov    rbx,rdi
;  cmp                                                                    peek(integer,@i)  ls peek(ubyte,@nibbles(&B0001)) shl peek(ubyte,@nibbles(&B1000)) add peek(ubyte,@nibbles(&B1111)) shl peek(ubyte,@nibbles(&B0100)) add peek(ubyte,@nibbles(&B1111)) jmp L1
  44a3ec:	49 8d 6c 24 03       	lea    rbp,[r12+0x3]
;constructor MEMORY_T
  44a3f1:	48 83 ec 58          	sub    rsp,0x58
  44a3f5:	64 48 8b 04 25 28 00 	mov    rax,QWORD PTR fs:0x28
  44a3fc:	00 00 
  44a3fe:	48 89 44 24 48       	mov    QWORD PTR [rsp+0x48],rax
  44a403:	31 c0                	xor    eax,eax
;  poke double,@sys_offset,                                               peek(ubyte,@nibbles(&B1100))   shl peek(ubyte,@nibbles(&B1100))
  44a405:	e8 b6 ac fb ff       	call   4050c0 <memset@plt>
  44a40a:	48 8d bb 00 00 00 08 	lea    rdi,[rbx+0x8000000]
  44a411:	ba 00 00 02 00       	mov    edx,0x20000
  44a416:	31 f6                	xor    esi,esi
  44a418:	e8 a3 ac fb ff       	call   4050c0 <memset@plt>
  44a41d:	48 8d bb 00 00 02 08 	lea    rdi,[rbx+0x8020000]
  44a424:	ba 00 00 02 00       	mov    edx,0x20000
  44a429:	31 f6                	xor    esi,esi
  44a42b:	e8 90 ac fb ff       	call   4050c0 <memset@plt>
  44a430:	48 8d bb 00 00 04 08 	lea    rdi,[rbx+0x8040000]
  44a437:	ba 88 ff 03 00       	mov    edx,0x3ff88
  44a43c:	31 f6                	xor    esi,esi
  44a43e:	e8 7d ac fb ff       	call   4050c0 <memset@plt>
  44a443:	48 8d bb 90 ff 07 08 	lea    rdi,[rbx+0x807ff90]
  44a44a:	89 da                	mov    edx,ebx
  44a44c:	31 c0                	xor    eax,eax
  44a44e:	48 83 e7 f8          	and    rdi,0xfffffffffffffff8
  44a452:	66 0f ef c0          	pxor   xmm0,xmm0
  44a456:	48 8d b3 90 1f 08 08 	lea    rsi,[rbx+0x8081f90]
  44a45d:	48 c7 83 88 ff 07 08 	mov    QWORD PTR [rbx+0x807ff88],0x0
  44a464:	00 00 00 00 
  44a468:	29 fa                	sub    edx,edi
  44a46a:	48 83 e6 f8          	and    rsi,0xfffffffffffffff8
  44a46e:	48 c7 83 80 1f 08 08 	mov    QWORD PTR [rbx+0x8081f80],0x0
  44a475:	00 00 00 00 
  44a479:	8d 8a 88 1f 08 08    	lea    ecx,[rdx+0x8081f88]
  44a47f:	48 8d 93 d0 2a 08 08 	lea    rdx,[rbx+0x8082ad0]
  44a486:	c1 e9 03             	shr    ecx,0x3
  44a489:	f3 48 ab             	rep stos QWORD PTR es:[rdi],rax
  44a48c:	89 d9                	mov    ecx,ebx
  44a48e:	48 89 f7             	mov    rdi,rsi
  44a491:	48 c7 83 88 1f 08 08 	mov    QWORD PTR [rbx+0x8081f88],0x0
  44a498:	00 00 00 00 
  44a49c:	48 c7 83 c0 2a 08 08 	mov    QWORD PTR [rbx+0x8082ac0],0x0
  44a4a3:	00 00 00 00 
  44a4a7:	29 f1                	sub    ecx,esi
  44a4a9:	81 c1 c8 2a 08 08    	add    ecx,0x8082ac8
  44a4af:	c1 e9 03             	shr    ecx,0x3
  44a4b2:	f3 48 ab             	rep stos QWORD PTR es:[rdi],rax
  44a4b5:	48 89 d7             	mov    rdi,rdx
  44a4b8:	89 da                	mov    edx,ebx
  44a4ba:	48 c7 83 c8 2a 08 08 	mov    QWORD PTR [rbx+0x8082ac8],0x0
  44a4c1:	00 00 00 00 
  44a4c5:	48 c7 83 00 36 08 08 	mov    QWORD PTR [rbx+0x8083600],0x0
  44a4cc:	00 00 00 00 
  44a4d0:	48 83 e7 f8          	and    rdi,0xfffffffffffffff8
  44a4d4:	29 fa                	sub    edx,edi
  44a4d6:	8d 8a 08 36 08 08    	lea    ecx,[rdx+0x8083608]
  44a4dc:	c1 e9 03             	shr    ecx,0x3
  44a4df:	f3 48 ab             	rep stos QWORD PTR es:[rdi],rax
  44a4e2:	0f b6 05 c3 88 05 00 	movzx  eax,BYTE PTR [rip+0x588c3]        # 4a2dac <NIBBLES$+0xc>
  44a4e9:	48 89 c1             	mov    rcx,rax
  44a4ec:	48 d3 e0             	shl    rax,cl
  44a4ef:	f2 48 0f 2a c0       	cvtsi2sd xmm0,rax
  44a4f4:	f2 0f 11 05 ac 08 06 	movsd  QWORD PTR [rip+0x608ac],xmm0        # 4aada8 <SYS_OFFSET$>
  44a4fb:	00 
  44a4fc:	0f 1f 40 00          	nop    DWORD PTR [rax+0x0]
;  read c
  44a500:	4c 89 f7             	mov    rdi,r14
  44a503:	e8 28 a2 01 00       	call   464730 <fb_DataReadLongint>
;  poke double,@mem64(                                            peek(integer,@i)),   peek(integer,@c)
  44a508:	66 0f ef c0          	pxor   xmm0,xmm0
  44a50c:	48 8b 3d b5 88 05 00 	mov    rdi,QWORD PTR [rip+0x588b5]        # 4a2dc8 <I$>
  44a513:	f2 48 0f 2a 05 7c 87 	cvtsi2sd xmm0,QWORD PTR [rip+0x3877c]        # 482c98 <C$>
  44a51a:	03 00 
  44a51c:	f2 0f 11 04 fb       	movsd  QWORD PTR [rbx+rdi*8],xmm0
;  cmp                                                                    peek(integer,@i)  ls peek(ubyte,@nibbles(&B0001)) shl peek(ubyte,@nibbles(&B1000)) add peek(ubyte,@nibbles(&B1111)) shl peek(ubyte,@nibbles(&B0100)) add peek(ubyte,@nibbles(&B1111)) jmp L1
  44a521:	41 0f b6 55 00       	movzx  edx,BYTE PTR [r13+0x0]
  44a526:	0f b6 45 00          	movzx  eax,BYTE PTR [rbp+0x0]
  44a52a:	45 0f b6 17          	movzx  r10d,BYTE PTR [r15]
;  poke integer,@i,                                                    peek(integer,@i) add peek(ubyte,@nibbles(&B0001))
  44a52e:	45 0f b6 0c 24       	movzx  r9d,BYTE PTR [r12]
;  cmp                                                                    peek(integer,@i)  ls peek(ubyte,@nibbles(&B0001)) shl peek(ubyte,@nibbles(&B1000)) add peek(ubyte,@nibbles(&B1111)) shl peek(ubyte,@nibbles(&B0100)) add peek(ubyte,@nibbles(&B1111)) jmp L1
  44a533:	89 c1                	mov    ecx,eax
  44a535:	48 89 d6             	mov    rsi,rdx
  44a538:	48 d3 e6             	shl    rsi,cl
  44a53b:	44 89 d1             	mov    ecx,r10d
;  poke integer,@i,                                                    peek(integer,@i) add peek(ubyte,@nibbles(&B0001))
  44a53e:	4c 01 cf             	add    rdi,r9
;  cmp                                                                    peek(integer,@i)  ls peek(ubyte,@nibbles(&B0001)) shl peek(ubyte,@nibbles(&B1000)) add peek(ubyte,@nibbles(&B1111)) shl peek(ubyte,@nibbles(&B0100)) add peek(ubyte,@nibbles(&B1111)) jmp L1
  44a541:	45 89 d0             	mov    r8d,r10d
  44a544:	49 d3 e1             	shl    r9,cl
;  poke integer,@i,                                                    peek(integer,@i) add peek(ubyte,@nibbles(&B0001))
  44a547:	48 89 3d 7a 88 05 00 	mov    QWORD PTR [rip+0x5887a],rdi        # 4a2dc8 <I$>
;  cmp                                                                    peek(integer,@i)  ls peek(ubyte,@nibbles(&B0001)) shl peek(ubyte,@nibbles(&B1000)) add peek(ubyte,@nibbles(&B1111)) shl peek(ubyte,@nibbles(&B0100)) add peek(ubyte,@nibbles(&B1111)) jmp L1
  44a54e:	41 83 e0 3f          	and    r8d,0x3f
  44a552:	4c 01 ce             	add    rsi,r9
  44a555:	48 01 d6             	add    rsi,rdx
  44a558:	48 39 f7             	cmp    rdi,rsi
  44a55b:	7e a3                	jle    44a500 <MEMORY_T::MEMORY_T()+0x140>
;  poke integer,@i,                                                    peek(ubyte,@nibbles(&B0010))   shl peek(ubyte,@nibbles(&B1000))
  44a55d:	0f b6 3d 3e 88 05 00 	movzx  edi,BYTE PTR [rip+0x5883e]        # 4a2da2 <NIBBLES$+0x2>
  44a564:	44 89 c1             	mov    ecx,r8d
  44a567:	48 d3 e7             	shl    rdi,cl
  44a56a:	66 0f 1f 44 00 00    	nop    WORD PTR [rax+rax*1+0x0]
;  poke double,@mem64(                                                    peek(integer,@i)),   peek(ubyte,@nibbles(&B1111)) shl peek(ubyte,@nibbles(&B0100)) add peek(ubyte,@nibbles(&B1111))
  44a570:	89 c1                	mov    ecx,eax
  44a572:	48 89 d6             	mov    rsi,rdx
  44a575:	66 0f ef c0          	pxor   xmm0,xmm0
  44a579:	48 d3 e6             	shl    rsi,cl
  44a57c:	48 89 f0             	mov    rax,rsi
;  cmp                                                                    peek(integer,@i)  ls peek(ubyte,@nibbles(&B0011)) shl peek(ubyte,@nibbles(&B1000)) add peek(ubyte,@nibbles(&B1111)) shl peek(ubyte,@nibbles(&B0100)) add peek(ubyte,@nibbles(&B1111)) jmp L2
  44a57f:	48 8d 35 1d 88 05 00 	lea    rsi,[rip+0x5881d]        # 4a2da3 <NIBBLES$+0x3>
;  poke double,@mem64(                                                    peek(integer,@i)),   peek(ubyte,@nibbles(&B1111)) shl peek(ubyte,@nibbles(&B0100)) add peek(ubyte,@nibbles(&B1111))
  44a586:	48 01 d0             	add    rax,rdx
  44a589:	f2 48 0f 2a c0       	cvtsi2sd xmm0,rax
  44a58e:	f2 0f 11 04 fb       	movsd  QWORD PTR [rbx+rdi*8],xmm0
;  poke integer,@i,                                                    peek(integer,@i )                      add peek(ubyte,@nibbles(&B0001))
  44a593:	41 0f b6 04 24       	movzx  eax,BYTE PTR [r12]
;  cmp                                                                    peek(integer,@i)  ls peek(ubyte,@nibbles(&B0011)) shl peek(ubyte,@nibbles(&B1000)) add peek(ubyte,@nibbles(&B1111)) shl peek(ubyte,@nibbles(&B0100)) add peek(ubyte,@nibbles(&B1111)) jmp L2
  44a598:	41 0f b6 55 00       	movzx  edx,BYTE PTR [r13+0x0]
  44a59d:	41 0f b6 0f          	movzx  ecx,BYTE PTR [r15]
  44a5a1:	0f b6 36             	movzx  esi,BYTE PTR [rsi]
;  poke integer,@i,                                                    peek(integer,@i )                      add peek(ubyte,@nibbles(&B0001))
  44a5a4:	48 01 c7             	add    rdi,rax
;  cmp                                                                    peek(integer,@i)  ls peek(ubyte,@nibbles(&B0011)) shl peek(ubyte,@nibbles(&B1000)) add peek(ubyte,@nibbles(&B1111)) shl peek(ubyte,@nibbles(&B0100)) add peek(ubyte,@nibbles(&B1111)) jmp L2
  44a5a7:	0f b6 45 00          	movzx  eax,BYTE PTR [rbp+0x0]
  44a5ab:	49 89 d6             	mov    r14,rdx
  44a5ae:	48 d3 e6             	shl    rsi,cl
  44a5b1:	89 c1                	mov    ecx,eax
  44a5b3:	49 d3 e6             	shl    r14,cl
  44a5b6:	4c 01 f6             	add    rsi,r14
  44a5b9:	48 01 d6             	add    rsi,rdx
  44a5bc:	48 39 f7             	cmp    rdi,rsi
  44a5bf:	7e af                	jle    44a570 <MEMORY_T::MEMORY_T()+0x1b0>
;  poke integer,@i,                                                    peek(ubyte,@nibbles(&B0000))
  44a5c1:	44 0f b6 35 d7 87 05 	movzx  r14d,BYTE PTR [rip+0x587d7]        # 4a2da0 <NIBBLES$>
  44a5c8:	00 
  44a5c9:	48 89 5c 24 08       	mov    QWORD PTR [rsp+0x8],rbx
  44a5ce:	4c 89 f3             	mov    rbx,r14
  44a5d1:	0f 1f 80 00 00 00 00 	nop    DWORD PTR [rax+0x0]
  44a5d8:	88 44 24 1f          	mov    BYTE PTR [rsp+0x1f],al
;  poke double,@SINTable(                                                 peek(integer,@i)),SIN(                     peek(integer,@i)                     mul M_PI              div peek(ubyte,@nibbles(&B1011)) shl peek(ubyte,@nibbles(&B0100)) add peek(ubyte,@nibbles(&B0100)))  
  44a5dc:	66 0f ef c9          	pxor   xmm1,xmm1
  44a5e0:	48 8d 05 c4 87 05 00 	lea    rax,[rip+0x587c4]        # 4a2dab <NIBBLES$+0xb>
  44a5e7:	66 0f ef d2          	pxor   xmm2,xmm2
  44a5eb:	0f b6 10             	movzx  edx,BYTE PTR [rax]
  44a5ee:	f2 48 0f 2a cb       	cvtsi2sd xmm1,rbx
  44a5f3:	f2 0f 59 0d 3d 94 02 	mulsd  xmm1,QWORD PTR [rip+0x2943d]        # 473a38 <_IO_stdin_used+0x4a38>
  44a5fa:	00 
  44a5fb:	4c 8d 34 dd 00 00 00 	lea    r14,[rbx*8+0x0]
  44a602:	00 
  44a603:	f2 48 0f 2a d2       	cvtsi2sd xmm2,rdx
  44a608:	66 0f 28 c1          	movapd xmm0,xmm1
  44a60c:	f2 0f 11 4c 24 10    	movsd  QWORD PTR [rsp+0x10],xmm1
  44a612:	f2 0f 5e c2          	divsd  xmm0,xmm2
  44a616:	e8 35 ad fb ff       	call   405350 <nearbyint@plt>
  44a61b:	0f b6 44 24 1f       	movzx  eax,BYTE PTR [rsp+0x1f]
  44a620:	f2 48 0f 2c d0       	cvttsd2si rdx,xmm0
  44a625:	66 0f ef c0          	pxor   xmm0,xmm0
  44a629:	89 c1                	mov    ecx,eax
  44a62b:	48 d3 e2             	shl    rdx,cl
  44a62e:	48 01 c2             	add    rdx,rax
  44a631:	f2 48 0f 2a c2       	cvtsi2sd xmm0,rdx
  44a636:	e8 35 b6 fb ff       	call   405c70 <sin@plt>
  44a63b:	48 8b 74 24 08       	mov    rsi,QWORD PTR [rsp+0x8]
;  poke double,@COSTable(                                                 peek(integer,@i)),COS(                     peek(integer,@i)                     mul M_PI              div peek(ubyte,@nibbles(&B1011)) shl peek(ubyte,@nibbles(&B0100)) add peek(ubyte,@nibbles(&B0100))) 
  44a640:	48 8d 05 64 87 05 00 	lea    rax,[rip+0x58764]        # 4a2dab <NIBBLES$+0xb>
  44a647:	f2 0f 10 4c 24 10    	movsd  xmm1,QWORD PTR [rsp+0x10]
;  poke double,@SINTable(                                                 peek(integer,@i)),SIN(                     peek(integer,@i)                     mul M_PI              div peek(ubyte,@nibbles(&B1011)) shl peek(ubyte,@nibbles(&B0100)) add peek(ubyte,@nibbles(&B0100)))  
  44a64d:	f2 42 0f 11 84 36 88 	movsd  QWORD PTR [rsi+r14*1+0x8081f88],xmm0
  44a654:	1f 08 08 
;  poke double,@COSTable(                                                 peek(integer,@i)),COS(                     peek(integer,@i)                     mul M_PI              div peek(ubyte,@nibbles(&B1011)) shl peek(ubyte,@nibbles(&B0100)) add peek(ubyte,@nibbles(&B0100))) 
  44a657:	0f b6 00             	movzx  eax,BYTE PTR [rax]
  44a65a:	66 0f ef c0          	pxor   xmm0,xmm0
  44a65e:	f2 48 0f 2a c0       	cvtsi2sd xmm0,rax
  44a663:	f2 0f 5e c8          	divsd  xmm1,xmm0
  44a667:	66 0f 28 c1          	movapd xmm0,xmm1
  44a66b:	e8 e0 ac fb ff       	call   405350 <nearbyint@plt>
  44a670:	0f b6 4d 00          	movzx  ecx,BYTE PTR [rbp+0x0]
  44a674:	f2 48 0f 2c c0       	cvttsd2si rax,xmm0
  44a679:	66 0f ef c0          	pxor   xmm0,xmm0
  44a67d:	48 d3 e0             	shl    rax,cl
  44a680:	48 01 c8             	add    rax,rcx
  44a683:	f2 48 0f 2a c0       	cvtsi2sd xmm0,rax
  44a688:	e8 b3 ac fb ff       	call   405340 <cos@plt>
  44a68d:	48 8b 74 24 08       	mov    rsi,QWORD PTR [rsp+0x8]
  44a692:	f2 42 0f 11 84 36 c8 	movsd  QWORD PTR [rsi+r14*1+0x8082ac8],xmm0
  44a699:	2a 08 08 
;  poke integer,@i,                                                    peek(integer,@i) add peek(ubyte,@nibbles(&B0001))
  44a69c:	41 0f b6 14 24       	movzx  edx,BYTE PTR [r12]
;  cmp                                                                    peek(integer,@i)  ls peek(ubyte,@nibbles(&B0001)) shl peek(ubyte,@nibbles(&B1000)) add peek(ubyte,@nibbles(&B0110)) shl peek(ubyte,@nibbles(&B0100)) add peek(ubyte,@nibbles(&B0111)) jmp L3
  44a6a1:	0f b6 45 00          	movzx  eax,BYTE PTR [rbp+0x0]
  44a6a5:	48 8d 35 fa 86 05 00 	lea    rsi,[rip+0x586fa]        # 4a2da6 <NIBBLES$+0x6>
  44a6ac:	41 0f b6 0f          	movzx  ecx,BYTE PTR [r15]
  44a6b0:	44 0f b6 06          	movzx  r8d,BYTE PTR [rsi]
;  poke integer,@i,                                                    peek(integer,@i) add peek(ubyte,@nibbles(&B0001))
  44a6b4:	48 01 d3             	add    rbx,rdx
;  cmp                                                                    peek(integer,@i)  ls peek(ubyte,@nibbles(&B0001)) shl peek(ubyte,@nibbles(&B1000)) add peek(ubyte,@nibbles(&B0110)) shl peek(ubyte,@nibbles(&B0100)) add peek(ubyte,@nibbles(&B0111)) jmp L3
  44a6b7:	89 c7                	mov    edi,eax
  44a6b9:	48 d3 e2             	shl    rdx,cl
  44a6bc:	89 c1                	mov    ecx,eax
;  poke integer,@i,                                                    peek(integer,@i) add peek(ubyte,@nibbles(&B0001))
  44a6be:	48 89 1d 03 87 05 00 	mov    QWORD PTR [rip+0x58703],rbx        # 4a2dc8 <I$>
;  cmp                                                                    peek(integer,@i)  ls peek(ubyte,@nibbles(&B0001)) shl peek(ubyte,@nibbles(&B1000)) add peek(ubyte,@nibbles(&B0110)) shl peek(ubyte,@nibbles(&B0100)) add peek(ubyte,@nibbles(&B0111)) jmp L3
  44a6c5:	83 e7 3f             	and    edi,0x3f
  44a6c8:	49 d3 e0             	shl    r8,cl
  44a6cb:	0f b6 4e 01          	movzx  ecx,BYTE PTR [rsi+0x1]
  44a6cf:	4c 01 c2             	add    rdx,r8
  44a6d2:	48 01 ca             	add    rdx,rcx
  44a6d5:	48 39 d3             	cmp    rbx,rdx
  44a6d8:	0f 8e fa fe ff ff    	jle    44a5d8 <MEMORY_T::MEMORY_T()+0x218>
;  poke64(                                                                peek(ubyte,@nibbles(&B1100))   shl peek(ubyte,@nibbles(&B1100)) add peek(ubyte,@nibbles(&B0010)),    peek(ubyte,@nibbles(&B1111)) shl peek(ubyte,@nibbles(&B0100)) add peek(ubyte,@nibbles(&B1111))) 
  44a6de:	89 f9                	mov    ecx,edi
  44a6e0:	66 0f ef c0          	pxor   xmm0,xmm0
  44a6e4:	66 0f ef c9          	pxor   xmm1,xmm1
  44a6e8:	48 8b 5c 24 08       	mov    rbx,QWORD PTR [rsp+0x8]
  44a6ed:	0f b6 05 bb 86 05 00 	movzx  eax,BYTE PTR [rip+0x586bb]        # 4a2daf <NIBBLES$+0xf>
  44a6f4:	0f b6 35 b1 86 05 00 	movzx  esi,BYTE PTR [rip+0x586b1]        # 4a2dac <NIBBLES$+0xc>
  44a6fb:	48 89 df             	mov    rdi,rbx
  44a6fe:	48 89 c2             	mov    rdx,rax
  44a701:	48 d3 e2             	shl    rdx,cl
  44a704:	89 f1                	mov    ecx,esi
  44a706:	48 01 c2             	add    rdx,rax
  44a709:	40 0f b6 c6          	movzx  eax,sil
  44a70d:	48 d3 e0             	shl    rax,cl
  44a710:	0f b6 0d 8b 86 05 00 	movzx  ecx,BYTE PTR [rip+0x5868b]        # 4a2da2 <NIBBLES$+0x2>
  44a717:	f2 48 0f 2a ca       	cvtsi2sd xmm1,rdx
  44a71c:	48 01 c8             	add    rax,rcx
  44a71f:	f2 48 0f 2a c0       	cvtsi2sd xmm0,rax
  44a724:	e8 e7 f0 fb ff       	call   409810 <MEMORY_T::POKE64(double, double)>
;  poke64(                                                                peek(ubyte,@nibbles(&B1100))   shl peek(ubyte,@nibbles(&B1100)) add peek(ubyte,@nibbles(&B0011)),    peek(ubyte,@nibbles(&B1111)) shl peek(ubyte,@nibbles(&B0100)) add peek(ubyte,@nibbles(&B1111))) 
  44a729:	66 0f ef c0          	pxor   xmm0,xmm0
  44a72d:	66 0f ef c9          	pxor   xmm1,xmm1
  44a731:	48 89 df             	mov    rdi,rbx
  44a734:	0f b6 05 74 86 05 00 	movzx  eax,BYTE PTR [rip+0x58674]        # 4a2daf <NIBBLES$+0xf>
  44a73b:	0f b6 0d 62 86 05 00 	movzx  ecx,BYTE PTR [rip+0x58662]        # 4a2da4 <NIBBLES$+0x4>
  44a742:	0f b6 35 63 86 05 00 	movzx  esi,BYTE PTR [rip+0x58663]        # 4a2dac <NIBBLES$+0xc>
  44a749:	48 89 c2             	mov    rdx,rax
  44a74c:	48 d3 e2             	shl    rdx,cl
  44a74f:	89 f1                	mov    ecx,esi
  44a751:	48 01 c2             	add    rdx,rax
  44a754:	40 0f b6 c6          	movzx  eax,sil
  44a758:	48 d3 e0             	shl    rax,cl
  44a75b:	0f b6 0d 41 86 05 00 	movzx  ecx,BYTE PTR [rip+0x58641]        # 4a2da3 <NIBBLES$+0x3>
  44a762:	f2 48 0f 2a ca       	cvtsi2sd xmm1,rdx
  44a767:	48 01 c8             	add    rax,rcx
  44a76a:	f2 48 0f 2a c0       	cvtsi2sd xmm0,rax
  44a76f:	e8 9c f0 fb ff       	call   409810 <MEMORY_T::POKE64(double, double)>
;  poke64(                                                                peek(ubyte,@nibbles(&B1100))   shl peek(ubyte,@nibbles(&B1100)) add peek(ubyte,@nibbles(&B0100)),    peek(ubyte,@nibbles(&B1111)) shl peek(ubyte,@nibbles(&B0100)) add peek(ubyte,@nibbles(&B1111))) 
  44a774:	0f b6 05 34 86 05 00 	movzx  eax,BYTE PTR [rip+0x58634]        # 4a2daf <NIBBLES$+0xf>
  44a77b:	0f b6 15 22 86 05 00 	movzx  edx,BYTE PTR [rip+0x58622]        # 4a2da4 <NIBBLES$+0x4>
  44a782:	66 0f ef c0          	pxor   xmm0,xmm0
  44a786:	0f b6 3d 1f 86 05 00 	movzx  edi,BYTE PTR [rip+0x5861f]        # 4a2dac <NIBBLES$+0xc>
  44a78d:	66 0f ef c9          	pxor   xmm1,xmm1
  44a791:	89 d1                	mov    ecx,edx
  44a793:	48 89 c6             	mov    rsi,rax
  44a796:	48 d3 e6             	shl    rsi,cl
  44a799:	89 f9                	mov    ecx,edi
  44a79b:	48 01 c6             	add    rsi,rax
  44a79e:	40 0f b6 c7          	movzx  eax,dil
  44a7a2:	48 89 df             	mov    rdi,rbx
  44a7a5:	48 d3 e0             	shl    rax,cl
  44a7a8:	f2 48 0f 2a ce       	cvtsi2sd xmm1,rsi
  44a7ad:	48 01 d0             	add    rax,rdx
  44a7b0:	f2 48 0f 2a c0       	cvtsi2sd xmm0,rax
  44a7b5:	e8 56 f0 fb ff       	call   409810 <MEMORY_T::POKE64(double, double)>
;  poke64(                                                                peek(ubyte,@nibbles(&B1100))   shl peek(ubyte,@nibbles(&B1100)) add peek(ubyte,@nibbles(&B0101)),    peek(ubyte,@nibbles(&B1111)) shl peek(ubyte,@nibbles(&B0100)) add peek(ubyte,@nibbles(&B1111))) 
  44a7ba:	66 0f ef c0          	pxor   xmm0,xmm0
  44a7be:	66 0f ef c9          	pxor   xmm1,xmm1
  44a7c2:	48 89 df             	mov    rdi,rbx
  44a7c5:	0f b6 05 e3 85 05 00 	movzx  eax,BYTE PTR [rip+0x585e3]        # 4a2daf <NIBBLES$+0xf>
  44a7cc:	0f b6 0d d1 85 05 00 	movzx  ecx,BYTE PTR [rip+0x585d1]        # 4a2da4 <NIBBLES$+0x4>
  44a7d3:	0f b6 35 d2 85 05 00 	movzx  esi,BYTE PTR [rip+0x585d2]        # 4a2dac <NIBBLES$+0xc>
  44a7da:	48 89 c2             	mov    rdx,rax
  44a7dd:	48 d3 e2             	shl    rdx,cl
  44a7e0:	89 f1                	mov    ecx,esi
  44a7e2:	48 01 c2             	add    rdx,rax
  44a7e5:	40 0f b6 c6          	movzx  eax,sil
  44a7e9:	48 d3 e0             	shl    rax,cl
  44a7ec:	0f b6 0d b2 85 05 00 	movzx  ecx,BYTE PTR [rip+0x585b2]        # 4a2da5 <NIBBLES$+0x5>
  44a7f3:	f2 48 0f 2a ca       	cvtsi2sd xmm1,rdx
  44a7f8:	48 01 c8             	add    rax,rcx
  44a7fb:	f2 48 0f 2a c0       	cvtsi2sd xmm0,rax
  44a800:	e8 0b f0 fb ff       	call   409810 <MEMORY_T::POKE64(double, double)>
;  poke64(                                                                peek(ubyte,@nibbles(&B1100))   shl peek(ubyte,@nibbles(&B1100)) add peek(ubyte,@nibbles(&B1001)),    peek(ubyte,@nibbles(&B1111)) shl peek(ubyte,@nibbles(&B0100)) add peek(ubyte,@nibbles(&B1111))) 
  44a805:	66 0f ef c0          	pxor   xmm0,xmm0
  44a809:	66 0f ef c9          	pxor   xmm1,xmm1
  44a80d:	48 89 df             	mov    rdi,rbx
  44a810:	0f b6 05 98 85 05 00 	movzx  eax,BYTE PTR [rip+0x58598]        # 4a2daf <NIBBLES$+0xf>
  44a817:	0f b6 0d 86 85 05 00 	movzx  ecx,BYTE PTR [rip+0x58586]        # 4a2da4 <NIBBLES$+0x4>
  44a81e:	0f b6 35 87 85 05 00 	movzx  esi,BYTE PTR [rip+0x58587]        # 4a2dac <NIBBLES$+0xc>
  44a825:	48 89 c2             	mov    rdx,rax
  44a828:	48 d3 e2             	shl    rdx,cl
  44a82b:	89 f1                	mov    ecx,esi
  44a82d:	48 01 c2             	add    rdx,rax
  44a830:	40 0f b6 c6          	movzx  eax,sil
  44a834:	48 d3 e0             	shl    rax,cl
  44a837:	0f b6 0d 6b 85 05 00 	movzx  ecx,BYTE PTR [rip+0x5856b]        # 4a2da9 <NIBBLES$+0x9>
  44a83e:	f2 48 0f 2a ca       	cvtsi2sd xmm1,rdx
  44a843:	48 01 c8             	add    rax,rcx
  44a846:	f2 48 0f 2a c0       	cvtsi2sd xmm0,rax
  44a84b:	e8 c0 ef fb ff       	call   409810 <MEMORY_T::POKE64(double, double)>
;  poke64(                                                                peek(ubyte,@nibbles(&B1100))   shl peek(ubyte,@nibbles(&B1100)) add peek(ubyte,@nibbles(&B0100)) shl peek(ubyte,@nibbles(&B0110)) add peek(ubyte,@nibbles(&B1100)) shl peek(ubyte,@nibbles(&B0010)),    peek(ubyte,@nibbles(&B1111)) shl peek(ubyte,@nibbles(&B0100)) add peek(ubyte,@nibbles(&B1111))) 
  44a850:	66 0f ef c0          	pxor   xmm0,xmm0
  44a854:	66 0f ef c9          	pxor   xmm1,xmm1
  44a858:	48 89 df             	mov    rdi,rbx
  44a85b:	0f b6 05 4d 85 05 00 	movzx  eax,BYTE PTR [rip+0x5854d]        # 4a2daf <NIBBLES$+0xf>
  44a862:	0f b6 0d 3b 85 05 00 	movzx  ecx,BYTE PTR [rip+0x5853b]        # 4a2da4 <NIBBLES$+0x4>
  44a869:	0f b6 35 3c 85 05 00 	movzx  esi,BYTE PTR [rip+0x5853c]        # 4a2dac <NIBBLES$+0xc>
  44a870:	48 89 c2             	mov    rdx,rax
  44a873:	48 d3 e2             	shl    rdx,cl
  44a876:	49 89 f6             	mov    r14,rsi
  44a879:	48 01 c2             	add    rdx,rax
  44a87c:	0f b6 c1             	movzx  eax,cl
  44a87f:	0f b6 0d 20 85 05 00 	movzx  ecx,BYTE PTR [rip+0x58520]        # 4a2da6 <NIBBLES$+0x6>
  44a886:	f2 48 0f 2a ca       	cvtsi2sd xmm1,rdx
  44a88b:	48 d3 e0             	shl    rax,cl
  44a88e:	89 f1                	mov    ecx,esi
  44a890:	49 d3 e6             	shl    r14,cl
  44a893:	0f b6 0d 08 85 05 00 	movzx  ecx,BYTE PTR [rip+0x58508]        # 4a2da2 <NIBBLES$+0x2>
  44a89a:	4c 01 f0             	add    rax,r14
  44a89d:	48 d3 e6             	shl    rsi,cl
  44a8a0:	48 01 f0             	add    rax,rsi
  44a8a3:	f2 48 0f 2a c0       	cvtsi2sd xmm0,rax
  44a8a8:	e8 63 ef fb ff       	call   409810 <MEMORY_T::POKE64(double, double)>
;  poke64(                                                                peek(ubyte,@nibbles(&B0010))   shl peek(ubyte,@nibbles(&B1000)) add peek(ubyte,@nibbles(&B1000)) shl peek(ubyte,@nibbles(&B0100)) add peek(ubyte,@nibbles(&B1000))),   peek(ubyte,@nibbles(&B0100))  
  44a8ad:	66 0f ef c0          	pxor   xmm0,xmm0
  44a8b1:	66 0f ef c9          	pxor   xmm1,xmm1
  44a8b5:	48 89 df             	mov    rdi,rbx
  44a8b8:	0f b6 15 e9 84 05 00 	movzx  edx,BYTE PTR [rip+0x584e9]        # 4a2da8 <NIBBLES$+0x8>
  44a8bf:	0f b6 35 de 84 05 00 	movzx  esi,BYTE PTR [rip+0x584de]        # 4a2da4 <NIBBLES$+0x4>
  44a8c6:	0f b6 05 d5 84 05 00 	movzx  eax,BYTE PTR [rip+0x584d5]        # 4a2da2 <NIBBLES$+0x2>
  44a8cd:	48 89 d1             	mov    rcx,rdx
  44a8d0:	f2 0f 2a ce          	cvtsi2sd xmm1,esi
  44a8d4:	49 89 d6             	mov    r14,rdx
  44a8d7:	48 d3 e0             	shl    rax,cl
  44a8da:	89 f1                	mov    ecx,esi
  44a8dc:	49 d3 e6             	shl    r14,cl
  44a8df:	4c 01 f0             	add    rax,r14
  44a8e2:	4c 8d 74 24 2f       	lea    r14,[rsp+0x2f]
  44a8e7:	48 01 d0             	add    rax,rdx
  44a8ea:	f2 48 0f 2a c0       	cvtsi2sd xmm0,rax
  44a8ef:	e8 1c ef fb ff       	call   409810 <MEMORY_T::POKE64(double, double)>
;  poke64(                                                                peek(ubyte,@nibbles(&B1101))   shl peek(ubyte,@nibbles(&B1100)) add peek(ubyte,@nibbles(&B0001)) shl peek(ubyte,@nibbles(&B0100)) add peek(ubyte,@nibbles(&B1000))),   peek(ubyte,@nibbles(&B0001)) shl peek(ubyte,@nibbles(&B0100)) add peek(ubyte,@nibbles(&B1111))
  44a8f4:	0f b6 0d a9 84 05 00 	movzx  ecx,BYTE PTR [rip+0x584a9]        # 4a2da4 <NIBBLES$+0x4>
  44a8fb:	66 0f ef c0          	pxor   xmm0,xmm0
  44a8ff:	0f b6 15 9b 84 05 00 	movzx  edx,BYTE PTR [rip+0x5849b]        # 4a2da1 <NIBBLES$+0x1>
  44a906:	0f b6 05 a0 84 05 00 	movzx  eax,BYTE PTR [rip+0x584a0]        # 4a2dad <NIBBLES$+0xd>
  44a90d:	0f b6 35 9b 84 05 00 	movzx  esi,BYTE PTR [rip+0x5849b]        # 4a2daf <NIBBLES$+0xf>
  44a914:	66 0f ef c9          	pxor   xmm1,xmm1
  44a918:	48 89 df             	mov    rdi,rbx
  44a91b:	48 d3 e2             	shl    rdx,cl
  44a91e:	0f b6 0d 87 84 05 00 	movzx  ecx,BYTE PTR [rip+0x58487]        # 4a2dac <NIBBLES$+0xc>
  44a925:	48 01 d6             	add    rsi,rdx
  44a928:	48 d3 e0             	shl    rax,cl
  44a92b:	f2 48 0f 2a ce       	cvtsi2sd xmm1,rsi
  44a930:	48 01 d0             	add    rax,rdx
  44a933:	0f b6 15 6e 84 05 00 	movzx  edx,BYTE PTR [rip+0x5846e]        # 4a2da8 <NIBBLES$+0x8>
  44a93a:	48 01 d0             	add    rax,rdx
  44a93d:	f2 48 0f 2a c0       	cvtsi2sd xmm0,rax
  44a942:	e8 c9 ee fb ff       	call   409810 <MEMORY_T::POKE64(double, double)>
;  poke64(                                                                peek(ubyte,@nibbles(&B1100))   shl peek(ubyte,@nibbles(&B1100)) add peek(ubyte,@nibbles(&B1110)) shl peek(ubyte,@nibbles(&B0100)) add peek(ubyte,@nibbles(&B0111))),   peek(ubyte,@nibbles(&B0000))
  44a947:	0f b6 15 5e 84 05 00 	movzx  edx,BYTE PTR [rip+0x5845e]        # 4a2dac <NIBBLES$+0xc>
  44a94e:	66 0f ef c0          	pxor   xmm0,xmm0
  44a952:	0f b6 0d 4b 84 05 00 	movzx  ecx,BYTE PTR [rip+0x5844b]        # 4a2da4 <NIBBLES$+0x4>
  44a959:	0f b6 05 4e 84 05 00 	movzx  eax,BYTE PTR [rip+0x5844e]        # 4a2dae <NIBBLES$+0xe>
  44a960:	0f b6 35 39 84 05 00 	movzx  esi,BYTE PTR [rip+0x58439]        # 4a2da0 <NIBBLES$>
  44a967:	66 0f ef c9          	pxor   xmm1,xmm1
  44a96b:	48 89 df             	mov    rdi,rbx
  44a96e:	48 d3 e0             	shl    rax,cl
  44a971:	f2 0f 2a ce          	cvtsi2sd xmm1,esi
  44a975:	89 d1                	mov    ecx,edx
  44a977:	48 d3 e2             	shl    rdx,cl
  44a97a:	48 01 d0             	add    rax,rdx
  44a97d:	0f b6 15 23 84 05 00 	movzx  edx,BYTE PTR [rip+0x58423]        # 4a2da7 <NIBBLES$+0x7>
  44a984:	48 01 d0             	add    rax,rdx
  44a987:	f2 48 0f 2a c0       	cvtsi2sd xmm0,rax
  44a98c:	e8 7f ee fb ff       	call   409810 <MEMORY_T::POKE64(double, double)>
;  poke64(                                                                peek(ubyte,@nibbles(&B1100))   shl peek(ubyte,@nibbles(&B1100)) add peek(ubyte,@nibbles(&B1110)) shl peek(ubyte,@nibbles(&B0100)) add peek(ubyte,@nibbles(&B1000))),   peek(ubyte,@nibbles(&B0010))
  44a991:	0f b6 15 14 84 05 00 	movzx  edx,BYTE PTR [rip+0x58414]        # 4a2dac <NIBBLES$+0xc>
  44a998:	66 0f ef c0          	pxor   xmm0,xmm0
  44a99c:	0f b6 0d 01 84 05 00 	movzx  ecx,BYTE PTR [rip+0x58401]        # 4a2da4 <NIBBLES$+0x4>
  44a9a3:	0f b6 05 04 84 05 00 	movzx  eax,BYTE PTR [rip+0x58404]        # 4a2dae <NIBBLES$+0xe>
  44a9aa:	0f b6 35 f1 83 05 00 	movzx  esi,BYTE PTR [rip+0x583f1]        # 4a2da2 <NIBBLES$+0x2>
  44a9b1:	66 0f ef c9          	pxor   xmm1,xmm1
  44a9b5:	48 89 df             	mov    rdi,rbx
  44a9b8:	48 d3 e0             	shl    rax,cl
  44a9bb:	f2 0f 2a ce          	cvtsi2sd xmm1,esi
  44a9bf:	89 d1                	mov    ecx,edx
  44a9c1:	48 d3 e2             	shl    rdx,cl
  44a9c4:	48 01 d0             	add    rax,rdx
  44a9c7:	0f b6 15 da 83 05 00 	movzx  edx,BYTE PTR [rip+0x583da]        # 4a2da8 <NIBBLES$+0x8>
  44a9ce:	48 01 d0             	add    rax,rdx
  44a9d1:	f2 48 0f 2a c0       	cvtsi2sd xmm0,rax
  44a9d6:	e8 35 ee fb ff       	call   409810 <MEMORY_T::POKE64(double, double)>
;  poke64(                                                                peek(ubyte,@nibbles(&B1100))   shl peek(ubyte,@nibbles(&B1100)) add peek(ubyte,@nibbles(&B1110)) shl peek(ubyte,@nibbles(&B0100)) add peek(ubyte,@nibbles(&B1001))),   peek(ubyte,@nibbles(&B0111)) 
  44a9db:	0f b6 15 ca 83 05 00 	movzx  edx,BYTE PTR [rip+0x583ca]        # 4a2dac <NIBBLES$+0xc>
  44a9e2:	66 0f ef c0          	pxor   xmm0,xmm0
  44a9e6:	0f b6 0d b7 83 05 00 	movzx  ecx,BYTE PTR [rip+0x583b7]        # 4a2da4 <NIBBLES$+0x4>
  44a9ed:	0f b6 05 ba 83 05 00 	movzx  eax,BYTE PTR [rip+0x583ba]        # 4a2dae <NIBBLES$+0xe>
  44a9f4:	0f b6 35 ac 83 05 00 	movzx  esi,BYTE PTR [rip+0x583ac]        # 4a2da7 <NIBBLES$+0x7>
  44a9fb:	66 0f ef c9          	pxor   xmm1,xmm1
  44a9ff:	48 89 df             	mov    rdi,rbx
  44aa02:	48 d3 e0             	shl    rax,cl
  44aa05:	f2 0f 2a ce          	cvtsi2sd xmm1,esi
  44aa09:	89 d1                	mov    ecx,edx
  44aa0b:	48 d3 e2             	shl    rdx,cl
  44aa0e:	48 01 d0             	add    rax,rdx
  44aa11:	0f b6 15 91 83 05 00 	movzx  edx,BYTE PTR [rip+0x58391]        # 4a2da9 <NIBBLES$+0x9>
  44aa18:	48 01 d0             	add    rax,rdx
  44aa1b:	f2 48 0f 2a c0       	cvtsi2sd xmm0,rax
  44aa20:	e8 eb ed fb ff       	call   409810 <MEMORY_T::POKE64(double, double)>
;  poke64(                                                                peek(ubyte,@nibbles(&B1100))   shl peek(ubyte,@nibbles(&B1100)) add peek(ubyte,@nibbles(&B1110)) shl peek(ubyte,@nibbles(&B0100)) add peek(ubyte,@nibbles(&B1010))),   peek(ubyte,@nibbles(&B0111))
  44aa25:	0f b6 15 80 83 05 00 	movzx  edx,BYTE PTR [rip+0x58380]        # 4a2dac <NIBBLES$+0xc>
  44aa2c:	66 0f ef c0          	pxor   xmm0,xmm0
  44aa30:	0f b6 0d 6d 83 05 00 	movzx  ecx,BYTE PTR [rip+0x5836d]        # 4a2da4 <NIBBLES$+0x4>
  44aa37:	0f b6 05 70 83 05 00 	movzx  eax,BYTE PTR [rip+0x58370]        # 4a2dae <NIBBLES$+0xe>
  44aa3e:	0f b6 35 62 83 05 00 	movzx  esi,BYTE PTR [rip+0x58362]        # 4a2da7 <NIBBLES$+0x7>
  44aa45:	66 0f ef c9          	pxor   xmm1,xmm1
  44aa49:	48 89 df             	mov    rdi,rbx
  44aa4c:	48 d3 e0             	shl    rax,cl
  44aa4f:	f2 0f 2a ce          	cvtsi2sd xmm1,esi
  44aa53:	89 d1                	mov    ecx,edx
  44aa55:	48 d3 e2             	shl    rdx,cl
  44aa58:	48 01 d0             	add    rax,rdx
  44aa5b:	0f b6 15 48 83 05 00 	movzx  edx,BYTE PTR [rip+0x58348]        # 4a2daa <NIBBLES$+0xa>
  44aa62:	48 01 d0             	add    rax,rdx
  44aa65:	f2 48 0f 2a c0       	cvtsi2sd xmm0,rax
  44aa6a:	e8 a1 ed fb ff       	call   409810 <MEMORY_T::POKE64(double, double)>
;  open "complete.318023-02.bin" for binary as peek(ubyte,@nibbles(&B0001))
  44aa6f:	be 16 00 00 00       	mov    esi,0x16
  44aa74:	c6 44 24 2f 00       	mov    BYTE PTR [rsp+0x2f],0x0
;  poke integer,@i,                                                    peek(ubyte,@nibbles(&B0000))
  44aa79:	0f b6 05 20 83 05 00 	movzx  eax,BYTE PTR [rip+0x58320]        # 4a2da0 <NIBBLES$>
;  open "complete.318023-02.bin" for binary as peek(ubyte,@nibbles(&B0001))
  44aa80:	48 8d 3d 9a 7f 02 00 	lea    rdi,[rip+0x27f9a]        # 472a21 <_IO_stdin_used+0x3a21>
;  poke integer,@i,                                                    peek(ubyte,@nibbles(&B0000))
  44aa87:	48 89 05 3a 83 05 00 	mov    QWORD PTR [rip+0x5833a],rax        # 4a2dc8 <I$>
;  open "complete.318023-02.bin" for binary as peek(ubyte,@nibbles(&B0001))
  44aa8e:	e8 dd f9 01 00       	call   46a470 <fb_StrAllocTempDescZEx>
  44aa93:	45 31 c9             	xor    r9d,r9d
  44aa96:	31 c9                	xor    ecx,ecx
  44aa98:	31 d2                	xor    edx,edx
  44aa9a:	44 0f b6 05 ff 82 05 	movzx  r8d,BYTE PTR [rip+0x582ff]        # 4a2da1 <NIBBLES$+0x1>
  44aaa1:	00 
  44aaa2:	48 89 c7             	mov    rdi,rax
  44aaa5:	31 f6                	xor    esi,esi
  44aaa7:	e8 c4 b0 01 00       	call   465b70 <fb_FileOpen>
  44aaac:	0f 1f 40 00          	nop    DWORD PTR [rax+0x0]
;  get #1,,tmp: poke double,@basic(                                       peek(integer,@i)),   peek(ubyte,@tmp)
  44aab0:	b9 01 00 00 00       	mov    ecx,0x1
  44aab5:	4c 89 f2             	mov    rdx,r14
  44aab8:	31 f6                	xor    esi,esi
  44aaba:	bf 01 00 00 00       	mov    edi,0x1
  44aabf:	e8 2c a7 01 00       	call   4651f0 <fb_FileGetLarge>
  44aac4:	0f b6 44 24 2f       	movzx  eax,BYTE PTR [rsp+0x2f]
  44aac9:	66 0f ef c0          	pxor   xmm0,xmm0
  44aacd:	48 8b 15 f4 82 05 00 	mov    rdx,QWORD PTR [rip+0x582f4]        # 4a2dc8 <I$>
;  cmp                                                                    peek(integer,@i)  ls peek(ubyte,@nibbles(&B0001)) shl peek(ubyte,@nibbles(&B1100)) add peek(ubyte,@nibbles(&B1111)) shl peek(ubyte,@nibbles(&B1000)) add peek(ubyte,@nibbles(&B1111)) shl peek(ubyte,@nibbles(&B0100)) add peek(ubyte,@nibbles(&B1111)) jmp L4
  44aad4:	48 8d 3d d1 82 05 00 	lea    rdi,[rip+0x582d1]        # 4a2dac <NIBBLES$+0xc>
;  get #1,,tmp: poke double,@basic(                                       peek(integer,@i)),   peek(ubyte,@tmp)
  44aadb:	f2 0f 2a c0          	cvtsi2sd xmm0,eax
  44aadf:	f2 0f 11 84 d3 00 00 	movsd  QWORD PTR [rbx+rdx*8+0x8020000],xmm0
  44aae6:	02 08 
;  cmp                                                                    peek(integer,@i)  ls peek(ubyte,@nibbles(&B0001)) shl peek(ubyte,@nibbles(&B1100)) add peek(ubyte,@nibbles(&B1111)) shl peek(ubyte,@nibbles(&B1000)) add peek(ubyte,@nibbles(&B1111)) shl peek(ubyte,@nibbles(&B0100)) add peek(ubyte,@nibbles(&B1111)) jmp L4
  44aae8:	0f b6 0f             	movzx  ecx,BYTE PTR [rdi]
;  poke integer,@i,                                                    peek(integer,@i) add peek(ubyte,@nibbles(&B0001))
  44aaeb:	41 0f b6 04 24       	movzx  eax,BYTE PTR [r12]
;  cmp                                                                    peek(integer,@i)  ls peek(ubyte,@nibbles(&B0001)) shl peek(ubyte,@nibbles(&B1100)) add peek(ubyte,@nibbles(&B1111)) shl peek(ubyte,@nibbles(&B1000)) add peek(ubyte,@nibbles(&B1111)) shl peek(ubyte,@nibbles(&B0100)) add peek(ubyte,@nibbles(&B1111)) jmp L4
  44aaf0:	41 0f b6 75 00       	movzx  esi,BYTE PTR [r13+0x0]
;  poke integer,@i,                                                    peek(integer,@i) add peek(ubyte,@nibbles(&B0001))
  44aaf5:	48 01 c2             	add    rdx,rax
;  cmp                                                                    peek(integer,@i)  ls peek(ubyte,@nibbles(&B0001)) shl peek(ubyte,@nibbles(&B1100)) add peek(ubyte,@nibbles(&B1111)) shl peek(ubyte,@nibbles(&B1000)) add peek(ubyte,@nibbles(&B1111)) shl peek(ubyte,@nibbles(&B0100)) add peek(ubyte,@nibbles(&B1111)) jmp L4
  44aaf8:	48 d3 e0             	shl    rax,cl
  44aafb:	41 0f b6 0f          	movzx  ecx,BYTE PTR [r15]
  44aaff:	48 89 f7             	mov    rdi,rsi
;  poke integer,@i,                                                    peek(integer,@i) add peek(ubyte,@nibbles(&B0001))
  44ab02:	48 89 15 bf 82 05 00 	mov    QWORD PTR [rip+0x582bf],rdx        # 4a2dc8 <I$>
;  cmp                                                                    peek(integer,@i)  ls peek(ubyte,@nibbles(&B0001)) shl peek(ubyte,@nibbles(&B1100)) add peek(ubyte,@nibbles(&B1111)) shl peek(ubyte,@nibbles(&B1000)) add peek(ubyte,@nibbles(&B1111)) shl peek(ubyte,@nibbles(&B0100)) add peek(ubyte,@nibbles(&B1111)) jmp L4
  44ab09:	48 d3 e7             	shl    rdi,cl
  44ab0c:	0f b6 4d 00          	movzx  ecx,BYTE PTR [rbp+0x0]
  44ab10:	48 01 f8             	add    rax,rdi
  44ab13:	48 01 f0             	add    rax,rsi
  44ab16:	48 d3 e6             	shl    rsi,cl
  44ab19:	48 01 f0             	add    rax,rsi
  44ab1c:	48 39 c2             	cmp    rdx,rax
  44ab1f:	7e 8f                	jle    44aab0 <MEMORY_T::MEMORY_T()+0x6f0>
;  poke integer,@i,                                                    peek(ubyte,@nibbles(&B0000))
  44ab21:	0f b6 05 78 82 05 00 	movzx  eax,BYTE PTR [rip+0x58278]        # 4a2da0 <NIBBLES$>
  44ab28:	48 89 05 99 82 05 00 	mov    QWORD PTR [rip+0x58299],rax        # 4a2dc8 <I$>
  44ab2f:	90                   	nop
;  get #1,,tmp: poke double,@kernal(peek(integer,@i)),                 peek(ubyte,@tmp)
  44ab30:	b9 01 00 00 00       	mov    ecx,0x1
  44ab35:	4c 89 f2             	mov    rdx,r14
  44ab38:	31 f6                	xor    esi,esi
  44ab3a:	bf 01 00 00 00       	mov    edi,0x1
  44ab3f:	e8 ac a6 01 00       	call   4651f0 <fb_FileGetLarge>
  44ab44:	0f b6 44 24 2f       	movzx  eax,BYTE PTR [rsp+0x2f]
  44ab49:	66 0f ef c0          	pxor   xmm0,xmm0
  44ab4d:	48 8b 15 74 82 05 00 	mov    rdx,QWORD PTR [rip+0x58274]        # 4a2dc8 <I$>
;  cmp                                                                    peek(integer,@i)  ls peek(ubyte,@nibbles(&B0001)) shl peek(ubyte,@nibbles(&B1100)) add peek(ubyte,@nibbles(&B1111)) shl peek(ubyte,@nibbles(&B1000)) add peek(ubyte,@nibbles(&B1111)) shl peek(ubyte,@nibbles(&B0100)) add peek(ubyte,@nibbles(&B1111)) jmp L5
  44ab54:	48 8d 0d 51 82 05 00 	lea    rcx,[rip+0x58251]        # 4a2dac <NIBBLES$+0xc>
;  get #1,,tmp: poke double,@kernal(peek(integer,@i)),                 peek(ubyte,@tmp)
  44ab5b:	f2 0f 2a c0          	cvtsi2sd xmm0,eax
  44ab5f:	f2 0f 11 84 d3 00 00 	movsd  QWORD PTR [rbx+rdx*8+0x8000000],xmm0
  44ab66:	00 08 
;  poke integer,@i,                                                    peek(integer,@i) add peek(ubyte,@nibbles(&B0001)) 
  44ab68:	41 0f b6 04 24       	movzx  eax,BYTE PTR [r12]
;  cmp                                                                    peek(integer,@i)  ls peek(ubyte,@nibbles(&B0001)) shl peek(ubyte,@nibbles(&B1100)) add peek(ubyte,@nibbles(&B1111)) shl peek(ubyte,@nibbles(&B1000)) add peek(ubyte,@nibbles(&B1111)) shl peek(ubyte,@nibbles(&B0100)) add peek(ubyte,@nibbles(&B1111)) jmp L5
  44ab6d:	0f b6 09             	movzx  ecx,BYTE PTR [rcx]
  44ab70:	41 0f b6 75 00       	movzx  esi,BYTE PTR [r13+0x0]
;  poke integer,@i,                                                    peek(integer,@i) add peek(ubyte,@nibbles(&B0001)) 
  44ab75:	48 01 c2             	add    rdx,rax
  44ab78:	48 89 c7             	mov    rdi,rax
;  cmp                                                                    peek(integer,@i)  ls peek(ubyte,@nibbles(&B0001)) shl peek(ubyte,@nibbles(&B1100)) add peek(ubyte,@nibbles(&B1111)) shl peek(ubyte,@nibbles(&B1000)) add peek(ubyte,@nibbles(&B1111)) shl peek(ubyte,@nibbles(&B0100)) add peek(ubyte,@nibbles(&B1111)) jmp L5
  44ab7b:	48 d3 e0             	shl    rax,cl
  44ab7e:	41 0f b6 0f          	movzx  ecx,BYTE PTR [r15]
  44ab82:	49 89 f3             	mov    r11,rsi
;  poke integer,@i,                                                    peek(integer,@i) add peek(ubyte,@nibbles(&B0001)) 
  44ab85:	48 89 15 3c 82 05 00 	mov    QWORD PTR [rip+0x5823c],rdx        # 4a2dc8 <I$>
;  cmp                                                                    peek(integer,@i)  ls peek(ubyte,@nibbles(&B0001)) shl peek(ubyte,@nibbles(&B1100)) add peek(ubyte,@nibbles(&B1111)) shl peek(ubyte,@nibbles(&B1000)) add peek(ubyte,@nibbles(&B1111)) shl peek(ubyte,@nibbles(&B0100)) add peek(ubyte,@nibbles(&B1111)) jmp L5
  44ab8c:	49 d3 e3             	shl    r11,cl
  44ab8f:	0f b6 4d 00          	movzx  ecx,BYTE PTR [rbp+0x0]
  44ab93:	4c 01 d8             	add    rax,r11
  44ab96:	48 01 f0             	add    rax,rsi
  44ab99:	48 d3 e6             	shl    rsi,cl
  44ab9c:	48 01 f0             	add    rax,rsi
  44ab9f:	48 39 c2             	cmp    rdx,rax
  44aba2:	7e 8c                	jle    44ab30 <MEMORY_T::MEMORY_T()+0x770>
;  close                                                                  peek(ubyte,@nibbles(&B0001))  
  44aba4:	e8 b7 a0 01 00       	call   464c60 <fb_FileClose>
;  poke double,@basic(&HFED),&HA9: poke double,@basic(&HFEE),&HBF
  44aba9:	66 0f 28 05 cf 90 02 	movapd xmm0,XMMWORD PTR [rip+0x290cf]        # 473c80 <_IO_stdin_used+0x4c80>
  44abb0:	00 
;  poke double,@kernal(&HFC3),&H6C: poke double,@kernal(&HFC4),&H1C: poke double,@kernal(&HFC5),&H03
  44abb1:	66 0f 28 15 77 91 02 	movapd xmm2,XMMWORD PTR [rip+0x29177]        # 473d30 <_IO_stdin_used+0x4d30>
  44abb8:	00 
;  open "./chargen/2.c64" for binary as                                   peek(ubyte,@nibbles(&B0001))
  44abb9:	be 0f 00 00 00       	mov    esi,0xf
;  poke double,@basic(&HFED),&HA9: poke double,@basic(&HFEE),&HBF
  44abbe:	f3 0f 7e 0d 3a 91 02 	movq   xmm1,QWORD PTR [rip+0x2913a]        # 473d00 <_IO_stdin_used+0x4d00>
  44abc5:	00 
;  poke double,@basic(&HFFD),&H4C: poke double,@basic(&HFFE),&H00: poke double,@basic(&HFFF),&HE0
  44abc6:	48 8b 05 7b 88 02 00 	mov    rax,QWORD PTR [rip+0x2887b]        # 473448 <_IO_stdin_used+0x4448>
;  open "./chargen/2.c64" for binary as                                   peek(ubyte,@nibbles(&B0001))
  44abcd:	48 8d 3d 64 7e 02 00 	lea    rdi,[rip+0x27e64]        # 472a38 <_IO_stdin_used+0x3a38>
;  poke double,@basic(&HFED),&HA9: poke double,@basic(&HFEE),&HBF
  44abd4:	0f 11 83 68 7f 02 08 	movups XMMWORD PTR [rbx+0x8027f68],xmm0
  44abdb:	66 0f 28 05 ad 90 02 	movapd xmm0,XMMWORD PTR [rip+0x290ad]        # 473c90 <_IO_stdin_used+0x4c90>
  44abe2:	00 
;  poke double,@kernal(&HFC3),&H6C: poke double,@kernal(&HFC4),&H1C: poke double,@kernal(&HFC5),&H03
  44abe3:	0f 11 93 38 7e 00 08 	movups XMMWORD PTR [rbx+0x8007e38],xmm2
  44abea:	66 0f 28 15 4e 91 02 	movapd xmm2,XMMWORD PTR [rip+0x2914e]        # 473d40 <_IO_stdin_used+0x4d40>
  44abf1:	00 
;  poke double,@basic(&HFED),&HA9: poke double,@basic(&HFEE),&HBF
  44abf2:	0f 11 83 78 7f 02 08 	movups XMMWORD PTR [rbx+0x8027f78],xmm0
  44abf9:	66 0f 28 05 9f 90 02 	movapd xmm0,XMMWORD PTR [rip+0x2909f]        # 473ca0 <_IO_stdin_used+0x4ca0>
  44ac00:	00 
;  poke double,@kernal(&HFC3),&H6C: poke double,@kernal(&HFC4),&H1C: poke double,@kernal(&HFC5),&H03
  44ac01:	0f 11 93 48 7e 00 08 	movups XMMWORD PTR [rbx+0x8007e48],xmm2
  44ac08:	66 0f 28 15 40 91 02 	movapd xmm2,XMMWORD PTR [rip+0x29140]        # 473d50 <_IO_stdin_used+0x4d50>
  44ac0f:	00 
;  poke double,@basic(&HFED),&HA9: poke double,@basic(&HFEE),&HBF
  44ac10:	0f 11 83 88 7f 02 08 	movups XMMWORD PTR [rbx+0x8027f88],xmm0
  44ac17:	66 0f 28 05 91 90 02 	movapd xmm0,XMMWORD PTR [rip+0x29091]        # 473cb0 <_IO_stdin_used+0x4cb0>
  44ac1e:	00 
;  poke double,@kernal(&HFC3),&H6C: poke double,@kernal(&HFC4),&H1C: poke double,@kernal(&HFC5),&H03
  44ac1f:	0f 11 93 68 7e 00 08 	movups XMMWORD PTR [rbx+0x8007e68],xmm2
  44ac26:	66 0f 28 15 32 91 02 	movapd xmm2,XMMWORD PTR [rip+0x29132]        # 473d60 <_IO_stdin_used+0x4d60>
  44ac2d:	00 
;  poke double,@basic(&HFED),&HA9: poke double,@basic(&HFEE),&HBF
  44ac2e:	0f 11 83 98 7f 02 08 	movups XMMWORD PTR [rbx+0x8027f98],xmm0
  44ac35:	66 0f 28 05 83 90 02 	movapd xmm0,XMMWORD PTR [rip+0x29083]        # 473cc0 <_IO_stdin_used+0x4cc0>
  44ac3c:	00 
  44ac3d:	0f 11 8b e8 7f 02 08 	movups XMMWORD PTR [rbx+0x8027fe8],xmm1
  44ac44:	0f 11 83 a8 7f 02 08 	movups XMMWORD PTR [rbx+0x8027fa8],xmm0
  44ac4b:	66 0f 28 05 7d 90 02 	movapd xmm0,XMMWORD PTR [rip+0x2907d]        # 473cd0 <_IO_stdin_used+0x4cd0>
  44ac52:	00 
;  poke double,@basic(&HFFD),&H4C: poke double,@basic(&HFFE),&H00: poke double,@basic(&HFFF),&HE0
  44ac53:	48 89 83 f8 7f 02 08 	mov    QWORD PTR [rbx+0x8027ff8],rax
;  poke double,@basic(&HFED),&HA9: poke double,@basic(&HFEE),&HBF
  44ac5a:	0f 11 83 b8 7f 02 08 	movups XMMWORD PTR [rbx+0x8027fb8],xmm0
  44ac61:	66 0f 28 05 77 90 02 	movapd xmm0,XMMWORD PTR [rip+0x29077]        # 473ce0 <_IO_stdin_used+0x4ce0>
  44ac68:	00 
  44ac69:	0f 11 83 c8 7f 02 08 	movups XMMWORD PTR [rbx+0x8027fc8],xmm0
  44ac70:	66 0f 28 05 78 90 02 	movapd xmm0,XMMWORD PTR [rip+0x29078]        # 473cf0 <_IO_stdin_used+0x4cf0>
  44ac77:	00 
  44ac78:	0f 11 83 d8 7f 02 08 	movups XMMWORD PTR [rbx+0x8027fd8],xmm0
;  poke double,@kernal(&HFC3),&H6C: poke double,@kernal(&HFC4),&H1C: poke double,@kernal(&HFC5),&H03
  44ac7f:	66 0f 28 05 89 90 02 	movapd xmm0,XMMWORD PTR [rip+0x29089]        # 473d10 <_IO_stdin_used+0x4d10>
  44ac86:	00 
  44ac87:	0f 11 83 18 7e 00 08 	movups XMMWORD PTR [rbx+0x8007e18],xmm0
  44ac8e:	66 0f 28 05 8a 90 02 	movapd xmm0,XMMWORD PTR [rip+0x2908a]        # 473d20 <_IO_stdin_used+0x4d20>
  44ac95:	00 
  44ac96:	0f 11 83 28 7e 00 08 	movups XMMWORD PTR [rbx+0x8007e28],xmm0
  44ac9d:	0f 11 83 58 7e 00 08 	movups XMMWORD PTR [rbx+0x8007e58],xmm0
  44aca4:	0f 11 93 78 7e 00 08 	movups XMMWORD PTR [rbx+0x8007e78],xmm2
  44acab:	66 0f 28 15 bd 90 02 	movapd xmm2,XMMWORD PTR [rip+0x290bd]        # 473d70 <_IO_stdin_used+0x4d70>
  44acb2:	00 
  44acb3:	0f 11 83 88 7e 00 08 	movups XMMWORD PTR [rbx+0x8007e88],xmm0
  44acba:	0f 11 93 98 7e 00 08 	movups XMMWORD PTR [rbx+0x8007e98],xmm2
  44acc1:	66 0f 28 15 b7 90 02 	movapd xmm2,XMMWORD PTR [rip+0x290b7]        # 473d80 <_IO_stdin_used+0x4d80>
  44acc8:	00 
  44acc9:	0f 11 83 18 7f 00 08 	movups XMMWORD PTR [rbx+0x8007f18],xmm0
  44acd0:	66 0f 28 05 18 91 02 	movapd xmm0,XMMWORD PTR [rip+0x29118]        # 473df0 <_IO_stdin_used+0x4df0>
  44acd7:	00 
  44acd8:	0f 11 93 a8 7e 00 08 	movups XMMWORD PTR [rbx+0x8007ea8],xmm2
  44acdf:	66 0f 28 15 a9 90 02 	movapd xmm2,XMMWORD PTR [rip+0x290a9]        # 473d90 <_IO_stdin_used+0x4d90>
  44ace6:	00 
  44ace7:	0f 11 83 28 7f 00 08 	movups XMMWORD PTR [rbx+0x8007f28],xmm0
  44acee:	66 0f 28 05 0a 91 02 	movapd xmm0,XMMWORD PTR [rip+0x2910a]        # 473e00 <_IO_stdin_used+0x4e00>
  44acf5:	00 
  44acf6:	0f 11 93 b8 7e 00 08 	movups XMMWORD PTR [rbx+0x8007eb8],xmm2
  44acfd:	66 0f 28 15 9b 90 02 	movapd xmm2,XMMWORD PTR [rip+0x2909b]        # 473da0 <_IO_stdin_used+0x4da0>
  44ad04:	00 
  44ad05:	0f 11 83 38 7f 00 08 	movups XMMWORD PTR [rbx+0x8007f38],xmm0
  44ad0c:	66 0f 28 05 fc 90 02 	movapd xmm0,XMMWORD PTR [rip+0x290fc]        # 473e10 <_IO_stdin_used+0x4e10>
  44ad13:	00 
  44ad14:	0f 11 93 c8 7e 00 08 	movups XMMWORD PTR [rbx+0x8007ec8],xmm2
  44ad1b:	66 0f 28 15 8d 90 02 	movapd xmm2,XMMWORD PTR [rip+0x2908d]        # 473db0 <_IO_stdin_used+0x4db0>
  44ad22:	00 
  44ad23:	0f 11 83 48 7f 00 08 	movups XMMWORD PTR [rbx+0x8007f48],xmm0
  44ad2a:	66 0f 28 05 ee 90 02 	movapd xmm0,XMMWORD PTR [rip+0x290ee]        # 473e20 <_IO_stdin_used+0x4e20>
  44ad31:	00 
  44ad32:	0f 11 93 d8 7e 00 08 	movups XMMWORD PTR [rbx+0x8007ed8],xmm2
  44ad39:	66 0f 28 15 7f 90 02 	movapd xmm2,XMMWORD PTR [rip+0x2907f]        # 473dc0 <_IO_stdin_used+0x4dc0>
  44ad40:	00 
  44ad41:	0f 11 83 58 7f 00 08 	movups XMMWORD PTR [rbx+0x8007f58],xmm0
  44ad48:	66 0f 28 05 e0 90 02 	movapd xmm0,XMMWORD PTR [rip+0x290e0]        # 473e30 <_IO_stdin_used+0x4e30>
  44ad4f:	00 
  44ad50:	0f 11 93 e8 7e 00 08 	movups XMMWORD PTR [rbx+0x8007ee8],xmm2
  44ad57:	66 0f 28 15 71 90 02 	movapd xmm2,XMMWORD PTR [rip+0x29071]        # 473dd0 <_IO_stdin_used+0x4dd0>
  44ad5e:	00 
  44ad5f:	0f 11 83 68 7f 00 08 	movups XMMWORD PTR [rbx+0x8007f68],xmm0
  44ad66:	66 0f 28 05 d2 90 02 	movapd xmm0,XMMWORD PTR [rip+0x290d2]        # 473e40 <_IO_stdin_used+0x4e40>
  44ad6d:	00 
  44ad6e:	0f 11 93 f8 7e 00 08 	movups XMMWORD PTR [rbx+0x8007ef8],xmm2
  44ad75:	66 0f 28 15 63 90 02 	movapd xmm2,XMMWORD PTR [rip+0x29063]        # 473de0 <_IO_stdin_used+0x4de0>
  44ad7c:	00 
  44ad7d:	0f 11 83 78 7f 00 08 	movups XMMWORD PTR [rbx+0x8007f78],xmm0
  44ad84:	66 0f 28 05 c4 90 02 	movapd xmm0,XMMWORD PTR [rip+0x290c4]        # 473e50 <_IO_stdin_used+0x4e50>
  44ad8b:	00 
  44ad8c:	0f 11 93 08 7f 00 08 	movups XMMWORD PTR [rbx+0x8007f08],xmm2
  44ad93:	0f 11 83 88 7f 00 08 	movups XMMWORD PTR [rbx+0x8007f88],xmm0
  44ad9a:	0f 11 8b 98 7f 00 08 	movups XMMWORD PTR [rbx+0x8007f98],xmm1
  44ada1:	66 0f 28 05 b7 90 02 	movapd xmm0,XMMWORD PTR [rip+0x290b7]        # 473e60 <_IO_stdin_used+0x4e60>
  44ada8:	00 
;  poke double,@kernal(&HFFE),&H48: poke double,@kernal(&HFFF),&HFF
  44ada9:	48 8b 05 08 86 02 00 	mov    rax,QWORD PTR [rip+0x28608]        # 4733b8 <_IO_stdin_used+0x43b8>
;  poke double,@kernal(&HFC3),&H6C: poke double,@kernal(&HFC4),&H1C: poke double,@kernal(&HFC5),&H03
  44adb0:	0f 11 83 a8 7f 00 08 	movups XMMWORD PTR [rbx+0x8007fa8],xmm0
  44adb7:	66 0f 28 05 b1 90 02 	movapd xmm0,XMMWORD PTR [rip+0x290b1]        # 473e70 <_IO_stdin_used+0x4e70>
  44adbe:	00 
;  poke double,@kernal(&HFFE),&H48: poke double,@kernal(&HFFF),&HFF
  44adbf:	48 89 83 f8 7f 00 08 	mov    QWORD PTR [rbx+0x8007ff8],rax
;  poke double,@kernal(&HFC3),&H6C: poke double,@kernal(&HFC4),&H1C: poke double,@kernal(&HFC5),&H03
  44adc6:	0f 11 83 b8 7f 00 08 	movups XMMWORD PTR [rbx+0x8007fb8],xmm0
  44adcd:	66 0f 28 05 ab 90 02 	movapd xmm0,XMMWORD PTR [rip+0x290ab]        # 473e80 <_IO_stdin_used+0x4e80>
  44add4:	00 
  44add5:	0f 11 83 c8 7f 00 08 	movups XMMWORD PTR [rbx+0x8007fc8],xmm0
  44addc:	66 0f 28 05 ac 90 02 	movapd xmm0,XMMWORD PTR [rip+0x290ac]        # 473e90 <_IO_stdin_used+0x4e90>
  44ade3:	00 
  44ade4:	0f 11 83 d8 7f 00 08 	movups XMMWORD PTR [rbx+0x8007fd8],xmm0
  44adeb:	66 0f 28 05 ad 90 02 	movapd xmm0,XMMWORD PTR [rip+0x290ad]        # 473ea0 <_IO_stdin_used+0x4ea0>
  44adf2:	00 
  44adf3:	0f 11 83 e8 7f 00 08 	movups XMMWORD PTR [rbx+0x8007fe8],xmm0
;  open "./chargen/2.c64" for binary as                                   peek(ubyte,@nibbles(&B0001))
  44adfa:	e8 71 f6 01 00       	call   46a470 <fb_StrAllocTempDescZEx>
  44adff:	45 31 c9             	xor    r9d,r9d
  44ae02:	31 c9                	xor    ecx,ecx
  44ae04:	31 d2                	xor    edx,edx
  44ae06:	44 0f b6 05 93 7f 05 	movzx  r8d,BYTE PTR [rip+0x57f93]        # 4a2da1 <NIBBLES$+0x1>
  44ae0d:	00 
  44ae0e:	48 89 c7             	mov    rdi,rax
  44ae11:	31 f6                	xor    esi,esi
  44ae13:	e8 58 ad 01 00       	call   465b70 <fb_FileOpen>
;  poke  integer,@i,                                                   peek(ubyte,@nibbles(&B0000))
  44ae18:	0f b6 05 81 7f 05 00 	movzx  eax,BYTE PTR [rip+0x57f81]        # 4a2da0 <NIBBLES$>
  44ae1f:	48 89 05 a2 7f 05 00 	mov    QWORD PTR [rip+0x57fa2],rax        # 4a2dc8 <I$>
  44ae26:	66 2e 0f 1f 84 00 00 	cs nop WORD PTR [rax+rax*1+0x0]
  44ae2d:	00 00 00 
;  get #1,,tmp: poke double,@char(                                        peek(integer,@i)),   peek(ubyte,@tmp)
  44ae30:	b9 01 00 00 00       	mov    ecx,0x1
  44ae35:	4c 89 f2             	mov    rdx,r14
  44ae38:	31 f6                	xor    esi,esi
  44ae3a:	bf 01 00 00 00       	mov    edi,0x1
  44ae3f:	e8 ac a3 01 00       	call   4651f0 <fb_FileGetLarge>
  44ae44:	0f b6 44 24 2f       	movzx  eax,BYTE PTR [rsp+0x2f]
  44ae49:	66 0f ef c0          	pxor   xmm0,xmm0
  44ae4d:	48 8b 15 74 7f 05 00 	mov    rdx,QWORD PTR [rip+0x57f74]        # 4a2dc8 <I$>
;  cmp                                                                    peek(integer,@i)  ls peek(ubyte,@nibbles(&B0001)) shl peek(ubyte,@nibbles(&B1100)) add peek(ubyte,@nibbles(&B1111)) shl peek(ubyte,@nibbles(&B1000)) add peek(ubyte,@nibbles(&B1111)) shl peek(ubyte,@nibbles(&B0100)) add peek(ubyte,@nibbles(&B1111)) jmp L6
  44ae54:	48 8d 0d 51 7f 05 00 	lea    rcx,[rip+0x57f51]        # 4a2dac <NIBBLES$+0xc>
;  get #1,,tmp: poke double,@char(                                        peek(integer,@i)),   peek(ubyte,@tmp)
  44ae5b:	f2 0f 2a c0          	cvtsi2sd xmm0,eax
  44ae5f:	f2 0f 11 84 d3 00 00 	movsd  QWORD PTR [rbx+rdx*8+0x8040000],xmm0
  44ae66:	04 08 
;  poke  integer,@i,                                                   peek(integer,@i) add peek(ubyte,@nibbles(&B0001))
  44ae68:	41 0f b6 04 24       	movzx  eax,BYTE PTR [r12]
;  cmp                                                                    peek(integer,@i)  ls peek(ubyte,@nibbles(&B0001)) shl peek(ubyte,@nibbles(&B1100)) add peek(ubyte,@nibbles(&B1111)) shl peek(ubyte,@nibbles(&B1000)) add peek(ubyte,@nibbles(&B1111)) shl peek(ubyte,@nibbles(&B0100)) add peek(ubyte,@nibbles(&B1111)) jmp L6
  44ae6d:	0f b6 09             	movzx  ecx,BYTE PTR [rcx]
  44ae70:	41 0f b6 75 00       	movzx  esi,BYTE PTR [r13+0x0]
;  poke  integer,@i,                                                   peek(integer,@i) add peek(ubyte,@nibbles(&B0001))
  44ae75:	48 01 c2             	add    rdx,rax
  44ae78:	48 89 c7             	mov    rdi,rax
;  cmp                                                                    peek(integer,@i)  ls peek(ubyte,@nibbles(&B0001)) shl peek(ubyte,@nibbles(&B1100)) add peek(ubyte,@nibbles(&B1111)) shl peek(ubyte,@nibbles(&B1000)) add peek(ubyte,@nibbles(&B1111)) shl peek(ubyte,@nibbles(&B0100)) add peek(ubyte,@nibbles(&B1111)) jmp L6
  44ae7b:	48 d3 e0             	shl    rax,cl
  44ae7e:	41 0f b6 0f          	movzx  ecx,BYTE PTR [r15]
  44ae82:	49 89 f3             	mov    r11,rsi
;  poke  integer,@i,                                                   peek(integer,@i) add peek(ubyte,@nibbles(&B0001))
  44ae85:	48 89 15 3c 7f 05 00 	mov    QWORD PTR [rip+0x57f3c],rdx        # 4a2dc8 <I$>
;  cmp                                                                    peek(integer,@i)  ls peek(ubyte,@nibbles(&B0001)) shl peek(ubyte,@nibbles(&B1100)) add peek(ubyte,@nibbles(&B1111)) shl peek(ubyte,@nibbles(&B1000)) add peek(ubyte,@nibbles(&B1111)) shl peek(ubyte,@nibbles(&B0100)) add peek(ubyte,@nibbles(&B1111)) jmp L6
  44ae8c:	49 d3 e3             	shl    r11,cl
  44ae8f:	0f b6 4d 00          	movzx  ecx,BYTE PTR [rbp+0x0]
  44ae93:	4c 01 d8             	add    rax,r11
  44ae96:	48 01 f0             	add    rax,rsi
  44ae99:	48 d3 e6             	shl    rsi,cl
  44ae9c:	48 01 f0             	add    rax,rsi
  44ae9f:	48 39 c2             	cmp    rdx,rax
  44aea2:	7e 8c                	jle    44ae30 <MEMORY_T::MEMORY_T()+0xa70>
;  seek                                                                   peek(ubyte,@nibbles(&B0001)),      peek(ubyte,@nibbles(&B0000))
  44aea4:	0f b6 35 f5 7e 05 00 	movzx  esi,BYTE PTR [rip+0x57ef5]        # 4a2da0 <NIBBLES$>
  44aeab:	e8 70 b2 01 00       	call   466120 <fb_FileSeek>
;  poke  integer,@i,                                                   peek(ubyte,@nibbles(&B0010))   shl peek(ubyte,@nibbles(&B1100))
  44aeb0:	0f b6 05 eb 7e 05 00 	movzx  eax,BYTE PTR [rip+0x57eeb]        # 4a2da2 <NIBBLES$+0x2>
  44aeb7:	0f b6 0d ee 7e 05 00 	movzx  ecx,BYTE PTR [rip+0x57eee]        # 4a2dac <NIBBLES$+0xc>
  44aebe:	48 d3 e0             	shl    rax,cl
  44aec1:	48 89 05 00 7f 05 00 	mov    QWORD PTR [rip+0x57f00],rax        # 4a2dc8 <I$>
  44aec8:	0f 1f 84 00 00 00 00 	nop    DWORD PTR [rax+rax*1+0x0]
  44aecf:	00 
;  get #1,,tmp: poke double,@char(                                        peek(integer,@i)),   peek(ubyte,@tmp)
  44aed0:	b9 01 00 00 00       	mov    ecx,0x1
  44aed5:	4c 89 f2             	mov    rdx,r14
  44aed8:	31 f6                	xor    esi,esi
  44aeda:	bf 01 00 00 00       	mov    edi,0x1
  44aedf:	e8 0c a3 01 00       	call   4651f0 <fb_FileGetLarge>
  44aee4:	0f b6 54 24 2f       	movzx  edx,BYTE PTR [rsp+0x2f]
  44aee9:	66 0f ef c0          	pxor   xmm0,xmm0
  44aeed:	48 8b 05 d4 7e 05 00 	mov    rax,QWORD PTR [rip+0x57ed4]        # 4a2dc8 <I$>
;  cmp                                                                    peek(integer,@i)  ls peek(ubyte,@nibbles(&B0011)) shl peek(ubyte,@nibbles(&B1100)) add peek(ubyte,@nibbles(&B1111)) shl peek(ubyte,@nibbles(&B1000)) add peek(ubyte,@nibbles(&B1111)) shl peek(ubyte,@nibbles(&B0100)) add peek(ubyte,@nibbles(&B1111)) jmp L7
  44aef4:	48 8d 0d b1 7e 05 00 	lea    rcx,[rip+0x57eb1]        # 4a2dac <NIBBLES$+0xc>
;  get #1,,tmp: poke double,@char(                                        peek(integer,@i)),   peek(ubyte,@tmp)
  44aefb:	f2 0f 2a c2          	cvtsi2sd xmm0,edx
  44aeff:	f2 0f 11 84 c3 00 00 	movsd  QWORD PTR [rbx+rax*8+0x8040000],xmm0
  44af06:	04 08 
;  poke integer,@i,                                                    peek(integer,@i) add peek(ubyte,@nibbles(&B0001))
  44af08:	41 0f b6 34 24       	movzx  esi,BYTE PTR [r12]
;  cmp                                                                    peek(integer,@i)  ls peek(ubyte,@nibbles(&B0011)) shl peek(ubyte,@nibbles(&B1100)) add peek(ubyte,@nibbles(&B1111)) shl peek(ubyte,@nibbles(&B1000)) add peek(ubyte,@nibbles(&B1111)) shl peek(ubyte,@nibbles(&B0100)) add peek(ubyte,@nibbles(&B1111)) jmp L7
  44af0d:	0f b6 09             	movzx  ecx,BYTE PTR [rcx]
  44af10:	41 0f b6 55 00       	movzx  edx,BYTE PTR [r13+0x0]
;  poke integer,@i,                                                    peek(integer,@i) add peek(ubyte,@nibbles(&B0001))
  44af15:	48 89 f7             	mov    rdi,rsi
  44af18:	48 01 c6             	add    rsi,rax
;  cmp                                                                    peek(integer,@i)  ls peek(ubyte,@nibbles(&B0011)) shl peek(ubyte,@nibbles(&B1100)) add peek(ubyte,@nibbles(&B1111)) shl peek(ubyte,@nibbles(&B1000)) add peek(ubyte,@nibbles(&B1111)) shl peek(ubyte,@nibbles(&B0100)) add peek(ubyte,@nibbles(&B1111)) jmp L7
  44af1b:	48 8d 05 81 7e 05 00 	lea    rax,[rip+0x57e81]        # 4a2da3 <NIBBLES$+0x3>
  44af22:	0f b6 00             	movzx  eax,BYTE PTR [rax]
  44af25:	49 89 d2             	mov    r10,rdx
;  poke integer,@i,                                                    peek(integer,@i) add peek(ubyte,@nibbles(&B0001))
  44af28:	48 89 35 99 7e 05 00 	mov    QWORD PTR [rip+0x57e99],rsi        # 4a2dc8 <I$>
;  cmp                                                                    peek(integer,@i)  ls peek(ubyte,@nibbles(&B0011)) shl peek(ubyte,@nibbles(&B1100)) add peek(ubyte,@nibbles(&B1111)) shl peek(ubyte,@nibbles(&B1000)) add peek(ubyte,@nibbles(&B1111)) shl peek(ubyte,@nibbles(&B0100)) add peek(ubyte,@nibbles(&B1111)) jmp L7
  44af2f:	48 d3 e0             	shl    rax,cl
  44af32:	41 0f b6 0f          	movzx  ecx,BYTE PTR [r15]
  44af36:	49 d3 e2             	shl    r10,cl
  44af39:	0f b6 4d 00          	movzx  ecx,BYTE PTR [rbp+0x0]
  44af3d:	4c 01 d0             	add    rax,r10
  44af40:	48 01 d0             	add    rax,rdx
  44af43:	48 d3 e2             	shl    rdx,cl
  44af46:	48 01 d0             	add    rax,rdx
  44af49:	48 39 c6             	cmp    rsi,rax
  44af4c:	7e 82                	jle    44aed0 <MEMORY_T::MEMORY_T()+0xb10>
;  close                                                                  peek(ubyte,@nibbles(&B0001))
  44af4e:	e8 0d 9d 01 00       	call   464c60 <fb_FileClose>
;  poke64(                                                                peek(ubyte,@nibbles(&B0000)),      1.797693134862316e+308)
  44af53:	0f b6 05 46 7e 05 00 	movzx  eax,BYTE PTR [rip+0x57e46]        # 4a2da0 <NIBBLES$>
  44af5a:	66 0f ef c0          	pxor   xmm0,xmm0
  44af5e:	48 89 df             	mov    rdi,rbx
  44af61:	f2 0f 10 0d d7 8a 02 	movsd  xmm1,QWORD PTR [rip+0x28ad7]        # 473a40 <_IO_stdin_used+0x4a40>
  44af68:	00 
  44af69:	f2 0f 2a c0          	cvtsi2sd xmm0,eax
  44af6d:	e8 9e e8 fb ff       	call   409810 <MEMORY_T::POKE64(double, double)>
;  poke64(                                                                peek(ubyte,@nibbles(&B0001)),      1.797693134862316e+308)
  44af72:	0f b6 05 28 7e 05 00 	movzx  eax,BYTE PTR [rip+0x57e28]        # 4a2da1 <NIBBLES$+0x1>
  44af79:	66 0f ef c0          	pxor   xmm0,xmm0
  44af7d:	48 89 df             	mov    rdi,rbx
  44af80:	f2 0f 2a c0          	cvtsi2sd xmm0,eax
  44af84:	48 8b 05 b5 8a 02 00 	mov    rax,QWORD PTR [rip+0x28ab5]        # 473a40 <_IO_stdin_used+0x4a40>
  44af8b:	66 48 0f 6e c8       	movq   xmm1,rax
  44af90:	e8 7b e8 fb ff       	call   409810 <MEMORY_T::POKE64(double, double)>
;  poke64(                                                                peek(ubyte,@nibbles(&B1111))   shl peek(ubyte,@nibbles(&B1100)) add peek(ubyte,@nibbles(&B1111)) shl peek(ubyte,@nibbles(&B1000)) add peek(ubyte,@nibbles(&B1111)) shl peek(ubyte,@nibbles(&B0100)) add peek(ubyte,@nibbles(&B1100)),    1.797693134862316e+308)
  44af95:	0f b6 15 13 7e 05 00 	movzx  edx,BYTE PTR [rip+0x57e13]        # 4a2daf <NIBBLES$+0xf>
  44af9c:	0f b6 35 09 7e 05 00 	movzx  esi,BYTE PTR [rip+0x57e09]        # 4a2dac <NIBBLES$+0xc>
  44afa3:	66 0f ef c0          	pxor   xmm0,xmm0
  44afa7:	0f b6 0d fa 7d 05 00 	movzx  ecx,BYTE PTR [rip+0x57dfa]        # 4a2da8 <NIBBLES$+0x8>
  44afae:	48 89 d0             	mov    rax,rdx
  44afb1:	48 89 d7             	mov    rdi,rdx
  44afb4:	48 d3 e0             	shl    rax,cl
  44afb7:	89 f1                	mov    ecx,esi
  44afb9:	48 d3 e7             	shl    rdi,cl
  44afbc:	0f b6 0d e1 7d 05 00 	movzx  ecx,BYTE PTR [rip+0x57de1]        # 4a2da4 <NIBBLES$+0x4>
  44afc3:	48 01 f8             	add    rax,rdi
  44afc6:	48 89 df             	mov    rdi,rbx
  44afc9:	48 d3 e2             	shl    rdx,cl
  44afcc:	48 01 f0             	add    rax,rsi
  44afcf:	48 01 d0             	add    rax,rdx
  44afd2:	f2 48 0f 2a c0       	cvtsi2sd xmm0,rax
  44afd7:	48 8b 05 62 8a 02 00 	mov    rax,QWORD PTR [rip+0x28a62]        # 473a40 <_IO_stdin_used+0x4a40>
  44afde:	66 48 0f 6e c8       	movq   xmm1,rax
  44afe3:	e8 28 e8 fb ff       	call   409810 <MEMORY_T::POKE64(double, double)>
;  poke64(                                                                peek(ubyte,@nibbles(&B1111))   shl peek(ubyte,@nibbles(&B1100)) add peek(ubyte,@nibbles(&B1111)) shl peek(ubyte,@nibbles(&B1000)) add peek(ubyte,@nibbles(&B1111)) shl peek(ubyte,@nibbles(&B0100)) add peek(ubyte,@nibbles(&B1101)),    1.797693134862316e+308)
  44afe8:	0f b6 15 c0 7d 05 00 	movzx  edx,BYTE PTR [rip+0x57dc0]        # 4a2daf <NIBBLES$+0xf>
  44afef:	66 0f ef c0          	pxor   xmm0,xmm0
  44aff3:	48 89 df             	mov    rdi,rbx
  44aff6:	0f b6 0d af 7d 05 00 	movzx  ecx,BYTE PTR [rip+0x57daf]        # 4a2dac <NIBBLES$+0xc>
  44affd:	48 89 d0             	mov    rax,rdx
  44b000:	48 89 d6             	mov    rsi,rdx
  44b003:	48 d3 e0             	shl    rax,cl
  44b006:	0f b6 0d 9b 7d 05 00 	movzx  ecx,BYTE PTR [rip+0x57d9b]        # 4a2da8 <NIBBLES$+0x8>
  44b00d:	48 d3 e6             	shl    rsi,cl
  44b010:	0f b6 0d 96 7d 05 00 	movzx  ecx,BYTE PTR [rip+0x57d96]        # 4a2dad <NIBBLES$+0xd>
  44b017:	48 01 f0             	add    rax,rsi
  44b01a:	48 01 c8             	add    rax,rcx
  44b01d:	0f b6 0d 80 7d 05 00 	movzx  ecx,BYTE PTR [rip+0x57d80]        # 4a2da4 <NIBBLES$+0x4>
  44b024:	48 d3 e2             	shl    rdx,cl
  44b027:	48 01 d0             	add    rax,rdx
  44b02a:	f2 48 0f 2a c0       	cvtsi2sd xmm0,rax
  44b02f:	48 8b 05 0a 8a 02 00 	mov    rax,QWORD PTR [rip+0x28a0a]        # 473a40 <_IO_stdin_used+0x4a40>
  44b036:	66 48 0f 6e c8       	movq   xmm1,rax
  44b03b:	e8 d0 e7 fb ff       	call   409810 <MEMORY_T::POKE64(double, double)>
;  paint(                                                                 peek(ubyte,@nibbles(&B0000)),      peek(ubyte,@nibbles(&B0000))),rgba(                    peek(ubyte,@nibbles(&B0000)),    peek(ubyte,@nibbles(&B0000)),    peek(ubyte,@nibbles(&B0000)),    peek(ubyte,@nibbles(&B1111)) shl peek(ubyte,@nibbles(&B0100)) add peek(ubyte,@nibbles(&B1111)))
  44b040:	31 f6                	xor    esi,esi
  44b042:	48 8d 3d 9e 43 02 00 	lea    rdi,[rip+0x2439e]        # 46f3e7 <_IO_stdin_used+0x3e7>
  44b049:	e8 22 f4 01 00       	call   46a470 <fb_StrAllocTempDescZEx>
  44b04e:	0f b6 0d 4f 7d 05 00 	movzx  ecx,BYTE PTR [rip+0x57d4f]        # 4a2da4 <NIBBLES$+0x4>
  44b055:	66 0f ef c9          	pxor   xmm1,xmm1
  44b059:	45 31 c0             	xor    r8d,r8d
  44b05c:	49 89 c3             	mov    r11,rax
  44b05f:	0f b6 05 49 7d 05 00 	movzx  eax,BYTE PTR [rip+0x57d49]        # 4a2daf <NIBBLES$+0xf>
  44b066:	0f b6 3d 33 7d 05 00 	movzx  edi,BYTE PTR [rip+0x57d33]        # 4a2da0 <NIBBLES$>
  44b06d:	41 b9 04 00 00 40    	mov    r9d,0x40000004
  44b073:	48 89 c6             	mov    rsi,rax
  44b076:	48 d3 e0             	shl    rax,cl
  44b079:	f3 0f 2a cf          	cvtsi2ss xmm1,edi
  44b07d:	48 89 fa             	mov    rdx,rdi
  44b080:	01 c6                	add    esi,eax
  44b082:	48 89 f8             	mov    rax,rdi
  44b085:	48 c1 e7 08          	shl    rdi,0x8
  44b089:	4c 89 d9             	mov    rcx,r11
  44b08c:	48 c1 e0 10          	shl    rax,0x10
  44b090:	c1 e6 18             	shl    esi,0x18
  44b093:	09 f8                	or     eax,edi
  44b095:	31 ff                	xor    edi,edi
  44b097:	09 d0                	or     eax,edx
  44b099:	0f 28 c1             	movaps xmm0,xmm1
  44b09c:	31 d2                	xor    edx,edx
  44b09e:	09 c6                	or     esi,eax
  44b0a0:	e8 0b cf 00 00       	call   457fb0 <fb_GfxPaint>
;  poke64(                                                                peek(ubyte,@nibbles(&B0111))   shl peek(ubyte,@nibbles(&B1100)) add peek(ubyte,@nibbles(&B1110)) shl peek(ubyte,@nibbles(&B1000)) add peek(ubyte,@nibbles(&B0111)) shl peek(ubyte,@nibbles(&B0100)) add peek(ubyte,@nibbles(&B0010)),    peek(ubyte,@nibbles(&B1010)) shl peek(ubyte,@nibbles(&B0100)) add peek(ubyte,@nibbles(&B1001))): poke64(peek(ubyte,@nibbles(&B0111)) shl peek(ubyte,@nibbles(&B1100)) add peek(ubyte,@nibbles(&B1110)) shl peek(ubyte,@nibbles(&B1000)) add peek(ubyte,@nibbles(&B0111)) shl peek(ubyte,@nibbles(&B0100)) add peek(ubyte,@nibbles(&B0011)),peek(ubyte,@nibbles(&B0000)))
  44b0a5:	0f b6 3d f8 7c 05 00 	movzx  edi,BYTE PTR [rip+0x57cf8]        # 4a2da4 <NIBBLES$+0x4>
  44b0ac:	66 0f ef c0          	pxor   xmm0,xmm0
  44b0b0:	0f b6 15 f3 7c 05 00 	movzx  edx,BYTE PTR [rip+0x57cf3]        # 4a2daa <NIBBLES$+0xa>
  44b0b7:	0f b6 05 eb 7c 05 00 	movzx  eax,BYTE PTR [rip+0x57ceb]        # 4a2da9 <NIBBLES$+0x9>
  44b0be:	0f b6 35 e2 7c 05 00 	movzx  esi,BYTE PTR [rip+0x57ce2]        # 4a2da7 <NIBBLES$+0x7>
  44b0c5:	66 0f ef c9          	pxor   xmm1,xmm1
  44b0c9:	83 e7 3f             	and    edi,0x3f
  44b0cc:	89 f9                	mov    ecx,edi
  44b0ce:	49 89 f6             	mov    r14,rsi
  44b0d1:	48 d3 e2             	shl    rdx,cl
  44b0d4:	0f b6 0d cd 7c 05 00 	movzx  ecx,BYTE PTR [rip+0x57ccd]        # 4a2da8 <NIBBLES$+0x8>
  44b0db:	48 01 c2             	add    rdx,rax
  44b0de:	0f b6 05 c9 7c 05 00 	movzx  eax,BYTE PTR [rip+0x57cc9]        # 4a2dae <NIBBLES$+0xe>
  44b0e5:	f2 48 0f 2a ca       	cvtsi2sd xmm1,rdx
  44b0ea:	48 d3 e0             	shl    rax,cl
  44b0ed:	0f b6 0d b8 7c 05 00 	movzx  ecx,BYTE PTR [rip+0x57cb8]        # 4a2dac <NIBBLES$+0xc>
  44b0f4:	49 d3 e6             	shl    r14,cl
  44b0f7:	0f b6 0d a4 7c 05 00 	movzx  ecx,BYTE PTR [rip+0x57ca4]        # 4a2da2 <NIBBLES$+0x2>
  44b0fe:	4c 01 f0             	add    rax,r14
  44b101:	48 01 c8             	add    rax,rcx
  44b104:	89 f9                	mov    ecx,edi
  44b106:	48 89 df             	mov    rdi,rbx
  44b109:	48 d3 e6             	shl    rsi,cl
  44b10c:	48 01 f0             	add    rax,rsi
  44b10f:	f2 48 0f 2a c0       	cvtsi2sd xmm0,rax
  44b114:	e8 f7 e6 fb ff       	call   409810 <MEMORY_T::POKE64(double, double)>
  44b119:	0f b6 0d 88 7c 05 00 	movzx  ecx,BYTE PTR [rip+0x57c88]        # 4a2da8 <NIBBLES$+0x8>
  44b120:	66 0f ef c0          	pxor   xmm0,xmm0
  44b124:	0f b6 05 83 7c 05 00 	movzx  eax,BYTE PTR [rip+0x57c83]        # 4a2dae <NIBBLES$+0xe>
  44b12b:	0f b6 35 75 7c 05 00 	movzx  esi,BYTE PTR [rip+0x57c75]        # 4a2da7 <NIBBLES$+0x7>
  44b132:	0f b6 15 67 7c 05 00 	movzx  edx,BYTE PTR [rip+0x57c67]        # 4a2da0 <NIBBLES$>
  44b139:	66 0f ef c9          	pxor   xmm1,xmm1
  44b13d:	48 d3 e0             	shl    rax,cl
  44b140:	0f b6 0d 65 7c 05 00 	movzx  ecx,BYTE PTR [rip+0x57c65]        # 4a2dac <NIBBLES$+0xc>
  44b147:	48 89 f7             	mov    rdi,rsi
  44b14a:	f2 0f 2a ca          	cvtsi2sd xmm1,edx
  44b14e:	48 d3 e7             	shl    rdi,cl
  44b151:	0f b6 0d 4b 7c 05 00 	movzx  ecx,BYTE PTR [rip+0x57c4b]        # 4a2da3 <NIBBLES$+0x3>
  44b158:	48 01 f8             	add    rax,rdi
  44b15b:	48 89 df             	mov    rdi,rbx
  44b15e:	48 01 c8             	add    rax,rcx
  44b161:	0f b6 0d 3c 7c 05 00 	movzx  ecx,BYTE PTR [rip+0x57c3c]        # 4a2da4 <NIBBLES$+0x4>
  44b168:	48 d3 e6             	shl    rsi,cl
  44b16b:	48 01 f0             	add    rax,rsi
  44b16e:	f2 48 0f 2a c0       	cvtsi2sd xmm0,rax
  44b173:	e8 98 e6 fb ff       	call   409810 <MEMORY_T::POKE64(double, double)>
;  poke64(                                                                peek(ubyte,@nibbles(&B0111))   shl peek(ubyte,@nibbles(&B1100)) add peek(ubyte,@nibbles(&B1110)) shl peek(ubyte,@nibbles(&B1000)) add peek(ubyte,@nibbles(&B0111)) shl peek(ubyte,@nibbles(&B0100)) add peek(ubyte,@nibbles(&B0100)),    peek(ubyte,@nibbles(&B1000)) shl peek(ubyte,@nibbles(&B0100)) add peek(ubyte,@nibbles(&B1101))): poke64(peek(ubyte,@nibbles(&B0111)) shl peek(ubyte,@nibbles(&B1100)) add peek(ubyte,@nibbles(&B1110)) shl peek(ubyte,@nibbles(&B1000)) add peek(ubyte,@nibbles(&B0111)) shl peek(ubyte,@nibbles(&B0100)) add peek(ubyte,@nibbles(&B0101)),peek(ubyte,@nibbles(&B0000))): poke64(peek(ubyte,@nibbles(&B0111)) shl peek(ubyte,@nibbles(&B1100)) add peek(ubyte,@nibbles(&B1110)) shl peek(ubyte,@nibbles(&B1000)) add peek(ubyte,@nibbles(&B0111)) shl peek(ubyte,@nibbles(&B0100)) add peek(ubyte,@nibbles(&B0110)),peek(ubyte,@nibbles(&B1100)) shl peek(ubyte,@nibbles(&B0100)))
  44b178:	0f b6 15 29 7c 05 00 	movzx  edx,BYTE PTR [rip+0x57c29]        # 4a2da8 <NIBBLES$+0x8>
  44b17f:	66 0f ef c0          	pxor   xmm0,xmm0
  44b183:	44 0f b6 1d 19 7c 05 	movzx  r11d,BYTE PTR [rip+0x57c19]        # 4a2da4 <NIBBLES$+0x4>
  44b18a:	00 
  44b18b:	0f b6 35 15 7c 05 00 	movzx  esi,BYTE PTR [rip+0x57c15]        # 4a2da7 <NIBBLES$+0x7>
  44b192:	0f b6 05 14 7c 05 00 	movzx  eax,BYTE PTR [rip+0x57c14]        # 4a2dad <NIBBLES$+0xd>
  44b199:	66 0f ef c9          	pxor   xmm1,xmm1
  44b19d:	45 89 d8             	mov    r8d,r11d
  44b1a0:	49 89 d1             	mov    r9,rdx
  44b1a3:	0f b6 3d 04 7c 05 00 	movzx  edi,BYTE PTR [rip+0x57c04]        # 4a2dae <NIBBLES$+0xe>
  44b1aa:	41 83 e0 3f          	and    r8d,0x3f
  44b1ae:	44 89 c1             	mov    ecx,r8d
  44b1b1:	48 d3 e2             	shl    rdx,cl
  44b1b4:	0f b6 0d f1 7b 05 00 	movzx  ecx,BYTE PTR [rip+0x57bf1]        # 4a2dac <NIBBLES$+0xc>
  44b1bb:	48 01 c2             	add    rdx,rax
  44b1be:	48 89 f0             	mov    rax,rsi
  44b1c1:	48 d3 e0             	shl    rax,cl
  44b1c4:	f2 48 0f 2a ca       	cvtsi2sd xmm1,rdx
  44b1c9:	44 89 c9             	mov    ecx,r9d
  44b1cc:	48 d3 e7             	shl    rdi,cl
  44b1cf:	44 89 c1             	mov    ecx,r8d
  44b1d2:	48 01 f8             	add    rax,rdi
  44b1d5:	48 d3 e6             	shl    rsi,cl
  44b1d8:	48 89 df             	mov    rdi,rbx
  44b1db:	4c 01 d8             	add    rax,r11
  44b1de:	48 01 f0             	add    rax,rsi
  44b1e1:	f2 48 0f 2a c0       	cvtsi2sd xmm0,rax
  44b1e6:	e8 25 e6 fb ff       	call   409810 <MEMORY_T::POKE64(double, double)>
  44b1eb:	0f b6 0d b6 7b 05 00 	movzx  ecx,BYTE PTR [rip+0x57bb6]        # 4a2da8 <NIBBLES$+0x8>
  44b1f2:	66 0f ef c0          	pxor   xmm0,xmm0
  44b1f6:	0f b6 05 b1 7b 05 00 	movzx  eax,BYTE PTR [rip+0x57bb1]        # 4a2dae <NIBBLES$+0xe>
  44b1fd:	0f b6 35 a3 7b 05 00 	movzx  esi,BYTE PTR [rip+0x57ba3]        # 4a2da7 <NIBBLES$+0x7>
  44b204:	0f b6 15 95 7b 05 00 	movzx  edx,BYTE PTR [rip+0x57b95]        # 4a2da0 <NIBBLES$>
  44b20b:	66 0f ef c9          	pxor   xmm1,xmm1
  44b20f:	48 d3 e0             	shl    rax,cl
  44b212:	0f b6 0d 93 7b 05 00 	movzx  ecx,BYTE PTR [rip+0x57b93]        # 4a2dac <NIBBLES$+0xc>
  44b219:	48 89 f7             	mov    rdi,rsi
  44b21c:	f2 0f 2a ca          	cvtsi2sd xmm1,edx
  44b220:	48 d3 e7             	shl    rdi,cl
  44b223:	0f b6 0d 7b 7b 05 00 	movzx  ecx,BYTE PTR [rip+0x57b7b]        # 4a2da5 <NIBBLES$+0x5>
  44b22a:	48 01 f8             	add    rax,rdi
  44b22d:	48 89 df             	mov    rdi,rbx
  44b230:	48 01 c8             	add    rax,rcx
  44b233:	0f b6 0d 6a 7b 05 00 	movzx  ecx,BYTE PTR [rip+0x57b6a]        # 4a2da4 <NIBBLES$+0x4>
  44b23a:	48 d3 e6             	shl    rsi,cl
  44b23d:	48 01 f0             	add    rax,rsi
  44b240:	f2 48 0f 2a c0       	cvtsi2sd xmm0,rax
  44b245:	e8 c6 e5 fb ff       	call   409810 <MEMORY_T::POKE64(double, double)>
  44b24a:	0f b6 3d 53 7b 05 00 	movzx  edi,BYTE PTR [rip+0x57b53]        # 4a2da4 <NIBBLES$+0x4>
  44b251:	66 0f ef c0          	pxor   xmm0,xmm0
  44b255:	0f b6 35 50 7b 05 00 	movzx  esi,BYTE PTR [rip+0x57b50]        # 4a2dac <NIBBLES$+0xc>
  44b25c:	0f b6 15 44 7b 05 00 	movzx  edx,BYTE PTR [rip+0x57b44]        # 4a2da7 <NIBBLES$+0x7>
  44b263:	0f b6 05 44 7b 05 00 	movzx  eax,BYTE PTR [rip+0x57b44]        # 4a2dae <NIBBLES$+0xe>
  44b26a:	66 0f ef c9          	pxor   xmm1,xmm1
  44b26e:	83 e7 3f             	and    edi,0x3f
  44b271:	49 89 f0             	mov    r8,rsi
  44b274:	89 f9                	mov    ecx,edi
  44b276:	49 89 d6             	mov    r14,rdx
  44b279:	48 d3 e6             	shl    rsi,cl
  44b27c:	0f b6 0d 25 7b 05 00 	movzx  ecx,BYTE PTR [rip+0x57b25]        # 4a2da8 <NIBBLES$+0x8>
  44b283:	f2 48 0f 2a ce       	cvtsi2sd xmm1,rsi
  44b288:	48 d3 e0             	shl    rax,cl
  44b28b:	44 89 c1             	mov    ecx,r8d
  44b28e:	49 d3 e6             	shl    r14,cl
  44b291:	0f b6 0d 0e 7b 05 00 	movzx  ecx,BYTE PTR [rip+0x57b0e]        # 4a2da6 <NIBBLES$+0x6>
  44b298:	4c 01 f0             	add    rax,r14
  44b29b:	48 01 c8             	add    rax,rcx
  44b29e:	89 f9                	mov    ecx,edi
  44b2a0:	48 89 df             	mov    rdi,rbx
  44b2a3:	48 d3 e2             	shl    rdx,cl
  44b2a6:	48 01 d0             	add    rax,rdx
  44b2a9:	f2 48 0f 2a c0       	cvtsi2sd xmm0,rax
  44b2ae:	e8 5d e5 fb ff       	call   409810 <MEMORY_T::POKE64(double, double)>
;  poke64(                                                                peek(ubyte,@nibbles(&B0111))   shl peek(ubyte,@nibbles(&B1100)) add peek(ubyte,@nibbles(&B1110)) shl peek(ubyte,@nibbles(&B1000)) add peek(ubyte,@nibbles(&B0111)) shl peek(ubyte,@nibbles(&B0100)) add peek(ubyte,@nibbles(&B0111)),    peek(ubyte,@nibbles(&B0110)) shl peek(ubyte,@nibbles(&B0100)))                                                       
  44b2b3:	0f b6 3d ea 7a 05 00 	movzx  edi,BYTE PTR [rip+0x57aea]        # 4a2da4 <NIBBLES$+0x4>
  44b2ba:	66 0f ef c0          	pxor   xmm0,xmm0
  44b2be:	0f b6 35 e1 7a 05 00 	movzx  esi,BYTE PTR [rip+0x57ae1]        # 4a2da6 <NIBBLES$+0x6>
  44b2c5:	0f b6 05 e2 7a 05 00 	movzx  eax,BYTE PTR [rip+0x57ae2]        # 4a2dae <NIBBLES$+0xe>
  44b2cc:	0f b6 15 d4 7a 05 00 	movzx  edx,BYTE PTR [rip+0x57ad4]        # 4a2da7 <NIBBLES$+0x7>
  44b2d3:	66 0f ef c9          	pxor   xmm1,xmm1
  44b2d7:	83 e7 3f             	and    edi,0x3f
  44b2da:	89 f9                	mov    ecx,edi
  44b2dc:	49 89 d6             	mov    r14,rdx
  44b2df:	48 d3 e6             	shl    rsi,cl
  44b2e2:	0f b6 0d bf 7a 05 00 	movzx  ecx,BYTE PTR [rip+0x57abf]        # 4a2da8 <NIBBLES$+0x8>
  44b2e9:	f2 48 0f 2a ce       	cvtsi2sd xmm1,rsi
  44b2ee:	48 d3 e0             	shl    rax,cl
  44b2f1:	0f b6 0d b4 7a 05 00 	movzx  ecx,BYTE PTR [rip+0x57ab4]        # 4a2dac <NIBBLES$+0xc>
  44b2f8:	49 d3 e6             	shl    r14,cl
  44b2fb:	89 f9                	mov    ecx,edi
  44b2fd:	48 89 df             	mov    rdi,rbx
  44b300:	4c 01 f0             	add    rax,r14
;  var mov(mem,chr(                                                       peek(ubyte,@nibbles(&B0000))))
  44b303:	4c 8d 74 24 30       	lea    r14,[rsp+0x30]
;  poke64(                                                                peek(ubyte,@nibbles(&B0111))   shl peek(ubyte,@nibbles(&B1100)) add peek(ubyte,@nibbles(&B1110)) shl peek(ubyte,@nibbles(&B1000)) add peek(ubyte,@nibbles(&B0111)) shl peek(ubyte,@nibbles(&B0100)) add peek(ubyte,@nibbles(&B0111)),    peek(ubyte,@nibbles(&B0110)) shl peek(ubyte,@nibbles(&B0100)))                                                       
  44b308:	48 01 d0             	add    rax,rdx
  44b30b:	48 d3 e2             	shl    rdx,cl
  44b30e:	48 01 d0             	add    rax,rdx
  44b311:	f2 48 0f 2a c0       	cvtsi2sd xmm0,rax
  44b316:	e8 f5 e4 fb ff       	call   409810 <MEMORY_T::POKE64(double, double)>
;  var mov(mem,chr(                                                       peek(ubyte,@nibbles(&B0000))))
  44b31b:	0f b6 35 7e 7a 05 00 	movzx  esi,BYTE PTR [rip+0x57a7e]        # 4a2da0 <NIBBLES$>
  44b322:	bf 01 00 00 00       	mov    edi,0x1
  44b327:	31 c0                	xor    eax,eax
  44b329:	e8 d2 d9 01 00       	call   468d00 <fb_CHR>
  44b32e:	45 31 c0             	xor    r8d,r8d
  44b331:	48 c7 c1 ff ff ff ff 	mov    rcx,0xffffffffffffffff
  44b338:	4c 89 f7             	mov    rdi,r14
  44b33b:	48 89 c2             	mov    rdx,rax
  44b33e:	48 c7 c6 ff ff ff ff 	mov    rsi,0xffffffffffffffff
  44b345:	e8 a6 d9 01 00       	call   468cf0 <fb_StrInit>
;  mov(mem, "BYTES")
  44b34a:	45 31 c0             	xor    r8d,r8d
  44b34d:	b9 06 00 00 00       	mov    ecx,0x6
  44b352:	4c 89 f7             	mov    rdi,r14
;  poke integer,@i,                                                    peek(ubyte,@nibbles(&B0000))
  44b355:	0f b6 05 44 7a 05 00 	movzx  eax,BYTE PTR [rip+0x57a44]        # 4a2da0 <NIBBLES$>
;  mov(mem, "BYTES")
  44b35c:	48 c7 c6 ff ff ff ff 	mov    rsi,0xffffffffffffffff
  44b363:	48 8d 15 de 76 02 00 	lea    rdx,[rip+0x276de]        # 472a48 <_IO_stdin_used+0x3a48>
;  poke integer,@i,                                                    peek(ubyte,@nibbles(&B0000))
  44b36a:	48 89 05 57 7a 05 00 	mov    QWORD PTR [rip+0x57a57],rax        # 4a2dc8 <I$>
;  mov(mem, "BYTES")
  44b371:	e8 6a d9 01 00       	call   468ce0 <fb_StrAssign>
;  poke integer,@i,peek(ubyte,@nibbles(&B0001))
  44b376:	0f b6 35 24 7a 05 00 	movzx  esi,BYTE PTR [rip+0x57a24]        # 4a2da1 <NIBBLES$+0x1>
  44b37d:	48 89 35 44 7a 05 00 	mov    QWORD PTR [rip+0x57a44],rsi        # 4a2dc8 <I$>
  44b384:	0f 1f 40 00          	nop    DWORD PTR [rax+0x0]
;  poke double, @kernal(peek(ubyte,@nibbles(&B0100)) shl peek(ubyte,@nibbles(&B1000)) add peek(ubyte,@nibbles(&B0110)) shl peek(ubyte,@nibbles(&B0100)) add peek(ubyte,@nibbles(&B0110)) add peek(integer,@i)), asc(mid(mem, peek(integer,@i), peek(ubyte,@nibbles(&B1111)) shl peek(ubyte,@nibbles(&B0100)) add peek(ubyte,@nibbles(&B1111))))
  44b388:	41 0f b6 45 00       	movzx  eax,BYTE PTR [r13+0x0]
  44b38d:	0f b6 4d 00          	movzx  ecx,BYTE PTR [rbp+0x0]
  44b391:	4c 89 f7             	mov    rdi,r14
  44b394:	48 89 c2             	mov    rdx,rax
  44b397:	48 d3 e2             	shl    rdx,cl
  44b39a:	48 01 c2             	add    rdx,rax
  44b39d:	e8 4e ef 01 00       	call   46a2f0 <fb_StrMid>
  44b3a2:	be 01 00 00 00       	mov    esi,0x1
  44b3a7:	48 89 c7             	mov    rdi,rax
  44b3aa:	e8 b1 d6 01 00       	call   468a60 <fb_ASC>
  44b3af:	4c 8d 1d f0 79 05 00 	lea    r11,[rip+0x579f0]        # 4a2da6 <NIBBLES$+0x6>
  44b3b6:	48 8b 35 0b 7a 05 00 	mov    rsi,QWORD PTR [rip+0x57a0b]        # 4a2dc8 <I$>
  44b3bd:	41 0f b6 0f          	movzx  ecx,BYTE PTR [r15]
  44b3c1:	41 0f b6 13          	movzx  edx,BYTE PTR [r11]
  44b3c5:	41 89 c0             	mov    r8d,eax
  44b3c8:	0f b6 45 00          	movzx  eax,BYTE PTR [rbp+0x0]
  44b3cc:	66 0f ef c0          	pxor   xmm0,xmm0
  44b3d0:	f2 49 0f 2a c0       	cvtsi2sd xmm0,r8
  44b3d5:	48 89 c7             	mov    rdi,rax
  44b3d8:	48 d3 e0             	shl    rax,cl
  44b3db:	48 8d 0c 32          	lea    rcx,[rdx+rsi*1]
  44b3df:	48 01 c8             	add    rax,rcx
  44b3e2:	89 f9                	mov    ecx,edi
  44b3e4:	48 d3 e2             	shl    rdx,cl
  44b3e7:	48 01 d0             	add    rax,rdx
  44b3ea:	f2 0f 11 84 c3 00 00 	movsd  QWORD PTR [rbx+rax*8+0x8000000],xmm0
  44b3f1:	00 08 
;  cmp logic_and(peek(double,@kernal(peek(ubyte,@nibbles(&B0100)) shl peek(ubyte,@nibbles(&B1000)) add peek(ubyte,@nibbles(&B0110)) shl peek(ubyte,@nibbles(&B0100)) add peek(ubyte,@nibbles(&B0110)) add peek(integer,@i))) gt peek(ubyte,@nibbles(&B0001)) shl peek(ubyte,@nibbles(&B0100)) add peek(ubyte,@nibbles(&B1111)), peek(double,@kernal(peek(ubyte,@nibbles(&B0100)) shl peek(ubyte,@nibbles(&B1000)) add peek(ubyte,@nibbles(&B0110)) shl peek(ubyte,@nibbles(&B0100)) add peek(ubyte,@nibbles(&B0110)) add peek(ushort,@i))) lt peek(ubyte,@nibbles(&B0100)) shl peek(ubyte,@nibbles(&B0100))) jmp L9
  44b3f3:	44 0f b6 45 00       	movzx  r8d,BYTE PTR [rbp+0x0]
  44b3f8:	41 0f b6 3b          	movzx  edi,BYTE PTR [r11]
  44b3fc:	66 0f ef c0          	pxor   xmm0,xmm0
  44b400:	41 0f b6 0f          	movzx  ecx,BYTE PTR [r15]
  44b404:	4c 89 c0             	mov    rax,r8
  44b407:	4c 89 c2             	mov    rdx,r8
  44b40a:	49 89 fa             	mov    r10,rdi
  44b40d:	83 e0 3f             	and    eax,0x3f
  44b410:	48 d3 e2             	shl    rdx,cl
  44b413:	89 c1                	mov    ecx,eax
  44b415:	49 d3 e2             	shl    r10,cl
  44b418:	4c 01 d2             	add    rdx,r10
  44b41b:	45 0f b6 14 24       	movzx  r10d,BYTE PTR [r12]
  44b420:	48 01 d7             	add    rdi,rdx
  44b423:	4d 89 d3             	mov    r11,r10
  44b426:	4c 8d 0c 3e          	lea    r9,[rsi+rdi*1]
  44b42a:	f2 42 0f 10 8c cb 00 	movsd  xmm1,QWORD PTR [rbx+r9*8+0x8000000]
  44b431:	00 00 08 
  44b434:	49 d3 e3             	shl    r11,cl
  44b437:	45 31 c9             	xor    r9d,r9d
  44b43a:	4c 89 d9             	mov    rcx,r11
  44b43d:	45 0f b6 5d 00       	movzx  r11d,BYTE PTR [r13+0x0]
  44b442:	4c 01 d9             	add    rcx,r11
  44b445:	f2 48 0f 2a c1       	cvtsi2sd xmm0,rcx
  44b44a:	0f b7 ce             	movzx  ecx,si
  44b44d:	66 0f 2f c8          	comisd xmm1,xmm0
  44b451:	66 0f ef c0          	pxor   xmm0,xmm0
  44b455:	41 0f 97 c1          	seta   r9b
  44b459:	48 01 cf             	add    rdi,rcx
  44b45c:	89 c1                	mov    ecx,eax
  44b45e:	49 d3 e0             	shl    r8,cl
  44b461:	41 f7 d9             	neg    r9d
  44b464:	31 c9                	xor    ecx,ecx
  44b466:	f2 49 0f 2a c0       	cvtsi2sd xmm0,r8
  44b46b:	66 0f 2f 84 fb 00 00 	comisd xmm0,QWORD PTR [rbx+rdi*8+0x8000000]
  44b472:	00 08 
  44b474:	0f 97 c1             	seta   cl
  44b477:	f7 d9                	neg    ecx
  44b479:	41 85 c9             	test   r9d,ecx
  44b47c:	0f 85 9e 01 00 00    	jne    44b620 <MEMORY_T::MEMORY_T()+0x1260>
;  poke integer,@i, peek(integer,@i) add peek(ubyte,@nibbles(&B0001))
  44b482:	49 01 f2             	add    r10,rsi
;  cmp peek(integer,@i)  ls len(mem) jmp L8
  44b485:	4c 89 f7             	mov    rdi,r14
  44b488:	48 c7 c6 ff ff ff ff 	mov    rsi,0xffffffffffffffff
;  poke integer,@i, peek(integer,@i) add peek(ubyte,@nibbles(&B0001))
  44b48f:	4c 89 15 32 79 05 00 	mov    QWORD PTR [rip+0x57932],r10        # 4a2dc8 <I$>
;  cmp peek(integer,@i)  ls len(mem) jmp L8
  44b496:	e8 15 ee 01 00       	call   46a2b0 <fb_StrLen>
  44b49b:	48 8b 35 26 79 05 00 	mov    rsi,QWORD PTR [rip+0x57926]        # 4a2dc8 <I$>
  44b4a2:	48 39 c6             	cmp    rsi,rax
  44b4a5:	0f 8e dd fe ff ff    	jle    44b388 <MEMORY_T::MEMORY_T()+0xfc8>
;  mov(mem, "FREE")
  44b4ab:	48 8d 15 9c 75 02 00 	lea    rdx,[rip+0x2759c]        # 472a4e <_IO_stdin_used+0x3a4e>
  44b4b2:	45 31 c0             	xor    r8d,r8d
  44b4b5:	b9 05 00 00 00       	mov    ecx,0x5
  44b4ba:	4c 89 f7             	mov    rdi,r14
  44b4bd:	48 c7 c6 ff ff ff ff 	mov    rsi,0xffffffffffffffff
  44b4c4:	e8 17 d8 01 00       	call   468ce0 <fb_StrAssign>
;  poke integer,@i,                                                    peek(ubyte,@nibbles(&B0001))
  44b4c9:	0f b6 15 d1 78 05 00 	movzx  edx,BYTE PTR [rip+0x578d1]        # 4a2da1 <NIBBLES$+0x1>
  44b4d0:	48 89 15 f1 78 05 00 	mov    QWORD PTR [rip+0x578f1],rdx        # 4a2dc8 <I$>
  44b4d7:	48 89 d6             	mov    rsi,rdx
  44b4da:	eb 32                	jmp    44b50e <MEMORY_T::MEMORY_T()+0x114e>
  44b4dc:	0f 1f 40 00          	nop    DWORD PTR [rax+0x0]
;  poke integer,@i,                                                    peek(integer,@i) add peek(ubyte,@nibbles(&B0001)) 
  44b4e0:	49 01 f1             	add    r9,rsi
;  cmp                                                                    peek(integer,@i)  ls len(mem)          jmp L11
  44b4e3:	4c 89 f7             	mov    rdi,r14
  44b4e6:	48 c7 c6 ff ff ff ff 	mov    rsi,0xffffffffffffffff
;  poke integer,@i,                                                    peek(integer,@i) add peek(ubyte,@nibbles(&B0001)) 
  44b4ed:	4c 89 0d d4 78 05 00 	mov    QWORD PTR [rip+0x578d4],r9        # 4a2dc8 <I$>
;  cmp                                                                    peek(integer,@i)  ls len(mem)          jmp L11
  44b4f4:	e8 b7 ed 01 00       	call   46a2b0 <fb_StrLen>
  44b4f9:	48 8b 35 c8 78 05 00 	mov    rsi,QWORD PTR [rip+0x578c8]        # 4a2dc8 <I$>
  44b500:	48 39 c6             	cmp    rsi,rax
  44b503:	0f 8f 4f 01 00 00    	jg     44b658 <MEMORY_T::MEMORY_T()+0x1298>
  44b509:	41 0f b6 14 24       	movzx  edx,BYTE PTR [r12]
;  poke double, @kernal(                                                  peek(ubyte,@nibbles(&B0100))   shl peek(ubyte,@nibbles(&B1000)) add peek(ubyte,@nibbles(&B0110)) shl peek(ubyte,@nibbles(&B0100)) add peek(ubyte,@nibbles(&B1100)) add peek(integer,@i)),  asc(mid(mem,         peek(integer,@i),  peek(ubyte,@nibbles(&B0001))))
  44b50e:	4c 89 f7             	mov    rdi,r14
  44b511:	e8 da ed 01 00       	call   46a2f0 <fb_StrMid>
  44b516:	be 01 00 00 00       	mov    esi,0x1
  44b51b:	48 89 c7             	mov    rdi,rax
  44b51e:	e8 3d d5 01 00       	call   468a60 <fb_ASC>
  44b523:	4c 8d 15 82 78 05 00 	lea    r10,[rip+0x57882]        # 4a2dac <NIBBLES$+0xc>
  44b52a:	41 0f b6 0f          	movzx  ecx,BYTE PTR [r15]
  44b52e:	48 8b 35 93 78 05 00 	mov    rsi,QWORD PTR [rip+0x57893]        # 4a2dc8 <I$>
  44b535:	41 0f b6 12          	movzx  edx,BYTE PTR [r10]
  44b539:	41 89 c0             	mov    r8d,eax
  44b53c:	0f b6 45 00          	movzx  eax,BYTE PTR [rbp+0x0]
  44b540:	66 0f ef c0          	pxor   xmm0,xmm0
  44b544:	f2 49 0f 2a c0       	cvtsi2sd xmm0,r8
;  cmp logic_and(                                                         peek(double,@kernal(    peek(ubyte,@nibbles(&B0100)) shl peek(ubyte,@nibbles(&B1000)) add peek(ubyte,@nibbles(&B0110)) shl peek(ubyte,@nibbles(&B0100)) add peek(ubyte,@nibbles(&B1100)) add                       peek(integer,@i))) gt                    peek(ubyte,@nibbles(&B0001)) shl      peek(ubyte,@nibbles(&B0100)) add peek(ushort,@nibbles(&B1111)),   peek(double,@kernal(  peek(ubyte,@nibbles(&B0100)) shl peek(ubyte,@nibbles(&B1000)) add peek(ubyte,@nibbles(&B0110)) shl peek(ubyte,@nibbles(&B0100)) add                        peek(ubyte,@nibbles(&B1100)) add peek(integer,@i)))                    lt peek(ubyte,@nibbles(&B0100)) shl peek(ubyte,@nibbles(&B0100))) jmp L12 	   
  44b549:	66 0f ef c9          	pxor   xmm1,xmm1
;  poke double, @kernal(                                                  peek(ubyte,@nibbles(&B0100))   shl peek(ubyte,@nibbles(&B1000)) add peek(ubyte,@nibbles(&B0110)) shl peek(ubyte,@nibbles(&B0100)) add peek(ubyte,@nibbles(&B1100)) add peek(integer,@i)),  asc(mid(mem,         peek(integer,@i),  peek(ubyte,@nibbles(&B0001))))
  44b54d:	48 89 c7             	mov    rdi,rax
  44b550:	48 01 f2             	add    rdx,rsi
  44b553:	48 d3 e0             	shl    rax,cl
  44b556:	48 01 d0             	add    rax,rdx
  44b559:	41 0f b6 52 fa       	movzx  edx,BYTE PTR [r10-0x6]
  44b55e:	89 f9                	mov    ecx,edi
  44b560:	48 d3 e2             	shl    rdx,cl
  44b563:	48 01 d0             	add    rax,rdx
  44b566:	f2 0f 11 84 c3 00 00 	movsd  QWORD PTR [rbx+rax*8+0x8000000],xmm0
  44b56d:	00 08 
;  cmp logic_and(                                                         peek(double,@kernal(    peek(ubyte,@nibbles(&B0100)) shl peek(ubyte,@nibbles(&B1000)) add peek(ubyte,@nibbles(&B0110)) shl peek(ubyte,@nibbles(&B0100)) add peek(ubyte,@nibbles(&B1100)) add                       peek(integer,@i))) gt                    peek(ubyte,@nibbles(&B0001)) shl      peek(ubyte,@nibbles(&B0100)) add peek(ushort,@nibbles(&B1111)),   peek(double,@kernal(  peek(ubyte,@nibbles(&B0100)) shl peek(ubyte,@nibbles(&B1000)) add peek(ubyte,@nibbles(&B0110)) shl peek(ubyte,@nibbles(&B0100)) add                        peek(ubyte,@nibbles(&B1100)) add peek(integer,@i)))                    lt peek(ubyte,@nibbles(&B0100)) shl peek(ubyte,@nibbles(&B0100))) jmp L12 	   
  44b56f:	0f b6 7d 00          	movzx  edi,BYTE PTR [rbp+0x0]
  44b573:	41 0f b6 0f          	movzx  ecx,BYTE PTR [r15]
  44b577:	45 0f b6 42 fa       	movzx  r8d,BYTE PTR [r10-0x6]
  44b57c:	45 0f b6 0c 24       	movzx  r9d,BYTE PTR [r12]
  44b581:	48 89 f8             	mov    rax,rdi
  44b584:	48 89 fa             	mov    rdx,rdi
  44b587:	48 d3 e0             	shl    rax,cl
  44b58a:	41 0f b6 0a          	movzx  ecx,BYTE PTR [r10]
  44b58e:	83 e2 3f             	and    edx,0x3f
  44b591:	4d 89 cb             	mov    r11,r9
  44b594:	48 01 f1             	add    rcx,rsi
  44b597:	48 01 c8             	add    rax,rcx
  44b59a:	89 d1                	mov    ecx,edx
  44b59c:	49 d3 e0             	shl    r8,cl
  44b59f:	49 d3 e3             	shl    r11,cl
  44b5a2:	4c 01 c0             	add    rax,r8
  44b5a5:	45 0f b7 45 00       	movzx  r8d,WORD PTR [r13+0x0]
  44b5aa:	4c 89 d9             	mov    rcx,r11
  44b5ad:	48 c1 e0 03          	shl    rax,0x3
  44b5b1:	4c 01 c1             	add    rcx,r8
  44b5b4:	4c 8d 94 03 00 00 00 	lea    r10,[rbx+rax*1+0x8000000]
  44b5bb:	08 
  44b5bc:	45 31 c0             	xor    r8d,r8d
  44b5bf:	f2 48 0f 2a c9       	cvtsi2sd xmm1,rcx
  44b5c4:	f2 41 0f 10 02       	movsd  xmm0,QWORD PTR [r10]
  44b5c9:	89 d1                	mov    ecx,edx
  44b5cb:	66 0f 2f c1          	comisd xmm0,xmm1
  44b5cf:	66 0f ef c9          	pxor   xmm1,xmm1
  44b5d3:	41 0f 97 c0          	seta   r8b
  44b5d7:	48 d3 e7             	shl    rdi,cl
  44b5da:	31 c9                	xor    ecx,ecx
  44b5dc:	f2 48 0f 2a cf       	cvtsi2sd xmm1,rdi
  44b5e1:	41 f7 d8             	neg    r8d
  44b5e4:	66 0f 2f c8          	comisd xmm1,xmm0
  44b5e8:	0f 97 c1             	seta   cl
  44b5eb:	f7 d9                	neg    ecx
  44b5ed:	41 85 c8             	test   r8d,ecx
  44b5f0:	0f 84 ea fe ff ff    	je     44b4e0 <MEMORY_T::MEMORY_T()+0x1120>
;  poke double,@kernal(                                                   peek(ubyte,@nibbles(&B0100))   shl peek(ubyte,@nibbles(&B1000)) add peek(ubyte,@nibbles(&B0110)) shl peek(ubyte,@nibbles(&B0100)) add peek(ubyte,@nibbles(&B1100)) add peek(integer,@i)),                       peek(double,@kernal(                    peek(ubyte,@nibbles(&B0100)) shl          peek(ubyte,@nibbles(&B1000)) add peek(ubyte,@nibbles(&B0110)) shl peek(ubyte,@nibbles(&B0100)) add peek(ubyte,@nibbles(&B1100)) add peek(integer,@i))                    add peek(ubyte,@nibbles(&B0010)) shl peek(ubyte,@nibbles(&B0100)))
  44b5f6:	48 8d 3d a5 77 05 00 	lea    rdi,[rip+0x577a5]        # 4a2da2 <NIBBLES$+0x2>
  44b5fd:	89 d1                	mov    ecx,edx
  44b5ff:	48 01 d8             	add    rax,rbx
  44b602:	0f b6 3f             	movzx  edi,BYTE PTR [rdi]
  44b605:	48 d3 e7             	shl    rdi,cl
  44b608:	f2 0f 10 84 f8 00 00 	movsd  xmm0,QWORD PTR [rax+rdi*8+0x8000000]
  44b60f:	00 08 
  44b611:	f2 41 0f 11 02       	movsd  QWORD PTR [r10],xmm0
;  jmp L11
  44b616:	e9 ee fe ff ff       	jmp    44b509 <MEMORY_T::MEMORY_T()+0x1149>
  44b61b:	0f 1f 44 00 00       	nop    DWORD PTR [rax+rax*1+0x0]
;  poke double, @kernal(peek(ubyte,@nibbles(&B0100)) shl peek(ubyte,@nibbles(&B1000)) add peek(ubyte,@nibbles(&B0110)) shl peek(ubyte,@nibbles(&B0100)) add peek(integer,@i)), peek(double,@kernal(peek(ubyte,@nibbles(&B0100)) shl peek(ubyte,@nibbles(&B1000)) add peek(ubyte,@nibbles(&B0110)) shl peek(ubyte,@nibbles(&B0100)) add peek(integer,@i)) add peek(ubyte,@nibbles(&B0010)) shl peek(ubyte,@nibbles(&B0100)))
  44b620:	48 8d 3d 7b 77 05 00 	lea    rdi,[rip+0x5777b]        # 4a2da2 <NIBBLES$+0x2>
  44b627:	48 01 f2             	add    rdx,rsi
  44b62a:	89 c1                	mov    ecx,eax
  44b62c:	0f b6 3f             	movzx  edi,BYTE PTR [rdi]
  44b62f:	48 c1 e2 03          	shl    rdx,0x3
  44b633:	48 8d 04 13          	lea    rax,[rbx+rdx*1]
  44b637:	48 d3 e7             	shl    rdi,cl
  44b63a:	f2 0f 10 84 f8 00 00 	movsd  xmm0,QWORD PTR [rax+rdi*8+0x8000000]
  44b641:	00 08 
  44b643:	f2 0f 11 84 13 00 00 	movsd  QWORD PTR [rbx+rdx*1+0x8000000],xmm0
  44b64a:	00 08 
;  jmp L8
  44b64c:	e9 37 fd ff ff       	jmp    44b388 <MEMORY_T::MEMORY_T()+0xfc8>
  44b651:	0f 1f 80 00 00 00 00 	nop    DWORD PTR [rax+0x0]
;  poke double,@kernal(                                                   peek(ubyte,@nibbles(&B0100))   shl peek(ubyte,@nibbles(&B1000)) add peek(ubyte,@nibbles(&B0111)) shl peek(ubyte,@nibbles(&B0100)) add peek(ubyte,@nibbles(&B1101))),   peek(ubyte,@nibbles(&B0010)) shl                       peek(ubyte,@nibbles(&B0100)) add peek(ubyte,@nibbles(&B1010)):poke double, @kernal(          peek(ubyte,@nibbles(&B0100)) shl peek(ubyte,@nibbles(&B1000)) add peek(ubyte,@nibbles(&B0111)) shl peek(ubyte,@nibbles(&B0100)) add peek(ubyte,@nibbles(&B1110))),   peek(ubyte,@nibbles(&B0001)) shl peek(ubyte,@nibbles(&B0100))
  44b658:	0f b6 05 45 77 05 00 	movzx  eax,BYTE PTR [rip+0x57745]        # 4a2da4 <NIBBLES$+0x4>
  44b65f:	66 0f ef c0          	pxor   xmm0,xmm0
;  mov(mem, "MICROSOFT")
  44b663:	45 31 c0             	xor    r8d,r8d
  44b666:	4c 89 f7             	mov    rdi,r14
;  poke double,@kernal(                                                   peek(ubyte,@nibbles(&B0100))   shl peek(ubyte,@nibbles(&B1000)) add peek(ubyte,@nibbles(&B0111)) shl peek(ubyte,@nibbles(&B0100)) add peek(ubyte,@nibbles(&B1101))),   peek(ubyte,@nibbles(&B0010)) shl                       peek(ubyte,@nibbles(&B0100)) add peek(ubyte,@nibbles(&B1010)):poke double, @kernal(          peek(ubyte,@nibbles(&B0100)) shl peek(ubyte,@nibbles(&B1000)) add peek(ubyte,@nibbles(&B0111)) shl peek(ubyte,@nibbles(&B0100)) add peek(ubyte,@nibbles(&B1110))),   peek(ubyte,@nibbles(&B0001)) shl peek(ubyte,@nibbles(&B0100))
  44b669:	0f b6 0d 38 77 05 00 	movzx  ecx,BYTE PTR [rip+0x57738]        # 4a2da8 <NIBBLES$+0x8>
  44b670:	0f b6 35 30 77 05 00 	movzx  esi,BYTE PTR [rip+0x57730]        # 4a2da7 <NIBBLES$+0x7>
  44b677:	89 c2                	mov    edx,eax
  44b679:	83 e2 3f             	and    edx,0x3f
  44b67c:	48 d3 e0             	shl    rax,cl
  44b67f:	89 d1                	mov    ecx,edx
  44b681:	48 d3 e6             	shl    rsi,cl
  44b684:	0f b6 0d 22 77 05 00 	movzx  ecx,BYTE PTR [rip+0x57722]        # 4a2dad <NIBBLES$+0xd>
  44b68b:	48 01 f0             	add    rax,rsi
  44b68e:	0f b6 35 0d 77 05 00 	movzx  esi,BYTE PTR [rip+0x5770d]        # 4a2da2 <NIBBLES$+0x2>
  44b695:	48 01 c8             	add    rax,rcx
  44b698:	89 d1                	mov    ecx,edx
  44b69a:	0f b6 15 09 77 05 00 	movzx  edx,BYTE PTR [rip+0x57709]        # 4a2daa <NIBBLES$+0xa>
  44b6a1:	48 d3 e6             	shl    rsi,cl
  44b6a4:	48 01 d6             	add    rsi,rdx
  44b6a7:	f2 48 0f 2a c6       	cvtsi2sd xmm0,rsi
  44b6ac:	f2 0f 11 84 c3 00 00 	movsd  QWORD PTR [rbx+rax*8+0x8000000],xmm0
  44b6b3:	00 08 
  44b6b5:	0f b6 05 e8 76 05 00 	movzx  eax,BYTE PTR [rip+0x576e8]        # 4a2da4 <NIBBLES$+0x4>
  44b6bc:	0f b6 0d e5 76 05 00 	movzx  ecx,BYTE PTR [rip+0x576e5]        # 4a2da8 <NIBBLES$+0x8>
  44b6c3:	66 0f ef c0          	pxor   xmm0,xmm0
  44b6c7:	0f b6 35 d9 76 05 00 	movzx  esi,BYTE PTR [rip+0x576d9]        # 4a2da7 <NIBBLES$+0x7>
  44b6ce:	89 c2                	mov    edx,eax
  44b6d0:	48 d3 e0             	shl    rax,cl
  44b6d3:	83 e2 3f             	and    edx,0x3f
  44b6d6:	89 d1                	mov    ecx,edx
  44b6d8:	48 d3 e6             	shl    rsi,cl
  44b6db:	0f b6 0d cc 76 05 00 	movzx  ecx,BYTE PTR [rip+0x576cc]        # 4a2dae <NIBBLES$+0xe>
  44b6e2:	48 01 f0             	add    rax,rsi
  44b6e5:	0f b6 35 b5 76 05 00 	movzx  esi,BYTE PTR [rip+0x576b5]        # 4a2da1 <NIBBLES$+0x1>
  44b6ec:	48 01 c8             	add    rax,rcx
  44b6ef:	89 d1                	mov    ecx,edx
  44b6f1:	48 d3 e6             	shl    rsi,cl
  44b6f4:	f2 48 0f 2a c6       	cvtsi2sd xmm0,rsi
  44b6f9:	f2 0f 11 84 c3 00 00 	movsd  QWORD PTR [rbx+rax*8+0x8000000],xmm0
  44b700:	00 08 
;  poke double,@kernal(                                                   peek(ubyte,@nibbles(&B0100))   shl peek(ubyte,@nibbles(&B1000)) add peek(ubyte,@nibbles(&B0111)) shl peek(ubyte,@nibbles(&B0100)) add peek(ubyte,@nibbles(&B1111))),   peek(ubyte,@nibbles(&B0010)) shl                       peek(ubyte,@nibbles(&B0100))
  44b702:	0f b6 05 9b 76 05 00 	movzx  eax,BYTE PTR [rip+0x5769b]        # 4a2da4 <NIBBLES$+0x4>
  44b709:	0f b6 0d 98 76 05 00 	movzx  ecx,BYTE PTR [rip+0x57698]        # 4a2da8 <NIBBLES$+0x8>
  44b710:	66 0f ef c0          	pxor   xmm0,xmm0
  44b714:	0f b6 35 8c 76 05 00 	movzx  esi,BYTE PTR [rip+0x5768c]        # 4a2da7 <NIBBLES$+0x7>
  44b71b:	89 c2                	mov    edx,eax
  44b71d:	48 d3 e0             	shl    rax,cl
  44b720:	83 e2 3f             	and    edx,0x3f
  44b723:	89 d1                	mov    ecx,edx
  44b725:	48 d3 e6             	shl    rsi,cl
  44b728:	0f b6 0d 80 76 05 00 	movzx  ecx,BYTE PTR [rip+0x57680]        # 4a2daf <NIBBLES$+0xf>
  44b72f:	48 01 f0             	add    rax,rsi
  44b732:	0f b6 35 69 76 05 00 	movzx  esi,BYTE PTR [rip+0x57669]        # 4a2da2 <NIBBLES$+0x2>
  44b739:	48 01 c8             	add    rax,rcx
  44b73c:	89 d1                	mov    ecx,edx
;  mov(mem, "MICROSOFT")
  44b73e:	48 8d 15 0e 73 02 00 	lea    rdx,[rip+0x2730e]        # 472a53 <_IO_stdin_used+0x3a53>
;  poke double,@kernal(                                                   peek(ubyte,@nibbles(&B0100))   shl peek(ubyte,@nibbles(&B1000)) add peek(ubyte,@nibbles(&B0111)) shl peek(ubyte,@nibbles(&B0100)) add peek(ubyte,@nibbles(&B1111))),   peek(ubyte,@nibbles(&B0010)) shl                       peek(ubyte,@nibbles(&B0100))
  44b745:	48 d3 e6             	shl    rsi,cl
;  mov(mem, "MICROSOFT")
  44b748:	b9 0a 00 00 00       	mov    ecx,0xa
;  poke double,@kernal(                                                   peek(ubyte,@nibbles(&B0100))   shl peek(ubyte,@nibbles(&B1000)) add peek(ubyte,@nibbles(&B0111)) shl peek(ubyte,@nibbles(&B0100)) add peek(ubyte,@nibbles(&B1111))),   peek(ubyte,@nibbles(&B0010)) shl                       peek(ubyte,@nibbles(&B0100))
  44b74d:	f2 48 0f 2a c6       	cvtsi2sd xmm0,rsi
;  mov(mem, "MICROSOFT")
  44b752:	48 c7 c6 ff ff ff ff 	mov    rsi,0xffffffffffffffff
;  poke double,@kernal(                                                   peek(ubyte,@nibbles(&B0100))   shl peek(ubyte,@nibbles(&B1000)) add peek(ubyte,@nibbles(&B0111)) shl peek(ubyte,@nibbles(&B0100)) add peek(ubyte,@nibbles(&B1111))),   peek(ubyte,@nibbles(&B0010)) shl                       peek(ubyte,@nibbles(&B0100))
  44b759:	f2 0f 11 84 c3 00 00 	movsd  QWORD PTR [rbx+rax*8+0x8000000],xmm0
  44b760:	00 08 
;  mov(mem, "MICROSOFT")
  44b762:	e8 79 d5 01 00       	call   468ce0 <fb_StrAssign>
;  poke integer,@i,                                                    peek(ubyte,@nibbles(&B0001))
  44b767:	0f b6 15 33 76 05 00 	movzx  edx,BYTE PTR [rip+0x57633]        # 4a2da1 <NIBBLES$+0x1>
  44b76e:	48 89 15 53 76 05 00 	mov    QWORD PTR [rip+0x57653],rdx        # 4a2dc8 <I$>
  44b775:	48 89 d6             	mov    rsi,rdx
  44b778:	eb 34                	jmp    44b7ae <MEMORY_T::MEMORY_T()+0x13ee>
  44b77a:	66 0f 1f 44 00 00    	nop    WORD PTR [rax+rax*1+0x0]
;  poke integer,@i,                                                    peek(integer,@i) add peek(ubyte,@nibbles(&B0001)) 
  44b780:	49 01 f0             	add    r8,rsi
;  cmp                                                                    peek(integer,@i)  ls len(mem)          jmp L14
  44b783:	4c 89 f7             	mov    rdi,r14
  44b786:	48 c7 c6 ff ff ff ff 	mov    rsi,0xffffffffffffffff
;  poke integer,@i,                                                    peek(integer,@i) add peek(ubyte,@nibbles(&B0001)) 
  44b78d:	4c 89 05 34 76 05 00 	mov    QWORD PTR [rip+0x57634],r8        # 4a2dc8 <I$>
;  cmp                                                                    peek(integer,@i)  ls len(mem)          jmp L14
  44b794:	e8 17 eb 01 00       	call   46a2b0 <fb_StrLen>
  44b799:	48 8b 35 28 76 05 00 	mov    rsi,QWORD PTR [rip+0x57628]        # 4a2dc8 <I$>
  44b7a0:	48 39 c6             	cmp    rsi,rax
  44b7a3:	0f 8f 0f 01 00 00    	jg     44b8b8 <MEMORY_T::MEMORY_T()+0x14f8>
  44b7a9:	41 0f b6 14 24       	movzx  edx,BYTE PTR [r12]
;  poke double,@kernal(                                                   peek(ubyte,@nibbles(&B0100))   shl peek(ubyte,@nibbles(&B1000)) add peek(ubyte,@nibbles(&B0111)) shl peek(ubyte,@nibbles(&B0100)) add peek(ubyte,@nibbles(&B1111)) add peek(integer,@i)),  asc(mid(mem,         peek(integer,@i),  peek(ubyte,@nibbles(&B0001))))
  44b7ae:	4c 89 f7             	mov    rdi,r14
  44b7b1:	e8 3a eb 01 00       	call   46a2f0 <fb_StrMid>
  44b7b6:	be 01 00 00 00       	mov    esi,0x1
  44b7bb:	48 89 c7             	mov    rdi,rax
  44b7be:	e8 9d d2 01 00       	call   468a60 <fb_ASC>
  44b7c3:	41 0f b6 0f          	movzx  ecx,BYTE PTR [r15]
  44b7c7:	66 0f ef c0          	pxor   xmm0,xmm0
  44b7cb:	48 8b 35 f6 75 05 00 	mov    rsi,QWORD PTR [rip+0x575f6]        # 4a2dc8 <I$>
  44b7d2:	41 89 c0             	mov    r8d,eax
  44b7d5:	41 0f b6 55 00       	movzx  edx,BYTE PTR [r13+0x0]
  44b7da:	0f b6 45 00          	movzx  eax,BYTE PTR [rbp+0x0]
;  cmp logic_and(                                                         peek(double,@kernal(    peek(ubyte,@nibbles(&B0100)) shl peek(ubyte,@nibbles(&B1000)) add peek(ubyte,@nibbles(&B0111)) shl peek(ubyte,@nibbles(&B0100)) add peek(ubyte,@nibbles(&B1111)) add                       peek(integer,@i))) gt                peek(ubyte,@nibbles(&B0001)) shl          peek(ushort,@nibbles(&B0100))                      add peek(ubyte,@nibbles(&B1111)),    peek(double,@kernal(  peek(ubyte,@nibbles(&B0100))                       shl peek(ubyte,@nibbles(&B1000)) add peek(ubyte,@nibbles(&B0111)) shl  peek(ubyte,@nibbles(&B0100)) add peek(ubyte,@nibbles(&B1111))                       add peek(integer,@i))) lt         peek(ubyte,@nibbles(&B0100)) shl peek(ubyte,@nibbles(&B0100))) jmp L15
  44b7de:	66 0f ef c9          	pxor   xmm1,xmm1
;  poke double,@kernal(                                                   peek(ubyte,@nibbles(&B0100))   shl peek(ubyte,@nibbles(&B1000)) add peek(ubyte,@nibbles(&B0111)) shl peek(ubyte,@nibbles(&B0100)) add peek(ubyte,@nibbles(&B1111)) add peek(integer,@i)),  asc(mid(mem,         peek(integer,@i),  peek(ubyte,@nibbles(&B0001))))
  44b7e2:	f2 49 0f 2a c0       	cvtsi2sd xmm0,r8
  44b7e7:	4c 8d 1d b9 75 05 00 	lea    r11,[rip+0x575b9]        # 4a2da7 <NIBBLES$+0x7>
  44b7ee:	48 89 c7             	mov    rdi,rax
  44b7f1:	48 01 f2             	add    rdx,rsi
  44b7f4:	48 d3 e0             	shl    rax,cl
  44b7f7:	48 01 d0             	add    rax,rdx
  44b7fa:	41 0f b6 13          	movzx  edx,BYTE PTR [r11]
  44b7fe:	89 f9                	mov    ecx,edi
  44b800:	48 d3 e2             	shl    rdx,cl
  44b803:	48 01 d0             	add    rax,rdx
  44b806:	f2 0f 11 84 c3 00 00 	movsd  QWORD PTR [rbx+rax*8+0x8000000],xmm0
  44b80d:	00 08 
;  cmp logic_and(                                                         peek(double,@kernal(    peek(ubyte,@nibbles(&B0100)) shl peek(ubyte,@nibbles(&B1000)) add peek(ubyte,@nibbles(&B0111)) shl peek(ubyte,@nibbles(&B0100)) add peek(ubyte,@nibbles(&B1111)) add                       peek(integer,@i))) gt                peek(ubyte,@nibbles(&B0001)) shl          peek(ushort,@nibbles(&B0100))                      add peek(ubyte,@nibbles(&B1111)),    peek(double,@kernal(  peek(ubyte,@nibbles(&B0100))                       shl peek(ubyte,@nibbles(&B1000)) add peek(ubyte,@nibbles(&B0111)) shl  peek(ubyte,@nibbles(&B0100)) add peek(ubyte,@nibbles(&B1111))                       add peek(integer,@i))) lt         peek(ubyte,@nibbles(&B0100)) shl peek(ubyte,@nibbles(&B0100))) jmp L15
  44b80f:	44 0f b6 55 00       	movzx  r10d,BYTE PTR [rbp+0x0]
  44b814:	41 0f b6 0f          	movzx  ecx,BYTE PTR [r15]
  44b818:	41 0f b6 3b          	movzx  edi,BYTE PTR [r11]
  44b81c:	45 0f b6 04 24       	movzx  r8d,BYTE PTR [r12]
  44b821:	4c 89 d2             	mov    rdx,r10
  44b824:	4c 89 d0             	mov    rax,r10
  44b827:	45 0f b6 4d 00       	movzx  r9d,BYTE PTR [r13+0x0]
  44b82c:	83 e2 3f             	and    edx,0x3f
  44b82f:	48 d3 e0             	shl    rax,cl
  44b832:	89 d1                	mov    ecx,edx
  44b834:	48 d3 e7             	shl    rdi,cl
  44b837:	49 d3 e2             	shl    r10,cl
  44b83a:	0f b7 4d 00          	movzx  ecx,WORD PTR [rbp+0x0]
  44b83e:	4c 89 d2             	mov    rdx,r10
  44b841:	4d 89 c2             	mov    r10,r8
  44b844:	48 01 f8             	add    rax,rdi
  44b847:	49 d3 e2             	shl    r10,cl
  44b84a:	4c 01 c8             	add    rax,r9
  44b84d:	4c 89 d1             	mov    rcx,r10
  44b850:	48 8d 3c 06          	lea    rdi,[rsi+rax*1]
  44b854:	4c 01 c9             	add    rcx,r9
  44b857:	48 c1 e7 03          	shl    rdi,0x3
  44b85b:	45 31 c9             	xor    r9d,r9d
  44b85e:	f2 0f 10 84 3b 00 00 	movsd  xmm0,QWORD PTR [rbx+rdi*1+0x8000000]
  44b865:	00 08 
  44b867:	f2 48 0f 2a c9       	cvtsi2sd xmm1,rcx
  44b86c:	66 0f 2f c1          	comisd xmm0,xmm1
  44b870:	66 0f ef c9          	pxor   xmm1,xmm1
  44b874:	f2 48 0f 2a ca       	cvtsi2sd xmm1,rdx
  44b879:	41 0f 97 c1          	seta   r9b
  44b87d:	31 c9                	xor    ecx,ecx
  44b87f:	41 f7 d9             	neg    r9d
  44b882:	66 0f 2f c8          	comisd xmm1,xmm0
  44b886:	0f 97 c1             	seta   cl
  44b889:	f7 d9                	neg    ecx
  44b88b:	41 85 c9             	test   r9d,ecx
  44b88e:	0f 84 ec fe ff ff    	je     44b780 <MEMORY_T::MEMORY_T()+0x13c0>
;  poke double,@kernal(                                                   peek(ubyte,@nibbles(&B0100))   shl peek(ubyte,@nibbles(&B1000)) add peek(ubyte,@nibbles(&B0111)) shl peek(ubyte,@nibbles(&B0100)) add peek(ubyte,@nibbles(&B1111)) add peek(ushort,@i)), peek(double,@kernal(  peek(ubyte,@nibbles(&B0100)) shl peek(ubyte,@nibbles(&B1000))                   add          peek(ubyte,@nibbles(&B0111))                       shl peek(ubyte,@nibbles(&B0100)) add peek(ubyte,@nibbles(&B1111))   add peek(integer,@i))                  add peek(ubyte,@nibbles(&B0100)) shl peek(ubyte,@nibbles(&B0100)))
  44b894:	48 01 df             	add    rdi,rbx
  44b897:	f2 0f 10 84 d7 00 00 	movsd  xmm0,QWORD PTR [rdi+rdx*8+0x8000000]
  44b89e:	00 08 
  44b8a0:	0f b7 d6             	movzx  edx,si
  44b8a3:	48 01 d0             	add    rax,rdx
  44b8a6:	f2 0f 11 84 c3 00 00 	movsd  QWORD PTR [rbx+rax*8+0x8000000],xmm0
  44b8ad:	00 08 
;  jmp L14:
  44b8af:	e9 f5 fe ff ff       	jmp    44b7a9 <MEMORY_T::MEMORY_T()+0x13e9>
  44b8b4:	0f 1f 40 00          	nop    DWORD PTR [rax+0x0]
;  poke double,@kernal(                                                   peek(ubyte,@nibbles(&B0100))   shl peek(ubyte,@nibbles(&B1000)) add peek(ubyte,@nibbles(&B1000)) shl peek(ubyte,@nibbles(&B0100)) add peek(ubyte,@nibbles(&B1001))),   peek(ubyte,@nibbles(&B0010)) shl peek(ubyte,@nibbles(&B0100))
  44b8b8:	0f b6 05 e5 74 05 00 	movzx  eax,BYTE PTR [rip+0x574e5]        # 4a2da4 <NIBBLES$+0x4>
  44b8bf:	0f b6 35 e2 74 05 00 	movzx  esi,BYTE PTR [rip+0x574e2]        # 4a2da8 <NIBBLES$+0x8>
;  mov(mem, "BASIC")
  44b8c6:	45 31 c0             	xor    r8d,r8d
  44b8c9:	4c 89 f7             	mov    rdi,r14
;  poke double,@kernal(                                                   peek(ubyte,@nibbles(&B0100))   shl peek(ubyte,@nibbles(&B1000)) add peek(ubyte,@nibbles(&B1000)) shl peek(ubyte,@nibbles(&B0100)) add peek(ubyte,@nibbles(&B1001))),   peek(ubyte,@nibbles(&B0010)) shl peek(ubyte,@nibbles(&B0100))
  44b8cc:	66 0f ef c0          	pxor   xmm0,xmm0
  44b8d0:	89 c2                	mov    edx,eax
  44b8d2:	48 89 f1             	mov    rcx,rsi
  44b8d5:	83 e2 3f             	and    edx,0x3f
  44b8d8:	48 d3 e0             	shl    rax,cl
  44b8db:	89 d1                	mov    ecx,edx
  44b8dd:	48 d3 e6             	shl    rsi,cl
  44b8e0:	0f b6 0d c2 74 05 00 	movzx  ecx,BYTE PTR [rip+0x574c2]        # 4a2da9 <NIBBLES$+0x9>
  44b8e7:	48 01 f0             	add    rax,rsi
  44b8ea:	0f b6 35 b1 74 05 00 	movzx  esi,BYTE PTR [rip+0x574b1]        # 4a2da2 <NIBBLES$+0x2>
  44b8f1:	48 01 c8             	add    rax,rcx
  44b8f4:	89 d1                	mov    ecx,edx
;  mov(mem, "BASIC")
  44b8f6:	48 8d 15 f7 3a 02 00 	lea    rdx,[rip+0x23af7]        # 46f3f4 <_IO_stdin_used+0x3f4>
;  poke double,@kernal(                                                   peek(ubyte,@nibbles(&B0100))   shl peek(ubyte,@nibbles(&B1000)) add peek(ubyte,@nibbles(&B1000)) shl peek(ubyte,@nibbles(&B0100)) add peek(ubyte,@nibbles(&B1001))),   peek(ubyte,@nibbles(&B0010)) shl peek(ubyte,@nibbles(&B0100))
  44b8fd:	48 d3 e6             	shl    rsi,cl
;  mov(mem, "BASIC")
  44b900:	b9 06 00 00 00       	mov    ecx,0x6
;  poke double,@kernal(                                                   peek(ubyte,@nibbles(&B0100))   shl peek(ubyte,@nibbles(&B1000)) add peek(ubyte,@nibbles(&B1000)) shl peek(ubyte,@nibbles(&B0100)) add peek(ubyte,@nibbles(&B1001))),   peek(ubyte,@nibbles(&B0010)) shl peek(ubyte,@nibbles(&B0100))
  44b905:	f2 48 0f 2a c6       	cvtsi2sd xmm0,rsi
;  mov(mem, "BASIC")
  44b90a:	48 c7 c6 ff ff ff ff 	mov    rsi,0xffffffffffffffff
;  poke double,@kernal(                                                   peek(ubyte,@nibbles(&B0100))   shl peek(ubyte,@nibbles(&B1000)) add peek(ubyte,@nibbles(&B1000)) shl peek(ubyte,@nibbles(&B0100)) add peek(ubyte,@nibbles(&B1001))),   peek(ubyte,@nibbles(&B0010)) shl peek(ubyte,@nibbles(&B0100))
  44b911:	f2 0f 11 84 c3 00 00 	movsd  QWORD PTR [rbx+rax*8+0x8000000],xmm0
  44b918:	00 08 
;  mov(mem, "BASIC")
  44b91a:	e8 c1 d3 01 00       	call   468ce0 <fb_StrAssign>
;  poke integer,@i,                                                    peek(ubyte,@nibbles(&B0001))
  44b91f:	0f b6 15 7b 74 05 00 	movzx  edx,BYTE PTR [rip+0x5747b]        # 4a2da1 <NIBBLES$+0x1>
  44b926:	48 89 15 9b 74 05 00 	mov    QWORD PTR [rip+0x5749b],rdx        # 4a2dc8 <I$>
  44b92d:	48 89 d6             	mov    rsi,rdx
  44b930:	e9 14 01 00 00       	jmp    44ba49 <MEMORY_T::MEMORY_T()+0x1689>
  44b935:	0f 1f 00             	nop    DWORD PTR [rax]
;  poke double,@kernal(                                                   peek(ubyte,@nibbles(&B0100))   shl peek(ubyte,@nibbles(&B1000)) add peek(ubyte,@nibbles(&B1000)) shl peek(ubyte,@nibbles(&B0100)) add peek(ubyte,@nibbles(&B1001)) add peek(integer,@i)), asc(mid(mem,          peek(integer,@i),        peek(ubyte,@nibbles(&B0001))))
  44b938:	4c 89 ca             	mov    rdx,r9
  44b93b:	4c 89 f7             	mov    rdi,r14
  44b93e:	e8 ad e9 01 00       	call   46a2f0 <fb_StrMid>
  44b943:	be 01 00 00 00       	mov    esi,0x1
  44b948:	48 89 c7             	mov    rdi,rax
  44b94b:	e8 10 d1 01 00       	call   468a60 <fb_ASC>
  44b950:	4c 8d 0d 52 74 05 00 	lea    r9,[rip+0x57452]        # 4a2da9 <NIBBLES$+0x9>
  44b957:	41 0f b6 0f          	movzx  ecx,BYTE PTR [r15]
  44b95b:	0f b6 55 00          	movzx  edx,BYTE PTR [rbp+0x0]
  44b95f:	41 89 c0             	mov    r8d,eax
  44b962:	41 0f b6 01          	movzx  eax,BYTE PTR [r9]
  44b966:	66 0f ef c0          	pxor   xmm0,xmm0
;  cmp logic_and(                                                         peek(double,@kernal(    peek(ubyte,@nibbles(&B0100)) shl peek(ubyte,@nibbles(&B1000)) add peek(ubyte,@nibbles(&B1000)) shl peek(ubyte,@nibbles(&B0100)) add peek(ubyte,@nibbles(&B1001))     add                   peek(integer,@i)))    gt peek(ubyte,@nibbles(&B0001))             shl          peek(ubyte,@nibbles(&B0100)) add peek(ubyte,@nibbles(&B1111)),    peek(double,@kernal(  peek(ubyte,@nibbles(&B0100)) shl peek(ubyte,@nibbles(&B1000)) add peek(ubyte,@nibbles(&B1000)) shl peek(ubyte,@nibbles(&B0100)) add  peek(ubyte,@nibbles(&B1001)) add peek(integer,@i))) lt                                          peek(ubyte,@nibbles(&B0100))) jmp L19
  44b96a:	66 0f ef c9          	pxor   xmm1,xmm1
;  poke double,@kernal(                                                   peek(ubyte,@nibbles(&B0100))   shl peek(ubyte,@nibbles(&B1000)) add peek(ubyte,@nibbles(&B1000)) shl peek(ubyte,@nibbles(&B0100)) add peek(ubyte,@nibbles(&B1001)) add peek(integer,@i)), asc(mid(mem,          peek(integer,@i),        peek(ubyte,@nibbles(&B0001))))
  44b96e:	48 8b 35 53 74 05 00 	mov    rsi,QWORD PTR [rip+0x57453]        # 4a2dc8 <I$>
  44b975:	f2 49 0f 2a c0       	cvtsi2sd xmm0,r8
  44b97a:	48 89 d7             	mov    rdi,rdx
  44b97d:	48 d3 e2             	shl    rdx,cl
  44b980:	48 01 f0             	add    rax,rsi
  44b983:	48 01 d0             	add    rax,rdx
  44b986:	0f b6 d1             	movzx  edx,cl
  44b989:	89 f9                	mov    ecx,edi
  44b98b:	48 d3 e2             	shl    rdx,cl
  44b98e:	48 01 d0             	add    rax,rdx
  44b991:	f2 0f 11 84 c3 00 00 	movsd  QWORD PTR [rbx+rax*8+0x8000000],xmm0
  44b998:	00 08 
;  cmp logic_and(                                                         peek(double,@kernal(    peek(ubyte,@nibbles(&B0100)) shl peek(ubyte,@nibbles(&B1000)) add peek(ubyte,@nibbles(&B1000)) shl peek(ubyte,@nibbles(&B0100)) add peek(ubyte,@nibbles(&B1001))     add                   peek(integer,@i)))    gt peek(ubyte,@nibbles(&B0001))             shl          peek(ubyte,@nibbles(&B0100)) add peek(ubyte,@nibbles(&B1111)),    peek(double,@kernal(  peek(ubyte,@nibbles(&B0100)) shl peek(ubyte,@nibbles(&B1000)) add peek(ubyte,@nibbles(&B1000)) shl peek(ubyte,@nibbles(&B0100)) add  peek(ubyte,@nibbles(&B1001)) add peek(integer,@i))) lt                                          peek(ubyte,@nibbles(&B0100))) jmp L19
  44b99a:	0f b6 7d 00          	movzx  edi,BYTE PTR [rbp+0x0]
  44b99e:	41 0f b6 0f          	movzx  ecx,BYTE PTR [r15]
  44b9a2:	41 0f b6 01          	movzx  eax,BYTE PTR [r9]
  44b9a6:	48 89 fa             	mov    rdx,rdi
  44b9a9:	49 89 f8             	mov    r8,rdi
  44b9ac:	49 d3 e0             	shl    r8,cl
  44b9af:	83 e2 3f             	and    edx,0x3f
  44b9b2:	48 01 f0             	add    rax,rsi
  44b9b5:	4c 01 c0             	add    rax,r8
  44b9b8:	44 0f b6 c1          	movzx  r8d,cl
  44b9bc:	89 d1                	mov    ecx,edx
  44b9be:	49 d3 e0             	shl    r8,cl
  44b9c1:	4c 01 c0             	add    rax,r8
  44b9c4:	45 0f b6 04 24       	movzx  r8d,BYTE PTR [r12]
  44b9c9:	48 c1 e0 03          	shl    rax,0x3
  44b9cd:	4d 89 c2             	mov    r10,r8
  44b9d0:	4c 8d 8c 03 00 00 00 	lea    r9,[rbx+rax*1+0x8000000]
  44b9d7:	08 
  44b9d8:	49 d3 e2             	shl    r10,cl
  44b9db:	f2 41 0f 10 01       	movsd  xmm0,QWORD PTR [r9]
  44b9e0:	4c 89 d1             	mov    rcx,r10
  44b9e3:	45 0f b6 55 00       	movzx  r10d,BYTE PTR [r13+0x0]
  44b9e8:	4c 01 d1             	add    rcx,r10
  44b9eb:	45 31 d2             	xor    r10d,r10d
  44b9ee:	f2 48 0f 2a c9       	cvtsi2sd xmm1,rcx
  44b9f3:	66 0f 2f c1          	comisd xmm0,xmm1
  44b9f7:	66 0f ef c9          	pxor   xmm1,xmm1
  44b9fb:	f2 48 0f 2a cf       	cvtsi2sd xmm1,rdi
  44ba00:	41 0f 97 c2          	seta   r10b
  44ba04:	31 c9                	xor    ecx,ecx
  44ba06:	41 f7 da             	neg    r10d
  44ba09:	66 0f 2f c8          	comisd xmm1,xmm0
  44ba0d:	0f 97 c1             	seta   cl
  44ba10:	f7 d9                	neg    ecx
  44ba12:	41 85 ca             	test   r10d,ecx
  44ba15:	0f 85 35 01 00 00    	jne    44bb50 <MEMORY_T::MEMORY_T()+0x1790>
;  poke integer,@i,                                                    peek(integer,@i) add peek(ubyte,@nibbles(&B0001))
  44ba1b:	49 01 f0             	add    r8,rsi
;  cmp                                                                    peek(integer,@i)  ls len(mem)          jmp L17
  44ba1e:	4c 89 f7             	mov    rdi,r14
  44ba21:	48 c7 c6 ff ff ff ff 	mov    rsi,0xffffffffffffffff
;  poke integer,@i,                                                    peek(integer,@i) add peek(ubyte,@nibbles(&B0001))
  44ba28:	4c 89 05 99 73 05 00 	mov    QWORD PTR [rip+0x57399],r8        # 4a2dc8 <I$>
;  cmp                                                                    peek(integer,@i)  ls len(mem)          jmp L17
  44ba2f:	e8 7c e8 01 00       	call   46a2b0 <fb_StrLen>
  44ba34:	48 8b 35 8d 73 05 00 	mov    rsi,QWORD PTR [rip+0x5738d]        # 4a2dc8 <I$>
  44ba3b:	48 39 c6             	cmp    rsi,rax
  44ba3e:	0f 8f 34 01 00 00    	jg     44bb78 <MEMORY_T::MEMORY_T()+0x17b8>
  44ba44:	41 0f b6 14 24       	movzx  edx,BYTE PTR [r12]
;  poke double,@kernal(                                                   peek(ubyte,@nibbles(&B0100))   shl peek(ubyte,@nibbles(&B1000)) add peek(ubyte,@nibbles(&B0110)) shl peek(ubyte,@nibbles(&B0100)) add peek(integer,@i)), asc(mid(mem,          peek(integer,@i),  peek(ubyte,@nibbles(&B0001))))
  44ba49:	4c 89 f7             	mov    rdi,r14
  44ba4c:	e8 9f e8 01 00       	call   46a2f0 <fb_StrMid>
  44ba51:	be 01 00 00 00       	mov    esi,0x1
  44ba56:	48 89 c7             	mov    rdi,rax
  44ba59:	e8 02 d0 01 00       	call   468a60 <fb_ASC>
  44ba5e:	41 0f b6 0f          	movzx  ecx,BYTE PTR [r15]
  44ba62:	66 0f ef c0          	pxor   xmm0,xmm0
  44ba66:	4c 8d 1d 39 73 05 00 	lea    r11,[rip+0x57339]        # 4a2da6 <NIBBLES$+0x6>
  44ba6d:	41 89 c0             	mov    r8d,eax
  44ba70:	0f b6 45 00          	movzx  eax,BYTE PTR [rbp+0x0]
  44ba74:	41 0f b6 13          	movzx  edx,BYTE PTR [r11]
;  cmp logic_and(                                                         peek(double,@kernal(    peek(ubyte,@nibbles(&B0100)) shl peek(ubyte,@nibbles(&B1000)) add peek(ubyte,@nibbles(&B0110)) shl peek(ubyte,@nibbles(&B0100)) add peek(integer,@i))) gt                    peek(ubyte,@nibbles(&B0001))       shl peek(ubyte,@nibbles(&B0100))             add          peek(ubyte,@nibbles(&B1111)),    peek(double,@kernal(  peek(ubyte,@nibbles(&B0100)) shl peek(ubyte,@nibbles(&B1000)) add peek(ubyte,@nibbles(&B0110)) shl peek(ubyte,@nibbles(&B0100)) add peek(integer,@i))) lt                     peek(ubyte,@nibbles(&B0100)) shl peek(ubyte,@nibbles(&B0100))) jmp L18
  44ba78:	66 0f ef c9          	pxor   xmm1,xmm1
;  poke double,@kernal(                                                   peek(ubyte,@nibbles(&B0100))   shl peek(ubyte,@nibbles(&B1000)) add peek(ubyte,@nibbles(&B0110)) shl peek(ubyte,@nibbles(&B0100)) add peek(integer,@i)), asc(mid(mem,          peek(integer,@i),  peek(ubyte,@nibbles(&B0001))))
  44ba7c:	f2 49 0f 2a c0       	cvtsi2sd xmm0,r8
  44ba81:	48 8b 35 40 73 05 00 	mov    rsi,QWORD PTR [rip+0x57340]        # 4a2dc8 <I$>
  44ba88:	48 89 c7             	mov    rdi,rax
  44ba8b:	48 d3 e0             	shl    rax,cl
  44ba8e:	89 f9                	mov    ecx,edi
  44ba90:	48 d3 e2             	shl    rdx,cl
  44ba93:	48 01 d0             	add    rax,rdx
  44ba96:	48 01 f0             	add    rax,rsi
  44ba99:	f2 0f 11 84 c3 00 00 	movsd  QWORD PTR [rbx+rax*8+0x8000000],xmm0
  44baa0:	00 08 
;  cmp logic_and(                                                         peek(double,@kernal(    peek(ubyte,@nibbles(&B0100)) shl peek(ubyte,@nibbles(&B1000)) add peek(ubyte,@nibbles(&B0110)) shl peek(ubyte,@nibbles(&B0100)) add peek(integer,@i))) gt                    peek(ubyte,@nibbles(&B0001))       shl peek(ubyte,@nibbles(&B0100))             add          peek(ubyte,@nibbles(&B1111)),    peek(double,@kernal(  peek(ubyte,@nibbles(&B0100)) shl peek(ubyte,@nibbles(&B1000)) add peek(ubyte,@nibbles(&B0110)) shl peek(ubyte,@nibbles(&B0100)) add peek(integer,@i))) lt                     peek(ubyte,@nibbles(&B0100)) shl peek(ubyte,@nibbles(&B0100))) jmp L18
  44baa2:	0f b6 7d 00          	movzx  edi,BYTE PTR [rbp+0x0]
  44baa6:	41 0f b6 0f          	movzx  ecx,BYTE PTR [r15]
  44baaa:	45 0f b6 03          	movzx  r8d,BYTE PTR [r11]
  44baae:	45 0f b6 0c 24       	movzx  r9d,BYTE PTR [r12]
  44bab3:	48 89 fa             	mov    rdx,rdi
  44bab6:	48 89 f8             	mov    rax,rdi
  44bab9:	83 e2 3f             	and    edx,0x3f
  44babc:	48 d3 e0             	shl    rax,cl
  44babf:	4d 89 cb             	mov    r11,r9
  44bac2:	89 d1                	mov    ecx,edx
  44bac4:	49 d3 e0             	shl    r8,cl
  44bac7:	49 d3 e3             	shl    r11,cl
  44baca:	4c 01 c0             	add    rax,r8
  44bacd:	45 0f b6 45 00       	movzx  r8d,BYTE PTR [r13+0x0]
  44bad2:	4c 89 d9             	mov    rcx,r11
  44bad5:	48 01 f0             	add    rax,rsi
  44bad8:	4c 01 c1             	add    rcx,r8
  44badb:	48 c1 e0 03          	shl    rax,0x3
  44badf:	45 31 c0             	xor    r8d,r8d
  44bae2:	f2 48 0f 2a c9       	cvtsi2sd xmm1,rcx
  44bae7:	4c 8d 94 03 00 00 00 	lea    r10,[rbx+rax*1+0x8000000]
  44baee:	08 
  44baef:	89 d1                	mov    ecx,edx
  44baf1:	f2 41 0f 10 02       	movsd  xmm0,QWORD PTR [r10]
  44baf6:	66 0f 2f c1          	comisd xmm0,xmm1
  44bafa:	66 0f ef c9          	pxor   xmm1,xmm1
  44bafe:	41 0f 97 c0          	seta   r8b
  44bb02:	48 d3 e7             	shl    rdi,cl
  44bb05:	31 c9                	xor    ecx,ecx
  44bb07:	f2 48 0f 2a cf       	cvtsi2sd xmm1,rdi
  44bb0c:	41 f7 d8             	neg    r8d
  44bb0f:	66 0f 2f c8          	comisd xmm1,xmm0
  44bb13:	0f 97 c1             	seta   cl
  44bb16:	f7 d9                	neg    ecx
  44bb18:	41 85 c8             	test   r8d,ecx
  44bb1b:	0f 84 17 fe ff ff    	je     44b938 <MEMORY_T::MEMORY_T()+0x1578>
;  poke double,@kernal(                                                   peek(ubyte,@nibbles(&B0100))   shl peek(ubyte,@nibbles(&B1000)) add peek(ubyte,@nibbles(&B0110)) shl peek(ubyte,@nibbles(&B0100)) add peek(integer,@i)), peek(double,@kernal(                        peek(ubyte,@nibbles(&B0100))       shl peek(ubyte,@nibbles(&B1000))             add          peek(ubyte,@nibbles(&B0110)) shl peek(ubyte,@nibbles(&B0100)) add peek(integer,@i))                    add peek(ubyte,@nibbles(&B0010)) shl peek(ubyte,@nibbles(&B0100)))
  44bb21:	48 8d 3d 7a 72 05 00 	lea    rdi,[rip+0x5727a]        # 4a2da2 <NIBBLES$+0x2>
  44bb28:	89 d1                	mov    ecx,edx
  44bb2a:	48 01 d8             	add    rax,rbx
  44bb2d:	0f b6 3f             	movzx  edi,BYTE PTR [rdi]
  44bb30:	48 d3 e7             	shl    rdi,cl
  44bb33:	f2 0f 10 84 f8 00 00 	movsd  xmm0,QWORD PTR [rax+rdi*8+0x8000000]
  44bb3a:	00 08 
  44bb3c:	f2 41 0f 11 02       	movsd  QWORD PTR [r10],xmm0
;  jmp L17
  44bb41:	e9 fe fe ff ff       	jmp    44ba44 <MEMORY_T::MEMORY_T()+0x1684>
  44bb46:	66 2e 0f 1f 84 00 00 	cs nop WORD PTR [rax+rax*1+0x0]
  44bb4d:	00 00 00 
;  poke double,@kernal(                                                   peek(ubyte,@nibbles(&B0100))   shl peek(ubyte,@nibbles(&B1000)) add peek(ubyte,@nibbles(&B1000)) shl peek(ubyte,@nibbles(&B0100)) add peek(ubyte,@nibbles(&B1001)) add peek(integer,@i)),                       peek(double,@kernal(        peek(ubyte,@nibbles(&B0100))             shl          peek(ubyte,@nibbles(&B1000)) add peek(ubyte,@nibbles(&B1000)) shl peek(ubyte,@nibbles(&B0100)) add peek(ubyte,@nibbles(&B1001)) add peek(integer,@i))                    add peek(ubyte,@nibbles(&B0010)) shl  peek(ubyte,@nibbles(&B0100)))
  44bb50:	48 8d 3d 4b 72 05 00 	lea    rdi,[rip+0x5724b]        # 4a2da2 <NIBBLES$+0x2>
  44bb57:	89 d1                	mov    ecx,edx
  44bb59:	48 01 d8             	add    rax,rbx
  44bb5c:	0f b6 3f             	movzx  edi,BYTE PTR [rdi]
  44bb5f:	48 d3 e7             	shl    rdi,cl
  44bb62:	f2 0f 10 84 f8 00 00 	movsd  xmm0,QWORD PTR [rax+rdi*8+0x8000000]
  44bb69:	00 08 
  44bb6b:	f2 41 0f 11 01       	movsd  QWORD PTR [r9],xmm0
;  jmp L17
  44bb70:	e9 cf fe ff ff       	jmp    44ba44 <MEMORY_T::MEMORY_T()+0x1684>
  44bb75:	0f 1f 00             	nop    DWORD PTR [rax]
;  poke double,@kernal(                                                   peek(ubyte,@nibbles(&B0100))   shl peek(ubyte,@nibbles(&B1000)) add peek(ubyte,@nibbles(&B1000)) shl peek(ubyte,@nibbles(&B0100)) add peek(ubyte,@nibbles(&B1111))),   peek(ubyte,@nibbles(&B0010))     shl                   peek(ubyte,@nibbles(&B0100)):    poke double,@kernal(                             peek(ubyte,@nibbles(&B0100)) shl peek(ubyte,@nibbles(&B1000)) add peek(ubyte,@nibbles(&B1001)) shl peek(ubyte,@nibbles(&B0100))),   peek(ubyte,@nibbles(&B1000)) shl peek(ubyte,@nibbles(&B0100)) add peek(ubyte,@nibbles(&B0110))
  44bb78:	0f b6 05 25 72 05 00 	movzx  eax,BYTE PTR [rip+0x57225]        # 4a2da4 <NIBBLES$+0x4>
  44bb7f:	0f b6 35 22 72 05 00 	movzx  esi,BYTE PTR [rip+0x57222]        # 4a2da8 <NIBBLES$+0x8>
  44bb86:	66 0f ef c0          	pxor   xmm0,xmm0
;  mov(mem, " RAM SYSTEM")
  44bb8a:	4c 8d 2d cc 6e 02 00 	lea    r13,[rip+0x26ecc]        # 472a5d <_IO_stdin_used+0x3a5d>
;  poke double,@kernal(                                                   peek(ubyte,@nibbles(&B0100))   shl peek(ubyte,@nibbles(&B1000)) add peek(ubyte,@nibbles(&B1000)) shl peek(ubyte,@nibbles(&B0100)) add peek(ubyte,@nibbles(&B1111))),   peek(ubyte,@nibbles(&B0010))     shl                   peek(ubyte,@nibbles(&B0100)):    poke double,@kernal(                             peek(ubyte,@nibbles(&B0100)) shl peek(ubyte,@nibbles(&B1000)) add peek(ubyte,@nibbles(&B1001)) shl peek(ubyte,@nibbles(&B0100))),   peek(ubyte,@nibbles(&B1000)) shl peek(ubyte,@nibbles(&B0100)) add peek(ubyte,@nibbles(&B0110))
  44bb91:	89 c2                	mov    edx,eax
  44bb93:	48 89 f1             	mov    rcx,rsi
  44bb96:	83 e2 3f             	and    edx,0x3f
  44bb99:	48 d3 e0             	shl    rax,cl
  44bb9c:	89 d1                	mov    ecx,edx
  44bb9e:	48 d3 e6             	shl    rsi,cl
  44bba1:	0f b6 0d 07 72 05 00 	movzx  ecx,BYTE PTR [rip+0x57207]        # 4a2daf <NIBBLES$+0xf>
  44bba8:	48 01 f0             	add    rax,rsi
  44bbab:	0f b6 35 f0 71 05 00 	movzx  esi,BYTE PTR [rip+0x571f0]        # 4a2da2 <NIBBLES$+0x2>
  44bbb2:	48 01 c8             	add    rax,rcx
  44bbb5:	89 d1                	mov    ecx,edx
  44bbb7:	48 d3 e6             	shl    rsi,cl
  44bbba:	f2 48 0f 2a c6       	cvtsi2sd xmm0,rsi
  44bbbf:	f2 0f 11 84 c3 00 00 	movsd  QWORD PTR [rbx+rax*8+0x8000000],xmm0
  44bbc6:	00 08 
  44bbc8:	0f b6 15 d5 71 05 00 	movzx  edx,BYTE PTR [rip+0x571d5]        # 4a2da4 <NIBBLES$+0x4>
  44bbcf:	0f b6 05 d2 71 05 00 	movzx  eax,BYTE PTR [rip+0x571d2]        # 4a2da8 <NIBBLES$+0x8>
  44bbd6:	66 0f ef c0          	pxor   xmm0,xmm0
  44bbda:	0f b6 3d c8 71 05 00 	movzx  edi,BYTE PTR [rip+0x571c8]        # 4a2da9 <NIBBLES$+0x9>
  44bbe1:	89 d6                	mov    esi,edx
  44bbe3:	89 c1                	mov    ecx,eax
  44bbe5:	83 e6 3f             	and    esi,0x3f
  44bbe8:	48 d3 e2             	shl    rdx,cl
  44bbeb:	89 f1                	mov    ecx,esi
  44bbed:	48 d3 e7             	shl    rdi,cl
  44bbf0:	48 d3 e0             	shl    rax,cl
  44bbf3:	0f b6 0d ac 71 05 00 	movzx  ecx,BYTE PTR [rip+0x571ac]        # 4a2da6 <NIBBLES$+0x6>
  44bbfa:	48 01 fa             	add    rdx,rdi
  44bbfd:	48 01 c8             	add    rax,rcx
  44bc00:	f2 48 0f 2a c0       	cvtsi2sd xmm0,rax
  44bc05:	f2 0f 11 84 d3 00 00 	movsd  QWORD PTR [rbx+rdx*8+0x8000000],xmm0
  44bc0c:	00 08 
;  poke double,@kernal(                                                   peek(ubyte,@nibbles(&B0100))   shl peek(ubyte,@nibbles(&B1000)) add peek(ubyte,@nibbles(&B1001)) shl peek(ubyte,@nibbles(&B0100)) add peek(ubyte,@nibbles(&B0001))),   peek(ubyte,@nibbles(&B0011))     shl                   peek(ubyte,@nibbles(&B0100)) add peek(ubyte,@nibbles(&B0010)):                               poke double, @kernal( peek(ubyte,@nibbles(&B0100)) shl peek(ubyte,@nibbles(&B1000)) add peek(ubyte,@nibbles(&B1001)) shl peek(ubyte,@nibbles(&B0100)) add peek(ubyte,@nibbles(&B0010))),   peek(ubyte,@nibbles(&B0010)) shl peek(ubyte,@nibbles(&B0100))
  44bc0e:	0f b6 05 8f 71 05 00 	movzx  eax,BYTE PTR [rip+0x5718f]        # 4a2da4 <NIBBLES$+0x4>
  44bc15:	0f b6 0d 8c 71 05 00 	movzx  ecx,BYTE PTR [rip+0x5718c]        # 4a2da8 <NIBBLES$+0x8>
  44bc1c:	66 0f ef c0          	pxor   xmm0,xmm0
  44bc20:	0f b6 15 82 71 05 00 	movzx  edx,BYTE PTR [rip+0x57182]        # 4a2da9 <NIBBLES$+0x9>
  44bc27:	89 c6                	mov    esi,eax
  44bc29:	48 d3 e0             	shl    rax,cl
  44bc2c:	83 e6 3f             	and    esi,0x3f
  44bc2f:	89 f1                	mov    ecx,esi
  44bc31:	48 d3 e2             	shl    rdx,cl
  44bc34:	48 01 d0             	add    rax,rdx
  44bc37:	0f b6 15 63 71 05 00 	movzx  edx,BYTE PTR [rip+0x57163]        # 4a2da1 <NIBBLES$+0x1>
  44bc3e:	48 01 d0             	add    rax,rdx
  44bc41:	0f b6 15 5b 71 05 00 	movzx  edx,BYTE PTR [rip+0x5715b]        # 4a2da3 <NIBBLES$+0x3>
  44bc48:	48 d3 e2             	shl    rdx,cl
  44bc4b:	0f b6 0d 50 71 05 00 	movzx  ecx,BYTE PTR [rip+0x57150]        # 4a2da2 <NIBBLES$+0x2>
  44bc52:	48 01 ca             	add    rdx,rcx
  44bc55:	f2 48 0f 2a c2       	cvtsi2sd xmm0,rdx
  44bc5a:	f2 0f 11 84 c3 00 00 	movsd  QWORD PTR [rbx+rax*8+0x8000000],xmm0
  44bc61:	00 08 
  44bc63:	0f b6 05 3a 71 05 00 	movzx  eax,BYTE PTR [rip+0x5713a]        # 4a2da4 <NIBBLES$+0x4>
  44bc6a:	0f b6 0d 37 71 05 00 	movzx  ecx,BYTE PTR [rip+0x57137]        # 4a2da8 <NIBBLES$+0x8>
  44bc71:	66 0f ef c0          	pxor   xmm0,xmm0
  44bc75:	0f b6 3d 2d 71 05 00 	movzx  edi,BYTE PTR [rip+0x5712d]        # 4a2da9 <NIBBLES$+0x9>
  44bc7c:	0f b6 15 1f 71 05 00 	movzx  edx,BYTE PTR [rip+0x5711f]        # 4a2da2 <NIBBLES$+0x2>
  44bc83:	89 c6                	mov    esi,eax
  44bc85:	48 d3 e0             	shl    rax,cl
  44bc88:	83 e6 3f             	and    esi,0x3f
  44bc8b:	89 f1                	mov    ecx,esi
  44bc8d:	48 d3 e7             	shl    rdi,cl
  44bc90:	48 01 f8             	add    rax,rdi
;  mov(mem, " RAM SYSTEM")
  44bc93:	4c 89 f7             	mov    rdi,r14
;  poke double,@kernal(                                                   peek(ubyte,@nibbles(&B0100))   shl peek(ubyte,@nibbles(&B1000)) add peek(ubyte,@nibbles(&B1001)) shl peek(ubyte,@nibbles(&B0100)) add peek(ubyte,@nibbles(&B0001))),   peek(ubyte,@nibbles(&B0011))     shl                   peek(ubyte,@nibbles(&B0100)) add peek(ubyte,@nibbles(&B0010)):                               poke double, @kernal( peek(ubyte,@nibbles(&B0100)) shl peek(ubyte,@nibbles(&B1000)) add peek(ubyte,@nibbles(&B1001)) shl peek(ubyte,@nibbles(&B0100)) add peek(ubyte,@nibbles(&B0010))),   peek(ubyte,@nibbles(&B0010)) shl peek(ubyte,@nibbles(&B0100))
  44bc96:	48 01 d0             	add    rax,rdx
  44bc99:	48 d3 e2             	shl    rdx,cl
  44bc9c:	f2 48 0f 2a c2       	cvtsi2sd xmm0,rdx
  44bca1:	f2 0f 11 84 c3 00 00 	movsd  QWORD PTR [rbx+rax*8+0x8000000],xmm0
  44bca8:	00 08 
;  poke double,@kernal(                                                   peek(ubyte,@nibbles(&B0100))   shl peek(ubyte,@nibbles(&B1000)) add peek(ubyte,@nibbles(&B1001)) shl peek(ubyte,@nibbles(&B0100)) add peek(ubyte,@nibbles(&B0011))),   peek(ubyte,@nibbles(&B0010))     shl                   peek(ubyte,@nibbles(&B0100)) add peek(ubyte,@nibbles(&B1010))
  44bcaa:	0f b6 05 f3 70 05 00 	movzx  eax,BYTE PTR [rip+0x570f3]        # 4a2da4 <NIBBLES$+0x4>
  44bcb1:	0f b6 0d f0 70 05 00 	movzx  ecx,BYTE PTR [rip+0x570f0]        # 4a2da8 <NIBBLES$+0x8>
  44bcb8:	66 0f ef c0          	pxor   xmm0,xmm0
  44bcbc:	0f b6 15 e6 70 05 00 	movzx  edx,BYTE PTR [rip+0x570e6]        # 4a2da9 <NIBBLES$+0x9>
  44bcc3:	89 c6                	mov    esi,eax
  44bcc5:	48 d3 e0             	shl    rax,cl
  44bcc8:	83 e6 3f             	and    esi,0x3f
  44bccb:	89 f1                	mov    ecx,esi
;  mov(mem, " RAM SYSTEM")
  44bccd:	48 c7 c6 ff ff ff ff 	mov    rsi,0xffffffffffffffff
;  poke double,@kernal(                                                   peek(ubyte,@nibbles(&B0100))   shl peek(ubyte,@nibbles(&B1000)) add peek(ubyte,@nibbles(&B1001)) shl peek(ubyte,@nibbles(&B0100)) add peek(ubyte,@nibbles(&B0011))),   peek(ubyte,@nibbles(&B0010))     shl                   peek(ubyte,@nibbles(&B0100)) add peek(ubyte,@nibbles(&B1010))
  44bcd4:	48 d3 e2             	shl    rdx,cl
  44bcd7:	48 01 d0             	add    rax,rdx
  44bcda:	0f b6 15 c2 70 05 00 	movzx  edx,BYTE PTR [rip+0x570c2]        # 4a2da3 <NIBBLES$+0x3>
  44bce1:	48 01 d0             	add    rax,rdx
  44bce4:	0f b6 15 b7 70 05 00 	movzx  edx,BYTE PTR [rip+0x570b7]        # 4a2da2 <NIBBLES$+0x2>
  44bceb:	48 d3 e2             	shl    rdx,cl
  44bcee:	0f b6 0d b5 70 05 00 	movzx  ecx,BYTE PTR [rip+0x570b5]        # 4a2daa <NIBBLES$+0xa>
  44bcf5:	48 01 ca             	add    rdx,rcx
;  mov(mem, " RAM SYSTEM")
  44bcf8:	45 31 c0             	xor    r8d,r8d
  44bcfb:	b9 0c 00 00 00       	mov    ecx,0xc
;  poke double,@kernal(                                                   peek(ubyte,@nibbles(&B0100))   shl peek(ubyte,@nibbles(&B1000)) add peek(ubyte,@nibbles(&B1001)) shl peek(ubyte,@nibbles(&B0100)) add peek(ubyte,@nibbles(&B0011))),   peek(ubyte,@nibbles(&B0010))     shl                   peek(ubyte,@nibbles(&B0100)) add peek(ubyte,@nibbles(&B1010))
  44bd00:	f2 48 0f 2a c2       	cvtsi2sd xmm0,rdx
;  mov(mem, " RAM SYSTEM")
  44bd05:	4c 89 ea             	mov    rdx,r13
;  poke double,@kernal(                                                   peek(ubyte,@nibbles(&B0100))   shl peek(ubyte,@nibbles(&B1000)) add peek(ubyte,@nibbles(&B1001)) shl peek(ubyte,@nibbles(&B0100)) add peek(ubyte,@nibbles(&B0011))),   peek(ubyte,@nibbles(&B0010))     shl                   peek(ubyte,@nibbles(&B0100)) add peek(ubyte,@nibbles(&B1010))
  44bd08:	f2 0f 11 84 c3 00 00 	movsd  QWORD PTR [rbx+rax*8+0x8000000],xmm0
  44bd0f:	00 08 
;  mov(mem, " RAM SYSTEM")
  44bd11:	e8 ca cf 01 00       	call   468ce0 <fb_StrAssign>
;  poke integer,@i,                                                    peek(ubyte,@nibbles(&B0001))
  44bd16:	0f b6 15 84 70 05 00 	movzx  edx,BYTE PTR [rip+0x57084]        # 4a2da1 <NIBBLES$+0x1>
  44bd1d:	48 89 15 a4 70 05 00 	mov    QWORD PTR [rip+0x570a4],rdx        # 4a2dc8 <I$>
  44bd24:	48 89 d6             	mov    rsi,rdx
  44bd27:	eb 0c                	jmp    44bd35 <MEMORY_T::MEMORY_T()+0x1975>
  44bd29:	0f 1f 80 00 00 00 00 	nop    DWORD PTR [rax+0x0]
  44bd30:	41 0f b6 14 24       	movzx  edx,BYTE PTR [r12]
;  poke double,@kernal(                                                   peek(ubyte,@nibbles(&B0100))   shl peek(ubyte,@nibbles(&B1000)) add peek(ubyte,@nibbles(&B1001)) shl peek(ubyte,@nibbles(&B0100)) add peek(ubyte,@nibbles(&B1110)) add peek(integer,@i)), asc(mid(mem,          peek(integer,@i),  peek(ubyte,@nibbles(&B0001))))
  44bd35:	4c 89 f7             	mov    rdi,r14
  44bd38:	e8 b3 e5 01 00       	call   46a2f0 <fb_StrMid>
  44bd3d:	be 01 00 00 00       	mov    esi,0x1
  44bd42:	48 89 c7             	mov    rdi,rax
  44bd45:	e8 16 cd 01 00       	call   468a60 <fb_ASC>
  44bd4a:	41 0f b6 0f          	movzx  ecx,BYTE PTR [r15]
  44bd4e:	48 8d 3d 59 70 05 00 	lea    rdi,[rip+0x57059]        # 4a2dae <NIBBLES$+0xe>
  44bd55:	66 0f ef c0          	pxor   xmm0,xmm0
  44bd59:	41 89 c0             	mov    r8d,eax
  44bd5c:	0f b6 45 00          	movzx  eax,BYTE PTR [rbp+0x0]
  44bd60:	0f b6 17             	movzx  edx,BYTE PTR [rdi]
  44bd63:	48 03 15 5e 70 05 00 	add    rdx,QWORD PTR [rip+0x5705e]        # 4a2dc8 <I$>
  44bd6a:	f2 49 0f 2a c0       	cvtsi2sd xmm0,r8
  44bd6f:	48 89 c6             	mov    rsi,rax
  44bd72:	48 d3 e0             	shl    rax,cl
  44bd75:	48 01 d0             	add    rax,rdx
  44bd78:	0f b6 57 fb          	movzx  edx,BYTE PTR [rdi-0x5]
  44bd7c:	89 f1                	mov    ecx,esi
;  cmp                                                                    peek(integer,@i)  ls len(mem)          jmp L21
  44bd7e:	4c 89 f7             	mov    rdi,r14
  44bd81:	48 c7 c6 ff ff ff ff 	mov    rsi,0xffffffffffffffff
;  poke double,@kernal(                                                   peek(ubyte,@nibbles(&B0100))   shl peek(ubyte,@nibbles(&B1000)) add peek(ubyte,@nibbles(&B1001)) shl peek(ubyte,@nibbles(&B0100)) add peek(ubyte,@nibbles(&B1110)) add peek(integer,@i)), asc(mid(mem,          peek(integer,@i),  peek(ubyte,@nibbles(&B0001))))
  44bd88:	48 d3 e2             	shl    rdx,cl
  44bd8b:	48 01 d0             	add    rax,rdx
  44bd8e:	f2 0f 11 84 c3 00 00 	movsd  QWORD PTR [rbx+rax*8+0x8000000],xmm0
  44bd95:	00 08 
;  poke integer,@i,                                                    peek(integer,@i) add peek(ubyte,@nibbles(&B0001))  
  44bd97:	41 0f b6 04 24       	movzx  eax,BYTE PTR [r12]
  44bd9c:	48 03 05 25 70 05 00 	add    rax,QWORD PTR [rip+0x57025]        # 4a2dc8 <I$>
  44bda3:	48 89 05 1e 70 05 00 	mov    QWORD PTR [rip+0x5701e],rax        # 4a2dc8 <I$>
;  cmp                                                                    peek(integer,@i)  ls len(mem)          jmp L21
  44bdaa:	e8 01 e5 01 00       	call   46a2b0 <fb_StrLen>
  44bdaf:	48 8b 35 12 70 05 00 	mov    rsi,QWORD PTR [rip+0x57012]        # 4a2dc8 <I$>
  44bdb6:	48 39 c6             	cmp    rsi,rax
  44bdb9:	0f 8e 71 ff ff ff    	jle    44bd30 <MEMORY_T::MEMORY_T()+0x1970>
;  mov(mem, str(int(fre(mem64(                                                peek(ubyte,@nibbles(&B0000)))))                idiv(peek(ubyte,@nibbles(&B0100)) shl peek(ubyte,@nibbles(&B1000)))expt                      peek(ubyte,@nibbles(&B0011))))
  44bdbf:	0f b6 05 da 6f 05 00 	movzx  eax,BYTE PTR [rip+0x56fda]        # 4a2da0 <NIBBLES$>
  44bdc6:	f2 0f 10 04 c3       	movsd  xmm0,QWORD PTR [rbx+rax*8]
  44bdcb:	e8 80 95 fb ff       	call   405350 <nearbyint@plt>
  44bdd0:	f2 0f 2c f8          	cvttsd2si edi,xmm0
  44bdd4:	e8 97 f1 01 00       	call   46af70 <fb_GetMemAvail>
  44bdd9:	0f b6 0d c8 6f 05 00 	movzx  ecx,BYTE PTR [rip+0x56fc8]        # 4a2da8 <NIBBLES$+0x8>
  44bde0:	0f b6 15 bc 6f 05 00 	movzx  edx,BYTE PTR [rip+0x56fbc]        # 4a2da3 <NIBBLES$+0x3>
  44bde7:	66 0f ef c0          	pxor   xmm0,xmm0
  44bdeb:	48 89 44 24 08       	mov    QWORD PTR [rsp+0x8],rax
  44bdf0:	0f b6 05 ad 6f 05 00 	movzx  eax,BYTE PTR [rip+0x56fad]        # 4a2da4 <NIBBLES$+0x4>
  44bdf7:	66 0f ef c9          	pxor   xmm1,xmm1
  44bdfb:	f2 48 0f 2a ca       	cvtsi2sd xmm1,rdx
  44be00:	48 d3 e0             	shl    rax,cl
  44be03:	f2 48 0f 2a c0       	cvtsi2sd xmm0,rax
  44be08:	e8 e3 9d fb ff       	call   405bf0 <pow@plt>
  44be0d:	e8 3e 95 fb ff       	call   405350 <nearbyint@plt>
  44be12:	f2 0f 10 0d 66 76 02 	movsd  xmm1,QWORD PTR [rip+0x27666]        # 473480 <_IO_stdin_used+0x4480>
  44be19:	00 
  44be1a:	66 0f 2f c1          	comisd xmm0,xmm1
  44be1e:	0f 83 7c 02 00 00    	jae    44c0a0 <MEMORY_T::MEMORY_T()+0x1ce0>
  44be24:	f2 48 0f 2c c8       	cvttsd2si rcx,xmm0
  44be29:	48 8b 44 24 08       	mov    rax,QWORD PTR [rsp+0x8]
  44be2e:	31 d2                	xor    edx,edx
  44be30:	48 f7 f1             	div    rcx
  44be33:	48 89 c7             	mov    rdi,rax
  44be36:	e8 55 dc 01 00       	call   469a90 <fb_ULongintToStr>
  44be3b:	45 31 c0             	xor    r8d,r8d
  44be3e:	48 c7 c1 ff ff ff ff 	mov    rcx,0xffffffffffffffff
  44be45:	4c 89 f7             	mov    rdi,r14
  44be48:	48 89 c2             	mov    rdx,rax
  44be4b:	48 c7 c6 ff ff ff ff 	mov    rsi,0xffffffffffffffff
  44be52:	e8 89 ce 01 00       	call   468ce0 <fb_StrAssign>
;  cmp len(mem) eq                                                            peek(ubyte,@nibbles(&B0001))                    jmp L24
  44be57:	48 c7 c6 ff ff ff ff 	mov    rsi,0xffffffffffffffff
  44be5e:	4c 89 f7             	mov    rdi,r14
  44be61:	e8 4a e4 01 00       	call   46a2b0 <fb_StrLen>
  44be66:	0f b6 15 34 6f 05 00 	movzx  edx,BYTE PTR [rip+0x56f34]        # 4a2da1 <NIBBLES$+0x1>
  44be6d:	48 39 c2             	cmp    rdx,rax
  44be70:	74 1f                	je     44be91 <MEMORY_T::MEMORY_T()+0x1ad1>
;  cmp len(mem) eq                                                            peek(ubyte,@nibbles(&B0010))                    jmp L25
  44be72:	48 c7 c6 ff ff ff ff 	mov    rsi,0xffffffffffffffff
  44be79:	4c 89 f7             	mov    rdi,r14
  44be7c:	e8 2f e4 01 00       	call   46a2b0 <fb_StrLen>
  44be81:	0f b6 15 1a 6f 05 00 	movzx  edx,BYTE PTR [rip+0x56f1a]        # 4a2da2 <NIBBLES$+0x2>
  44be88:	48 39 c2             	cmp    rdx,rax
  44be8b:	0f 84 22 02 00 00    	je     44c0b3 <MEMORY_T::MEMORY_T()+0x1cf3>
;  poke double,@kernal(                                                       peek(ubyte,@nibbles(&B0100))                    shl peek(ubyte,@nibbles(&B1000)) add peek(ubyte,@nibbles(&B1001)) shl peek(ubyte,@nibbles(&B0100)) add peek(ubyte,@nibbles(&B1011))),   asc(mem)
  44be91:	be 01 00 00 00       	mov    esi,0x1
  44be96:	4c 89 f7             	mov    rdi,r14
  44be99:	e8 c2 cb 01 00       	call   468a60 <fb_ASC>
  44be9e:	0f b6 0d 03 6f 05 00 	movzx  ecx,BYTE PTR [rip+0x56f03]        # 4a2da8 <NIBBLES$+0x8>
  44bea5:	0f b6 15 fd 6e 05 00 	movzx  edx,BYTE PTR [rip+0x56efd]        # 4a2da9 <NIBBLES$+0x9>
  44beac:	66 0f ef c0          	pxor   xmm0,xmm0
  44beb0:	41 89 c0             	mov    r8d,eax
  44beb3:	0f b6 05 ea 6e 05 00 	movzx  eax,BYTE PTR [rip+0x56eea]        # 4a2da4 <NIBBLES$+0x4>
  44beba:	f2 49 0f 2a c0       	cvtsi2sd xmm0,r8
  44bebf:	48 89 c6             	mov    rsi,rax
  44bec2:	48 d3 e0             	shl    rax,cl
  44bec5:	89 f1                	mov    ecx,esi
  44bec7:	48 d3 e2             	shl    rdx,cl
  44beca:	48 01 d0             	add    rax,rdx
  44becd:	0f b6 15 d7 6e 05 00 	movzx  edx,BYTE PTR [rip+0x56ed7]        # 4a2dab <NIBBLES$+0xb>
  44bed4:	48 01 d0             	add    rax,rdx
  44bed7:	f2 0f 11 84 c3 00 00 	movsd  QWORD PTR [rbx+rax*8+0x8000000],xmm0
  44bede:	00 08 
;  poke double,@kernal(                                                       peek(ubyte,@nibbles(&B0100))                    shl peek(ubyte,@nibbles(&B1000)) add peek(ubyte,@nibbles(&B1001)) shl peek(ubyte,@nibbles(&B0100)) add peek(ubyte,@nibbles(&B1100))),   peek(ubyte,@nibbles(&B0100)) shl peek(ubyte,@nibbles(&B0100)) add peek(ubyte,@nibbles(&B0111)):     poke double,     @kernal( peek(ubyte,@nibbles(&B0100)) shl peek(ubyte,@nibbles(&B1000)) add peek(ubyte,@nibbles(&B1001)) shl peek(ubyte,@nibbles(&B0100)) add peek(ubyte,@nibbles(&B1101))),  peek(ubyte,@nibbles(&B0100))  shl peek(ubyte,@nibbles(&B0100)) add peek(ubyte,@nibbles(&B0010))
  44bee0:	0f b6 05 bd 6e 05 00 	movzx  eax,BYTE PTR [rip+0x56ebd]        # 4a2da4 <NIBBLES$+0x4>
  44bee7:	0f b6 0d ba 6e 05 00 	movzx  ecx,BYTE PTR [rip+0x56eba]        # 4a2da8 <NIBBLES$+0x8>
  44beee:	66 0f ef c0          	pxor   xmm0,xmm0
  44bef2:	0f b6 3d b0 6e 05 00 	movzx  edi,BYTE PTR [rip+0x56eb0]        # 4a2da9 <NIBBLES$+0x9>
  44bef9:	48 89 c6             	mov    rsi,rax
  44befc:	48 89 c2             	mov    rdx,rax
  44beff:	83 e6 3f             	and    esi,0x3f
  44bf02:	48 d3 e2             	shl    rdx,cl
  44bf05:	89 f1                	mov    ecx,esi
  44bf07:	48 d3 e7             	shl    rdi,cl
  44bf0a:	0f b6 0d 9b 6e 05 00 	movzx  ecx,BYTE PTR [rip+0x56e9b]        # 4a2dac <NIBBLES$+0xc>
  44bf11:	48 01 fa             	add    rdx,rdi
  44bf14:	48 01 ca             	add    rdx,rcx
  44bf17:	89 f1                	mov    ecx,esi
  44bf19:	48 d3 e0             	shl    rax,cl
  44bf1c:	0f b6 0d 84 6e 05 00 	movzx  ecx,BYTE PTR [rip+0x56e84]        # 4a2da7 <NIBBLES$+0x7>
  44bf23:	48 01 c8             	add    rax,rcx
  44bf26:	f2 48 0f 2a c0       	cvtsi2sd xmm0,rax
  44bf2b:	f2 0f 11 84 d3 00 00 	movsd  QWORD PTR [rbx+rdx*8+0x8000000],xmm0
  44bf32:	00 08 
  44bf34:	0f b6 05 69 6e 05 00 	movzx  eax,BYTE PTR [rip+0x56e69]        # 4a2da4 <NIBBLES$+0x4>
  44bf3b:	0f b6 0d 66 6e 05 00 	movzx  ecx,BYTE PTR [rip+0x56e66]        # 4a2da8 <NIBBLES$+0x8>
  44bf42:	66 0f ef c0          	pxor   xmm0,xmm0
  44bf46:	0f b6 3d 5c 6e 05 00 	movzx  edi,BYTE PTR [rip+0x56e5c]        # 4a2da9 <NIBBLES$+0x9>
  44bf4d:	48 89 c6             	mov    rsi,rax
  44bf50:	48 89 c2             	mov    rdx,rax
  44bf53:	83 e6 3f             	and    esi,0x3f
  44bf56:	48 d3 e2             	shl    rdx,cl
  44bf59:	89 f1                	mov    ecx,esi
  44bf5b:	48 d3 e7             	shl    rdi,cl
  44bf5e:	0f b6 0d 48 6e 05 00 	movzx  ecx,BYTE PTR [rip+0x56e48]        # 4a2dad <NIBBLES$+0xd>
  44bf65:	48 01 fa             	add    rdx,rdi
  44bf68:	48 01 ca             	add    rdx,rcx
  44bf6b:	89 f1                	mov    ecx,esi
  44bf6d:	48 d3 e0             	shl    rax,cl
  44bf70:	0f b6 0d 2b 6e 05 00 	movzx  ecx,BYTE PTR [rip+0x56e2b]        # 4a2da2 <NIBBLES$+0x2>
  44bf77:	48 01 c8             	add    rax,rcx
  44bf7a:	f2 48 0f 2a c0       	cvtsi2sd xmm0,rax
  44bf7f:	f2 0f 11 84 d3 00 00 	movsd  QWORD PTR [rbx+rdx*8+0x8000000],xmm0
  44bf86:	00 08 
;  poke double,@kernal(                                                       peek(ubyte,@nibbles(&B0101))                    shl peek(ubyte,@nibbles(&B1000)) add peek(ubyte,@nibbles(&B0011)) shl peek(ubyte,@nibbles(&B0100)) add peek(ubyte,@nibbles(&B0101))),   peek(ubyte,@nibbles(&B1111)) shl peek(ubyte,@nibbles(&B0100)) add peek(ubyte,@nibbles(&B1010)) 
  44bf88:	0f b6 3d 16 6e 05 00 	movzx  edi,BYTE PTR [rip+0x56e16]        # 4a2da5 <NIBBLES$+0x5>
  44bf8f:	0f b6 35 0e 6e 05 00 	movzx  esi,BYTE PTR [rip+0x56e0e]        # 4a2da4 <NIBBLES$+0x4>
  44bf96:	66 0f ef c0          	pxor   xmm0,xmm0
  44bf9a:	0f b6 0d 07 6e 05 00 	movzx  ecx,BYTE PTR [rip+0x56e07]        # 4a2da8 <NIBBLES$+0x8>
  44bfa1:	0f b6 15 fb 6d 05 00 	movzx  edx,BYTE PTR [rip+0x56dfb]        # 4a2da3 <NIBBLES$+0x3>
  44bfa8:	83 e6 3f             	and    esi,0x3f
  44bfab:	48 89 f8             	mov    rax,rdi
  44bfae:	48 d3 e0             	shl    rax,cl
  44bfb1:	89 f1                	mov    ecx,esi
  44bfb3:	48 d3 e2             	shl    rdx,cl
  44bfb6:	48 01 d0             	add    rax,rdx
  44bfb9:	0f b6 15 ef 6d 05 00 	movzx  edx,BYTE PTR [rip+0x56def]        # 4a2daf <NIBBLES$+0xf>
  44bfc0:	48 01 f8             	add    rax,rdi
;end constructor
  44bfc3:	4c 89 f7             	mov    rdi,r14
;  poke double,@kernal(                                                       peek(ubyte,@nibbles(&B0101))                    shl peek(ubyte,@nibbles(&B1000)) add peek(ubyte,@nibbles(&B0011)) shl peek(ubyte,@nibbles(&B0100)) add peek(ubyte,@nibbles(&B0101))),   peek(ubyte,@nibbles(&B1111)) shl peek(ubyte,@nibbles(&B0100)) add peek(ubyte,@nibbles(&B1010)) 
  44bfc6:	48 d3 e2             	shl    rdx,cl
  44bfc9:	0f b6 0d da 6d 05 00 	movzx  ecx,BYTE PTR [rip+0x56dda]        # 4a2daa <NIBBLES$+0xa>
  44bfd0:	48 01 ca             	add    rdx,rcx
  44bfd3:	f2 48 0f 2a c2       	cvtsi2sd xmm0,rdx
  44bfd8:	f2 0f 11 84 c3 00 00 	movsd  QWORD PTR [rbx+rax*8+0x8000000],xmm0
  44bfdf:	00 08 
;  poke double,@kernal(                                                       peek(ubyte,@nibbles(&B1100))                    shl peek(ubyte,@nibbles(&B1000)) add peek(ubyte,@nibbles(&B1101)) shl peek(ubyte,@nibbles(&B0100)) add peek(ubyte,@nibbles(&B1001))),   peek(ubyte,@nibbles(&B0000))
  44bfe1:	0f b6 0d c0 6d 05 00 	movzx  ecx,BYTE PTR [rip+0x56dc0]        # 4a2da8 <NIBBLES$+0x8>
  44bfe8:	0f b6 05 bd 6d 05 00 	movzx  eax,BYTE PTR [rip+0x56dbd]        # 4a2dac <NIBBLES$+0xc>
  44bfef:	66 0f ef c0          	pxor   xmm0,xmm0
  44bff3:	0f b6 15 b3 6d 05 00 	movzx  edx,BYTE PTR [rip+0x56db3]        # 4a2dad <NIBBLES$+0xd>
  44bffa:	48 d3 e0             	shl    rax,cl
  44bffd:	0f b6 0d a0 6d 05 00 	movzx  ecx,BYTE PTR [rip+0x56da0]        # 4a2da4 <NIBBLES$+0x4>
  44c004:	48 d3 e2             	shl    rdx,cl
  44c007:	48 01 d0             	add    rax,rdx
  44c00a:	0f b6 15 98 6d 05 00 	movzx  edx,BYTE PTR [rip+0x56d98]        # 4a2da9 <NIBBLES$+0x9>
  44c011:	48 01 d0             	add    rax,rdx
  44c014:	0f b6 15 85 6d 05 00 	movzx  edx,BYTE PTR [rip+0x56d85]        # 4a2da0 <NIBBLES$>
  44c01b:	f2 0f 2a c2          	cvtsi2sd xmm0,edx
  44c01f:	f2 0f 11 84 c3 00 00 	movsd  QWORD PTR [rbx+rax*8+0x8000000],xmm0
  44c026:	00 08 
;  poke double,@kernal(                                                       peek(ubyte,@nibbles(&B1100))                    shl peek(ubyte,@nibbles(&B1000)) add peek(ubyte,@nibbles(&B1101)) shl peek(ubyte,@nibbles(&B0100)) add peek(ubyte,@nibbles(&B1010))),   peek(ubyte,@nibbles(&B0000))
  44c028:	0f b6 0d 79 6d 05 00 	movzx  ecx,BYTE PTR [rip+0x56d79]        # 4a2da8 <NIBBLES$+0x8>
  44c02f:	0f b6 05 76 6d 05 00 	movzx  eax,BYTE PTR [rip+0x56d76]        # 4a2dac <NIBBLES$+0xc>
  44c036:	66 0f ef c0          	pxor   xmm0,xmm0
  44c03a:	0f b6 15 6c 6d 05 00 	movzx  edx,BYTE PTR [rip+0x56d6c]        # 4a2dad <NIBBLES$+0xd>
  44c041:	48 d3 e0             	shl    rax,cl
  44c044:	0f b6 0d 59 6d 05 00 	movzx  ecx,BYTE PTR [rip+0x56d59]        # 4a2da4 <NIBBLES$+0x4>
  44c04b:	48 d3 e2             	shl    rdx,cl
  44c04e:	48 01 d0             	add    rax,rdx
  44c051:	0f b6 15 52 6d 05 00 	movzx  edx,BYTE PTR [rip+0x56d52]        # 4a2daa <NIBBLES$+0xa>
  44c058:	48 01 d0             	add    rax,rdx
  44c05b:	0f b6 15 3e 6d 05 00 	movzx  edx,BYTE PTR [rip+0x56d3e]        # 4a2da0 <NIBBLES$>
  44c062:	f2 0f 2a c2          	cvtsi2sd xmm0,edx
  44c066:	f2 0f 11 84 c3 00 00 	movsd  QWORD PTR [rbx+rax*8+0x8000000],xmm0
  44c06d:	00 08 
;end constructor
  44c06f:	e8 1c de 01 00       	call   469e90 <fb_StrDelete>
  44c074:	48 8b 44 24 48       	mov    rax,QWORD PTR [rsp+0x48]
  44c079:	64 48 2b 04 25 28 00 	sub    rax,QWORD PTR fs:0x28
  44c080:	00 00 
  44c082:	0f 85 f2 02 00 00    	jne    44c37a <MEMORY_T::MEMORY_T()+0x1fba>
  44c088:	48 83 c4 58          	add    rsp,0x58
  44c08c:	5b                   	pop    rbx
  44c08d:	5d                   	pop    rbp
  44c08e:	41 5c                	pop    r12
  44c090:	41 5d                	pop    r13
  44c092:	41 5e                	pop    r14
  44c094:	41 5f                	pop    r15
  44c096:	c3                   	ret    
  44c097:	66 0f 1f 84 00 00 00 	nop    WORD PTR [rax+rax*1+0x0]
  44c09e:	00 00 
;  mov(mem, str(int(fre(mem64(                                                peek(ubyte,@nibbles(&B0000)))))                idiv(peek(ubyte,@nibbles(&B0100)) shl peek(ubyte,@nibbles(&B1000)))expt                      peek(ubyte,@nibbles(&B0011))))
  44c0a0:	f2 0f 5c c1          	subsd  xmm0,xmm1
  44c0a4:	f2 48 0f 2c c8       	cvttsd2si rcx,xmm0
  44c0a9:	48 0f ba f9 3f       	btc    rcx,0x3f
  44c0ae:	e9 76 fd ff ff       	jmp    44be29 <MEMORY_T::MEMORY_T()+0x1a69>
;  poke double,@kernal(                                                       peek(ubyte,@nibbles(&B0100))                    shl peek(ubyte,@nibbles(&B1000)) add peek(ubyte,@nibbles(&B1001)) shl peek(ubyte,@nibbles(&B0100)) add peek(ubyte,@nibbles(&B1011))),   asc(mid(mem,          peek(ubyte,@nibbles(&B0001)),    peek(ubyte,@nibbles(&B0001))))
  44c0b3:	0f b6 35 e7 6c 05 00 	movzx  esi,BYTE PTR [rip+0x56ce7]        # 4a2da1 <NIBBLES$+0x1>
  44c0ba:	4c 89 f7             	mov    rdi,r14
  44c0bd:	48 89 f2             	mov    rdx,rsi
  44c0c0:	e8 2b e2 01 00       	call   46a2f0 <fb_StrMid>
  44c0c5:	be 01 00 00 00       	mov    esi,0x1
  44c0ca:	48 89 c7             	mov    rdi,rax
  44c0cd:	e8 8e c9 01 00       	call   468a60 <fb_ASC>
  44c0d2:	0f b6 0d cf 6c 05 00 	movzx  ecx,BYTE PTR [rip+0x56ccf]        # 4a2da8 <NIBBLES$+0x8>
  44c0d9:	66 0f ef c0          	pxor   xmm0,xmm0
;  poke double,@kernal(                                                       peek(ubyte,@nibbles(&B0100))                    shl peek(ubyte,@nibbles(&B1000)) add peek(ubyte,@nibbles(&B1001)) shl peek(ubyte,@nibbles(&B0100)) add peek(ubyte,@nibbles(&B1100))),   asc(mid(mem,          peek(ubyte,@nibbles(&B0010)),    peek(ubyte,@nibbles(&B0001))))
  44c0dd:	4c 89 f7             	mov    rdi,r14
;  poke double,@kernal(                                                       peek(ubyte,@nibbles(&B0100))                    shl peek(ubyte,@nibbles(&B1000)) add peek(ubyte,@nibbles(&B1001)) shl peek(ubyte,@nibbles(&B0100)) add peek(ubyte,@nibbles(&B1011))),   asc(mid(mem,          peek(ubyte,@nibbles(&B0001)),    peek(ubyte,@nibbles(&B0001))))
  44c0e0:	41 89 c0             	mov    r8d,eax
  44c0e3:	0f b6 05 ba 6c 05 00 	movzx  eax,BYTE PTR [rip+0x56cba]        # 4a2da4 <NIBBLES$+0x4>
  44c0ea:	0f b6 15 b8 6c 05 00 	movzx  edx,BYTE PTR [rip+0x56cb8]        # 4a2da9 <NIBBLES$+0x9>
  44c0f1:	f2 49 0f 2a c0       	cvtsi2sd xmm0,r8
  44c0f6:	48 89 c6             	mov    rsi,rax
  44c0f9:	48 d3 e0             	shl    rax,cl
  44c0fc:	89 f1                	mov    ecx,esi
  44c0fe:	48 d3 e2             	shl    rdx,cl
  44c101:	48 01 d0             	add    rax,rdx
  44c104:	0f b6 15 a0 6c 05 00 	movzx  edx,BYTE PTR [rip+0x56ca0]        # 4a2dab <NIBBLES$+0xb>
  44c10b:	48 01 d0             	add    rax,rdx
  44c10e:	f2 0f 11 84 c3 00 00 	movsd  QWORD PTR [rbx+rax*8+0x8000000],xmm0
  44c115:	00 08 
;  poke double,@kernal(                                                       peek(ubyte,@nibbles(&B0100))                    shl peek(ubyte,@nibbles(&B1000)) add peek(ubyte,@nibbles(&B1001)) shl peek(ubyte,@nibbles(&B0100)) add peek(ubyte,@nibbles(&B1100))),   asc(mid(mem,          peek(ubyte,@nibbles(&B0010)),    peek(ubyte,@nibbles(&B0001))))
  44c117:	0f b6 15 83 6c 05 00 	movzx  edx,BYTE PTR [rip+0x56c83]        # 4a2da1 <NIBBLES$+0x1>
  44c11e:	0f b6 35 7d 6c 05 00 	movzx  esi,BYTE PTR [rip+0x56c7d]        # 4a2da2 <NIBBLES$+0x2>
  44c125:	e8 c6 e1 01 00       	call   46a2f0 <fb_StrMid>
  44c12a:	be 01 00 00 00       	mov    esi,0x1
  44c12f:	48 89 c7             	mov    rdi,rax
  44c132:	e8 29 c9 01 00       	call   468a60 <fb_ASC>
  44c137:	0f b6 0d 6a 6c 05 00 	movzx  ecx,BYTE PTR [rip+0x56c6a]        # 4a2da8 <NIBBLES$+0x8>
  44c13e:	0f b6 15 64 6c 05 00 	movzx  edx,BYTE PTR [rip+0x56c64]        # 4a2da9 <NIBBLES$+0x9>
  44c145:	66 0f ef c0          	pxor   xmm0,xmm0
  44c149:	41 89 c0             	mov    r8d,eax
  44c14c:	0f b6 05 51 6c 05 00 	movzx  eax,BYTE PTR [rip+0x56c51]        # 4a2da4 <NIBBLES$+0x4>
  44c153:	f2 49 0f 2a c0       	cvtsi2sd xmm0,r8
;  mov(mem, " RAM SYSTEM")
  44c158:	45 31 c0             	xor    r8d,r8d
;  poke double,@kernal(                                                       peek(ubyte,@nibbles(&B0100))                    shl peek(ubyte,@nibbles(&B1000)) add peek(ubyte,@nibbles(&B1001)) shl peek(ubyte,@nibbles(&B0100)) add peek(ubyte,@nibbles(&B1100))),   asc(mid(mem,          peek(ubyte,@nibbles(&B0010)),    peek(ubyte,@nibbles(&B0001))))
  44c15b:	48 89 c6             	mov    rsi,rax
  44c15e:	48 d3 e0             	shl    rax,cl
  44c161:	89 f1                	mov    ecx,esi
  44c163:	48 d3 e2             	shl    rdx,cl
  44c166:	48 01 d0             	add    rax,rdx
  44c169:	0f b6 15 3c 6c 05 00 	movzx  edx,BYTE PTR [rip+0x56c3c]        # 4a2dac <NIBBLES$+0xc>
  44c170:	48 01 d0             	add    rax,rdx
  44c173:	f2 0f 11 84 c3 00 00 	movsd  QWORD PTR [rbx+rax*8+0x8000000],xmm0
  44c17a:	00 08 
;  poke double,@kernal(                                                       peek(ubyte,@nibbles(&B0100))                    shl peek(ubyte,@nibbles(&B1000)) add peek(ubyte,@nibbles(&B1001)) shl peek(ubyte,@nibbles(&B0100)) add peek(ubyte,@nibbles(&B1101))),   peek(ubyte,@nibbles(&B0100)) shl peek(ubyte,@nibbles(&B0100)) add peek(ubyte,@nibbles(&B0111)):     poke double,     @kernal( peek(ubyte,@nibbles(&B0100)) shl peek(ubyte,@nibbles(&B1000)) add peek(ubyte,@nibbles(&B1001)) shl peek(ubyte,@nibbles(&B0100)) add peek(ubyte,@nibbles(&B1110))),  peek(ubyte,@nibbles(&B0100))  shl peek(ubyte,@nibbles(&B0100)) add peek(ubyte,@nibbles(&B0010))
  44c17c:	0f b6 05 21 6c 05 00 	movzx  eax,BYTE PTR [rip+0x56c21]        # 4a2da4 <NIBBLES$+0x4>
  44c183:	0f b6 0d 1e 6c 05 00 	movzx  ecx,BYTE PTR [rip+0x56c1e]        # 4a2da8 <NIBBLES$+0x8>
  44c18a:	66 0f ef c0          	pxor   xmm0,xmm0
  44c18e:	0f b6 3d 14 6c 05 00 	movzx  edi,BYTE PTR [rip+0x56c14]        # 4a2da9 <NIBBLES$+0x9>
  44c195:	48 89 c6             	mov    rsi,rax
  44c198:	48 89 c2             	mov    rdx,rax
  44c19b:	83 e6 3f             	and    esi,0x3f
  44c19e:	48 d3 e2             	shl    rdx,cl
  44c1a1:	89 f1                	mov    ecx,esi
  44c1a3:	48 d3 e7             	shl    rdi,cl
  44c1a6:	0f b6 0d 00 6c 05 00 	movzx  ecx,BYTE PTR [rip+0x56c00]        # 4a2dad <NIBBLES$+0xd>
  44c1ad:	48 01 fa             	add    rdx,rdi
  44c1b0:	48 01 ca             	add    rdx,rcx
  44c1b3:	89 f1                	mov    ecx,esi
  44c1b5:	48 d3 e0             	shl    rax,cl
  44c1b8:	0f b6 0d e8 6b 05 00 	movzx  ecx,BYTE PTR [rip+0x56be8]        # 4a2da7 <NIBBLES$+0x7>
  44c1bf:	48 01 c8             	add    rax,rcx
  44c1c2:	f2 48 0f 2a c0       	cvtsi2sd xmm0,rax
  44c1c7:	f2 0f 11 84 d3 00 00 	movsd  QWORD PTR [rbx+rdx*8+0x8000000],xmm0
  44c1ce:	00 08 
  44c1d0:	0f b6 05 cd 6b 05 00 	movzx  eax,BYTE PTR [rip+0x56bcd]        # 4a2da4 <NIBBLES$+0x4>
  44c1d7:	0f b6 0d ca 6b 05 00 	movzx  ecx,BYTE PTR [rip+0x56bca]        # 4a2da8 <NIBBLES$+0x8>
  44c1de:	66 0f ef c0          	pxor   xmm0,xmm0
  44c1e2:	0f b6 3d c0 6b 05 00 	movzx  edi,BYTE PTR [rip+0x56bc0]        # 4a2da9 <NIBBLES$+0x9>
  44c1e9:	48 89 c6             	mov    rsi,rax
  44c1ec:	48 89 c2             	mov    rdx,rax
  44c1ef:	83 e6 3f             	and    esi,0x3f
  44c1f2:	48 d3 e2             	shl    rdx,cl
  44c1f5:	89 f1                	mov    ecx,esi
  44c1f7:	48 d3 e7             	shl    rdi,cl
  44c1fa:	0f b6 0d ad 6b 05 00 	movzx  ecx,BYTE PTR [rip+0x56bad]        # 4a2dae <NIBBLES$+0xe>
  44c201:	48 01 fa             	add    rdx,rdi
;  mov(mem, " RAM SYSTEM")
  44c204:	4c 89 f7             	mov    rdi,r14
;  poke double,@kernal(                                                       peek(ubyte,@nibbles(&B0100))                    shl peek(ubyte,@nibbles(&B1000)) add peek(ubyte,@nibbles(&B1001)) shl peek(ubyte,@nibbles(&B0100)) add peek(ubyte,@nibbles(&B1101))),   peek(ubyte,@nibbles(&B0100)) shl peek(ubyte,@nibbles(&B0100)) add peek(ubyte,@nibbles(&B0111)):     poke double,     @kernal( peek(ubyte,@nibbles(&B0100)) shl peek(ubyte,@nibbles(&B1000)) add peek(ubyte,@nibbles(&B1001)) shl peek(ubyte,@nibbles(&B0100)) add peek(ubyte,@nibbles(&B1110))),  peek(ubyte,@nibbles(&B0100))  shl peek(ubyte,@nibbles(&B0100)) add peek(ubyte,@nibbles(&B0010))
  44c207:	48 01 ca             	add    rdx,rcx
  44c20a:	89 f1                	mov    ecx,esi
;  mov(mem, " RAM SYSTEM")
  44c20c:	48 c7 c6 ff ff ff ff 	mov    rsi,0xffffffffffffffff
;  poke double,@kernal(                                                       peek(ubyte,@nibbles(&B0100))                    shl peek(ubyte,@nibbles(&B1000)) add peek(ubyte,@nibbles(&B1001)) shl peek(ubyte,@nibbles(&B0100)) add peek(ubyte,@nibbles(&B1101))),   peek(ubyte,@nibbles(&B0100)) shl peek(ubyte,@nibbles(&B0100)) add peek(ubyte,@nibbles(&B0111)):     poke double,     @kernal( peek(ubyte,@nibbles(&B0100)) shl peek(ubyte,@nibbles(&B1000)) add peek(ubyte,@nibbles(&B1001)) shl peek(ubyte,@nibbles(&B0100)) add peek(ubyte,@nibbles(&B1110))),  peek(ubyte,@nibbles(&B0100))  shl peek(ubyte,@nibbles(&B0100)) add peek(ubyte,@nibbles(&B0010))
  44c213:	48 d3 e0             	shl    rax,cl
  44c216:	0f b6 0d 85 6b 05 00 	movzx  ecx,BYTE PTR [rip+0x56b85]        # 4a2da2 <NIBBLES$+0x2>
  44c21d:	48 01 c8             	add    rax,rcx
;  mov(mem, " RAM SYSTEM")
  44c220:	b9 0c 00 00 00       	mov    ecx,0xc
;  poke double,@kernal(                                                       peek(ubyte,@nibbles(&B0100))                    shl peek(ubyte,@nibbles(&B1000)) add peek(ubyte,@nibbles(&B1001)) shl peek(ubyte,@nibbles(&B0100)) add peek(ubyte,@nibbles(&B1101))),   peek(ubyte,@nibbles(&B0100)) shl peek(ubyte,@nibbles(&B0100)) add peek(ubyte,@nibbles(&B0111)):     poke double,     @kernal( peek(ubyte,@nibbles(&B0100)) shl peek(ubyte,@nibbles(&B1000)) add peek(ubyte,@nibbles(&B1001)) shl peek(ubyte,@nibbles(&B0100)) add peek(ubyte,@nibbles(&B1110))),  peek(ubyte,@nibbles(&B0100))  shl peek(ubyte,@nibbles(&B0100)) add peek(ubyte,@nibbles(&B0010))
  44c225:	f2 48 0f 2a c0       	cvtsi2sd xmm0,rax
  44c22a:	f2 0f 11 84 d3 00 00 	movsd  QWORD PTR [rbx+rdx*8+0x8000000],xmm0
  44c231:	00 08 
;  mov(mem, " RAM SYSTEM")
  44c233:	4c 89 ea             	mov    rdx,r13
  44c236:	e8 a5 ca 01 00       	call   468ce0 <fb_StrAssign>
;  poke integer,@i,                                                        peek(ubyte,@nibbles(&B0001))
  44c23b:	0f b6 15 5f 6b 05 00 	movzx  edx,BYTE PTR [rip+0x56b5f]        # 4a2da1 <NIBBLES$+0x1>
  44c242:	48 89 15 7f 6b 05 00 	mov    QWORD PTR [rip+0x56b7f],rdx        # 4a2dc8 <I$>
  44c249:	48 89 d6             	mov    rsi,rdx
  44c24c:	eb 07                	jmp    44c255 <MEMORY_T::MEMORY_T()+0x1e95>
  44c24e:	66 90                	xchg   ax,ax
  44c250:	41 0f b6 14 24       	movzx  edx,BYTE PTR [r12]
;  poke double,@kernal(                                                       peek(ubyte,@nibbles(&B0100))                    shl peek(ubyte,@nibbles(&B1000)) add peek(ubyte,@nibbles(&B1001)) shl peek(ubyte,@nibbles(&B0100)) add peek(ubyte,@nibbles(&B1110)) add peek(integer,@i)), asc(mid(mem,          peek(integer,@i),   peek(ubyte,@nibbles(&B0001))))  
  44c255:	4c 89 f7             	mov    rdi,r14
  44c258:	e8 93 e0 01 00       	call   46a2f0 <fb_StrMid>
  44c25d:	be 01 00 00 00       	mov    esi,0x1
  44c262:	48 89 c7             	mov    rdi,rax
  44c265:	e8 f6 c7 01 00       	call   468a60 <fb_ASC>
  44c26a:	41 0f b6 0f          	movzx  ecx,BYTE PTR [r15]
  44c26e:	48 8d 3d 39 6b 05 00 	lea    rdi,[rip+0x56b39]        # 4a2dae <NIBBLES$+0xe>
  44c275:	66 0f ef c0          	pxor   xmm0,xmm0
  44c279:	41 89 c0             	mov    r8d,eax
  44c27c:	0f b6 45 00          	movzx  eax,BYTE PTR [rbp+0x0]
  44c280:	0f b6 17             	movzx  edx,BYTE PTR [rdi]
  44c283:	48 03 15 3e 6b 05 00 	add    rdx,QWORD PTR [rip+0x56b3e]        # 4a2dc8 <I$>
  44c28a:	f2 49 0f 2a c0       	cvtsi2sd xmm0,r8
  44c28f:	48 89 c6             	mov    rsi,rax
  44c292:	48 d3 e0             	shl    rax,cl
  44c295:	48 01 d0             	add    rax,rdx
  44c298:	0f b6 57 fb          	movzx  edx,BYTE PTR [rdi-0x5]
  44c29c:	89 f1                	mov    ecx,esi
;  cmp                                                                        peek(integer,@i) ls len(mem)      jmp L26
  44c29e:	4c 89 f7             	mov    rdi,r14
  44c2a1:	48 c7 c6 ff ff ff ff 	mov    rsi,0xffffffffffffffff
;  poke double,@kernal(                                                       peek(ubyte,@nibbles(&B0100))                    shl peek(ubyte,@nibbles(&B1000)) add peek(ubyte,@nibbles(&B1001)) shl peek(ubyte,@nibbles(&B0100)) add peek(ubyte,@nibbles(&B1110)) add peek(integer,@i)), asc(mid(mem,          peek(integer,@i),   peek(ubyte,@nibbles(&B0001))))  
  44c2a8:	48 d3 e2             	shl    rdx,cl
  44c2ab:	48 01 d0             	add    rax,rdx
  44c2ae:	f2 0f 11 84 c3 00 00 	movsd  QWORD PTR [rbx+rax*8+0x8000000],xmm0
  44c2b5:	00 08 
;  poke integer,@i,                                                        peek(integer,@i)                  add peek(ubyte,@nibbles(&B0001))  
  44c2b7:	41 0f b6 04 24       	movzx  eax,BYTE PTR [r12]
  44c2bc:	48 03 05 05 6b 05 00 	add    rax,QWORD PTR [rip+0x56b05]        # 4a2dc8 <I$>
  44c2c3:	48 89 05 fe 6a 05 00 	mov    QWORD PTR [rip+0x56afe],rax        # 4a2dc8 <I$>
;  cmp                                                                        peek(integer,@i) ls len(mem)      jmp L26
  44c2ca:	e8 e1 df 01 00       	call   46a2b0 <fb_StrLen>
  44c2cf:	48 8b 35 f2 6a 05 00 	mov    rsi,QWORD PTR [rip+0x56af2]        # 4a2dc8 <I$>
  44c2d6:	48 39 c6             	cmp    rsi,rax
  44c2d9:	0f 8e 71 ff ff ff    	jle    44c250 <MEMORY_T::MEMORY_T()+0x1e90>
;  poke double,@kernal(                                                       peek(ubyte,@nibbles(&B0100))                    shl peek(ubyte,@nibbles(&B1000)) add peek(ubyte,@nibbles(&B1001)) shl peek(ubyte,@nibbles(&B0100)) add peek(ubyte,@nibbles(&B1111))),   peek(ubyte,@nibbles(&B0010)) shl peek(ubyte,@nibbles(&B0100)) 
  44c2df:	0f b6 05 be 6a 05 00 	movzx  eax,BYTE PTR [rip+0x56abe]        # 4a2da4 <NIBBLES$+0x4>
  44c2e6:	0f b6 0d bb 6a 05 00 	movzx  ecx,BYTE PTR [rip+0x56abb]        # 4a2da8 <NIBBLES$+0x8>
  44c2ed:	66 0f ef c0          	pxor   xmm0,xmm0
  44c2f1:	0f b6 15 b1 6a 05 00 	movzx  edx,BYTE PTR [rip+0x56ab1]        # 4a2da9 <NIBBLES$+0x9>
  44c2f8:	89 c6                	mov    esi,eax
  44c2fa:	48 d3 e0             	shl    rax,cl
  44c2fd:	83 e6 3f             	and    esi,0x3f
  44c300:	89 f1                	mov    ecx,esi
  44c302:	48 d3 e2             	shl    rdx,cl
  44c305:	48 01 d0             	add    rax,rdx
  44c308:	0f b6 15 a0 6a 05 00 	movzx  edx,BYTE PTR [rip+0x56aa0]        # 4a2daf <NIBBLES$+0xf>
  44c30f:	48 01 d0             	add    rax,rdx
  44c312:	0f b6 15 89 6a 05 00 	movzx  edx,BYTE PTR [rip+0x56a89]        # 4a2da2 <NIBBLES$+0x2>
  44c319:	48 d3 e2             	shl    rdx,cl
  44c31c:	f2 48 0f 2a c2       	cvtsi2sd xmm0,rdx
  44c321:	f2 0f 11 84 c3 00 00 	movsd  QWORD PTR [rbx+rax*8+0x8000000],xmm0
  44c328:	00 08 
;  poke double,@kernal(                                                       peek(ubyte,@nibbles(&B0100))                    shl peek(ubyte,@nibbles(&B1000)) add peek(ubyte,@nibbles(&B1010)) shl peek(ubyte,@nibbles(&B0100)) add peek(ubyte,@nibbles(&B0011))),   peek(ubyte,@nibbles(&B0010)) shl peek(ubyte,@nibbles(&B0100)) 
  44c32a:	0f b6 05 73 6a 05 00 	movzx  eax,BYTE PTR [rip+0x56a73]        # 4a2da4 <NIBBLES$+0x4>
  44c331:	0f b6 0d 70 6a 05 00 	movzx  ecx,BYTE PTR [rip+0x56a70]        # 4a2da8 <NIBBLES$+0x8>
  44c338:	66 0f ef c0          	pxor   xmm0,xmm0
  44c33c:	0f b6 15 67 6a 05 00 	movzx  edx,BYTE PTR [rip+0x56a67]        # 4a2daa <NIBBLES$+0xa>
  44c343:	89 c6                	mov    esi,eax
  44c345:	48 d3 e0             	shl    rax,cl
  44c348:	83 e6 3f             	and    esi,0x3f
  44c34b:	89 f1                	mov    ecx,esi
  44c34d:	48 d3 e2             	shl    rdx,cl
  44c350:	48 01 d0             	add    rax,rdx
  44c353:	0f b6 15 49 6a 05 00 	movzx  edx,BYTE PTR [rip+0x56a49]        # 4a2da3 <NIBBLES$+0x3>
  44c35a:	48 01 d0             	add    rax,rdx
  44c35d:	0f b6 15 3e 6a 05 00 	movzx  edx,BYTE PTR [rip+0x56a3e]        # 4a2da2 <NIBBLES$+0x2>
  44c364:	48 d3 e2             	shl    rdx,cl
  44c367:	f2 48 0f 2a c2       	cvtsi2sd xmm0,rdx
  44c36c:	f2 0f 11 84 c3 00 00 	movsd  QWORD PTR [rbx+rax*8+0x8000000],xmm0
  44c373:	00 08 
;  jmp L27
  44c375:	e9 0e fc ff ff       	jmp    44bf88 <MEMORY_T::MEMORY_T()+0x1bc8>
;end constructor
  44c37a:	e8 e1 94 fb ff       	call   405860 <__stack_chk_fail@plt>
  44c37f:	90                   	nop

000000000044c380 <MEMORY_T::POKEB(double, double)>:
;def MEMORY_T.pokeb(byval adr  as double, byval v as double)
  44c380:	41 55                	push   r13
  44c382:	66 0f 28 d0          	movapd xmm2,xmm0
  44c386:	41 54                	push   r12
  44c388:	55                   	push   rbp
  44c389:	48 89 fd             	mov    rbp,rdi
  44c38c:	53                   	push   rbx
  44c38d:	48 83 ec 58          	sub    rsp,0x58
  44c391:	64 48 8b 04 25 28 00 	mov    rax,QWORD PTR fs:0x28
  44c398:	00 00 
  44c39a:	48 89 44 24 48       	mov    QWORD PTR [rsp+0x48],rax
  44c39f:	31 c0                	xor    eax,eax
;  mem64(adr)=v
  44c3a1:	66 0f 28 c2          	movapd xmm0,xmm2
  44c3a5:	f2 0f 11 4c 24 10    	movsd  QWORD PTR [rsp+0x10],xmm1
  44c3ab:	f2 0f 11 54 24 08    	movsd  QWORD PTR [rsp+0x8],xmm2
  44c3b1:	e8 9a 8f fb ff       	call   405350 <nearbyint@plt>
;   case &H000000001: mov(mem64(49361),v)             ' move mem64(49361), v
  44c3b6:	f2 0f 10 54 24 08    	movsd  xmm2,QWORD PTR [rsp+0x8]
  44c3bc:	66 0f 2e 15 8c 6d 02 	ucomisd xmm2,QWORD PTR [rip+0x26d8c]        # 473150 <_IO_stdin_used+0x4150>
  44c3c3:	00 
;  mem64(adr)=v
  44c3c4:	f2 48 0f 2c c0       	cvttsd2si rax,xmm0
  44c3c9:	f2 0f 10 4c 24 10    	movsd  xmm1,QWORD PTR [rsp+0x10]
  44c3cf:	f2 0f 11 4c c5 00    	movsd  QWORD PTR [rbp+rax*8+0x0],xmm1
;   case &H000000001: mov(mem64(49361),v)             ' move mem64(49361), v
  44c3d5:	7a 06                	jp     44c3dd <MEMORY_T::POKEB(double, double)+0x5d>
  44c3d7:	0f 84 33 09 00 00    	je     44cd10 <MEMORY_T::POKEB(double, double)+0x990>
;   case &H000000002: mov(mem64(49362),v)             ' move mem64(49362), v
  44c3dd:	66 0f 2e 15 7b 78 02 	ucomisd xmm2,QWORD PTR [rip+0x2787b]        # 473c60 <_IO_stdin_used+0x4c60>
  44c3e4:	00 
  44c3e5:	7a 06                	jp     44c3ed <MEMORY_T::POKEB(double, double)+0x6d>
  44c3e7:	0f 84 33 09 00 00    	je     44cd20 <MEMORY_T::POKEB(double, double)+0x9a0>
;   case &H000000003: mov(mem64(49363),v)             ' move mem64(49363), v
  44c3ed:	66 0f 2e 15 eb 78 02 	ucomisd xmm2,QWORD PTR [rip+0x278eb]        # 473ce0 <_IO_stdin_used+0x4ce0>
  44c3f4:	00 
  44c3f5:	7a 06                	jp     44c3fd <MEMORY_T::POKEB(double, double)+0x7d>
  44c3f7:	0f 84 33 09 00 00    	je     44cd30 <MEMORY_T::POKEB(double, double)+0x9b0>
;   case &H000000004: mov(mem64(49361),mem64(49362)) ' move mem64(49361), mem64(49362)
  44c3fd:	66 0f 2e 15 53 78 02 	ucomisd xmm2,QWORD PTR [rip+0x27853]        # 473c58 <_IO_stdin_used+0x4c58>
  44c404:	00 
  44c405:	7a 06                	jp     44c40d <MEMORY_T::POKEB(double, double)+0x8d>
  44c407:	0f 84 33 09 00 00    	je     44cd40 <MEMORY_T::POKEB(double, double)+0x9c0>
;   case &H000000005: mov(mem64(49361),mem64(49363)) ' move mem64(49361), mem64(49363)
  44c40d:	66 0f 2e 15 3b 78 02 	ucomisd xmm2,QWORD PTR [rip+0x2783b]        # 473c50 <_IO_stdin_used+0x4c50>
  44c414:	00 
  44c415:	7a 06                	jp     44c41d <MEMORY_T::POKEB(double, double)+0x9d>
  44c417:	0f 84 3b 09 00 00    	je     44cd58 <MEMORY_T::POKEB(double, double)+0x9d8>
;   case &H000000006: mov(mem64(49362),mem64(49361)) ' move mem64(49362), mem64(49361)
  44c41d:	66 0f 2e 15 0b 6e 02 	ucomisd xmm2,QWORD PTR [rip+0x26e0b]        # 473230 <_IO_stdin_used+0x4230>
  44c424:	00 
  44c425:	7a 06                	jp     44c42d <MEMORY_T::POKEB(double, double)+0xad>
  44c427:	0f 84 43 09 00 00    	je     44cd70 <MEMORY_T::POKEB(double, double)+0x9f0>
;   case &H000000007: mov(mem64(49362),mem64(49363)) ' move mem64(49362), mem64(49363)
  44c42d:	66 0f 2e 15 03 6e 02 	ucomisd xmm2,QWORD PTR [rip+0x26e03]        # 473238 <_IO_stdin_used+0x4238>
  44c434:	00 
  44c435:	7a 06                	jp     44c43d <MEMORY_T::POKEB(double, double)+0xbd>
  44c437:	0f 84 4b 09 00 00    	je     44cd88 <MEMORY_T::POKEB(double, double)+0xa08>
;   case &H000000008: mov(mem64(49363),mem64(49361)) ' move mem64(49363), mem64(49361)
  44c43d:	66 0f 2e 15 fb 6d 02 	ucomisd xmm2,QWORD PTR [rip+0x26dfb]        # 473240 <_IO_stdin_used+0x4240>
  44c444:	00 
  44c445:	7a 06                	jp     44c44d <MEMORY_T::POKEB(double, double)+0xcd>
  44c447:	0f 84 53 09 00 00    	je     44cda0 <MEMORY_T::POKEB(double, double)+0xa20>
;   case &H000000009: mov(mem64(49363),mem64(49362)) ' move mem64(49363), mem64(49362)
  44c44d:	66 0f 2e 15 0b 6d 02 	ucomisd xmm2,QWORD PTR [rip+0x26d0b]        # 473160 <_IO_stdin_used+0x4160>
  44c454:	00 
  44c455:	7a 06                	jp     44c45d <MEMORY_T::POKEB(double, double)+0xdd>
  44c457:	0f 84 8b 09 00 00    	je     44cde8 <MEMORY_T::POKEB(double, double)+0xa68>
;   case &H00000000A: mov(mem64(49418),mem64(49361)) ' move mem64(49418), mem64(49361)
  44c45d:	66 0f 2e 15 eb 79 02 	ucomisd xmm2,QWORD PTR [rip+0x279eb]        # 473e50 <_IO_stdin_used+0x4e50>
  44c464:	00 
  44c465:	7a 06                	jp     44c46d <MEMORY_T::POKEB(double, double)+0xed>
  44c467:	0f 84 93 09 00 00    	je     44ce00 <MEMORY_T::POKEB(double, double)+0xa80>
;   case &H00000000B: mov(mem64(49418),mem64(49362)) ' move mem64(49418), mem64(49362)
  44c46d:	66 0f 2e 15 d3 6d 02 	ucomisd xmm2,QWORD PTR [rip+0x26dd3]        # 473248 <_IO_stdin_used+0x4248>
  44c474:	00 
  44c475:	7a 06                	jp     44c47d <MEMORY_T::POKEB(double, double)+0xfd>
  44c477:	0f 84 b3 09 00 00    	je     44ce30 <MEMORY_T::POKEB(double, double)+0xab0>
;   case &H00000000C: mov(mem64(49418),mem64(49363)) ' move mem64(49418), mem64(49363)
  44c47d:	66 0f 2e 15 cb 6d 02 	ucomisd xmm2,QWORD PTR [rip+0x26dcb]        # 473250 <_IO_stdin_used+0x4250>
  44c484:	00 
  44c485:	7a 06                	jp     44c48d <MEMORY_T::POKEB(double, double)+0x10d>
  44c487:	0f 84 bb 09 00 00    	je     44ce48 <MEMORY_T::POKEB(double, double)+0xac8>
;   case &H00000000D: mov(mem64(49425),mem64(49361)) ' move mem64(49425), mem64(49361)
  44c48d:	66 0f 2e 15 c3 6d 02 	ucomisd xmm2,QWORD PTR [rip+0x26dc3]        # 473258 <_IO_stdin_used+0x4258>
  44c494:	00 
  44c495:	7a 06                	jp     44c49d <MEMORY_T::POKEB(double, double)+0x11d>
  44c497:	0f 84 c3 09 00 00    	je     44ce60 <MEMORY_T::POKEB(double, double)+0xae0>
;   case &H00000000E: mov(mem64(49425),mem64(49362)) ' move mem64(49425), mem64(49362)
  44c49d:	66 0f 2e 15 bb 6d 02 	ucomisd xmm2,QWORD PTR [rip+0x26dbb]        # 473260 <_IO_stdin_used+0x4260>
  44c4a4:	00 
  44c4a5:	7a 06                	jp     44c4ad <MEMORY_T::POKEB(double, double)+0x12d>
  44c4a7:	0f 84 cb 09 00 00    	je     44ce78 <MEMORY_T::POKEB(double, double)+0xaf8>
;   case &H00000000F: mov(mem64(49425),mem64(49363)) ' move mem64(49425), mem64(49363)
  44c4ad:	66 0f 2e 15 b3 6d 02 	ucomisd xmm2,QWORD PTR [rip+0x26db3]        # 473268 <_IO_stdin_used+0x4268>
  44c4b4:	00 
  44c4b5:	7a 06                	jp     44c4bd <MEMORY_T::POKEB(double, double)+0x13d>
  44c4b7:	0f 84 d3 09 00 00    	je     44ce90 <MEMORY_T::POKEB(double, double)+0xb10>
;   case &H000000010: mov(mem64(49432),mem64(49361)) ' move mem64(49432), mem64(49361)
  44c4bd:	66 0f 2e 15 a3 6c 02 	ucomisd xmm2,QWORD PTR [rip+0x26ca3]        # 473168 <_IO_stdin_used+0x4168>
  44c4c4:	00 
  44c4c5:	7a 06                	jp     44c4cd <MEMORY_T::POKEB(double, double)+0x14d>
  44c4c7:	0f 84 db 09 00 00    	je     44cea8 <MEMORY_T::POKEB(double, double)+0xb28>
;   case &H000000011: mov(mem64(49432),mem64(49362)) ' move mem64(49432), mem64(49362)
  44c4cd:	66 0f 2e 15 9b 6d 02 	ucomisd xmm2,QWORD PTR [rip+0x26d9b]        # 473270 <_IO_stdin_used+0x4270>
  44c4d4:	00 
  44c4d5:	7a 06                	jp     44c4dd <MEMORY_T::POKEB(double, double)+0x15d>
  44c4d7:	0f 84 e3 09 00 00    	je     44cec0 <MEMORY_T::POKEB(double, double)+0xb40>
;   case &H000000012: mov(mem64(49432),mem64(49363)) ' move mem64(49432), mem64(49363)
  44c4dd:	66 0f 2e 15 93 6d 02 	ucomisd xmm2,QWORD PTR [rip+0x26d93]        # 473278 <_IO_stdin_used+0x4278>
  44c4e4:	00 
  44c4e5:	7a 06                	jp     44c4ed <MEMORY_T::POKEB(double, double)+0x16d>
  44c4e7:	0f 84 eb 09 00 00    	je     44ced8 <MEMORY_T::POKEB(double, double)+0xb58>
;   case &H000000013: mov(mem64(49446),mem64(49361)) ' move mem64(49446), mem64(49361)
  44c4ed:	66 0f 2e 15 8b 6d 02 	ucomisd xmm2,QWORD PTR [rip+0x26d8b]        # 473280 <_IO_stdin_used+0x4280>
  44c4f4:	00 
  44c4f5:	7a 06                	jp     44c4fd <MEMORY_T::POKEB(double, double)+0x17d>
  44c4f7:	0f 84 f3 09 00 00    	je     44cef0 <MEMORY_T::POKEB(double, double)+0xb70>
;   case &H000000014: mov(mem64(49446),mem64(49362)) ' move mem64(49446), mem64(49362)
  44c4fd:	66 0f 2e 15 83 6d 02 	ucomisd xmm2,QWORD PTR [rip+0x26d83]        # 473288 <_IO_stdin_used+0x4288>
  44c504:	00 
  44c505:	7a 06                	jp     44c50d <MEMORY_T::POKEB(double, double)+0x18d>
  44c507:	0f 84 fb 09 00 00    	je     44cf08 <MEMORY_T::POKEB(double, double)+0xb88>
;   case &H000000015: mov(mem64(49446),mem64(49363)) ' move mem64(49446), mem64(49363)
  44c50d:	66 0f 2e 15 7b 6d 02 	ucomisd xmm2,QWORD PTR [rip+0x26d7b]        # 473290 <_IO_stdin_used+0x4290>
  44c514:	00 
  44c515:	7a 06                	jp     44c51d <MEMORY_T::POKEB(double, double)+0x19d>
  44c517:	0f 84 03 0a 00 00    	je     44cf20 <MEMORY_T::POKEB(double, double)+0xba0>
;   case &H000000016: mov(mem64(49154),mem64(49361)) ' move mem64(49154), mem64(49361)
  44c51d:	66 0f 2e 15 73 6d 02 	ucomisd xmm2,QWORD PTR [rip+0x26d73]        # 473298 <_IO_stdin_used+0x4298>
  44c524:	00 
  44c525:	7a 06                	jp     44c52d <MEMORY_T::POKEB(double, double)+0x1ad>
  44c527:	0f 84 83 07 00 00    	je     44ccb0 <MEMORY_T::POKEB(double, double)+0x930>
;   case &H000000017: mov(mem64(49154),mem64(49361)) ' move mem64(49154), mem64(49361)
  44c52d:	66 0f 2e 15 6b 6d 02 	ucomisd xmm2,QWORD PTR [rip+0x26d6b]        # 4732a0 <_IO_stdin_used+0x42a0>
  44c534:	00 
  44c535:	7a 06                	jp     44c53d <MEMORY_T::POKEB(double, double)+0x1bd>
  44c537:	0f 84 73 07 00 00    	je     44ccb0 <MEMORY_T::POKEB(double, double)+0x930>
;   case &H000000018: mov(mem64(49154),mem64(49361)) ' move mem64(49154), mem64(49361)
  44c53d:	66 0f 2e 15 63 6d 02 	ucomisd xmm2,QWORD PTR [rip+0x26d63]        # 4732a8 <_IO_stdin_used+0x42a8>
  44c544:	00 
  44c545:	7a 06                	jp     44c54d <MEMORY_T::POKEB(double, double)+0x1cd>
  44c547:	0f 84 63 07 00 00    	je     44ccb0 <MEMORY_T::POKEB(double, double)+0x930>
;   case &H000000019: mov(mem64(49155),mem64(49361)) ' move mem64(49155), mem64(49361)
  44c54d:	66 0f 2e 15 5b 6d 02 	ucomisd xmm2,QWORD PTR [rip+0x26d5b]        # 4732b0 <_IO_stdin_used+0x42b0>
  44c554:	00 
  44c555:	7a 06                	jp     44c55d <MEMORY_T::POKEB(double, double)+0x1dd>
  44c557:	0f 84 6b 07 00 00    	je     44ccc8 <MEMORY_T::POKEB(double, double)+0x948>
;   case &H00000001A: mov(mem64(49155),mem64(49361)) ' move mem64(49155), mem64(49361)
  44c55d:	66 0f 2e 15 53 6d 02 	ucomisd xmm2,QWORD PTR [rip+0x26d53]        # 4732b8 <_IO_stdin_used+0x42b8>
  44c564:	00 
  44c565:	7a 06                	jp     44c56d <MEMORY_T::POKEB(double, double)+0x1ed>
  44c567:	0f 84 5b 07 00 00    	je     44ccc8 <MEMORY_T::POKEB(double, double)+0x948>
;   case &H00000001B: mov(mem64(49155),mem64(49361)) ' move mem64(49155), mem64(49361)
  44c56d:	66 0f 2e 15 4b 6d 02 	ucomisd xmm2,QWORD PTR [rip+0x26d4b]        # 4732c0 <_IO_stdin_used+0x42c0>
  44c574:	00 
  44c575:	7a 06                	jp     44c57d <MEMORY_T::POKEB(double, double)+0x1fd>
  44c577:	0f 84 4b 07 00 00    	je     44ccc8 <MEMORY_T::POKEB(double, double)+0x948>
;   case &H00000001C: mov(mem64(49156),mem64(49361)) ' move mem64(49156), mem64(49361)
  44c57d:	66 0f 2e 15 93 77 02 	ucomisd xmm2,QWORD PTR [rip+0x27793]        # 473d18 <_IO_stdin_used+0x4d18>
  44c584:	00 
  44c585:	7a 06                	jp     44c58d <MEMORY_T::POKEB(double, double)+0x20d>
  44c587:	0f 84 53 07 00 00    	je     44cce0 <MEMORY_T::POKEB(double, double)+0x960>
;   case &H00000001D: mov(mem64(49156),mem64(49361)) ' move mem64(49156), mem64(49361)
  44c58d:	66 0f 2e 15 33 6d 02 	ucomisd xmm2,QWORD PTR [rip+0x26d33]        # 4732c8 <_IO_stdin_used+0x42c8>
  44c594:	00 
  44c595:	7a 06                	jp     44c59d <MEMORY_T::POKEB(double, double)+0x21d>
  44c597:	0f 84 43 07 00 00    	je     44cce0 <MEMORY_T::POKEB(double, double)+0x960>
;   case &H00000001E: mov(mem64(49156),mem64(49361)) ' move mem64(49156), mem64(49361)
  44c59d:	66 0f 2e 15 8b 77 02 	ucomisd xmm2,QWORD PTR [rip+0x2778b]        # 473d30 <_IO_stdin_used+0x4d30>
  44c5a4:	00 
  44c5a5:	7a 06                	jp     44c5ad <MEMORY_T::POKEB(double, double)+0x22d>
  44c5a7:	0f 84 33 07 00 00    	je     44cce0 <MEMORY_T::POKEB(double, double)+0x960>
;   case &H00000001F: mov(mem64(49157),mem64(49361)) ' move mem64(49157), mem64(49361)
  44c5ad:	66 0f 2e 15 1b 6d 02 	ucomisd xmm2,QWORD PTR [rip+0x26d1b]        # 4732d0 <_IO_stdin_used+0x42d0>
  44c5b4:	00 
  44c5b5:	7a 06                	jp     44c5bd <MEMORY_T::POKEB(double, double)+0x23d>
  44c5b7:	0f 84 3b 07 00 00    	je     44ccf8 <MEMORY_T::POKEB(double, double)+0x978>
;   case &H000000020: mov(mem64(49157),mem64(49361)) ' move mem64(49157), mem64(49361)
  44c5bd:	66 0f 2e 15 db 76 02 	ucomisd xmm2,QWORD PTR [rip+0x276db]        # 473ca0 <_IO_stdin_used+0x4ca0>
  44c5c4:	00 
  44c5c5:	7a 06                	jp     44c5cd <MEMORY_T::POKEB(double, double)+0x24d>
  44c5c7:	0f 84 2b 07 00 00    	je     44ccf8 <MEMORY_T::POKEB(double, double)+0x978>
;   case &H000000021: mov(mem64(49157),mem64(49361)) ' move mem64(49157), mem64(49361)
  44c5cd:	66 0f 2e 15 9b 6b 02 	ucomisd xmm2,QWORD PTR [rip+0x26b9b]        # 473170 <_IO_stdin_used+0x4170>
  44c5d4:	00 
  44c5d5:	7a 06                	jp     44c5dd <MEMORY_T::POKEB(double, double)+0x25d>
  44c5d7:	0f 84 1b 07 00 00    	je     44ccf8 <MEMORY_T::POKEB(double, double)+0x978>
;   case &H000000022: mov(mem64(49355),mem64(49361)) ' move mem64(49355), mem64(49361)
  44c5dd:	66 0f 2e 15 6b 77 02 	ucomisd xmm2,QWORD PTR [rip+0x2776b]        # 473d50 <_IO_stdin_used+0x4d50>
  44c5e4:	00 
  44c5e5:	7a 06                	jp     44c5ed <MEMORY_T::POKEB(double, double)+0x26d>
  44c5e7:	0f 84 cb 07 00 00    	je     44cdb8 <MEMORY_T::POKEB(double, double)+0xa38>
;   case &H000000023: mov(mem64(49358),mem64(49361)) ' move mem64(49358), mem64(49361)
  44c5ed:	66 0f 2e 15 fb 76 02 	ucomisd xmm2,QWORD PTR [rip+0x276fb]        # 473cf0 <_IO_stdin_used+0x4cf0>
  44c5f4:	00 
  44c5f5:	7a 06                	jp     44c5fd <MEMORY_T::POKEB(double, double)+0x27d>
  44c5f7:	0f 84 db 0b 00 00    	je     44d1d8 <MEMORY_T::POKEB(double, double)+0xe58>
;   case &H000000024: mov(mem64(49356),mem64(49361)) ' move mem64(49356), mem64(49361)
  44c5fd:	66 0f 2e 15 63 77 02 	ucomisd xmm2,QWORD PTR [rip+0x27763]        # 473d68 <_IO_stdin_used+0x4d68>
  44c604:	00 
  44c605:	7a 06                	jp     44c60d <MEMORY_T::POKEB(double, double)+0x28d>
  44c607:	0f 84 0b 08 00 00    	je     44ce18 <MEMORY_T::POKEB(double, double)+0xa98>
;   case &H000000025: mov(mem64(49359),mem64(49361)) ' move mem64(49359), mem64(49361)
  44c60d:	66 0f 2e 15 63 6b 02 	ucomisd xmm2,QWORD PTR [rip+0x26b63]        # 473178 <_IO_stdin_used+0x4178>
  44c614:	00 
  44c615:	7a 06                	jp     44c61d <MEMORY_T::POKEB(double, double)+0x29d>
  44c617:	0f 84 d0 0b 00 00    	je     44d1ed <MEMORY_T::POKEB(double, double)+0xe6d>
;   case &H000000026: mov(mem64(49357),mem64(49361)) ' move mem64(49357), mem64(49361)
  44c61d:	66 0f 2e 15 4b 77 02 	ucomisd xmm2,QWORD PTR [rip+0x2774b]        # 473d70 <_IO_stdin_used+0x4d70>
  44c624:	00 
  44c625:	7a 06                	jp     44c62d <MEMORY_T::POKEB(double, double)+0x2ad>
  44c627:	0f 84 d5 0b 00 00    	je     44d202 <MEMORY_T::POKEB(double, double)+0xe82>
;   case &H000000027: mov(mem64(49360),mem64(49361)) ' move mem64(49360), mem64(49361)
  44c62d:	66 0f 2e 15 4b 6b 02 	ucomisd xmm2,QWORD PTR [rip+0x26b4b]        # 473180 <_IO_stdin_used+0x4180>
  44c634:	00 
  44c635:	7a 06                	jp     44c63d <MEMORY_T::POKEB(double, double)+0x2bd>
  44c637:	0f 84 da 0b 00 00    	je     44d217 <MEMORY_T::POKEB(double, double)+0xe97>
;   case &H000000028: mov(mem64(49353),mem64(49361)) ' move mem64(49353), mem64(49361)
  44c63d:	66 0f 2e 15 63 76 02 	ucomisd xmm2,QWORD PTR [rip+0x27663]        # 473ca8 <_IO_stdin_used+0x4ca8>
  44c644:	00 
  44c645:	7a 06                	jp     44c64d <MEMORY_T::POKEB(double, double)+0x2cd>
  44c647:	0f 84 8a 04 00 00    	je     44cad7 <MEMORY_T::POKEB(double, double)+0x757>
;   case &H000000029: mov(mem64(49354),mem64(49361)) ' move mem64(49354), mem64(49361)
  44c64d:	66 0f 2e 15 33 6b 02 	ucomisd xmm2,QWORD PTR [rip+0x26b33]        # 473188 <_IO_stdin_used+0x4188>
  44c654:	00 
  44c655:	7a 06                	jp     44c65d <MEMORY_T::POKEB(double, double)+0x2dd>
  44c657:	0f 84 cf 0b 00 00    	je     44d22c <MEMORY_T::POKEB(double, double)+0xeac>
;   case &H00000002A: char_h = mem64(49361)      ' move char_h, mem64(49361)
  44c65d:	66 0f 2e 15 8b 77 02 	ucomisd xmm2,QWORD PTR [rip+0x2778b]        # 473df0 <_IO_stdin_used+0x4df0>
  44c664:	00 
  44c665:	7a 06                	jp     44c66d <MEMORY_T::POKEB(double, double)+0x2ed>
  44c667:	0f 84 d4 0b 00 00    	je     44d241 <MEMORY_T::POKEB(double, double)+0xec1>
;   case &H00000002B: char_w = mem64(49361)      ' move char_w, mem64(49361)
  44c66d:	66 0f 2e 15 1b 6b 02 	ucomisd xmm2,QWORD PTR [rip+0x26b1b]        # 473190 <_IO_stdin_used+0x4190>
  44c674:	00 
  44c675:	7a 06                	jp     44c67d <MEMORY_T::POKEB(double, double)+0x2fd>
  44c677:	0f 84 dd 0b 00 00    	je     44d25a <MEMORY_T::POKEB(double, double)+0xeda>
;   case &H00000002C: char_ptr = mem64(49361)    ' move char_ptr, mem64(49361)
  44c67d:	66 0f 2e 15 83 77 02 	ucomisd xmm2,QWORD PTR [rip+0x27783]        # 473e08 <_IO_stdin_used+0x4e08>
  44c684:	00 
  44c685:	7a 06                	jp     44c68d <MEMORY_T::POKEB(double, double)+0x30d>
  44c687:	0f 84 2b 04 00 00    	je     44cab8 <MEMORY_T::POKEB(double, double)+0x738>
;   case &H00000002D: char_buffer = mem64(49361) ' move char_buffer, mem64(49361)
  44c68d:	66 0f 2e 15 03 6b 02 	ucomisd xmm2,QWORD PTR [rip+0x26b03]        # 473198 <_IO_stdin_used+0x4198>
  44c694:	00 
  44c695:	7a 06                	jp     44c69d <MEMORY_T::POKEB(double, double)+0x31d>
  44c697:	0f 84 d6 0b 00 00    	je     44d273 <MEMORY_T::POKEB(double, double)+0xef3>
;   case &H00000002E: bitmask = mem64(49361)     ' move bitmask, mem64(49361)
  44c69d:	66 0f 2e 15 fb 6a 02 	ucomisd xmm2,QWORD PTR [rip+0x26afb]        # 4731a0 <_IO_stdin_used+0x41a0>
  44c6a4:	00 
  44c6a5:	7a 06                	jp     44c6ad <MEMORY_T::POKEB(double, double)+0x32d>
  44c6a7:	0f 84 e3 0b 00 00    	je     44d290 <MEMORY_T::POKEB(double, double)+0xf10>
;   case &H00000002F: pixel_size = mem64(49361)  ' move pixel_size, mem64(49361)
  44c6ad:	66 0f 2e 15 f3 6a 02 	ucomisd xmm2,QWORD PTR [rip+0x26af3]        # 4731a8 <_IO_stdin_used+0x41a8>
  44c6b4:	00 
  44c6b5:	7a 06                	jp     44c6bd <MEMORY_T::POKEB(double, double)+0x33d>
  44c6b7:	0f 84 f0 0b 00 00    	je     44d2ad <MEMORY_T::POKEB(double, double)+0xf2d>
;   case &H000000030: radius = mem64(49361)      ' move radius, mem64(49361)
  44c6bd:	66 0f 2e 15 eb 6a 02 	ucomisd xmm2,QWORD PTR [rip+0x26aeb]        # 4731b0 <_IO_stdin_used+0x41b0>
  44c6c4:	00 
  44c6c5:	7a 06                	jp     44c6cd <MEMORY_T::POKEB(double, double)+0x34d>
  44c6c7:	0f 84 fd 0b 00 00    	je     44d2ca <MEMORY_T::POKEB(double, double)+0xf4a>
;   case &H000000031: string_adr = mem64(49361)  ' move string_adr, mem64(49361)
  44c6cd:	66 0f 2e 15 e3 6a 02 	ucomisd xmm2,QWORD PTR [rip+0x26ae3]        # 4731b8 <_IO_stdin_used+0x41b8>
  44c6d4:	00 
  44c6d5:	7a 06                	jp     44c6dd <MEMORY_T::POKEB(double, double)+0x35d>
  44c6d7:	0f 84 1d 0c 00 00    	je     44d2fa <MEMORY_T::POKEB(double, double)+0xf7a>
;   case &H000000032: string_len = mem64(49361)  ' move string_len, mem64(49361)
  44c6dd:	66 0f 2e 15 db 6a 02 	ucomisd xmm2,QWORD PTR [rip+0x26adb]        # 4731c0 <_IO_stdin_used+0x41c0>
  44c6e4:	00 
  44c6e5:	7a 06                	jp     44c6ed <MEMORY_T::POKEB(double, double)+0x36d>
  44c6e7:	0f 84 cb 03 00 00    	je     44cab8 <MEMORY_T::POKEB(double, double)+0x738>
;   case &H000000033: mov(mem64(49361),mem64(49355)) ' move mem64(49361), mem64(49355)
  44c6ed:	66 0f 2e 15 d3 6a 02 	ucomisd xmm2,QWORD PTR [rip+0x26ad3]        # 4731c8 <_IO_stdin_used+0x41c8>
  44c6f4:	00 
  44c6f5:	7a 06                	jp     44c6fd <MEMORY_T::POKEB(double, double)+0x37d>
  44c6f7:	0f 84 1a 0c 00 00    	je     44d317 <MEMORY_T::POKEB(double, double)+0xf97>
;   case &H000000034: mov(mem64(49355),mem64(49361)) ' move mem64(49355), mem64(49361)
  44c6fd:	66 0f 2e 15 cb 6a 02 	ucomisd xmm2,QWORD PTR [rip+0x26acb]        # 4731d0 <_IO_stdin_used+0x41d0>
  44c704:	00 
  44c705:	7a 06                	jp     44c70d <MEMORY_T::POKEB(double, double)+0x38d>
  44c707:	0f 84 ab 06 00 00    	je     44cdb8 <MEMORY_T::POKEB(double, double)+0xa38>
;   case &H000000035: mov(mem64(49361),mem64(49356)) ' move mem64(49361), mem64(49356)
  44c70d:	66 0f 2e 15 c3 6a 02 	ucomisd xmm2,QWORD PTR [rip+0x26ac3]        # 4731d8 <_IO_stdin_used+0x41d8>
  44c714:	00 
  44c715:	7a 06                	jp     44c71d <MEMORY_T::POKEB(double, double)+0x39d>
  44c717:	0f 84 0f 0c 00 00    	je     44d32c <MEMORY_T::POKEB(double, double)+0xfac>
;   case &H000000036: mov(mem64(49356),mem64(49361)) ' move mem64(49356), mem64(49361)
  44c71d:	66 0f 2e 15 bb 6a 02 	ucomisd xmm2,QWORD PTR [rip+0x26abb]        # 4731e0 <_IO_stdin_used+0x41e0>
  44c724:	00 
  44c725:	7a 06                	jp     44c72d <MEMORY_T::POKEB(double, double)+0x3ad>
  44c727:	0f 84 eb 06 00 00    	je     44ce18 <MEMORY_T::POKEB(double, double)+0xa98>
;   case &H000000037: mov(mem64(49361),mem64(49357)) ' move mem64(49361), mem64(49357)
  44c72d:	66 0f 2e 15 b3 6a 02 	ucomisd xmm2,QWORD PTR [rip+0x26ab3]        # 4731e8 <_IO_stdin_used+0x41e8>
  44c734:	00 
  44c735:	7a 06                	jp     44c73d <MEMORY_T::POKEB(double, double)+0x3bd>
  44c737:	0f 84 04 0c 00 00    	je     44d341 <MEMORY_T::POKEB(double, double)+0xfc1>
;   case &H000000038: mov(mem64(49361),mem64(49358)) ' move mem64(49361), mem64(49358)
  44c73d:	66 0f 2e 15 ab 6a 02 	ucomisd xmm2,QWORD PTR [rip+0x26aab]        # 4731f0 <_IO_stdin_used+0x41f0>
  44c744:	00 
  44c745:	7a 06                	jp     44c74d <MEMORY_T::POKEB(double, double)+0x3cd>
  44c747:	0f 84 09 0c 00 00    	je     44d356 <MEMORY_T::POKEB(double, double)+0xfd6>
;   case &H000000039: mov(mem64(49361),mem64(49359)) ' move mem64(49361), mem64(49359)
  44c74d:	66 0f 2e 15 a3 6a 02 	ucomisd xmm2,QWORD PTR [rip+0x26aa3]        # 4731f8 <_IO_stdin_used+0x41f8>
  44c754:	00 
  44c755:	7a 06                	jp     44c75d <MEMORY_T::POKEB(double, double)+0x3dd>
  44c757:	0f 84 63 0a 00 00    	je     44d1c0 <MEMORY_T::POKEB(double, double)+0xe40>
;   case &H00000003A: mov(mem64(49361),mem64(49360)) ' move mem64(49361), mem64(49360)
  44c75d:	66 0f 2e 15 9b 6a 02 	ucomisd xmm2,QWORD PTR [rip+0x26a9b]        # 473200 <_IO_stdin_used+0x4200>
  44c764:	00 
  44c765:	7a 06                	jp     44c76d <MEMORY_T::POKEB(double, double)+0x3ed>
  44c767:	0f 84 63 06 00 00    	je     44cdd0 <MEMORY_T::POKEB(double, double)+0xa50>
;   case &H00000003B: mov(mem64(49360),mem64(49361)) ' move mem64(49360), mem64(49361)
  44c76d:	66 0f 2e 15 93 6a 02 	ucomisd xmm2,QWORD PTR [rip+0x26a93]        # 473208 <_IO_stdin_used+0x4208>
  44c774:	00 
  44c775:	7a 06                	jp     44c77d <MEMORY_T::POKEB(double, double)+0x3fd>
  44c777:	0f 84 ee 0b 00 00    	je     44d36b <MEMORY_T::POKEB(double, double)+0xfeb>
;   case &H00000003C: mov(mem64(49361),mem64(49359)) ' move mem64(49361), mem64(49359)
  44c77d:	66 0f 2e 15 8b 6a 02 	ucomisd xmm2,QWORD PTR [rip+0x26a8b]        # 473210 <_IO_stdin_used+0x4210>
  44c784:	00 
  44c785:	7a 06                	jp     44c78d <MEMORY_T::POKEB(double, double)+0x40d>
  44c787:	0f 84 33 0a 00 00    	je     44d1c0 <MEMORY_T::POKEB(double, double)+0xe40>
;   case &H00000003D: mov(mem64(49361),mem64(49360)) ' move mem64(49361), mem64(49360)
  44c78d:	66 0f 2e 15 83 6a 02 	ucomisd xmm2,QWORD PTR [rip+0x26a83]        # 473218 <_IO_stdin_used+0x4218>
  44c794:	00 
  44c795:	7a 06                	jp     44c79d <MEMORY_T::POKEB(double, double)+0x41d>
  44c797:	0f 84 33 06 00 00    	je     44cdd0 <MEMORY_T::POKEB(double, double)+0xa50>
;   case &H00000003E: mem64(49361) = a1          ' move mem64(49361), a1
  44c79d:	66 0f 2e 15 7b 6a 02 	ucomisd xmm2,QWORD PTR [rip+0x26a7b]        # 473220 <_IO_stdin_used+0x4220>
  44c7a4:	00 
  44c7a5:	7a 06                	jp     44c7ad <MEMORY_T::POKEB(double, double)+0x42d>
  44c7a7:	0f 84 fb 02 00 00    	je     44caa8 <MEMORY_T::POKEB(double, double)+0x728>
;   case &H00000003F: mem64(49361) = a2          ' move mem64(49361), a2
  44c7ad:	66 0f 2e 15 73 6a 02 	ucomisd xmm2,QWORD PTR [rip+0x26a73]        # 473228 <_IO_stdin_used+0x4228>
  44c7b4:	00 
  44c7b5:	7a 06                	jp     44c7bd <MEMORY_T::POKEB(double, double)+0x43d>
  44c7b7:	0f 84 eb 02 00 00    	je     44caa8 <MEMORY_T::POKEB(double, double)+0x728>
;   case &H000000040: mem64(49361) = a3          ' move mem64(49361), a3
  44c7bd:	66 0f 2e 15 83 72 02 	ucomisd xmm2,QWORD PTR [rip+0x27283]        # 473a48 <_IO_stdin_used+0x4a48>
  44c7c4:	00 
  44c7c5:	7a 06                	jp     44c7cd <MEMORY_T::POKEB(double, double)+0x44d>
