  DW_CFA_def_cfa_offset: 8
  DW_CFA_advance_loc: 5 to 00000000004408de
  DW_CFA_restore_state
  DW_CFA_advance_loc: 46 to 000000000044090c
  DW_CFA_remember_state
  DW_CFA_def_cfa_offset: 56
  DW_CFA_advance_loc: 8 to 0000000000440914
  DW_CFA_def_cfa_offset: 48
  DW_CFA_advance_loc: 1 to 0000000000440915
  DW_CFA_def_cfa_offset: 40
  DW_CFA_advance_loc: 2 to 0000000000440917
  DW_CFA_def_cfa_offset: 32
  DW_CFA_advance_loc: 2 to 0000000000440919
  DW_CFA_def_cfa_offset: 24
  DW_CFA_advance_loc: 2 to 000000000044091b
  DW_CFA_def_cfa_offset: 16
  DW_CFA_advance_loc: 2 to 000000000044091d
  DW_CFA_def_cfa_offset: 8
  DW_CFA_advance_loc: 5 to 0000000000440922
  DW_CFA_restore_state
  DW_CFA_advance_loc: 56 to 000000000044095a
  DW_CFA_remember_state
  DW_CFA_def_cfa_offset: 56
  DW_CFA_advance_loc: 8 to 0000000000440962
  DW_CFA_def_cfa_offset: 48
  DW_CFA_advance_loc: 1 to 0000000000440963
  DW_CFA_def_cfa_offset: 40
  DW_CFA_advance_loc: 2 to 0000000000440965
  DW_CFA_def_cfa_offset: 32
  DW_CFA_advance_loc: 2 to 0000000000440967
  DW_CFA_def_cfa_offset: 24
  DW_CFA_advance_loc: 2 to 0000000000440969
  DW_CFA_def_cfa_offset: 16
  DW_CFA_advance_loc: 2 to 000000000044096b
  DW_CFA_def_cfa_offset: 8
  DW_CFA_advance_loc: 5 to 0000000000440970
  DW_CFA_restore_state
  DW_CFA_advance_loc: 46 to 000000000044099e
  DW_CFA_remember_state
  DW_CFA_def_cfa_offset: 56
  DW_CFA_advance_loc: 8 to 00000000004409a6
  DW_CFA_def_cfa_offset: 48
  DW_CFA_advance_loc: 1 to 00000000004409a7
  DW_CFA_def_cfa_offset: 40
  DW_CFA_advance_loc: 2 to 00000000004409a9
  DW_CFA_def_cfa_offset: 32
  DW_CFA_advance_loc: 2 to 00000000004409ab
  DW_CFA_def_cfa_offset: 24
  DW_CFA_advance_loc: 2 to 00000000004409ad
  DW_CFA_def_cfa_offset: 16
  DW_CFA_advance_loc: 2 to 00000000004409af
  DW_CFA_def_cfa_offset: 8
  DW_CFA_advance_loc: 5 to 00000000004409b4
  DW_CFA_restore_state
  DW_CFA_advance_loc2: 264 to 0000000000440abc
  DW_CFA_def_cfa_offset: 536
  DW_CFA_advance_loc: 11 to 0000000000440ac7
  DW_CFA_def_cfa_offset: 544
  DW_CFA_advance_loc: 16 to 0000000000440ad7
  DW_CFA_def_cfa_offset: 552
  DW_CFA_advance_loc: 19 to 0000000000440aea
  DW_CFA_def_cfa_offset: 560
  DW_CFA_advance_loc: 9 to 0000000000440af3
  DW_CFA_def_cfa_offset: 568
  DW_CFA_advance_loc: 2 to 0000000000440af5
  DW_CFA_def_cfa_offset: 576
  DW_CFA_advance_loc: 9 to 0000000000440afe
  DW_CFA_def_cfa_offset: 528
  DW_CFA_advance_loc2: 424 to 0000000000440ca6
  DW_CFA_def_cfa_offset: 536
  DW_CFA_advance_loc: 11 to 0000000000440cb1
  DW_CFA_def_cfa_offset: 544
  DW_CFA_advance_loc: 16 to 0000000000440cc1
  DW_CFA_def_cfa_offset: 552
  DW_CFA_advance_loc: 19 to 0000000000440cd4
  DW_CFA_def_cfa_offset: 560
  DW_CFA_advance_loc: 9 to 0000000000440cdd
  DW_CFA_def_cfa_offset: 568
  DW_CFA_advance_loc: 2 to 0000000000440cdf
  DW_CFA_def_cfa_offset: 576
  DW_CFA_advance_loc: 9 to 0000000000440ce8
  DW_CFA_def_cfa_offset: 528
  DW_CFA_advance_loc1: 70 to 0000000000440d2e
  DW_CFA_remember_state
  DW_CFA_def_cfa_offset: 56
  DW_CFA_advance_loc: 6 to 0000000000440d34
  DW_CFA_def_cfa_offset: 48
  DW_CFA_advance_loc: 1 to 0000000000440d35
  DW_CFA_def_cfa_offset: 40
  DW_CFA_advance_loc: 2 to 0000000000440d37
  DW_CFA_def_cfa_offset: 32
  DW_CFA_advance_loc: 2 to 0000000000440d39
  DW_CFA_def_cfa_offset: 24
  DW_CFA_advance_loc: 2 to 0000000000440d3b
  DW_CFA_def_cfa_offset: 16
  DW_CFA_advance_loc: 2 to 0000000000440d3d
  DW_CFA_def_cfa_offset: 8
  DW_CFA_advance_loc: 5 to 0000000000440d42
  DW_CFA_restore_state
  DW_CFA_advance_loc1: 89 to 0000000000440d9b
  DW_CFA_remember_state
  DW_CFA_def_cfa_offset: 56
  DW_CFA_advance_loc: 11 to 0000000000440da6
  DW_CFA_def_cfa_offset: 48
  DW_CFA_advance_loc: 1 to 0000000000440da7
  DW_CFA_def_cfa_offset: 40
  DW_CFA_advance_loc: 2 to 0000000000440da9
  DW_CFA_def_cfa_offset: 32
  DW_CFA_advance_loc: 2 to 0000000000440dab
  DW_CFA_def_cfa_offset: 24
  DW_CFA_advance_loc: 2 to 0000000000440dad
  DW_CFA_def_cfa_offset: 16
  DW_CFA_advance_loc: 2 to 0000000000440daf
  DW_CFA_def_cfa_offset: 8
  DW_CFA_advance_loc: 5 to 0000000000440db4
  DW_CFA_restore_state
  DW_CFA_nop
  DW_CFA_nop
  DW_CFA_nop

0000bc70 0000000000000054 00000048 FDE cie=00000048 pc=000000000044a480..000000000044c43f
  DW_CFA_advance_loc: 2 to 000000000044a482
  DW_CFA_def_cfa_offset: 16
  DW_CFA_offset: r15 (r15) at cfa-16
  DW_CFA_advance_loc: 9 to 000000000044a48b
  DW_CFA_def_cfa_offset: 24
  DW_CFA_offset: r14 (r14) at cfa-24
  DW_CFA_advance_loc: 9 to 000000000044a494
  DW_CFA_def_cfa_offset: 32
  DW_CFA_offset: r13 (r13) at cfa-32
  DW_CFA_advance_loc: 2 to 000000000044a496
  DW_CFA_def_cfa_offset: 40
  DW_CFA_offset: r12 (r12) at cfa-40
  DW_CFA_advance_loc: 8 to 000000000044a49e
  DW_CFA_def_cfa_offset: 48
  DW_CFA_offset: r6 (rbp) at cfa-48
  DW_CFA_advance_loc: 11 to 000000000044a4a9
  DW_CFA_def_cfa_offset: 56
  DW_CFA_offset: r3 (rbx) at cfa-56
  DW_CFA_advance_loc: 12 to 000000000044a4b5
  DW_CFA_def_cfa_offset: 144
  DW_CFA_advance_loc2: 7319 to 000000000044c14c
  DW_CFA_remember_state
  DW_CFA_def_cfa_offset: 56
  DW_CFA_advance_loc: 1 to 000000000044c14d
  DW_CFA_def_cfa_offset: 48
  DW_CFA_advance_loc: 1 to 000000000044c14e
  DW_CFA_def_cfa_offset: 40
  DW_CFA_advance_loc: 2 to 000000000044c150
  DW_CFA_def_cfa_offset: 32
  DW_CFA_advance_loc: 2 to 000000000044c152
  DW_CFA_def_cfa_offset: 24
  DW_CFA_advance_loc: 2 to 000000000044c154
  DW_CFA_def_cfa_offset: 16
  DW_CFA_advance_loc: 2 to 000000000044c156
  DW_CFA_def_cfa_offset: 8
  DW_CFA_advance_loc: 10 to 000000000044c160
  DW_CFA_restore_state
  DW_CFA_nop
  DW_CFA_nop
  DW_CFA_nop
  DW_CFA_nop

0000bcc8 0000000000000094 00000048 FDE cie=00000048 pc=000000000044c440..000000000044f218
  DW_CFA_advance_loc: 2 to 000000000044c442
  DW_CFA_def_cfa_offset: 16
  DW_CFA_offset: r13 (r13) at cfa-16
  DW_CFA_advance_loc: 6 to 000000000044c448
  DW_CFA_def_cfa_offset: 24
  DW_CFA_offset: r12 (r12) at cfa-24
  DW_CFA_advance_loc: 1 to 000000000044c449
  DW_CFA_def_cfa_offset: 32
  DW_CFA_offset: r6 (rbp) at cfa-32
  DW_CFA_advance_loc: 4 to 000000000044c44d
  DW_CFA_def_cfa_offset: 40
  DW_CFA_offset: r3 (rbx) at cfa-40
  DW_CFA_advance_loc: 4 to 000000000044c451
  DW_CFA_def_cfa_offset: 128
  DW_CFA_advance_loc2: 1855 to 000000000044cb90
  DW_CFA_remember_state
  DW_CFA_def_cfa_offset: 40
  DW_CFA_advance_loc: 1 to 000000000044cb91
  DW_CFA_def_cfa_offset: 32
  DW_CFA_advance_loc: 1 to 000000000044cb92
  DW_CFA_def_cfa_offset: 24
  DW_CFA_advance_loc: 2 to 000000000044cb94
  DW_CFA_def_cfa_offset: 16
  DW_CFA_advance_loc: 2 to 000000000044cb96
  DW_CFA_def_cfa_offset: 8
  DW_CFA_advance_loc: 1 to 000000000044cb97
  DW_CFA_restore_state
  DW_CFA_advance_loc2: 8224 to 000000000044ebb7
  DW_CFA_remember_state
  DW_CFA_def_cfa_offset: 40
  DW_CFA_advance_loc: 8 to 000000000044ebbf
  DW_CFA_def_cfa_offset: 32
  DW_CFA_advance_loc: 1 to 000000000044ebc0
  DW_CFA_def_cfa_offset: 24
  DW_CFA_advance_loc: 2 to 000000000044ebc2
  DW_CFA_def_cfa_offset: 16
  DW_CFA_advance_loc: 2 to 000000000044ebc4
  DW_CFA_def_cfa_offset: 8
  DW_CFA_advance_loc: 5 to 000000000044ebc9
  DW_CFA_restore_state
  DW_CFA_advance_loc2: 1350 to 000000000044f10f
  DW_CFA_remember_state
  DW_CFA_def_cfa_offset: 40
  DW_CFA_advance_loc: 8 to 000000000044f117
  DW_CFA_def_cfa_offset: 32
  DW_CFA_advance_loc: 1 to 000000000044f118
  DW_CFA_def_cfa_offset: 24
  DW_CFA_advance_loc: 2 to 000000000044f11a
  DW_CFA_def_cfa_offset: 16
  DW_CFA_advance_loc: 2 to 000000000044f11c
  DW_CFA_def_cfa_offset: 8
  DW_CFA_advance_loc: 5 to 000000000044f121
  DW_CFA_restore_state
  DW_CFA_advance_loc1: 69 to 000000000044f166
  DW_CFA_remember_state
  DW_CFA_def_cfa_offset: 40
  DW_CFA_advance_loc: 3 to 000000000044f169
  DW_CFA_def_cfa_offset: 32
  DW_CFA_advance_loc: 1 to 000000000044f16a
  DW_CFA_def_cfa_offset: 24
  DW_CFA_advance_loc: 2 to 000000000044f16c
  DW_CFA_def_cfa_offset: 16
  DW_CFA_advance_loc: 2 to 000000000044f16e
  DW_CFA_def_cfa_offset: 8
  DW_CFA_advance_loc: 5 to 000000000044f173
  DW_CFA_restore_state
  DW_CFA_advance_loc1: 110 to 000000000044f1e1
  DW_CFA_remember_state
  DW_CFA_def_cfa_offset: 40
  DW_CFA_advance_loc: 12 to 000000000044f1ed
  DW_CFA_def_cfa_offset: 32
  DW_CFA_advance_loc: 7 to 000000000044f1f4
  DW_CFA_def_cfa_offset: 24
  DW_CFA_advance_loc: 2 to 000000000044f1f6
  DW_CFA_def_cfa_offset: 16
  DW_CFA_advance_loc: 2 to 000000000044f1f8
  DW_CFA_def_cfa_offset: 8
  DW_CFA_advance_loc: 5 to 000000000044f1fd
  DW_CFA_restore_state
  DW_CFA_nop
  DW_CFA_nop
  DW_CFA_nop
  DW_CFA_nop
  DW_CFA_nop
  DW_CFA_nop

0000bd60 0000000000000034 00000048 FDE cie=00000048 pc=000000000044f220..000000000044f2a0
  DW_CFA_advance_loc: 2 to 000000000044f222
  DW_CFA_def_cfa_offset: 16
  DW_CFA_offset: r14 (r14) at cfa-16
  DW_CFA_advance_loc: 10 to 000000000044f22c
  DW_CFA_def_cfa_offset: 24
  DW_CFA_offset: r6 (rbp) at cfa-24
  DW_CFA_advance_loc: 4 to 000000000044f230
  DW_CFA_def_cfa_offset: 32
  DW_CFA_offset: r3 (rbx) at cfa-32
  DW_CFA_advance_loc1: 78 to 000000000044f27e
  DW_CFA_remember_state
  DW_CFA_def_cfa_offset: 24
  DW_CFA_advance_loc: 1 to 000000000044f27f
  DW_CFA_def_cfa_offset: 16
  DW_CFA_advance_loc: 2 to 000000000044f281
  DW_CFA_def_cfa_offset: 8
  DW_CFA_advance_loc: 15 to 000000000044f290
  DW_CFA_restore_state
  DW_CFA_nop
  DW_CFA_nop
  DW_CFA_nop
  DW_CFA_nop

0000bd98 0000000000000014 00000048 FDE cie=00000048 pc=000000000044f2a0..000000000044f2c1

0000bdb0 0000000000000014 00000048 FDE cie=00000048 pc=000000000044f2d0..000000000044f322

0000bdc8 000000000000001c 00000048 FDE cie=00000048 pc=000000000044f330..000000000044f347
  DW_CFA_advance_loc: 4 to 000000000044f334
  DW_CFA_def_cfa_offset: 16
  DW_CFA_advance_loc: 14 to 000000000044f342
  DW_CFA_def_cfa_offset: 8
  DW_CFA_nop
  DW_CFA_nop

0000bde8 0000000000000024 00000048 FDE cie=00000048 pc=000000000044f350..000000000044f430
  DW_CFA_advance_loc: 1 to 000000000044f351
  DW_CFA_def_cfa_offset: 16
  DW_CFA_offset: r3 (rbx) at cfa-16
  DW_CFA_advance_loc1: 222 to 000000000044f42f
  DW_CFA_def_cfa_offset: 8
  DW_CFA_nop
  DW_CFA_nop
  DW_CFA_nop
  DW_CFA_nop
  DW_CFA_nop
  DW_CFA_nop
  DW_CFA_nop

0000be10 0000000000000024 00000048 FDE cie=00000048 pc=000000000044f430..000000000044f498
  DW_CFA_advance_loc: 1 to 000000000044f431
  DW_CFA_def_cfa_offset: 16
  DW_CFA_offset: r3 (rbx) at cfa-16
  DW_CFA_advance_loc1: 102 to 000000000044f497
  DW_CFA_def_cfa_offset: 8
  DW_CFA_nop
  DW_CFA_nop
  DW_CFA_nop
  DW_CFA_nop
  DW_CFA_nop
  DW_CFA_nop
  DW_CFA_nop

0000be38 0000000000000024 00000048 FDE cie=00000048 pc=000000000044f4a0..000000000044f554
  DW_CFA_advance_loc: 1 to 000000000044f4a1
  DW_CFA_def_cfa_offset: 16
  DW_CFA_offset: r3 (rbx) at cfa-16
  DW_CFA_advance_loc1: 178 to 000000000044f553
  DW_CFA_def_cfa_offset: 8
  DW_CFA_nop
  DW_CFA_nop
  DW_CFA_nop
  DW_CFA_nop
  DW_CFA_nop
  DW_CFA_nop
  DW_CFA_nop

0000be60 0000000000000024 00000048 FDE cie=00000048 pc=000000000044f560..000000000044f614
  DW_CFA_advance_loc: 1 to 000000000044f561
  DW_CFA_def_cfa_offset: 16
  DW_CFA_offset: r3 (rbx) at cfa-16
  DW_CFA_advance_loc1: 178 to 000000000044f613
  DW_CFA_def_cfa_offset: 8
  DW_CFA_nop
  DW_CFA_nop
  DW_CFA_nop
  DW_CFA_nop
  DW_CFA_nop
  DW_CFA_nop
  DW_CFA_nop

0000be88 0000000000000024 00000048 FDE cie=00000048 pc=000000000044f620..000000000044f6d4
  DW_CFA_advance_loc: 1 to 000000000044f621
  DW_CFA_def_cfa_offset: 16
  DW_CFA_offset: r3 (rbx) at cfa-16
  DW_CFA_advance_loc1: 178 to 000000000044f6d3
  DW_CFA_def_cfa_offset: 8
  DW_CFA_nop
  DW_CFA_nop
  DW_CFA_nop
  DW_CFA_nop
  DW_CFA_nop
  DW_CFA_nop
  DW_CFA_nop

0000beb0 0000000000000024 00000048 FDE cie=00000048 pc=000000000044f6e0..000000000044f748
  DW_CFA_advance_loc: 1 to 000000000044f6e1
  DW_CFA_def_cfa_offset: 16
  DW_CFA_offset: r3 (rbx) at cfa-16
  DW_CFA_advance_loc1: 102 to 000000000044f747
  DW_CFA_def_cfa_offset: 8
  DW_CFA_nop
  DW_CFA_nop
  DW_CFA_nop
  DW_CFA_nop
  DW_CFA_nop
  DW_CFA_nop
  DW_CFA_nop

0000bed8 0000000000000024 00000048 FDE cie=00000048 pc=000000000044f750..000000000044f7b5
  DW_CFA_advance_loc: 1 to 000000000044f751
  DW_CFA_def_cfa_offset: 16
  DW_CFA_offset: r3 (rbx) at cfa-16
  DW_CFA_advance_loc1: 99 to 000000000044f7b4
  DW_CFA_def_cfa_offset: 8
  DW_CFA_nop
  DW_CFA_nop
  DW_CFA_nop
  DW_CFA_nop
  DW_CFA_nop
  DW_CFA_nop
  DW_CFA_nop

0000bf00 0000000000000024 00000048 FDE cie=00000048 pc=000000000044f7c0..000000000044f825
  DW_CFA_advance_loc: 1 to 000000000044f7c1
  DW_CFA_def_cfa_offset: 16
  DW_CFA_offset: r3 (rbx) at cfa-16
  DW_CFA_advance_loc1: 99 to 000000000044f824
  DW_CFA_def_cfa_offset: 8
  DW_CFA_nop
  DW_CFA_nop
  DW_CFA_nop
  DW_CFA_nop
  DW_CFA_nop
  DW_CFA_nop
  DW_CFA_nop

0000bf28 0000000000000024 00000048 FDE cie=00000048 pc=000000000044f830..000000000044f895
  DW_CFA_advance_loc: 1 to 000000000044f831
  DW_CFA_def_cfa_offset: 16
  DW_CFA_offset: r3 (rbx) at cfa-16
  DW_CFA_advance_loc1: 99 to 000000000044f894
  DW_CFA_def_cfa_offset: 8
  DW_CFA_nop
  DW_CFA_nop
  DW_CFA_nop
  DW_CFA_nop
  DW_CFA_nop
  DW_CFA_nop
  DW_CFA_nop

0000bf50 0000000000000024 00000048 FDE cie=00000048 pc=000000000044f8a0..000000000044f908
  DW_CFA_advance_loc: 1 to 000000000044f8a1
  DW_CFA_def_cfa_offset: 16
  DW_CFA_offset: r3 (rbx) at cfa-16
  DW_CFA_advance_loc1: 102 to 000000000044f907
  DW_CFA_def_cfa_offset: 8
  DW_CFA_nop
  DW_CFA_nop
  DW_CFA_nop
  DW_CFA_nop
  DW_CFA_nop
  DW_CFA_nop
  DW_CFA_nop

0000bf78 0000000000000024 00000048 FDE cie=00000048 pc=000000000044f910..000000000044fa2a
  DW_CFA_advance_loc: 1 to 000000000044f911
  DW_CFA_def_cfa_offset: 16
  DW_CFA_offset: r3 (rbx) at cfa-16
  DW_CFA_advance_loc2: 280 to 000000000044fa29
  DW_CFA_def_cfa_offset: 8
  DW_CFA_nop
  DW_CFA_nop
  DW_CFA_nop
  DW_CFA_nop
  DW_CFA_nop
  DW_CFA_nop

0000bfa0 000000000000001c 00000048 FDE cie=00000048 pc=000000000044fa30..000000000044fa47
  DW_CFA_advance_loc: 4 to 000000000044fa34
  DW_CFA_def_cfa_offset: 16
  DW_CFA_advance_loc: 14 to 000000000044fa42
  DW_CFA_def_cfa_offset: 8
  DW_CFA_nop
  DW_CFA_nop

0000bfc0 000000000000001c 00000048 FDE cie=00000048 pc=000000000044fa50..000000000044fa8c
  DW_CFA_advance_loc: 17 to 000000000044fa61
  DW_CFA_def_cfa_offset: 16
  DW_CFA_offset: r3 (rbx) at cfa-16
  DW_CFA_advance_loc: 35 to 000000000044fa84
  DW_CFA_def_cfa_offset: 8

0000bfe0 000000000000001c 00000048 FDE cie=00000048 pc=000000000044fa90..000000000044facc
  DW_CFA_advance_loc: 17 to 000000000044faa1
  DW_CFA_def_cfa_offset: 16
  DW_CFA_offset: r3 (rbx) at cfa-16
  DW_CFA_advance_loc: 35 to 000000000044fac4
  DW_CFA_def_cfa_offset: 8

0000c000 000000000000001c 00000048 FDE cie=00000048 pc=000000000044fad0..000000000044fb14
  DW_CFA_advance_loc: 25 to 000000000044fae9
  DW_CFA_def_cfa_offset: 16
  DW_CFA_offset: r3 (rbx) at cfa-16
  DW_CFA_advance_loc: 35 to 000000000044fb0c
  DW_CFA_def_cfa_offset: 8

0000c020 0000000000000024 00000048 FDE cie=00000048 pc=000000000044fb20..000000000044fbcd
  DW_CFA_advance_loc: 1 to 000000000044fb21
  DW_CFA_def_cfa_offset: 16
  DW_CFA_offset: r3 (rbx) at cfa-16
  DW_CFA_advance_loc1: 171 to 000000000044fbcc
  DW_CFA_def_cfa_offset: 8
  DW_CFA_nop
  DW_CFA_nop
  DW_CFA_nop
  DW_CFA_nop
  DW_CFA_nop
  DW_CFA_nop
  DW_CFA_nop

0000c048 000000000000001c 00000048 FDE cie=00000048 pc=000000000044fbd0..000000000044fc0c
  DW_CFA_advance_loc: 17 to 000000000044fbe1
  DW_CFA_def_cfa_offset: 16
  DW_CFA_offset: r3 (rbx) at cfa-16
  DW_CFA_advance_loc: 35 to 000000000044fc04
  DW_CFA_def_cfa_offset: 8

0000c068 000000000000001c 00000048 FDE cie=00000048 pc=000000000044fc10..000000000044fc54
  DW_CFA_advance_loc: 25 to 000000000044fc29
  DW_CFA_def_cfa_offset: 16
  DW_CFA_offset: r3 (rbx) at cfa-16
  DW_CFA_advance_loc: 35 to 000000000044fc4c
  DW_CFA_def_cfa_offset: 8

0000c088 000000000000001c 00000048 FDE cie=00000048 pc=000000000044fc60..000000000044fc9c
  DW_CFA_advance_loc: 17 to 000000000044fc71
  DW_CFA_def_cfa_offset: 16
  DW_CFA_offset: r3 (rbx) at cfa-16
  DW_CFA_advance_loc: 35 to 000000000044fc94
  DW_CFA_def_cfa_offset: 8

0000c0a8 000000000000001c 00000048 FDE cie=00000048 pc=000000000044fca0..000000000044fce4
  DW_CFA_advance_loc: 25 to 000000000044fcb9
  DW_CFA_def_cfa_offset: 16
  DW_CFA_offset: r3 (rbx) at cfa-16
  DW_CFA_advance_loc: 35 to 000000000044fcdc
  DW_CFA_def_cfa_offset: 8

0000c0c8 000000000000001c 00000048 FDE cie=00000048 pc=000000000044fcf0..000000000044fd2c
  DW_CFA_advance_loc: 17 to 000000000044fd01
  DW_CFA_def_cfa_offset: 16
  DW_CFA_offset: r3 (rbx) at cfa-16
  DW_CFA_advance_loc: 35 to 000000000044fd24
  DW_CFA_def_cfa_offset: 8

0000c0e8 0000000000000024 00000048 FDE cie=00000048 pc=000000000044fd30..000000000044fdb1
  DW_CFA_advance_loc: 1 to 000000000044fd31
  DW_CFA_def_cfa_offset: 16
  DW_CFA_offset: r6 (rbp) at cfa-16
  DW_CFA_advance_loc: 7 to 000000000044fd38
  DW_CFA_def_cfa_offset: 32
  DW_CFA_advance_loc1: 104 to 000000000044fda0
  DW_CFA_def_cfa_offset: 16
  DW_CFA_advance_loc: 6 to 000000000044fda6
  DW_CFA_def_cfa_offset: 8
  DW_CFA_nop

0000c110 0000000000000014 00000048 FDE cie=00000048 pc=000000000044fdc0..000000000044fdc5

0000c128 000000000000002c 00000048 FDE cie=00000048 pc=000000000044fdd0..000000000044fe7d
  DW_CFA_advance_loc: 1 to 000000000044fdd1
  DW_CFA_def_cfa_offset: 16
  DW_CFA_offset: r6 (rbp) at cfa-16
  DW_CFA_advance_loc: 5 to 000000000044fdd6
  DW_CFA_def_cfa_offset: 24
  DW_CFA_offset: r3 (rbx) at cfa-24
  DW_CFA_advance_loc: 7 to 000000000044fddd
  DW_CFA_def_cfa_offset: 48
  DW_CFA_advance_loc1: 157 to 000000000044fe7a
  DW_CFA_def_cfa_offset: 24
  DW_CFA_advance_loc: 1 to 000000000044fe7b
  DW_CFA_def_cfa_offset: 16
  DW_CFA_advance_loc: 1 to 000000000044fe7c
  DW_CFA_def_cfa_offset: 8
  DW_CFA_nop

0000c158 0000000000000014 00000048 FDE cie=00000048 pc=000000000044fe80..000000000044fea1

0000c170 0000000000000014 00000048 FDE cie=00000048 pc=000000000044feb0..000000000044fed1

0000c188 0000000000000014 00000048 FDE cie=00000048 pc=000000000044fee0..000000000044ff01

0000c1a0 000000000000004c 00000048 FDE cie=00000048 pc=000000000044ff10..000000000045001a
  DW_CFA_advance_loc: 2 to 000000000044ff12
  DW_CFA_def_cfa_offset: 16
  DW_CFA_offset: r15 (r15) at cfa-16
  DW_CFA_advance_loc: 6 to 000000000044ff18
  DW_CFA_def_cfa_offset: 24
  DW_CFA_offset: r14 (r14) at cfa-24
  DW_CFA_advance_loc: 2 to 000000000044ff1a
  DW_CFA_def_cfa_offset: 32
  DW_CFA_offset: r13 (r13) at cfa-32
  DW_CFA_advance_loc: 2 to 000000000044ff1c
  DW_CFA_def_cfa_offset: 40
  DW_CFA_offset: r12 (r12) at cfa-40
  DW_CFA_advance_loc: 1 to 000000000044ff1d
  DW_CFA_def_cfa_offset: 48
  DW_CFA_offset: r6 (rbp) at cfa-48
  DW_CFA_advance_loc: 1 to 000000000044ff1e
  DW_CFA_def_cfa_offset: 56
  DW_CFA_offset: r3 (rbx) at cfa-56
  DW_CFA_advance_loc: 7 to 000000000044ff25
  DW_CFA_def_cfa_offset: 80
  DW_CFA_advance_loc1: 234 to 000000000045000f
  DW_CFA_def_cfa_offset: 56
  DW_CFA_advance_loc: 1 to 0000000000450010
  DW_CFA_def_cfa_offset: 48
  DW_CFA_advance_loc: 1 to 0000000000450011
  DW_CFA_def_cfa_offset: 40
  DW_CFA_advance_loc: 2 to 0000000000450013
  DW_CFA_def_cfa_offset: 32
  DW_CFA_advance_loc: 2 to 0000000000450015
  DW_CFA_def_cfa_offset: 24
  DW_CFA_advance_loc: 2 to 0000000000450017
  DW_CFA_def_cfa_offset: 16
  DW_CFA_advance_loc: 2 to 0000000000450019
  DW_CFA_def_cfa_offset: 8
  DW_CFA_nop

0000c1f0 0000000000000034 00000048 FDE cie=00000048 pc=0000000000450020..000000000045011b
  DW_CFA_advance_loc: 1 to 0000000000450021
  DW_CFA_def_cfa_offset: 16
  DW_CFA_offset: r6 (rbp) at cfa-16
  DW_CFA_advance_loc: 5 to 0000000000450026
  DW_CFA_def_cfa_offset: 24
  DW_CFA_offset: r3 (rbx) at cfa-24
  DW_CFA_advance_loc: 7 to 000000000045002d
  DW_CFA_def_cfa_offset: 48
  DW_CFA_advance_loc1: 223 to 000000000045010c
  DW_CFA_remember_state
  DW_CFA_def_cfa_offset: 24
  DW_CFA_advance_loc: 1 to 000000000045010d
  DW_CFA_def_cfa_offset: 16
  DW_CFA_advance_loc: 1 to 000000000045010e
  DW_CFA_def_cfa_offset: 8
  DW_CFA_advance_loc: 2 to 0000000000450110
  DW_CFA_restore_state
  DW_CFA_nop
  DW_CFA_nop
  DW_CFA_nop
  DW_CFA_nop
  DW_CFA_nop
  DW_CFA_nop

0000c228 000000000000002c 00000048 FDE cie=00000048 pc=0000000000450120..00000000004501e5
  DW_CFA_advance_loc: 1 to 0000000000450121
  DW_CFA_def_cfa_offset: 16
  DW_CFA_offset: r6 (rbp) at cfa-16
  DW_CFA_advance_loc: 5 to 0000000000450126
  DW_CFA_def_cfa_offset: 24
  DW_CFA_offset: r3 (rbx) at cfa-24
  DW_CFA_advance_loc: 7 to 000000000045012d
  DW_CFA_def_cfa_offset: 48
  DW_CFA_advance_loc1: 181 to 00000000004501e2
  DW_CFA_def_cfa_offset: 24
  DW_CFA_advance_loc: 1 to 00000000004501e3
  DW_CFA_def_cfa_offset: 16
  DW_CFA_advance_loc: 1 to 00000000004501e4
  DW_CFA_def_cfa_offset: 8
  DW_CFA_nop

0000c258 000000000000002c 00000048 FDE cie=00000048 pc=00000000004501f0..000000000045028b
  DW_CFA_advance_loc: 1 to 00000000004501f1
  DW_CFA_def_cfa_offset: 16
  DW_CFA_offset: r6 (rbp) at cfa-16
  DW_CFA_advance_loc: 5 to 00000000004501f6
  DW_CFA_def_cfa_offset: 24
  DW_CFA_offset: r3 (rbx) at cfa-24
  DW_CFA_advance_loc: 7 to 00000000004501fd
  DW_CFA_def_cfa_offset: 48
  DW_CFA_advance_loc1: 135 to 0000000000450284
  DW_CFA_def_cfa_offset: 24
  DW_CFA_advance_loc: 1 to 0000000000450285
  DW_CFA_def_cfa_offset: 16
  DW_CFA_advance_loc: 1 to 0000000000450286
  DW_CFA_def_cfa_offset: 8
  DW_CFA_nop

0000c288 000000000000002c 00000048 FDE cie=00000048 pc=0000000000450290..0000000000450367
  DW_CFA_advance_loc: 1 to 0000000000450291
  DW_CFA_def_cfa_offset: 16
  DW_CFA_offset: r6 (rbp) at cfa-16
  DW_CFA_advance_loc: 5 to 0000000000450296
  DW_CFA_def_cfa_offset: 24
  DW_CFA_offset: r3 (rbx) at cfa-24
  DW_CFA_advance_loc: 7 to 000000000045029d
  DW_CFA_def_cfa_offset: 48
  DW_CFA_advance_loc1: 199 to 0000000000450364
  DW_CFA_def_cfa_offset: 24
  DW_CFA_advance_loc: 1 to 0000000000450365
  DW_CFA_def_cfa_offset: 16
  DW_CFA_advance_loc: 1 to 0000000000450366
  DW_CFA_def_cfa_offset: 8
  DW_CFA_nop

0000c2b8 0000000000000014 00000048 FDE cie=00000048 pc=0000000000450370..0000000000450375

0000c2d0 0000000000000034 00000048 FDE cie=00000048 pc=0000000000450380..0000000000450408
  DW_CFA_advance_loc: 1 to 0000000000450381
  DW_CFA_def_cfa_offset: 16
  DW_CFA_offset: r6 (rbp) at cfa-16
  DW_CFA_advance_loc: 4 to 0000000000450385
  DW_CFA_def_cfa_offset: 24
  DW_CFA_offset: r3 (rbx) at cfa-24
  DW_CFA_advance_loc: 4 to 0000000000450389
  DW_CFA_def_cfa_offset: 48
  DW_CFA_advance_loc1: 101 to 00000000004503ee
  DW_CFA_remember_state
  DW_CFA_def_cfa_offset: 24
  DW_CFA_advance_loc: 1 to 00000000004503ef
  DW_CFA_def_cfa_offset: 16
  DW_CFA_advance_loc: 1 to 00000000004503f0
  DW_CFA_def_cfa_offset: 8
  DW_CFA_advance_loc: 8 to 00000000004503f8
  DW_CFA_restore_state
  DW_CFA_nop
  DW_CFA_nop
  DW_CFA_nop
  DW_CFA_nop
  DW_CFA_nop
  DW_CFA_nop

0000c308 000000000000003c 00000048 FDE cie=00000048 pc=0000000000450410..0000000000450542
  DW_CFA_advance_loc: 2 to 0000000000450412
  DW_CFA_def_cfa_offset: 16
  DW_CFA_offset: r13 (r13) at cfa-16
  DW_CFA_advance_loc: 10 to 000000000045041c
  DW_CFA_def_cfa_offset: 24
  DW_CFA_offset: r12 (r12) at cfa-24
  DW_CFA_advance_loc: 6 to 0000000000450422
  DW_CFA_def_cfa_offset: 32
  DW_CFA_offset: r6 (rbp) at cfa-32
  DW_CFA_advance_loc: 4 to 0000000000450426
  DW_CFA_def_cfa_offset: 40
  DW_CFA_offset: r3 (rbx) at cfa-40
  DW_CFA_advance_loc: 15 to 0000000000450435
  DW_CFA_def_cfa_offset: 48
  DW_CFA_advance_loc2: 262 to 000000000045053b
  DW_CFA_def_cfa_offset: 40
  DW_CFA_advance_loc: 1 to 000000000045053c
  DW_CFA_def_cfa_offset: 32
  DW_CFA_advance_loc: 1 to 000000000045053d
  DW_CFA_def_cfa_offset: 24
  DW_CFA_advance_loc: 2 to 000000000045053f
  DW_CFA_def_cfa_offset: 16
  DW_CFA_advance_loc: 2 to 0000000000450541
  DW_CFA_def_cfa_offset: 8

0000c348 0000000000000064 00000048 FDE cie=00000048 pc=0000000000450550..0000000000450a65
  DW_CFA_advance_loc: 2 to 0000000000450552
  DW_CFA_def_cfa_offset: 16
  DW_CFA_offset: r15 (r15) at cfa-16
  DW_CFA_advance_loc: 7 to 0000000000450559
  DW_CFA_def_cfa_offset: 24
  DW_CFA_offset: r14 (r14) at cfa-24
  DW_CFA_advance_loc: 2 to 000000000045055b
  DW_CFA_def_cfa_offset: 32
  DW_CFA_offset: r13 (r13) at cfa-32
  DW_CFA_advance_loc: 2 to 000000000045055d
  DW_CFA_def_cfa_offset: 40
  DW_CFA_offset: r12 (r12) at cfa-40
  DW_CFA_advance_loc: 8 to 0000000000450565
  DW_CFA_def_cfa_offset: 48
  DW_CFA_offset: r6 (rbp) at cfa-48
  DW_CFA_advance_loc: 1 to 0000000000450566
  DW_CFA_def_cfa_offset: 56
  DW_CFA_offset: r3 (rbx) at cfa-56
  DW_CFA_advance_loc: 19 to 0000000000450579
  DW_CFA_def_cfa_offset: 112
  DW_CFA_advance_loc2: 795 to 0000000000450894
  DW_CFA_def_cfa_offset: 120
  DW_CFA_advance_loc: 40 to 00000000004508bc
  DW_CFA_def_cfa_offset: 128
  DW_CFA_advance_loc1: 254 to 00000000004509ba
  DW_CFA_def_cfa_offset: 120
  DW_CFA_advance_loc: 1 to 00000000004509bb
  DW_CFA_def_cfa_offset: 112
  DW_CFA_advance_loc1: 154 to 0000000000450a55
  DW_CFA_remember_state
  DW_CFA_def_cfa_offset: 56
  DW_CFA_advance_loc: 1 to 0000000000450a56
  DW_CFA_def_cfa_offset: 48
  DW_CFA_advance_loc: 1 to 0000000000450a57
  DW_CFA_def_cfa_offset: 40
  DW_CFA_advance_loc: 2 to 0000000000450a59
  DW_CFA_def_cfa_offset: 32
  DW_CFA_advance_loc: 2 to 0000000000450a5b
  DW_CFA_def_cfa_offset: 24
  DW_CFA_advance_loc: 2 to 0000000000450a5d
  DW_CFA_def_cfa_offset: 16
  DW_CFA_advance_loc: 2 to 0000000000450a5f
  DW_CFA_def_cfa_offset: 8
  DW_CFA_advance_loc: 1 to 0000000000450a60
  DW_CFA_restore_state
  DW_CFA_nop
  DW_CFA_nop
  DW_CFA_nop
  DW_CFA_nop
  DW_CFA_nop
  DW_CFA_nop

0000c3b0 0000000000000024 00000048 FDE cie=00000048 pc=0000000000450a70..0000000000450aea
  DW_CFA_advance_loc: 4 to 0000000000450a74
  DW_CFA_def_cfa_offset: 96
  DW_CFA_advance_loc1: 112 to 0000000000450ae4
  DW_CFA_remember_state
  DW_CFA_def_cfa_offset: 8
  DW_CFA_advance_loc: 1 to 0000000000450ae5
  DW_CFA_restore_state
  DW_CFA_nop
  DW_CFA_nop
  DW_CFA_nop
  DW_CFA_nop
  DW_CFA_nop
  DW_CFA_nop

0000c3d8 0000000000000024 00000048 FDE cie=00000048 pc=0000000000450af0..0000000000450b76
  DW_CFA_advance_loc: 1 to 0000000000450af1
  DW_CFA_def_cfa_offset: 16
  DW_CFA_offset: r3 (rbx) at cfa-16
  DW_CFA_advance_loc1: 95 to 0000000000450b50
  DW_CFA_def_cfa_offset: 8
  DW_CFA_nop
  DW_CFA_nop
  DW_CFA_nop
  DW_CFA_nop
  DW_CFA_nop
  DW_CFA_nop
  DW_CFA_nop

0000c400 0000000000000054 00000048 FDE cie=00000048 pc=0000000000450b80..0000000000451273
  DW_CFA_advance_loc: 2 to 0000000000450b82
  DW_CFA_def_cfa_offset: 16
  DW_CFA_offset: r15 (r15) at cfa-16
  DW_CFA_advance_loc: 6 to 0000000000450b88
  DW_CFA_def_cfa_offset: 24
  DW_CFA_offset: r14 (r14) at cfa-24
  DW_CFA_advance_loc: 2 to 0000000000450b8a
  DW_CFA_def_cfa_offset: 32
  DW_CFA_offset: r13 (r13) at cfa-32
  DW_CFA_advance_loc: 2 to 0000000000450b8c
  DW_CFA_def_cfa_offset: 40
  DW_CFA_offset: r12 (r12) at cfa-40
  DW_CFA_advance_loc: 1 to 0000000000450b8d
  DW_CFA_def_cfa_offset: 48
  DW_CFA_offset: r6 (rbp) at cfa-48
  DW_CFA_advance_loc: 1 to 0000000000450b8e
  DW_CFA_def_cfa_offset: 56
  DW_CFA_offset: r3 (rbx) at cfa-56
  DW_CFA_advance_loc: 10 to 0000000000450b98
  DW_CFA_def_cfa_offset: 928
  DW_CFA_advance_loc2: 1739 to 0000000000451263
  DW_CFA_remember_state
  DW_CFA_def_cfa_offset: 56
  DW_CFA_advance_loc: 1 to 0000000000451264
  DW_CFA_def_cfa_offset: 48
  DW_CFA_advance_loc: 1 to 0000000000451265
  DW_CFA_def_cfa_offset: 40
  DW_CFA_advance_loc: 2 to 0000000000451267
  DW_CFA_def_cfa_offset: 32
  DW_CFA_advance_loc: 2 to 0000000000451269
  DW_CFA_def_cfa_offset: 24
  DW_CFA_advance_loc: 2 to 000000000045126b
  DW_CFA_def_cfa_offset: 16
  DW_CFA_advance_loc: 2 to 000000000045126d
  DW_CFA_def_cfa_offset: 8
  DW_CFA_advance_loc: 1 to 000000000045126e
  DW_CFA_restore_state
  DW_CFA_nop
  DW_CFA_nop
  DW_CFA_nop
  DW_CFA_nop

0000c458 000000000000001c 00000048 FDE cie=00000048 pc=0000000000451280..00000000004512a2
  DW_CFA_advance_loc: 4 to 0000000000451284
  DW_CFA_def_cfa_offset: 16
  DW_CFA_advance_loc: 25 to 000000000045129d
  DW_CFA_def_cfa_offset: 8
  DW_CFA_nop
  DW_CFA_nop

0000c478 0000000000000014 00000048 FDE cie=00000048 pc=00000000004512b0..00000000004512ca

0000c490 0000000000000014 00000048 FDE cie=00000048 pc=00000000004512d0..00000000004512d2

0000c4a8 000000000000002c 00000048 FDE cie=00000048 pc=00000000004512e0..000000000045131f
  DW_CFA_advance_loc: 1 to 00000000004512e1
  DW_CFA_def_cfa_offset: 16
  DW_CFA_offset: r6 (rbp) at cfa-16
  DW_CFA_advance_loc: 5 to 00000000004512e6
  DW_CFA_def_cfa_offset: 24
  DW_CFA_offset: r3 (rbx) at cfa-24
  DW_CFA_advance_loc: 7 to 00000000004512ed
  DW_CFA_def_cfa_offset: 32
  DW_CFA_advance_loc: 47 to 000000000045131c
  DW_CFA_def_cfa_offset: 24
  DW_CFA_advance_loc: 1 to 000000000045131d
  DW_CFA_def_cfa_offset: 16
  DW_CFA_advance_loc: 1 to 000000000045131e
  DW_CFA_def_cfa_offset: 8
  DW_CFA_nop
  DW_CFA_nop

0000c4d8 000000000000002c 00000048 FDE cie=00000048 pc=0000000000451320..000000000045137a
  DW_CFA_advance_loc: 1 to 0000000000451321
  DW_CFA_def_cfa_offset: 16
  DW_CFA_offset: r6 (rbp) at cfa-16
  DW_CFA_advance_loc: 5 to 0000000000451326
  DW_CFA_def_cfa_offset: 24
  DW_CFA_offset: r3 (rbx) at cfa-24
  DW_CFA_advance_loc: 7 to 000000000045132d
  DW_CFA_def_cfa_offset: 32
  DW_CFA_advance_loc1: 74 to 0000000000451377
  DW_CFA_def_cfa_offset: 24
  DW_CFA_advance_loc: 1 to 0000000000451378
  DW_CFA_def_cfa_offset: 16
  DW_CFA_advance_loc: 1 to 0000000000451379
  DW_CFA_def_cfa_offset: 8
  DW_CFA_nop

0000c508 000000000000002c 00000048 FDE cie=00000048 pc=0000000000451380..00000000004513e1
  DW_CFA_advance_loc: 1 to 0000000000451381
  DW_CFA_def_cfa_offset: 16
  DW_CFA_offset: r6 (rbp) at cfa-16
  DW_CFA_advance_loc: 5 to 0000000000451386
  DW_CFA_def_cfa_offset: 24
  DW_CFA_offset: r3 (rbx) at cfa-24
  DW_CFA_advance_loc: 7 to 000000000045138d
  DW_CFA_def_cfa_offset: 32
  DW_CFA_advance_loc1: 81 to 00000000004513de
  DW_CFA_def_cfa_offset: 24
  DW_CFA_advance_loc: 1 to 00000000004513df
  DW_CFA_def_cfa_offset: 16
  DW_CFA_advance_loc: 1 to 00000000004513e0
  DW_CFA_def_cfa_offset: 8
  DW_CFA_nop

0000c538 000000000000002c 00000048 FDE cie=00000048 pc=00000000004513f0..0000000000451451
  DW_CFA_advance_loc: 1 to 00000000004513f1
  DW_CFA_def_cfa_offset: 16
  DW_CFA_offset: r6 (rbp) at cfa-16
  DW_CFA_advance_loc: 5 to 00000000004513f6
  DW_CFA_def_cfa_offset: 24
  DW_CFA_offset: r3 (rbx) at cfa-24
  DW_CFA_advance_loc: 7 to 00000000004513fd
  DW_CFA_def_cfa_offset: 32
  DW_CFA_advance_loc1: 81 to 000000000045144e
  DW_CFA_def_cfa_offset: 24
  DW_CFA_advance_loc: 1 to 000000000045144f
  DW_CFA_def_cfa_offset: 16
  DW_CFA_advance_loc: 1 to 0000000000451450
  DW_CFA_def_cfa_offset: 8
  DW_CFA_nop

0000c568 000000000000002c 00000048 FDE cie=00000048 pc=0000000000451460..00000000004514a7
  DW_CFA_advance_loc: 1 to 0000000000451461
  DW_CFA_def_cfa_offset: 16
  DW_CFA_offset: r6 (rbp) at cfa-16
  DW_CFA_advance_loc: 5 to 0000000000451466
  DW_CFA_def_cfa_offset: 24
  DW_CFA_offset: r3 (rbx) at cfa-24
  DW_CFA_advance_loc: 7 to 000000000045146d
  DW_CFA_def_cfa_offset: 32
  DW_CFA_advance_loc: 55 to 00000000004514a4
  DW_CFA_def_cfa_offset: 24
  DW_CFA_advance_loc: 1 to 00000000004514a5
  DW_CFA_def_cfa_offset: 16
  DW_CFA_advance_loc: 1 to 00000000004514a6
  DW_CFA_def_cfa_offset: 8
  DW_CFA_nop
  DW_CFA_nop

0000c598 000000000000002c 00000048 FDE cie=00000048 pc=00000000004514b0..00000000004514f7
  DW_CFA_advance_loc: 1 to 00000000004514b1
  DW_CFA_def_cfa_offset: 16
  DW_CFA_offset: r6 (rbp) at cfa-16
  DW_CFA_advance_loc: 5 to 00000000004514b6
  DW_CFA_def_cfa_offset: 24
  DW_CFA_offset: r3 (rbx) at cfa-24
  DW_CFA_advance_loc: 7 to 00000000004514bd
  DW_CFA_def_cfa_offset: 32
  DW_CFA_advance_loc: 55 to 00000000004514f4
  DW_CFA_def_cfa_offset: 24
  DW_CFA_advance_loc: 1 to 00000000004514f5
  DW_CFA_def_cfa_offset: 16
  DW_CFA_advance_loc: 1 to 00000000004514f6
  DW_CFA_def_cfa_offset: 8
  DW_CFA_nop
  DW_CFA_nop

0000c5c8 0000000000000034 00000048 FDE cie=00000048 pc=0000000000451500..0000000000451574
  DW_CFA_advance_loc: 2 to 0000000000451502
  DW_CFA_def_cfa_offset: 16
  DW_CFA_offset: r12 (r12) at cfa-16
  DW_CFA_advance_loc: 5 to 0000000000451507
  DW_CFA_def_cfa_offset: 24
  DW_CFA_offset: r6 (rbp) at cfa-24
  DW_CFA_advance_loc: 1 to 0000000000451508
  DW_CFA_def_cfa_offset: 32
  DW_CFA_offset: r3 (rbx) at cfa-32
  DW_CFA_advance_loc1: 104 to 0000000000451570
  DW_CFA_def_cfa_offset: 24
  DW_CFA_advance_loc: 1 to 0000000000451571
  DW_CFA_def_cfa_offset: 16
  DW_CFA_advance_loc: 2 to 0000000000451573
  DW_CFA_def_cfa_offset: 8
  DW_CFA_nop
  DW_CFA_nop
  DW_CFA_nop
  DW_CFA_nop
  DW_CFA_nop
  DW_CFA_nop
  DW_CFA_nop

0000c600 0000000000000034 00000048 FDE cie=00000048 pc=0000000000451580..00000000004515e2
  DW_CFA_advance_loc: 2 to 0000000000451582
  DW_CFA_def_cfa_offset: 16
  DW_CFA_offset: r12 (r12) at cfa-16
  DW_CFA_advance_loc: 5 to 0000000000451587
  DW_CFA_def_cfa_offset: 24
  DW_CFA_offset: r6 (rbp) at cfa-24
  DW_CFA_advance_loc: 1 to 0000000000451588
  DW_CFA_def_cfa_offset: 32
  DW_CFA_offset: r3 (rbx) at cfa-32
  DW_CFA_advance_loc1: 72 to 00000000004515d0
  DW_CFA_def_cfa_offset: 24
  DW_CFA_advance_loc: 11 to 00000000004515db
  DW_CFA_def_cfa_offset: 16
  DW_CFA_advance_loc: 6 to 00000000004515e1
  DW_CFA_def_cfa_offset: 8
  DW_CFA_nop
  DW_CFA_nop
  DW_CFA_nop
  DW_CFA_nop
  DW_CFA_nop
  DW_CFA_nop
  DW_CFA_nop

0000c638 0000000000000034 00000048 FDE cie=00000048 pc=00000000004515f0..0000000000451648
  DW_CFA_advance_loc: 2 to 00000000004515f2
  DW_CFA_def_cfa_offset: 16
  DW_CFA_offset: r12 (r12) at cfa-16
  DW_CFA_advance_loc: 5 to 00000000004515f7
  DW_CFA_def_cfa_offset: 24
  DW_CFA_offset: r6 (rbp) at cfa-24
  DW_CFA_advance_loc: 1 to 00000000004515f8
  DW_CFA_def_cfa_offset: 32
  DW_CFA_offset: r3 (rbx) at cfa-32
  DW_CFA_advance_loc1: 76 to 0000000000451644
  DW_CFA_def_cfa_offset: 24
  DW_CFA_advance_loc: 1 to 0000000000451645
  DW_CFA_def_cfa_offset: 16
  DW_CFA_advance_loc: 2 to 0000000000451647
  DW_CFA_def_cfa_offset: 8
  DW_CFA_nop
  DW_CFA_nop
  DW_CFA_nop
  DW_CFA_nop
  DW_CFA_nop
  DW_CFA_nop
  DW_CFA_nop

0000c670 000000000000003c 00000048 FDE cie=00000048 pc=0000000000451650..000000000045183a
  DW_CFA_advance_loc: 2 to 0000000000451652
  DW_CFA_def_cfa_offset: 16
  DW_CFA_offset: r12 (r12) at cfa-16
  DW_CFA_advance_loc: 1 to 0000000000451653
  DW_CFA_def_cfa_offset: 24
  DW_CFA_offset: r6 (rbp) at cfa-24
  DW_CFA_advance_loc: 1 to 0000000000451654
  DW_CFA_def_cfa_offset: 32
  DW_CFA_offset: r3 (rbx) at cfa-32
  DW_CFA_advance_loc: 12 to 0000000000451660
  DW_CFA_def_cfa_offset: 96
  DW_CFA_advance_loc2: 302 to 000000000045178e
  DW_CFA_remember_state
  DW_CFA_def_cfa_offset: 32
  DW_CFA_advance_loc: 1 to 000000000045178f
  DW_CFA_def_cfa_offset: 24
  DW_CFA_advance_loc: 1 to 0000000000451790
  DW_CFA_def_cfa_offset: 16
  DW_CFA_advance_loc: 2 to 0000000000451792
  DW_CFA_def_cfa_offset: 8
  DW_CFA_advance_loc: 6 to 0000000000451798
  DW_CFA_restore_state
  DW_CFA_nop
  DW_CFA_nop
  DW_CFA_nop
  DW_CFA_nop
  DW_CFA_nop

0000c6b0 000000000000001c 00000048 FDE cie=00000048 pc=0000000000451840..0000000000451869
  DW_CFA_advance_loc: 1 to 0000000000451841
  DW_CFA_def_cfa_offset: 16
  DW_CFA_offset: r3 (rbx) at cfa-16
  DW_CFA_advance_loc: 39 to 0000000000451868
  DW_CFA_def_cfa_offset: 8

0000c6d0 0000000000000024 00000048 FDE cie=00000048 pc=0000000000451870..0000000000451903
  DW_CFA_advance_loc: 1 to 0000000000451871
  DW_CFA_def_cfa_offset: 16
  DW_CFA_offset: r3 (rbx) at cfa-16
  DW_CFA_advance_loc1: 145 to 0000000000451902
  DW_CFA_def_cfa_offset: 8
  DW_CFA_nop
  DW_CFA_nop
  DW_CFA_nop
  DW_CFA_nop
  DW_CFA_nop
  DW_CFA_nop
  DW_CFA_nop

0000c6f8 0000000000000024 00000048 FDE cie=00000048 pc=0000000000451910..0000000000451956
  DW_CFA_advance_loc: 1 to 0000000000451911
  DW_CFA_def_cfa_offset: 16
  DW_CFA_offset: r3 (rbx) at cfa-16
  DW_CFA_advance_loc1: 68 to 0000000000451955
  DW_CFA_def_cfa_offset: 8
  DW_CFA_nop
  DW_CFA_nop
  DW_CFA_nop
  DW_CFA_nop
  DW_CFA_nop
  DW_CFA_nop
  DW_CFA_nop

0000c720 0000000000000014 00000048 FDE cie=00000048 pc=0000000000451960..0000000000451971

0000c738 0000000000000014 00000048 FDE cie=00000048 pc=0000000000451980..0000000000451990

0000c750 000000000000001c 00000048 FDE cie=00000048 pc=0000000000451990..00000000004519c3
  DW_CFA_advance_loc: 4 to 0000000000451994
  DW_CFA_def_cfa_offset: 16
  DW_CFA_advance_loc: 39 to 00000000004519bb
  DW_CFA_def_cfa_offset: 8
  DW_CFA_nop
  DW_CFA_nop

0000c770 0000000000000024 00000048 FDE cie=00000048 pc=00000000004519d0..0000000000451a2e
  DW_CFA_advance_loc: 1 to 00000000004519d1
  DW_CFA_def_cfa_offset: 16
  DW_CFA_offset: r3 (rbx) at cfa-16
  DW_CFA_advance_loc1: 92 to 0000000000451a2d
  DW_CFA_def_cfa_offset: 8
  DW_CFA_nop
  DW_CFA_nop
  DW_CFA_nop
  DW_CFA_nop
  DW_CFA_nop
  DW_CFA_nop
  DW_CFA_nop

0000c798 000000000000001c 00000048 FDE cie=00000048 pc=0000000000451a30..0000000000451a46
  DW_CFA_advance_loc: 1 to 0000000000451a31
  DW_CFA_def_cfa_offset: 16
  DW_CFA_offset: r3 (rbx) at cfa-16
  DW_CFA_advance_loc: 20 to 0000000000451a45
  DW_CFA_def_cfa_offset: 8

0000c7b8 0000000000000024 00000048 FDE cie=00000048 pc=0000000000451a50..0000000000451aab
  DW_CFA_advance_loc: 1 to 0000000000451a51
  DW_CFA_def_cfa_offset: 16
  DW_CFA_offset: r3 (rbx) at cfa-16
  DW_CFA_advance_loc1: 89 to 0000000000451aaa
  DW_CFA_def_cfa_offset: 8
  DW_CFA_nop
  DW_CFA_nop
  DW_CFA_nop
  DW_CFA_nop
  DW_CFA_nop
  DW_CFA_nop
  DW_CFA_nop

0000c7e0 0000000000000024 00000048 FDE cie=00000048 pc=0000000000451ab0..0000000000451af8
  DW_CFA_advance_loc: 1 to 0000000000451ab1
  DW_CFA_def_cfa_offset: 16
  DW_CFA_offset: r3 (rbx) at cfa-16
  DW_CFA_advance_loc1: 70 to 0000000000451af7
  DW_CFA_def_cfa_offset: 8
  DW_CFA_nop
  DW_CFA_nop
  DW_CFA_nop
  DW_CFA_nop
  DW_CFA_nop
  DW_CFA_nop
  DW_CFA_nop

0000c808 0000000000000054 00000048 FDE cie=00000048 pc=0000000000451b00..000000000045227b
  DW_CFA_advance_loc: 2 to 0000000000451b02
  DW_CFA_def_cfa_offset: 16
  DW_CFA_offset: r15 (r15) at cfa-16
  DW_CFA_advance_loc: 2 to 0000000000451b04
  DW_CFA_def_cfa_offset: 24
  DW_CFA_offset: r14 (r14) at cfa-24
  DW_CFA_advance_loc: 2 to 0000000000451b06
  DW_CFA_def_cfa_offset: 32
  DW_CFA_offset: r13 (r13) at cfa-32
  DW_CFA_advance_loc: 2 to 0000000000451b08
  DW_CFA_def_cfa_offset: 40
  DW_CFA_offset: r12 (r12) at cfa-40
  DW_CFA_advance_loc: 1 to 0000000000451b09
  DW_CFA_def_cfa_offset: 48
  DW_CFA_offset: r6 (rbp) at cfa-48
  DW_CFA_advance_loc: 1 to 0000000000451b0a
  DW_CFA_def_cfa_offset: 56
  DW_CFA_offset: r3 (rbx) at cfa-56
  DW_CFA_advance_loc: 4 to 0000000000451b0e
  DW_CFA_def_cfa_offset: 144
  DW_CFA_advance_loc1: 65 to 0000000000451b4f
  DW_CFA_remember_state
  DW_CFA_def_cfa_offset: 56
  DW_CFA_advance_loc: 4 to 0000000000451b53
  DW_CFA_def_cfa_offset: 48
  DW_CFA_advance_loc: 1 to 0000000000451b54
  DW_CFA_def_cfa_offset: 40
  DW_CFA_advance_loc: 2 to 0000000000451b56
  DW_CFA_def_cfa_offset: 32
  DW_CFA_advance_loc: 2 to 0000000000451b58
  DW_CFA_def_cfa_offset: 24
  DW_CFA_advance_loc: 2 to 0000000000451b5a
  DW_CFA_def_cfa_offset: 16
  DW_CFA_advance_loc: 2 to 0000000000451b5c
  DW_CFA_def_cfa_offset: 8
  DW_CFA_advance_loc: 4 to 0000000000451b60
  DW_CFA_restore_state
  DW_CFA_nop
  DW_CFA_nop
  DW_CFA_nop
  DW_CFA_nop
  DW_CFA_nop

0000c860 000000000000006c 00000048 FDE cie=00000048 pc=0000000000405de0..0000000000406007
  DW_CFA_advance_loc: 2 to 0000000000405de2
  DW_CFA_def_cfa_offset: 16
  DW_CFA_offset: r15 (r15) at cfa-16
  DW_CFA_advance_loc: 4 to 0000000000405de6
  DW_CFA_def_cfa_offset: 24
  DW_CFA_offset: r14 (r14) at cfa-24
  DW_CFA_advance_loc: 2 to 0000000000405de8
  DW_CFA_def_cfa_offset: 32
  DW_CFA_offset: r13 (r13) at cfa-32
  DW_CFA_advance_loc: 2 to 0000000000405dea
  DW_CFA_def_cfa_offset: 40
  DW_CFA_offset: r12 (r12) at cfa-40
  DW_CFA_advance_loc: 1 to 0000000000405deb
  DW_CFA_def_cfa_offset: 48
  DW_CFA_offset: r6 (rbp) at cfa-48
  DW_CFA_advance_loc: 1 to 0000000000405dec
  DW_CFA_def_cfa_offset: 56
  DW_CFA_offset: r3 (rbx) at cfa-56
  DW_CFA_advance_loc: 23 to 0000000000405e03
  DW_CFA_def_cfa_offset: 96
  DW_CFA_advance_loc2: 364 to 0000000000405f6f
  DW_CFA_def_cfa_offset: 104
  DW_CFA_advance_loc: 2 to 0000000000405f71
  DW_CFA_def_cfa_offset: 112
  DW_CFA_advance_loc: 20 to 0000000000405f85
  DW_CFA_def_cfa_offset: 120
  DW_CFA_advance_loc: 17 to 0000000000405f96
  DW_CFA_def_cfa_offset: 128
  DW_CFA_advance_loc: 8 to 0000000000405f9e
  DW_CFA_def_cfa_offset: 136
  DW_CFA_advance_loc: 2 to 0000000000405fa0
  DW_CFA_def_cfa_offset: 144
  DW_CFA_advance_loc: 22 to 0000000000405fb6
  DW_CFA_def_cfa_offset: 96
  DW_CFA_advance_loc: 23 to 0000000000405fcd
  DW_CFA_def_cfa_offset: 104
  DW_CFA_advance_loc: 14 to 0000000000405fdb
  DW_CFA_def_cfa_offset: 112
  DW_CFA_advance_loc: 2 to 0000000000405fdd
  DW_CFA_def_cfa_offset: 120
  DW_CFA_advance_loc: 6 to 0000000000405fe3
  DW_CFA_def_cfa_offset: 128
  DW_CFA_advance_loc: 2 to 0000000000405fe5
  DW_CFA_def_cfa_offset: 136
  DW_CFA_advance_loc: 5 to 0000000000405fea
  DW_CFA_def_cfa_offset: 144
  DW_CFA_advance_loc: 9 to 0000000000405ff3
  DW_CFA_def_cfa_offset: 96
  DW_CFA_nop
  DW_CFA_nop
  DW_CFA_nop
  DW_CFA_nop
  DW_CFA_nop

0000c8d0 0000000000000014 ffffffff CIE
  Version:               1
  Augmentation:          ""
  Code alignment factor: 1
  Data alignment factor: -8
  Return address column: 16

  DW_CFA_def_cfa: r7 (rsp) ofs 8
  DW_CFA_offset: r16 (rip) at cfa-8
  DW_CFA_nop
  DW_CFA_nop
  DW_CFA_nop
  DW_CFA_nop
  DW_CFA_nop
  DW_CFA_nop

0000c8e8 000000000000001c 0000c8d0 FDE cie=0000c8d0 pc=0000000000452280..00000000004522d1
  DW_CFA_advance_loc: 26 to 000000000045229a
  DW_CFA_def_cfa_offset: 16
  DW_CFA_advance_loc: 33 to 00000000004522bb
  DW_CFA_def_cfa_offset: 8
  DW_CFA_nop
  DW_CFA_nop

0000c908 000000000000003c 0000c8d0 FDE cie=0000c8d0 pc=00000000004522e0..0000000000452388
  DW_CFA_advance_loc: 1 to 00000000004522e1
  DW_CFA_def_cfa_offset: 16
  DW_CFA_offset: r6 (rbp) at cfa-16
  DW_CFA_advance_loc: 3 to 00000000004522e4
  DW_CFA_def_cfa_offset: 24
  DW_CFA_offset: r3 (rbx) at cfa-24
  DW_CFA_advance_loc: 6 to 00000000004522ea
  DW_CFA_def_cfa_offset: 32
  DW_CFA_advance_loc1: 73 to 0000000000452333
  DW_CFA_remember_state
  DW_CFA_def_cfa_offset: 24
  DW_CFA_advance_loc: 1 to 0000000000452334
  DW_CFA_def_cfa_offset: 16
  DW_CFA_advance_loc: 1 to 0000000000452335
  DW_CFA_def_cfa_offset: 8
  DW_CFA_advance_loc: 11 to 0000000000452340
  DW_CFA_restore_state
  DW_CFA_advance_loc: 4 to 0000000000452344
  DW_CFA_remember_state
  DW_CFA_def_cfa_offset: 24
  DW_CFA_advance_loc: 1 to 0000000000452345
  DW_CFA_def_cfa_offset: 16
  DW_CFA_advance_loc: 1 to 0000000000452346
  DW_CFA_def_cfa_offset: 8
  DW_CFA_advance_loc: 10 to 0000000000452350
  DW_CFA_restore_state
  DW_CFA_nop
  DW_CFA_nop

0000c948 0000000000000024 0000c8d0 FDE cie=0000c8d0 pc=0000000000452390..00000000004523c9
  DW_CFA_advance_loc: 13 to 000000000045239d
  DW_CFA_def_cfa_offset: 16
  DW_CFA_offset: r3 (rbx) at cfa-16
  DW_CFA_advance_loc: 36 to 00000000004523c1
  DW_CFA_def_cfa_offset: 8
  DW_CFA_advance_loc: 7 to 00000000004523c8
  DW_CFA_restore: r3 (rbx)
  DW_CFA_nop
  DW_CFA_nop
  DW_CFA_nop
  DW_CFA_nop
  DW_CFA_nop
  DW_CFA_nop

0000c970 0000000000000014 ffffffff CIE
  Version:               1
  Augmentation:          ""
  Code alignment factor: 1
  Data alignment factor: -8
  Return address column: 16

  DW_CFA_def_cfa: r7 (rsp) ofs 8
  DW_CFA_offset: r16 (rip) at cfa-8
  DW_CFA_nop
  DW_CFA_nop
  DW_CFA_nop
  DW_CFA_nop
  DW_CFA_nop
  DW_CFA_nop

0000c988 0000000000000064 0000c970 FDE cie=0000c970 pc=00000000004523d0..0000000000454ee2
  DW_CFA_advance_loc: 10 to 00000000004523da
  DW_CFA_def_cfa_offset: 16
  DW_CFA_offset: r15 (r15) at cfa-16
  DW_CFA_advance_loc: 5 to 00000000004523df
  DW_CFA_def_cfa_offset: 24
  DW_CFA_offset: r14 (r14) at cfa-24
  DW_CFA_advance_loc: 2 to 00000000004523e1
  DW_CFA_def_cfa_offset: 32
  DW_CFA_offset: r13 (r13) at cfa-32
  DW_CFA_advance_loc: 2 to 00000000004523e3
  DW_CFA_def_cfa_offset: 40
  DW_CFA_offset: r12 (r12) at cfa-40
  DW_CFA_advance_loc: 7 to 00000000004523ea
  DW_CFA_def_cfa_offset: 48
  DW_CFA_offset: r6 (rbp) at cfa-48
  DW_CFA_advance_loc: 4 to 00000000004523ee
  DW_CFA_def_cfa_offset: 56
  DW_CFA_offset: r3 (rbx) at cfa-56
  DW_CFA_advance_loc2: 1117 to 000000000045284b
  DW_CFA_remember_state
  DW_CFA_def_cfa_offset: 48
  DW_CFA_advance_loc: 1 to 000000000045284c
  DW_CFA_def_cfa_offset: 40
  DW_CFA_advance_loc: 2 to 000000000045284e
  DW_CFA_def_cfa_offset: 32
  DW_CFA_advance_loc: 2 to 0000000000452850
  DW_CFA_def_cfa_offset: 24
  DW_CFA_advance_loc: 2 to 0000000000452852
  DW_CFA_def_cfa_offset: 16
  DW_CFA_advance_loc: 2 to 0000000000452854
  DW_CFA_def_cfa_offset: 8
  DW_CFA_advance_loc: 4 to 0000000000452858
  DW_CFA_restore_state
  DW_CFA_advance_loc2: 8840 to 0000000000454ae0
  DW_CFA_def_cfa_offset: 8
  DW_CFA_restore: r3 (rbx)
  DW_CFA_restore: r6 (rbp)
  DW_CFA_restore: r12 (r12)
  DW_CFA_restore: r13 (r13)
  DW_CFA_restore: r14 (r14)
  DW_CFA_restore: r15 (r15)
  DW_CFA_advance_loc: 1 to 0000000000454ae1
  DW_CFA_def_cfa_offset: 56
  DW_CFA_offset: r3 (rbx) at cfa-56
  DW_CFA_offset: r6 (rbp) at cfa-48
  DW_CFA_offset: r12 (r12) at cfa-40
  DW_CFA_offset: r13 (r13) at cfa-32
  DW_CFA_offset: r14 (r14) at cfa-24
  DW_CFA_offset: r15 (r15) at cfa-16
  DW_CFA_nop

0000c9f0 000000000000004c 0000c970 FDE cie=0000c970 pc=0000000000454ef0..0000000000455021
  DW_CFA_advance_loc: 10 to 0000000000454efa
  DW_CFA_def_cfa_offset: 16
  DW_CFA_offset: r14 (r14) at cfa-16
  DW_CFA_advance_loc: 11 to 0000000000454f05
  DW_CFA_def_cfa_offset: 24
  DW_CFA_offset: r13 (r13) at cfa-24
  DW_CFA_advance_loc: 4 to 0000000000454f09
  DW_CFA_def_cfa_offset: 32
  DW_CFA_offset: r12 (r12) at cfa-32
  DW_CFA_advance_loc: 1 to 0000000000454f0a
  DW_CFA_def_cfa_offset: 40
  DW_CFA_offset: r6 (rbp) at cfa-40
  DW_CFA_advance_loc: 1 to 0000000000454f0b
  DW_CFA_def_cfa_offset: 48
  DW_CFA_offset: r3 (rbx) at cfa-48
  DW_CFA_advance_loc1: 183 to 0000000000454fc2
  DW_CFA_remember_state
  DW_CFA_def_cfa_offset: 40
  DW_CFA_advance_loc: 1 to 0000000000454fc3
  DW_CFA_def_cfa_offset: 32
  DW_CFA_advance_loc: 2 to 0000000000454fc5
  DW_CFA_def_cfa_offset: 24
  DW_CFA_advance_loc: 2 to 0000000000454fc7
  DW_CFA_def_cfa_offset: 16
  DW_CFA_advance_loc: 2 to 0000000000454fc9
  DW_CFA_def_cfa_offset: 8
  DW_CFA_advance_loc: 7 to 0000000000454fd0
  DW_CFA_restore_state
  DW_CFA_advance_loc1: 80 to 0000000000455020
  DW_CFA_def_cfa_offset: 8
  DW_CFA_restore: r3 (rbx)
  DW_CFA_restore: r6 (rbp)
  DW_CFA_restore: r12 (r12)
  DW_CFA_restore: r13 (r13)
  DW_CFA_restore: r14 (r14)
  DW_CFA_nop
  DW_CFA_nop
  DW_CFA_nop

0000ca40 00000000000000ec 0000c970 FDE cie=0000c970 pc=0000000000455030..00000000004555c1
  DW_CFA_advance_loc: 10 to 000000000045503a
  DW_CFA_def_cfa_offset: 16
  DW_CFA_offset: r15 (r15) at cfa-16
  DW_CFA_advance_loc: 11 to 0000000000455045
  DW_CFA_def_cfa_offset: 24
  DW_CFA_offset: r14 (r14) at cfa-24
  DW_CFA_advance_loc: 5 to 000000000045504a
  DW_CFA_def_cfa_offset: 32
  DW_CFA_offset: r13 (r13) at cfa-32
  DW_CFA_advance_loc: 8 to 0000000000455052
  DW_CFA_def_cfa_offset: 40
  DW_CFA_offset: r12 (r12) at cfa-40
  DW_CFA_advance_loc: 1 to 0000000000455053
  DW_CFA_def_cfa_offset: 48
  DW_CFA_offset: r6 (rbp) at cfa-48
  DW_CFA_advance_loc: 1 to 0000000000455054
  DW_CFA_def_cfa_offset: 56
  DW_CFA_offset: r3 (rbx) at cfa-56
  DW_CFA_advance_loc1: 238 to 0000000000455142
  DW_CFA_remember_state
  DW_CFA_def_cfa_offset: 48
  DW_CFA_advance_loc: 1 to 0000000000455143
  DW_CFA_def_cfa_offset: 40
  DW_CFA_advance_loc: 2 to 0000000000455145
  DW_CFA_def_cfa_offset: 32
  DW_CFA_advance_loc: 2 to 0000000000455147
  DW_CFA_def_cfa_offset: 24
  DW_CFA_advance_loc: 2 to 0000000000455149
  DW_CFA_def_cfa_offset: 16
  DW_CFA_advance_loc: 2 to 000000000045514b
  DW_CFA_def_cfa_offset: 8
  DW_CFA_advance_loc: 5 to 0000000000455150
  DW_CFA_restore_state
  DW_CFA_advance_loc1: 155 to 00000000004551eb
  DW_CFA_remember_state
  DW_CFA_def_cfa_offset: 48
  DW_CFA_advance_loc: 1 to 00000000004551ec
  DW_CFA_def_cfa_offset: 40
  DW_CFA_advance_loc: 2 to 00000000004551ee
  DW_CFA_def_cfa_offset: 32
  DW_CFA_advance_loc: 2 to 00000000004551f0
  DW_CFA_def_cfa_offset: 24
  DW_CFA_advance_loc: 2 to 00000000004551f2
  DW_CFA_def_cfa_offset: 16
  DW_CFA_advance_loc: 2 to 00000000004551f4
  DW_CFA_def_cfa_offset: 8
  DW_CFA_advance_loc: 4 to 00000000004551f8
  DW_CFA_restore_state
  DW_CFA_advance_loc1: 152 to 0000000000455290
  DW_CFA_remember_state
  DW_CFA_def_cfa_offset: 48
  DW_CFA_advance_loc: 1 to 0000000000455291
  DW_CFA_def_cfa_offset: 40
  DW_CFA_advance_loc: 2 to 0000000000455293
  DW_CFA_def_cfa_offset: 32
  DW_CFA_advance_loc: 2 to 0000000000455295
  DW_CFA_def_cfa_offset: 24
  DW_CFA_advance_loc: 2 to 0000000000455297
  DW_CFA_def_cfa_offset: 16
  DW_CFA_advance_loc: 2 to 0000000000455299
  DW_CFA_def_cfa_offset: 8
  DW_CFA_advance_loc: 7 to 00000000004552a0
  DW_CFA_restore_state
  DW_CFA_advance_loc1: 137 to 0000000000455329
  DW_CFA_remember_state
  DW_CFA_def_cfa_offset: 48
  DW_CFA_advance_loc: 1 to 000000000045532a
  DW_CFA_def_cfa_offset: 40
  DW_CFA_advance_loc: 2 to 000000000045532c
  DW_CFA_def_cfa_offset: 32
  DW_CFA_advance_loc: 2 to 000000000045532e
  DW_CFA_def_cfa_offset: 24
  DW_CFA_advance_loc: 2 to 0000000000455330
  DW_CFA_def_cfa_offset: 16
  DW_CFA_advance_loc: 2 to 0000000000455332
  DW_CFA_def_cfa_offset: 8
  DW_CFA_advance_loc: 6 to 0000000000455338
  DW_CFA_restore_state
  DW_CFA_advance_loc1: 145 to 00000000004553c9
  DW_CFA_remember_state
  DW_CFA_def_cfa_offset: 48
  DW_CFA_advance_loc: 1 to 00000000004553ca
  DW_CFA_def_cfa_offset: 40
  DW_CFA_advance_loc: 2 to 00000000004553cc
  DW_CFA_def_cfa_offset: 32
  DW_CFA_advance_loc: 2 to 00000000004553ce
  DW_CFA_def_cfa_offset: 24
  DW_CFA_advance_loc: 2 to 00000000004553d0
  DW_CFA_def_cfa_offset: 16
  DW_CFA_advance_loc: 2 to 00000000004553d2
  DW_CFA_def_cfa_offset: 8
  DW_CFA_advance_loc: 6 to 00000000004553d8
  DW_CFA_restore_state
  DW_CFA_advance_loc1: 171 to 0000000000455483
  DW_CFA_remember_state
  DW_CFA_def_cfa_offset: 48
  DW_CFA_advance_loc: 1 to 0000000000455484
  DW_CFA_def_cfa_offset: 40
  DW_CFA_advance_loc: 2 to 0000000000455486
  DW_CFA_def_cfa_offset: 32
  DW_CFA_advance_loc: 2 to 0000000000455488
  DW_CFA_def_cfa_offset: 24
  DW_CFA_advance_loc: 2 to 000000000045548a
  DW_CFA_def_cfa_offset: 16
  DW_CFA_advance_loc: 2 to 000000000045548c
  DW_CFA_def_cfa_offset: 8
  DW_CFA_advance_loc: 4 to 0000000000455490
  DW_CFA_restore_state
  DW_CFA_advance_loc1: 130 to 0000000000455512
  DW_CFA_remember_state
  DW_CFA_def_cfa_offset: 48
  DW_CFA_advance_loc: 1 to 0000000000455513
  DW_CFA_def_cfa_offset: 40
  DW_CFA_advance_loc: 2 to 0000000000455515
  DW_CFA_def_cfa_offset: 32
  DW_CFA_advance_loc: 2 to 0000000000455517
  DW_CFA_def_cfa_offset: 24
  DW_CFA_advance_loc: 2 to 0000000000455519
  DW_CFA_def_cfa_offset: 16
  DW_CFA_advance_loc: 2 to 000000000045551b
  DW_CFA_def_cfa_offset: 8
  DW_CFA_advance_loc: 5 to 0000000000455520
  DW_CFA_restore_state
  DW_CFA_advance_loc1: 144 to 00000000004555b0
  DW_CFA_def_cfa_offset: 48
  DW_CFA_advance_loc: 1 to 00000000004555b1
  DW_CFA_def_cfa_offset: 40
  DW_CFA_advance_loc: 2 to 00000000004555b3
  DW_CFA_def_cfa_offset: 32
  DW_CFA_advance_loc: 2 to 00000000004555b5
  DW_CFA_def_cfa_offset: 24
  DW_CFA_advance_loc: 2 to 00000000004555b7
  DW_CFA_def_cfa_offset: 16
  DW_CFA_advance_loc: 2 to 00000000004555b9
  DW_CFA_def_cfa_offset: 8
  DW_CFA_advance_loc: 7 to 00000000004555c0
  DW_CFA_restore: r3 (rbx)
  DW_CFA_restore: r6 (rbp)
  DW_CFA_restore: r12 (r12)
  DW_CFA_restore: r13 (r13)
  DW_CFA_restore: r14 (r14)
  DW_CFA_restore: r15 (r15)
  DW_CFA_nop
  DW_CFA_nop
  DW_CFA_nop
  DW_CFA_nop
  DW_CFA_nop
  DW_CFA_nop

0000cb30 0000000000000044 0000c970 FDE cie=0000c970 pc=00000000004555d0..0000000000455711
  DW_CFA_advance_loc: 10 to 00000000004555da
  DW_CFA_def_cfa_offset: 16
  DW_CFA_offset: r13 (r13) at cfa-16
  DW_CFA_advance_loc: 7 to 00000000004555e1
  DW_CFA_def_cfa_offset: 24
  DW_CFA_offset: r12 (r12) at cfa-24
  DW_CFA_advance_loc: 10 to 00000000004555eb
  DW_CFA_def_cfa_offset: 32
  DW_CFA_offset: r6 (rbp) at cfa-32
  DW_CFA_advance_loc: 1 to 00000000004555ec
  DW_CFA_def_cfa_offset: 40
  DW_CFA_offset: r3 (rbx) at cfa-40
  DW_CFA_advance_loc1: 201 to 00000000004556b5
  DW_CFA_remember_state
  DW_CFA_def_cfa_offset: 32
  DW_CFA_advance_loc: 1 to 00000000004556b6
  DW_CFA_def_cfa_offset: 24
  DW_CFA_advance_loc: 2 to 00000000004556b8
  DW_CFA_def_cfa_offset: 16
  DW_CFA_advance_loc: 2 to 00000000004556ba
  DW_CFA_def_cfa_offset: 8
  DW_CFA_advance_loc: 6 to 00000000004556c0
  DW_CFA_restore_state
  DW_CFA_advance_loc1: 80 to 0000000000455710
  DW_CFA_def_cfa_offset: 8
  DW_CFA_restore: r3 (rbx)
  DW_CFA_restore: r6 (rbp)
  DW_CFA_restore: r12 (r12)
  DW_CFA_restore: r13 (r13)
  DW_CFA_nop
  DW_CFA_nop
  DW_CFA_nop
  DW_CFA_nop

0000cb78 0000000000000054 0000c970 FDE cie=0000c970 pc=0000000000455720..0000000000457d61
  DW_CFA_advance_loc: 10 to 000000000045572a
  DW_CFA_def_cfa_offset: 16
  DW_CFA_offset: r15 (r15) at cfa-16
  DW_CFA_advance_loc: 5 to 000000000045572f
  DW_CFA_def_cfa_offset: 24
  DW_CFA_offset: r14 (r14) at cfa-24
  DW_CFA_advance_loc: 2 to 0000000000455731
  DW_CFA_def_cfa_offset: 32
  DW_CFA_offset: r13 (r13) at cfa-32
  DW_CFA_advance_loc: 2 to 0000000000455733
  DW_CFA_def_cfa_offset: 40
  DW_CFA_offset: r12 (r12) at cfa-40
  DW_CFA_advance_loc: 1 to 0000000000455734
  DW_CFA_def_cfa_offset: 48
  DW_CFA_offset: r6 (rbp) at cfa-48
  DW_CFA_advance_loc: 1 to 0000000000455735
  DW_CFA_def_cfa_offset: 56
  DW_CFA_offset: r3 (rbx) at cfa-56
  DW_CFA_advance_loc2: 2165 to 0000000000455faa
  DW_CFA_remember_state
  DW_CFA_def_cfa_offset: 48
  DW_CFA_advance_loc: 1 to 0000000000455fab
  DW_CFA_def_cfa_offset: 40
  DW_CFA_advance_loc: 2 to 0000000000455fad
  DW_CFA_def_cfa_offset: 32
  DW_CFA_advance_loc: 2 to 0000000000455faf
  DW_CFA_def_cfa_offset: 24
  DW_CFA_advance_loc: 2 to 0000000000455fb1
  DW_CFA_def_cfa_offset: 16
  DW_CFA_advance_loc: 2 to 0000000000455fb3
  DW_CFA_def_cfa_offset: 8
  DW_CFA_advance_loc: 5 to 0000000000455fb8
  DW_CFA_restore_state
  DW_CFA_advance_loc2: 7592 to 0000000000457d60
  DW_CFA_def_cfa_offset: 8
  DW_CFA_restore: r3 (rbx)
  DW_CFA_restore: r6 (rbp)
  DW_CFA_restore: r12 (r12)
  DW_CFA_restore: r13 (r13)
  DW_CFA_restore: r14 (r14)
  DW_CFA_restore: r15 (r15)

0000cbd0 0000000000000054 0000c970 FDE cie=0000c970 pc=0000000000457d70..0000000000457ed1
  DW_CFA_advance_loc: 10 to 0000000000457d7a
  DW_CFA_def_cfa_offset: 16
  DW_CFA_offset: r15 (r15) at cfa-16
  DW_CFA_advance_loc: 10 to 0000000000457d84
  DW_CFA_def_cfa_offset: 24
  DW_CFA_offset: r14 (r14) at cfa-24
  DW_CFA_advance_loc: 2 to 0000000000457d86
  DW_CFA_def_cfa_offset: 32
  DW_CFA_offset: r13 (r13) at cfa-32
  DW_CFA_advance_loc: 8 to 0000000000457d8e
  DW_CFA_def_cfa_offset: 40
  DW_CFA_offset: r12 (r12) at cfa-40
  DW_CFA_advance_loc: 4 to 0000000000457d92
  DW_CFA_def_cfa_offset: 48
  DW_CFA_offset: r6 (rbp) at cfa-48
  DW_CFA_advance_loc: 4 to 0000000000457d96
  DW_CFA_def_cfa_offset: 56
  DW_CFA_offset: r3 (rbx) at cfa-56
  DW_CFA_advance_loc2: 299 to 0000000000457ec1
  DW_CFA_def_cfa_offset: 48
  DW_CFA_advance_loc: 1 to 0000000000457ec2
  DW_CFA_def_cfa_offset: 40
  DW_CFA_advance_loc: 2 to 0000000000457ec4
  DW_CFA_def_cfa_offset: 32
  DW_CFA_advance_loc: 2 to 0000000000457ec6
  DW_CFA_def_cfa_offset: 24
  DW_CFA_advance_loc: 2 to 0000000000457ec8
  DW_CFA_def_cfa_offset: 16
  DW_CFA_advance_loc: 2 to 0000000000457eca
  DW_CFA_def_cfa_offset: 8
  DW_CFA_advance_loc: 6 to 0000000000457ed0
  DW_CFA_restore: r3 (rbx)
  DW_CFA_restore: r6 (rbp)
  DW_CFA_restore: r12 (r12)
  DW_CFA_restore: r13 (r13)
  DW_CFA_restore: r14 (r14)
  DW_CFA_restore: r15 (r15)
  DW_CFA_nop
  DW_CFA_nop
  DW_CFA_nop
  DW_CFA_nop
  DW_CFA_nop
  DW_CFA_nop
  DW_CFA_nop

0000cc28 000000000000006c 0000c970 FDE cie=0000c970 pc=0000000000457ee0..0000000000459096
  DW_CFA_advance_loc: 2 to 0000000000457ee2
  DW_CFA_def_cfa_offset: 16
  DW_CFA_offset: r15 (r15) at cfa-16
  DW_CFA_advance_loc: 5 to 0000000000457ee7
  DW_CFA_def_cfa_offset: 24
  DW_CFA_offset: r14 (r14) at cfa-24
  DW_CFA_advance_loc: 5 to 0000000000457eec
  DW_CFA_def_cfa_offset: 32
  DW_CFA_offset: r13 (r13) at cfa-32
  DW_CFA_advance_loc: 2 to 0000000000457eee
  DW_CFA_def_cfa_offset: 40
  DW_CFA_offset: r12 (r12) at cfa-40
  DW_CFA_advance_loc: 6 to 0000000000457ef4
  DW_CFA_def_cfa_offset: 48
  DW_CFA_offset: r6 (rbp) at cfa-48
  DW_CFA_advance_loc: 1 to 0000000000457ef5
  DW_CFA_def_cfa_offset: 56
  DW_CFA_offset: r3 (rbx) at cfa-56
  DW_CFA_advance_loc: 7 to 0000000000457efc
  DW_CFA_def_cfa_offset: 2336
  DW_CFA_advance_loc2: 258 to 0000000000457ffe
  DW_CFA_remember_state
  DW_CFA_def_cfa_offset: 56
  DW_CFA_advance_loc: 4 to 0000000000458002
  DW_CFA_def_cfa_offset: 48
  DW_CFA_advance_loc: 1 to 0000000000458003
  DW_CFA_def_cfa_offset: 40
  DW_CFA_advance_loc: 2 to 0000000000458005
  DW_CFA_def_cfa_offset: 32
  DW_CFA_advance_loc: 2 to 0000000000458007
  DW_CFA_def_cfa_offset: 24
  DW_CFA_advance_loc: 2 to 0000000000458009
  DW_CFA_def_cfa_offset: 16
  DW_CFA_advance_loc: 2 to 000000000045800b
  DW_CFA_def_cfa_offset: 8
  DW_CFA_advance_loc: 5 to 0000000000458010
  DW_CFA_restore_state
  DW_CFA_advance_loc: 44 to 000000000045803c
  DW_CFA_remember_state
  DW_CFA_def_cfa_offset: 56
  DW_CFA_advance_loc: 6 to 0000000000458042
  DW_CFA_def_cfa_offset: 48
  DW_CFA_advance_loc: 1 to 0000000000458043
  DW_CFA_def_cfa_offset: 40
  DW_CFA_advance_loc: 2 to 0000000000458045
  DW_CFA_def_cfa_offset: 32
  DW_CFA_advance_loc: 2 to 0000000000458047
  DW_CFA_def_cfa_offset: 24
  DW_CFA_advance_loc: 2 to 0000000000458049
  DW_CFA_def_cfa_offset: 16
  DW_CFA_advance_loc: 2 to 000000000045804b
  DW_CFA_def_cfa_offset: 8
  DW_CFA_advance_loc: 5 to 0000000000458050
  DW_CFA_restore_state
  DW_CFA_nop
  DW_CFA_nop
  DW_CFA_nop
  DW_CFA_nop

0000cc98 0000000000000014 0000c970 FDE cie=0000c970 pc=00000000004590a0..00000000004590a5

0000ccb0 0000000000000014 0000c970 FDE cie=0000c970 pc=00000000004590b0..00000000004590b5

0000ccc8 0000000000000014 0000c970 FDE cie=0000c970 pc=00000000004590c0..00000000004590c5

0000cce0 0000000000000014 0000c970 FDE cie=0000c970 pc=00000000004590d0..00000000004590da

0000ccf8 0000000000000014 0000c970 FDE cie=0000c970 pc=00000000004590e0..00000000004590e7

0000cd10 0000000000000014 ffffffff CIE
  Version:               1
  Augmentation:          ""
  Code alignment factor: 1
  Data alignment factor: -8
  Return address column: 16

  DW_CFA_def_cfa: r7 (rsp) ofs 8
  DW_CFA_offset: r16 (rip) at cfa-8
  DW_CFA_nop
  DW_CFA_nop
  DW_CFA_nop
  DW_CFA_nop
  DW_CFA_nop
  DW_CFA_nop

0000cd28 0000000000000044 0000cd10 FDE cie=0000cd10 pc=00000000004590f0..00000000004591ef
  DW_CFA_advance_loc: 2 to 00000000004590f2
  DW_CFA_def_cfa_offset: 16
  DW_CFA_offset: r13 (r13) at cfa-16
  DW_CFA_advance_loc: 2 to 00000000004590f4
  DW_CFA_def_cfa_offset: 24
  DW_CFA_offset: r12 (r12) at cfa-24
  DW_CFA_advance_loc: 9 to 00000000004590fd
  DW_CFA_def_cfa_offset: 48
  DW_CFA_advance_loc1: 136 to 0000000000459185
  DW_CFA_remember_state
  DW_CFA_def_cfa_offset: 24
  DW_CFA_advance_loc: 2 to 0000000000459187
  DW_CFA_def_cfa_offset: 16
  DW_CFA_advance_loc: 5 to 000000000045918c
  DW_CFA_def_cfa_offset: 8
  DW_CFA_advance_loc: 4 to 0000000000459190
  DW_CFA_restore_state
  DW_CFA_advance_loc: 60 to 00000000004591cc
  DW_CFA_remember_state
  DW_CFA_def_cfa_offset: 24
  DW_CFA_advance_loc: 2 to 00000000004591ce
  DW_CFA_def_cfa_offset: 16
  DW_CFA_advance_loc: 2 to 00000000004591d0
  DW_CFA_def_cfa_offset: 8
  DW_CFA_advance_loc: 8 to 00000000004591d8
  DW_CFA_restore_state
  DW_CFA_advance_loc: 8 to 00000000004591e0
  DW_CFA_def_cfa_offset: 24
  DW_CFA_advance_loc: 8 to 00000000004591e8
  DW_CFA_def_cfa_offset: 16
  DW_CFA_advance_loc: 5 to 00000000004591ed
  DW_CFA_def_cfa_offset: 8
  DW_CFA_nop

0000cd70 0000000000000034 0000cd10 FDE cie=0000cd10 pc=00000000004591f0..0000000000459c5b
  DW_CFA_advance_loc: 1 to 00000000004591f1
  DW_CFA_def_cfa_offset: 16
  DW_CFA_offset: r6 (rbp) at cfa-16
  DW_CFA_advance_loc: 3 to 00000000004591f4
  DW_CFA_def_cfa_register: r6 (rbp)
  DW_CFA_advance_loc: 13 to 0000000000459201
  DW_CFA_offset: r15 (r15) at cfa-24
  DW_CFA_offset: r14 (r14) at cfa-32
  DW_CFA_offset: r13 (r13) at cfa-40
  DW_CFA_offset: r12 (r12) at cfa-48
  DW_CFA_offset: r3 (rbx) at cfa-56
  DW_CFA_advance_loc2: 616 to 0000000000459469
  DW_CFA_remember_state
  DW_CFA_def_cfa: r7 (rsp) ofs 8
  DW_CFA_advance_loc: 7 to 0000000000459470
  DW_CFA_restore_state
  DW_CFA_nop
  DW_CFA_nop
  DW_CFA_nop
  DW_CFA_nop

0000cda8 0000000000000014 ffffffff CIE
  Version:               1
  Augmentation:          ""
  Code alignment factor: 1
  Data alignment factor: -8
  Return address column: 16

  DW_CFA_def_cfa: r7 (rsp) ofs 8
  DW_CFA_offset: r16 (rip) at cfa-8
  DW_CFA_nop
  DW_CFA_nop
  DW_CFA_nop
  DW_CFA_nop
  DW_CFA_nop
  DW_CFA_nop

0000cdc0 000000000000005c 0000cda8 FDE cie=0000cda8 pc=0000000000459c60..0000000000459d99
  DW_CFA_advance_loc: 11 to 0000000000459c6b
  DW_CFA_def_cfa_offset: 16
  DW_CFA_offset: r12 (r12) at cfa-16
  DW_CFA_advance_loc: 1 to 0000000000459c6c
  DW_CFA_def_cfa_offset: 24
  DW_CFA_offset: r6 (rbp) at cfa-24
  DW_CFA_advance_loc: 7 to 0000000000459c73
  DW_CFA_def_cfa_offset: 32
  DW_CFA_advance_loc1: 70 to 0000000000459cb9
  DW_CFA_remember_state
  DW_CFA_def_cfa_offset: 24
  DW_CFA_advance_loc: 1 to 0000000000459cba
  DW_CFA_def_cfa_offset: 16
  DW_CFA_advance_loc: 2 to 0000000000459cbc
  DW_CFA_def_cfa_offset: 8
  DW_CFA_advance_loc: 4 to 0000000000459cc0
  DW_CFA_restore_state
  DW_CFA_advance_loc1: 94 to 0000000000459d1e
  DW_CFA_remember_state
  DW_CFA_def_cfa_offset: 24
  DW_CFA_advance_loc: 14 to 0000000000459d2c
  DW_CFA_restore: r6 (rbp)
  DW_CFA_def_cfa_offset: 16
  DW_CFA_advance_loc: 9 to 0000000000459d35
  DW_CFA_restore: r12 (r12)
  DW_CFA_def_cfa_offset: 8
  DW_CFA_advance_loc: 11 to 0000000000459d40
  DW_CFA_restore_state
  DW_CFA_advance_loc: 4 to 0000000000459d44
  DW_CFA_remember_state
  DW_CFA_def_cfa_offset: 24
  DW_CFA_advance_loc: 4 to 0000000000459d48
  DW_CFA_restore: r6 (rbp)
  DW_CFA_def_cfa_offset: 16
  DW_CFA_advance_loc: 2 to 0000000000459d4a
  DW_CFA_restore: r12 (r12)
  DW_CFA_def_cfa_offset: 8
  DW_CFA_advance_loc: 6 to 0000000000459d50
  DW_CFA_restore_state
  DW_CFA_advance_loc: 48 to 0000000000459d80
  DW_CFA_def_cfa_offset: 8
  DW_CFA_restore: r6 (rbp)
  DW_CFA_restore: r12 (r12)
  DW_CFA_advance_loc: 8 to 0000000000459d88
  DW_CFA_def_cfa_offset: 32
  DW_CFA_offset: r6 (rbp) at cfa-24
  DW_CFA_offset: r12 (r12) at cfa-16
  DW_CFA_nop
  DW_CFA_nop
  DW_CFA_nop
  DW_CFA_nop
  DW_CFA_nop

0000ce20 0000000000000074 0000cda8 FDE cie=0000cda8 pc=0000000000459da0..000000000045a295
  DW_CFA_advance_loc: 2 to 0000000000459da2
  DW_CFA_def_cfa_offset: 16
  DW_CFA_offset: r14 (r14) at cfa-16
  DW_CFA_advance_loc: 5 to 0000000000459da7
  DW_CFA_def_cfa_offset: 24
  DW_CFA_offset: r13 (r13) at cfa-24
  DW_CFA_advance_loc: 5 to 0000000000459dac
  DW_CFA_def_cfa_offset: 32
  DW_CFA_offset: r12 (r12) at cfa-32
  DW_CFA_advance_loc: 4 to 0000000000459db0
  DW_CFA_def_cfa_offset: 40
  DW_CFA_offset: r6 (rbp) at cfa-40
  DW_CFA_advance_loc: 4 to 0000000000459db4
  DW_CFA_def_cfa_offset: 48
  DW_CFA_offset: r3 (rbx) at cfa-48
  DW_CFA_advance_loc: 7 to 0000000000459dbb
  DW_CFA_def_cfa_offset: 128
  DW_CFA_advance_loc1: 155 to 0000000000459e56
  DW_CFA_remember_state
  DW_CFA_def_cfa_offset: 48
  DW_CFA_advance_loc: 1 to 0000000000459e57
  DW_CFA_def_cfa_offset: 40
  DW_CFA_advance_loc: 1 to 0000000000459e58
  DW_CFA_def_cfa_offset: 32
  DW_CFA_advance_loc: 2 to 0000000000459e5a
  DW_CFA_def_cfa_offset: 24
  DW_CFA_advance_loc: 2 to 0000000000459e5c
  DW_CFA_def_cfa_offset: 16
  DW_CFA_advance_loc: 2 to 0000000000459e5e
  DW_CFA_def_cfa_offset: 8
  DW_CFA_advance_loc: 1 to 0000000000459e5f
  DW_CFA_restore_state
  DW_CFA_advance_loc1: 110 to 0000000000459ecd
  DW_CFA_remember_state
  DW_CFA_def_cfa_offset: 48
  DW_CFA_advance_loc: 1 to 0000000000459ece
  DW_CFA_def_cfa_offset: 40
  DW_CFA_advance_loc: 1 to 0000000000459ecf
  DW_CFA_def_cfa_offset: 32
  DW_CFA_advance_loc: 2 to 0000000000459ed1
  DW_CFA_def_cfa_offset: 24
  DW_CFA_advance_loc: 2 to 0000000000459ed3
  DW_CFA_def_cfa_offset: 16
  DW_CFA_advance_loc: 2 to 0000000000459ed5
  DW_CFA_def_cfa_offset: 8
  DW_CFA_advance_loc: 2 to 0000000000459ed7
  DW_CFA_restore_state
  DW_CFA_advance_loc2: 884 to 000000000045a24b
  DW_CFA_remember_state
  DW_CFA_def_cfa_offset: 48
  DW_CFA_advance_loc: 1 to 000000000045a24c
  DW_CFA_def_cfa_offset: 40
  DW_CFA_advance_loc: 1 to 000000000045a24d
  DW_CFA_def_cfa_offset: 32
  DW_CFA_advance_loc: 2 to 000000000045a24f
  DW_CFA_def_cfa_offset: 24
  DW_CFA_advance_loc: 2 to 000000000045a251
  DW_CFA_def_cfa_offset: 16
  DW_CFA_advance_loc: 2 to 000000000045a253
  DW_CFA_def_cfa_offset: 8
  DW_CFA_advance_loc: 2 to 000000000045a255
  DW_CFA_restore_state

0000ce98 0000000000000044 0000cda8 FDE cie=0000cda8 pc=000000000045a2a0..000000000045a320
  DW_CFA_advance_loc: 2 to 000000000045a2a2
  DW_CFA_def_cfa_offset: 16
  DW_CFA_offset: r13 (r13) at cfa-16
  DW_CFA_advance_loc: 5 to 000000000045a2a7
  DW_CFA_def_cfa_offset: 24
  DW_CFA_offset: r12 (r12) at cfa-24
  DW_CFA_advance_loc: 4 to 000000000045a2ab
  DW_CFA_def_cfa_offset: 32
  DW_CFA_offset: r6 (rbp) at cfa-32
  DW_CFA_advance_loc: 4 to 000000000045a2af
  DW_CFA_def_cfa_offset: 40
  DW_CFA_offset: r3 (rbx) at cfa-40
  DW_CFA_advance_loc: 7 to 000000000045a2b6
  DW_CFA_def_cfa_offset: 96
  DW_CFA_advance_loc1: 94 to 000000000045a314
  DW_CFA_remember_state
  DW_CFA_def_cfa_offset: 40
  DW_CFA_advance_loc: 1 to 000000000045a315
  DW_CFA_def_cfa_offset: 32
  DW_CFA_advance_loc: 1 to 000000000045a316
  DW_CFA_def_cfa_offset: 24
  DW_CFA_advance_loc: 2 to 000000000045a318
  DW_CFA_def_cfa_offset: 16
  DW_CFA_advance_loc: 2 to 000000000045a31a
  DW_CFA_def_cfa_offset: 8
  DW_CFA_advance_loc: 1 to 000000000045a31b
  DW_CFA_restore_state
  DW_CFA_nop
  DW_CFA_nop
  DW_CFA_nop
  DW_CFA_nop
  DW_CFA_nop
  DW_CFA_nop

0000cee0 0000000000000044 0000cda8 FDE cie=0000cda8 pc=000000000045a320..000000000045a3a2
  DW_CFA_advance_loc: 2 to 000000000045a322
  DW_CFA_def_cfa_offset: 16
  DW_CFA_offset: r13 (r13) at cfa-16
  DW_CFA_advance_loc: 5 to 000000000045a327
  DW_CFA_def_cfa_offset: 24
  DW_CFA_offset: r12 (r12) at cfa-24
  DW_CFA_advance_loc: 4 to 000000000045a32b
  DW_CFA_def_cfa_offset: 32
  DW_CFA_offset: r6 (rbp) at cfa-32
  DW_CFA_advance_loc: 4 to 000000000045a32f
  DW_CFA_def_cfa_offset: 40
  DW_CFA_offset: r3 (rbx) at cfa-40
  DW_CFA_advance_loc: 7 to 000000000045a336
  DW_CFA_def_cfa_offset: 96
  DW_CFA_advance_loc1: 96 to 000000000045a396
  DW_CFA_remember_state
  DW_CFA_def_cfa_offset: 40
  DW_CFA_advance_loc: 1 to 000000000045a397
  DW_CFA_def_cfa_offset: 32
  DW_CFA_advance_loc: 1 to 000000000045a398
  DW_CFA_def_cfa_offset: 24
  DW_CFA_advance_loc: 2 to 000000000045a39a
  DW_CFA_def_cfa_offset: 16
  DW_CFA_advance_loc: 2 to 000000000045a39c
  DW_CFA_def_cfa_offset: 8
  DW_CFA_advance_loc: 1 to 000000000045a39d
  DW_CFA_restore_state
  DW_CFA_nop
  DW_CFA_nop
  DW_CFA_nop
  DW_CFA_nop
  DW_CFA_nop
  DW_CFA_nop

0000cf28 0000000000000014 ffffffff CIE
  Version:               1
  Augmentation:          ""
  Code alignment factor: 1
  Data alignment factor: -8
  Return address column: 16

  DW_CFA_def_cfa: r7 (rsp) ofs 8
  DW_CFA_offset: r16 (rip) at cfa-8
  DW_CFA_nop
  DW_CFA_nop
  DW_CFA_nop
  DW_CFA_nop
  DW_CFA_nop
  DW_CFA_nop

0000cf40 0000000000000014 0000cf28 FDE cie=0000cf28 pc=000000000045a3b0..000000000045a3c2

0000cf58 0000000000000014 0000cf28 FDE cie=0000cf28 pc=000000000045a3d0..000000000045a3e3

0000cf70 0000000000000014 0000cf28 FDE cie=0000cf28 pc=000000000045a3f0..000000000045a402

0000cf88 0000000000000014 0000cf28 FDE cie=0000cf28 pc=000000000045a410..000000000045a47f

0000cfa0 0000000000000014 0000cf28 FDE cie=0000cf28 pc=000000000045a480..000000000045a493

0000cfb8 0000000000000014 0000cf28 FDE cie=0000cf28 pc=000000000045a4a0..000000000045a4b3

0000cfd0 0000000000000014 0000cf28 FDE cie=0000cf28 pc=000000000045a4c0..000000000045a4d2

0000cfe8 0000000000000014 0000cf28 FDE cie=0000cf28 pc=000000000045a4e0..000000000045a58f

0000d000 0000000000000014 0000cf28 FDE cie=0000cf28 pc=000000000045a590..000000000045a609

0000d018 0000000000000024 0000cf28 FDE cie=0000cf28 pc=000000000045a610..000000000045a83f
  DW_CFA_advance_loc2: 329 to 000000000045a759
  DW_CFA_def_cfa_offset: 16
  DW_CFA_offset: r3 (rbx) at cfa-16
  DW_CFA_advance_loc1: 205 to 000000000045a826
  DW_CFA_def_cfa_offset: 8
  DW_CFA_advance_loc: 10 to 000000000045a830
  DW_CFA_restore: r3 (rbx)
  DW_CFA_nop
  DW_CFA_nop
  DW_CFA_nop

0000d040 0000000000000014 0000cf28 FDE cie=0000cf28 pc=000000000045a840..000000000045a849

0000d058 0000000000000014 0000cf28 FDE cie=0000cf28 pc=000000000045a850..000000000045a85a

0000d070 0000000000000014 0000cf28 FDE cie=0000cf28 pc=000000000045a860..000000000045a869

0000d088 0000000000000014 0000cf28 FDE cie=0000cf28 pc=000000000045a870..000000000045a871

0000d0a0 0000000000000024 0000cf28 FDE cie=0000cf28 pc=000000000045a880..000000000045a8fc
  DW_CFA_advance_loc: 8 to 000000000045a888
  DW_CFA_def_cfa_offset: 16
  DW_CFA_offset: r6 (rbp) at cfa-16
  DW_CFA_advance_loc1: 111 to 000000000045a8f7
  DW_CFA_def_cfa_offset: 8
  DW_CFA_nop
  DW_CFA_nop
  DW_CFA_nop
  DW_CFA_nop
  DW_CFA_nop
  DW_CFA_nop
  DW_CFA_nop

0000d0c8 0000000000000014 0000cf28 FDE cie=0000cf28 pc=000000000045a900..000000000045a901

0000d0e0 0000000000000014 0000cf28 FDE cie=0000cf28 pc=000000000045a910..000000000045a97d

0000d0f8 0000000000000014 0000cf28 FDE cie=0000cf28 pc=000000000045a980..000000000045aa52

0000d110 0000000000000014 0000cf28 FDE cie=0000cf28 pc=000000000045aa60..000000000045ab1f

0000d128 0000000000000014 0000cf28 FDE cie=0000cf28 pc=000000000045ab20..000000000045ab4b

0000d140 0000000000000014 0000cf28 FDE cie=0000cf28 pc=000000000045ab50..000000000045ac96

0000d158 0000000000000054 0000cf28 FDE cie=0000cf28 pc=000000000045aca0..000000000045b0a3
  DW_CFA_advance_loc: 2 to 000000000045aca2
  DW_CFA_def_cfa_offset: 16
  DW_CFA_offset: r13 (r13) at cfa-16
  DW_CFA_advance_loc: 2 to 000000000045aca4
  DW_CFA_def_cfa_offset: 24
  DW_CFA_offset: r12 (r12) at cfa-24
  DW_CFA_advance_loc: 1 to 000000000045aca5
  DW_CFA_def_cfa_offset: 32
  DW_CFA_offset: r6 (rbp) at cfa-32
  DW_CFA_advance_loc: 4 to 000000000045aca9
  DW_CFA_def_cfa_offset: 40
  DW_CFA_offset: r3 (rbx) at cfa-40
  DW_CFA_advance_loc: 7 to 000000000045acb0
  DW_CFA_def_cfa_offset: 48
  DW_CFA_advance_loc2: 423 to 000000000045ae57
  DW_CFA_remember_state
  DW_CFA_def_cfa_offset: 40
  DW_CFA_advance_loc: 1 to 000000000045ae58
  DW_CFA_def_cfa_offset: 32
  DW_CFA_advance_loc: 1 to 000000000045ae59
  DW_CFA_def_cfa_offset: 24
  DW_CFA_advance_loc: 2 to 000000000045ae5b
  DW_CFA_def_cfa_offset: 16
  DW_CFA_advance_loc: 2 to 000000000045ae5d
  DW_CFA_def_cfa_offset: 8
  DW_CFA_advance_loc: 3 to 000000000045ae60
  DW_CFA_restore_state
  DW_CFA_advance_loc2: 401 to 000000000045aff1
  DW_CFA_remember_state
  DW_CFA_def_cfa_offset: 40
  DW_CFA_advance_loc: 1 to 000000000045aff2
  DW_CFA_def_cfa_offset: 32
  DW_CFA_advance_loc: 1 to 000000000045aff3
  DW_CFA_def_cfa_offset: 24
  DW_CFA_advance_loc: 2 to 000000000045aff5
  DW_CFA_def_cfa_offset: 16
  DW_CFA_advance_loc: 2 to 000000000045aff7
  DW_CFA_def_cfa_offset: 8
  DW_CFA_advance_loc: 9 to 000000000045b000
  DW_CFA_restore_state
  DW_CFA_nop

0000d1b0 0000000000000034 0000cf28 FDE cie=0000cf28 pc=000000000045b0b0..000000000045b36b
  DW_CFA_advance_loc: 2 to 000000000045b0b2
  DW_CFA_def_cfa_offset: 16
  DW_CFA_offset: r12 (r12) at cfa-16
  DW_CFA_advance_loc: 18 to 000000000045b0c4
  DW_CFA_def_cfa_offset: 24
  DW_CFA_offset: r6 (rbp) at cfa-24
  DW_CFA_advance_loc: 1 to 000000000045b0c5
  DW_CFA_def_cfa_offset: 32
  DW_CFA_offset: r3 (rbx) at cfa-32
  DW_CFA_advance_loc2: 609 to 000000000045b326
  DW_CFA_remember_state
  DW_CFA_def_cfa_offset: 24
  DW_CFA_advance_loc: 1 to 000000000045b327
  DW_CFA_def_cfa_offset: 16
  DW_CFA_advance_loc: 2 to 000000000045b329
  DW_CFA_def_cfa_offset: 8
  DW_CFA_advance_loc: 7 to 000000000045b330
  DW_CFA_restore_state
  DW_CFA_nop
  DW_CFA_nop
  DW_CFA_nop

0000d1e8 0000000000000014 ffffffff CIE
  Version:               1
  Augmentation:          ""
  Code alignment factor: 1
  Data alignment factor: -8
  Return address column: 16

  DW_CFA_def_cfa: r7 (rsp) ofs 8
  DW_CFA_offset: r16 (rip) at cfa-8
  DW_CFA_nop
  DW_CFA_nop
  DW_CFA_nop
  DW_CFA_nop
  DW_CFA_nop
  DW_CFA_nop

0000d200 000000000000006c 0000d1e8 FDE cie=0000d1e8 pc=000000000045b370..000000000045baac
  DW_CFA_advance_loc: 2 to 000000000045b372
  DW_CFA_def_cfa_offset: 16
  DW_CFA_offset: r15 (r15) at cfa-16
  DW_CFA_advance_loc: 7 to 000000000045b379
  DW_CFA_def_cfa_offset: 24
  DW_CFA_offset: r14 (r14) at cfa-24
  DW_CFA_advance_loc: 2 to 000000000045b37b
  DW_CFA_def_cfa_offset: 32
  DW_CFA_offset: r13 (r13) at cfa-32
  DW_CFA_advance_loc: 5 to 000000000045b380
  DW_CFA_def_cfa_offset: 40
  DW_CFA_offset: r12 (r12) at cfa-40
  DW_CFA_advance_loc: 1 to 000000000045b381
  DW_CFA_def_cfa_offset: 48
  DW_CFA_offset: r6 (rbp) at cfa-48
  DW_CFA_advance_loc: 4 to 000000000045b385
  DW_CFA_def_cfa_offset: 56
  DW_CFA_offset: r3 (rbx) at cfa-56
  DW_CFA_advance_loc: 10 to 000000000045b38f
  DW_CFA_def_cfa_offset: 4256
  DW_CFA_advance_loc2: 754 to 000000000045b681
  DW_CFA_def_cfa_offset: 4264
  DW_CFA_advance_loc: 20 to 000000000045b695
  DW_CFA_def_cfa_offset: 4272
  DW_CFA_advance_loc: 7 to 000000000045b69c
  DW_CFA_def_cfa_offset: 4280
  DW_CFA_advance_loc: 5 to 000000000045b6a1
  DW_CFA_def_cfa_offset: 4288
  DW_CFA_advance_loc: 28 to 000000000045b6bd
  DW_CFA_def_cfa_offset: 4256
  DW_CFA_advance_loc1: 234 to 000000000045b7a7
  DW_CFA_remember_state
  DW_CFA_def_cfa_offset: 56
  DW_CFA_advance_loc: 4 to 000000000045b7ab
  DW_CFA_def_cfa_offset: 48
  DW_CFA_advance_loc: 1 to 000000000045b7ac
  DW_CFA_def_cfa_offset: 40
  DW_CFA_advance_loc: 2 to 000000000045b7ae
  DW_CFA_def_cfa_offset: 32
  DW_CFA_advance_loc: 2 to 000000000045b7b0
  DW_CFA_def_cfa_offset: 24
  DW_CFA_advance_loc: 2 to 000000000045b7b2
  DW_CFA_def_cfa_offset: 16
  DW_CFA_advance_loc: 2 to 000000000045b7b4
  DW_CFA_def_cfa_offset: 8
  DW_CFA_advance_loc: 4 to 000000000045b7b8
  DW_CFA_restore_state
  DW_CFA_nop
  DW_CFA_nop
  DW_CFA_nop
  DW_CFA_nop
  DW_CFA_nop
  DW_CFA_nop
  DW_CFA_nop

0000d270 0000000000000014 ffffffff CIE
  Version:               1
  Augmentation:          ""
  Code alignment factor: 1
  Data alignment factor: -8
  Return address column: 16

  DW_CFA_def_cfa: r7 (rsp) ofs 8
  DW_CFA_offset: r16 (rip) at cfa-8
  DW_CFA_nop
  DW_CFA_nop
  DW_CFA_nop
  DW_CFA_nop
  DW_CFA_nop
  DW_CFA_nop

0000d288 0000000000000054 0000d270 FDE cie=0000d270 pc=000000000045bab0..000000000045bc62
  DW_CFA_advance_loc: 2 to 000000000045bab2
  DW_CFA_def_cfa_offset: 16
  DW_CFA_offset: r15 (r15) at cfa-16
  DW_CFA_advance_loc: 10 to 000000000045babc
  DW_CFA_def_cfa_offset: 24
  DW_CFA_offset: r14 (r14) at cfa-24
  DW_CFA_advance_loc: 6 to 000000000045bac2
  DW_CFA_def_cfa_offset: 32
  DW_CFA_offset: r13 (r13) at cfa-32
  DW_CFA_advance_loc: 2 to 000000000045bac4
  DW_CFA_def_cfa_offset: 40
  DW_CFA_offset: r12 (r12) at cfa-40
  DW_CFA_advance_loc: 1 to 000000000045bac5
  DW_CFA_def_cfa_offset: 48
  DW_CFA_offset: r6 (rbp) at cfa-48
  DW_CFA_advance_loc: 1 to 000000000045bac6
  DW_CFA_def_cfa_offset: 56
  DW_CFA_offset: r3 (rbx) at cfa-56
  DW_CFA_advance_loc: 4 to 000000000045baca
  DW_CFA_def_cfa_offset: 80
  DW_CFA_advance_loc2: 314 to 000000000045bc04
  DW_CFA_remember_state
  DW_CFA_def_cfa_offset: 56
  DW_CFA_advance_loc: 4 to 000000000045bc08
  DW_CFA_def_cfa_offset: 48
  DW_CFA_advance_loc: 1 to 000000000045bc09
  DW_CFA_def_cfa_offset: 40
  DW_CFA_advance_loc: 2 to 000000000045bc0b
  DW_CFA_def_cfa_offset: 32
  DW_CFA_advance_loc: 2 to 000000000045bc0d
  DW_CFA_def_cfa_offset: 24
  DW_CFA_advance_loc: 2 to 000000000045bc0f
  DW_CFA_def_cfa_offset: 16
  DW_CFA_advance_loc: 2 to 000000000045bc11
  DW_CFA_def_cfa_offset: 8
  DW_CFA_advance_loc: 7 to 000000000045bc18
  DW_CFA_restore_state
  DW_CFA_nop
  DW_CFA_nop
  DW_CFA_nop
  DW_CFA_nop
  DW_CFA_nop

0000d2e0 0000000000000054 0000d270 FDE cie=0000d270 pc=000000000045bc70..000000000045bde9
  DW_CFA_advance_loc: 2 to 000000000045bc72
  DW_CFA_def_cfa_offset: 16
  DW_CFA_offset: r15 (r15) at cfa-16
  DW_CFA_advance_loc: 2 to 000000000045bc74
  DW_CFA_def_cfa_offset: 24
  DW_CFA_offset: r14 (r14) at cfa-24
  DW_CFA_advance_loc: 2 to 000000000045bc76
  DW_CFA_def_cfa_offset: 32
  DW_CFA_offset: r13 (r13) at cfa-32
  DW_CFA_advance_loc: 2 to 000000000045bc78
  DW_CFA_def_cfa_offset: 40
  DW_CFA_offset: r12 (r12) at cfa-40
  DW_CFA_advance_loc: 1 to 000000000045bc79
  DW_CFA_def_cfa_offset: 48
  DW_CFA_offset: r6 (rbp) at cfa-48
  DW_CFA_advance_loc: 1 to 000000000045bc7a
  DW_CFA_def_cfa_offset: 56
  DW_CFA_offset: r3 (rbx) at cfa-56
  DW_CFA_advance_loc: 4 to 000000000045bc7e
  DW_CFA_def_cfa_offset: 80
  DW_CFA_advance_loc2: 275 to 000000000045bd91
  DW_CFA_remember_state
  DW_CFA_def_cfa_offset: 56
  DW_CFA_advance_loc: 4 to 000000000045bd95
  DW_CFA_def_cfa_offset: 48
  DW_CFA_advance_loc: 1 to 000000000045bd96
  DW_CFA_def_cfa_offset: 40
  DW_CFA_advance_loc: 2 to 000000000045bd98
  DW_CFA_def_cfa_offset: 32
  DW_CFA_advance_loc: 2 to 000000000045bd9a
  DW_CFA_def_cfa_offset: 24
  DW_CFA_advance_loc: 2 to 000000000045bd9c
  DW_CFA_def_cfa_offset: 16
  DW_CFA_advance_loc: 2 to 000000000045bd9e
  DW_CFA_def_cfa_offset: 8
  DW_CFA_advance_loc: 2 to 000000000045bda0
  DW_CFA_restore_state
  DW_CFA_nop
  DW_CFA_nop
  DW_CFA_nop
  DW_CFA_nop
  DW_CFA_nop

0000d338 0000000000000014 0000d270 FDE cie=0000d270 pc=000000000045bdf0..000000000045be01

0000d350 0000000000000014 ffffffff CIE
  Version:               1
  Augmentation:          ""
  Code alignment factor: 1
  Data alignment factor: -8
  Return address column: 16

  DW_CFA_def_cfa: r7 (rsp) ofs 8
  DW_CFA_offset: r16 (rip) at cfa-8
  DW_CFA_nop
  DW_CFA_nop
  DW_CFA_nop
  DW_CFA_nop
  DW_CFA_nop
  DW_CFA_nop

0000d368 0000000000000014 0000d350 FDE cie=0000d350 pc=000000000045be10..000000000045be3a

0000d380 0000000000000014 0000d350 FDE cie=0000d350 pc=000000000045be40..000000000045be95

0000d398 0000000000000014 0000d350 FDE cie=0000d350 pc=000000000045bea0..000000000045bef9

0000d3b0 0000000000000014 0000d350 FDE cie=0000d350 pc=000000000045bf00..000000000045bf46

0000d3c8 0000000000000014 0000d350 FDE cie=0000d350 pc=000000000045bf50..000000000045bf8b

0000d3e0 0000000000000014 0000d350 FDE cie=0000d350 pc=000000000045bf90..000000000045c1f4

0000d3f8 0000000000000014 0000d350 FDE cie=0000d350 pc=000000000045c200..000000000045c33e

0000d410 0000000000000014 0000d350 FDE cie=0000d350 pc=000000000045c340..000000000045c387

0000d428 0000000000000014 0000d350 FDE cie=0000d350 pc=000000000045c390..000000000045c3b8

0000d440 0000000000000014 0000d350 FDE cie=0000d350 pc=000000000045c3c0..000000000045c61e

0000d458 0000000000000014 0000d350 FDE cie=0000d350 pc=000000000045c620..000000000045c635

0000d470 0000000000000014 0000d350 FDE cie=0000d350 pc=000000000045c640..000000000045c782

0000d488 0000000000000014 ffffffff CIE
  Version:               1
  Augmentation:          ""
  Code alignment factor: 1
  Data alignment factor: -8
  Return address column: 16

  DW_CFA_def_cfa: r7 (rsp) ofs 8
  DW_CFA_offset: r16 (rip) at cfa-8
  DW_CFA_nop
  DW_CFA_nop
  DW_CFA_nop
  DW_CFA_nop
  DW_CFA_nop
  DW_CFA_nop

0000d4a0 000000000000004c 0000d488 FDE cie=0000d488 pc=000000000045c790..000000000045c882
  DW_CFA_advance_loc: 5 to 000000000045c795
  DW_CFA_def_cfa_offset: 16
  DW_CFA_offset: r13 (r13) at cfa-16
  DW_CFA_advance_loc: 8 to 000000000045c79d
  DW_CFA_def_cfa_offset: 24
  DW_CFA_offset: r12 (r12) at cfa-24
  DW_CFA_advance_loc: 4 to 000000000045c7a1
  DW_CFA_def_cfa_offset: 32
  DW_CFA_offset: r6 (rbp) at cfa-32
  DW_CFA_advance_loc: 1 to 000000000045c7a2
  DW_CFA_def_cfa_offset: 40
  DW_CFA_offset: r3 (rbx) at cfa-40
  DW_CFA_advance_loc1: 120 to 000000000045c81a
  DW_CFA_remember_state
  DW_CFA_def_cfa_offset: 32
  DW_CFA_advance_loc: 1 to 000000000045c81b
  DW_CFA_def_cfa_offset: 24
  DW_CFA_advance_loc: 2 to 000000000045c81d
  DW_CFA_def_cfa_offset: 16
  DW_CFA_advance_loc: 2 to 000000000045c81f
  DW_CFA_def_cfa_offset: 8
  DW_CFA_advance_loc: 9 to 000000000045c828
  DW_CFA_restore_state
  DW_CFA_advance_loc1: 73 to 000000000045c871
  DW_CFA_def_cfa_offset: 32
  DW_CFA_advance_loc: 8 to 000000000045c879
  DW_CFA_def_cfa_offset: 24
  DW_CFA_advance_loc: 2 to 000000000045c87b
  DW_CFA_def_cfa_offset: 16
  DW_CFA_advance_loc: 2 to 000000000045c87d
  DW_CFA_def_cfa_offset: 8
  DW_CFA_nop
  DW_CFA_nop
  DW_CFA_nop
  DW_CFA_nop
  DW_CFA_nop
  DW_CFA_nop
  DW_CFA_nop

0000d4f0 0000000000000054 0000d488 FDE cie=0000d488 pc=000000000045c890..000000000045c99e
  DW_CFA_advance_loc: 2 to 000000000045c892
  DW_CFA_def_cfa_offset: 16
  DW_CFA_offset: r15 (r15) at cfa-16
  DW_CFA_advance_loc: 2 to 000000000045c894
  DW_CFA_def_cfa_offset: 24
  DW_CFA_offset: r14 (r14) at cfa-24
  DW_CFA_advance_loc: 2 to 000000000045c896
  DW_CFA_def_cfa_offset: 32
  DW_CFA_offset: r13 (r13) at cfa-32
  DW_CFA_advance_loc: 5 to 000000000045c89b
  DW_CFA_def_cfa_offset: 40
  DW_CFA_offset: r12 (r12) at cfa-40
  DW_CFA_advance_loc: 4 to 000000000045c89f
  DW_CFA_def_cfa_offset: 48
  DW_CFA_offset: r6 (rbp) at cfa-48
  DW_CFA_advance_loc: 4 to 000000000045c8a3
  DW_CFA_def_cfa_offset: 56
  DW_CFA_offset: r3 (rbx) at cfa-56
  DW_CFA_advance_loc: 7 to 000000000045c8aa
  DW_CFA_def_cfa_offset: 80
  DW_CFA_advance_loc1: 150 to 000000000045c940
  DW_CFA_remember_state
  DW_CFA_def_cfa_offset: 56
  DW_CFA_advance_loc: 1 to 000000000045c941
  DW_CFA_def_cfa_offset: 48
  DW_CFA_advance_loc: 1 to 000000000045c942
  DW_CFA_def_cfa_offset: 40
  DW_CFA_advance_loc: 2 to 000000000045c944
  DW_CFA_def_cfa_offset: 32
  DW_CFA_advance_loc: 2 to 000000000045c946
  DW_CFA_def_cfa_offset: 24
  DW_CFA_advance_loc: 2 to 000000000045c948
  DW_CFA_def_cfa_offset: 16
  DW_CFA_advance_loc: 2 to 000000000045c94a
  DW_CFA_def_cfa_offset: 8
  DW_CFA_advance_loc: 6 to 000000000045c950
  DW_CFA_restore_state
  DW_CFA_nop
  DW_CFA_nop
  DW_CFA_nop
  DW_CFA_nop
  DW_CFA_nop
  DW_CFA_nop

0000d548 0000000000000054 0000d488 FDE cie=0000d488 pc=000000000045c9a0..000000000045cac9
  DW_CFA_advance_loc: 2 to 000000000045c9a2
  DW_CFA_def_cfa_offset: 16
  DW_CFA_offset: r15 (r15) at cfa-16
  DW_CFA_advance_loc: 5 to 000000000045c9a7
  DW_CFA_def_cfa_offset: 24
  DW_CFA_offset: r14 (r14) at cfa-24
  DW_CFA_advance_loc: 5 to 000000000045c9ac
  DW_CFA_def_cfa_offset: 32
  DW_CFA_offset: r13 (r13) at cfa-32
  DW_CFA_advance_loc: 5 to 000000000045c9b1
  DW_CFA_def_cfa_offset: 40
  DW_CFA_offset: r12 (r12) at cfa-40
  DW_CFA_advance_loc: 4 to 000000000045c9b5
  DW_CFA_def_cfa_offset: 48
  DW_CFA_offset: r6 (rbp) at cfa-48
  DW_CFA_advance_loc: 1 to 000000000045c9b6
  DW_CFA_def_cfa_offset: 56
  DW_CFA_offset: r3 (rbx) at cfa-56
  DW_CFA_advance_loc: 4 to 000000000045c9ba
  DW_CFA_def_cfa_offset: 96
  DW_CFA_advance_loc1: 167 to 000000000045ca61
  DW_CFA_remember_state
  DW_CFA_def_cfa_offset: 56
  DW_CFA_advance_loc: 1 to 000000000045ca62
  DW_CFA_def_cfa_offset: 48
  DW_CFA_advance_loc: 1 to 000000000045ca63
  DW_CFA_def_cfa_offset: 40
  DW_CFA_advance_loc: 2 to 000000000045ca65
  DW_CFA_def_cfa_offset: 32
  DW_CFA_advance_loc: 2 to 000000000045ca67
  DW_CFA_def_cfa_offset: 24
  DW_CFA_advance_loc: 2 to 000000000045ca69
  DW_CFA_def_cfa_offset: 16
  DW_CFA_advance_loc: 2 to 000000000045ca6b
  DW_CFA_def_cfa_offset: 8
  DW_CFA_advance_loc: 5 to 000000000045ca70
  DW_CFA_restore_state
  DW_CFA_nop
  DW_CFA_nop
  DW_CFA_nop
  DW_CFA_nop
  DW_CFA_nop
  DW_CFA_nop

0000d5a0 0000000000000014 ffffffff CIE
  Version:               1
  Augmentation:          ""
  Code alignment factor: 1
  Data alignment factor: -8
  Return address column: 16

  DW_CFA_def_cfa: r7 (rsp) ofs 8
  DW_CFA_offset: r16 (rip) at cfa-8
  DW_CFA_nop
  DW_CFA_nop
  DW_CFA_nop
  DW_CFA_nop
  DW_CFA_nop
  DW_CFA_nop

0000d5b8 000000000000006c 0000d5a0 FDE cie=0000d5a0 pc=000000000045cad0..000000000045d22e
  DW_CFA_advance_loc: 2 to 000000000045cad2
  DW_CFA_def_cfa_offset: 16
  DW_CFA_offset: r15 (r15) at cfa-16
  DW_CFA_advance_loc: 2 to 000000000045cad4
  DW_CFA_def_cfa_offset: 24
  DW_CFA_offset: r14 (r14) at cfa-24
  DW_CFA_advance_loc: 5 to 000000000045cad9
  DW_CFA_def_cfa_offset: 32
  DW_CFA_offset: r13 (r13) at cfa-32
  DW_CFA_advance_loc: 2 to 000000000045cadb
  DW_CFA_def_cfa_offset: 40
  DW_CFA_offset: r12 (r12) at cfa-40
  DW_CFA_advance_loc: 6 to 000000000045cae1
  DW_CFA_def_cfa_offset: 48
  DW_CFA_offset: r6 (rbp) at cfa-48
  DW_CFA_advance_loc: 1 to 000000000045cae2
  DW_CFA_def_cfa_offset: 56
  DW_CFA_offset: r3 (rbx) at cfa-56
  DW_CFA_advance_loc: 4 to 000000000045cae6
  DW_CFA_def_cfa_offset: 112
  DW_CFA_advance_loc1: 100 to 000000000045cb4a
  DW_CFA_remember_state
  DW_CFA_def_cfa_offset: 56
  DW_CFA_advance_loc: 1 to 000000000045cb4b
  DW_CFA_def_cfa_offset: 48
  DW_CFA_advance_loc: 1 to 000000000045cb4c
  DW_CFA_def_cfa_offset: 40
  DW_CFA_advance_loc: 2 to 000000000045cb4e
  DW_CFA_def_cfa_offset: 32
  DW_CFA_advance_loc: 2 to 000000000045cb50
  DW_CFA_def_cfa_offset: 24
  DW_CFA_advance_loc: 2 to 000000000045cb52
  DW_CFA_def_cfa_offset: 16
  DW_CFA_advance_loc: 2 to 000000000045cb54
  DW_CFA_def_cfa_offset: 8
  DW_CFA_advance_loc: 4 to 000000000045cb58
  DW_CFA_restore_state
  DW_CFA_advance_loc2: 361 to 000000000045ccc1
  DW_CFA_remember_state
  DW_CFA_def_cfa_offset: 56
  DW_CFA_advance_loc: 8 to 000000000045ccc9
  DW_CFA_def_cfa_offset: 48
  DW_CFA_advance_loc: 1 to 000000000045ccca
  DW_CFA_def_cfa_offset: 40
  DW_CFA_advance_loc: 2 to 000000000045cccc
  DW_CFA_def_cfa_offset: 32
  DW_CFA_advance_loc: 2 to 000000000045ccce
  DW_CFA_def_cfa_offset: 24
  DW_CFA_advance_loc: 2 to 000000000045ccd0
  DW_CFA_def_cfa_offset: 16
  DW_CFA_advance_loc: 2 to 000000000045ccd2
  DW_CFA_def_cfa_offset: 8
  DW_CFA_advance_loc: 14 to 000000000045cce0
  DW_CFA_restore_state
  DW_CFA_nop
  DW_CFA_nop
  DW_CFA_nop
  DW_CFA_nop

0000d628 0000000000000074 0000d5a0 FDE cie=0000d5a0 pc=000000000045d230..000000000045d3c7
  DW_CFA_advance_loc: 2 to 000000000045d232
  DW_CFA_def_cfa_offset: 16
  DW_CFA_offset: r15 (r15) at cfa-16
  DW_CFA_advance_loc: 2 to 000000000045d234
  DW_CFA_def_cfa_offset: 24
  DW_CFA_offset: r14 (r14) at cfa-24
  DW_CFA_advance_loc: 2 to 000000000045d236
  DW_CFA_def_cfa_offset: 32
  DW_CFA_offset: r13 (r13) at cfa-32
  DW_CFA_advance_loc: 2 to 000000000045d238
  DW_CFA_def_cfa_offset: 40
  DW_CFA_offset: r12 (r12) at cfa-40
  DW_CFA_advance_loc: 1 to 000000000045d239
  DW_CFA_def_cfa_offset: 48
  DW_CFA_offset: r6 (rbp) at cfa-48
  DW_CFA_advance_loc: 1 to 000000000045d23a
  DW_CFA_def_cfa_offset: 56
  DW_CFA_offset: r3 (rbx) at cfa-56
  DW_CFA_advance_loc: 4 to 000000000045d23e
  DW_CFA_def_cfa_offset: 128
  DW_CFA_advance_loc1: 244 to 000000000045d332
  DW_CFA_def_cfa_offset: 136
  DW_CFA_advance_loc: 7 to 000000000045d339
  DW_CFA_def_cfa_offset: 144
  DW_CFA_advance_loc: 23 to 000000000045d350
  DW_CFA_def_cfa_offset: 136
  DW_CFA_advance_loc: 1 to 000000000045d351
  DW_CFA_def_cfa_offset: 128
  DW_CFA_advance_loc: 20 to 000000000045d365
  DW_CFA_remember_state
  DW_CFA_def_cfa_offset: 56
  DW_CFA_advance_loc: 1 to 000000000045d366
  DW_CFA_def_cfa_offset: 48
  DW_CFA_advance_loc: 1 to 000000000045d367
  DW_CFA_def_cfa_offset: 40
  DW_CFA_advance_loc: 2 to 000000000045d369
  DW_CFA_def_cfa_offset: 32
  DW_CFA_advance_loc: 2 to 000000000045d36b
  DW_CFA_def_cfa_offset: 24
  DW_CFA_advance_loc: 2 to 000000000045d36d
  DW_CFA_def_cfa_offset: 16
  DW_CFA_advance_loc: 2 to 000000000045d36f
  DW_CFA_def_cfa_offset: 8
  DW_CFA_advance_loc: 1 to 000000000045d370
  DW_CFA_restore_state
  DW_CFA_advance_loc: 56 to 000000000045d3a8
  DW_CFA_def_cfa_offset: 136
  DW_CFA_advance_loc: 1 to 000000000045d3a9
  DW_CFA_def_cfa_offset: 144
  DW_CFA_advance_loc: 22 to 000000000045d3bf
  DW_CFA_def_cfa_offset: 136
  DW_CFA_advance_loc: 1 to 000000000045d3c0
  DW_CFA_def_cfa_offset: 128
  DW_CFA_nop
  DW_CFA_nop
  DW_CFA_nop
  DW_CFA_nop
  DW_CFA_nop

0000d6a0 0000000000000014 ffffffff CIE
  Version:               1
  Augmentation:          ""
  Code alignment factor: 1
  Data alignment factor: -8
  Return address column: 16

  DW_CFA_def_cfa: r7 (rsp) ofs 8
  DW_CFA_offset: r16 (rip) at cfa-8
  DW_CFA_nop
  DW_CFA_nop
  DW_CFA_nop
  DW_CFA_nop
  DW_CFA_nop
  DW_CFA_nop

0000d6b8 0000000000000014 0000d6a0 FDE cie=0000d6a0 pc=000000000045d3d0..000000000045d3f3

0000d6d0 000000000000003c 0000d6a0 FDE cie=0000d6a0 pc=000000000045d400..000000000045d44c
  DW_CFA_advance_loc: 1 to 000000000045d401
  DW_CFA_def_cfa_offset: 16
  DW_CFA_offset: r6 (rbp) at cfa-16
  DW_CFA_advance_loc: 1 to 000000000045d402
  DW_CFA_def_cfa_offset: 24
  DW_CFA_offset: r3 (rbx) at cfa-24
  DW_CFA_advance_loc: 7 to 000000000045d409
  DW_CFA_def_cfa_offset: 32
  DW_CFA_advance_loc: 49 to 000000000045d43a
  DW_CFA_remember_state
  DW_CFA_def_cfa_offset: 24
  DW_CFA_advance_loc: 1 to 000000000045d43b
  DW_CFA_def_cfa_offset: 16
  DW_CFA_advance_loc: 1 to 000000000045d43c
  DW_CFA_def_cfa_offset: 8
  DW_CFA_advance_loc: 4 to 000000000045d440
  DW_CFA_restore_state
  DW_CFA_advance_loc: 4 to 000000000045d444
  DW_CFA_def_cfa_offset: 24
  DW_CFA_advance_loc: 6 to 000000000045d44a
  DW_CFA_def_cfa_offset: 16
  DW_CFA_advance_loc: 1 to 000000000045d44b
  DW_CFA_def_cfa_offset: 8
  DW_CFA_nop
  DW_CFA_nop
  DW_CFA_nop
  DW_CFA_nop
  DW_CFA_nop
  DW_CFA_nop

0000d710 0000000000000014 0000d6a0 FDE cie=0000d6a0 pc=000000000045d450..000000000045d486

0000d728 000000000000005c 0000d6a0 FDE cie=0000d6a0 pc=000000000045d490..000000000045d5b9
  DW_CFA_advance_loc: 2 to 000000000045d492
  DW_CFA_def_cfa_offset: 16
  DW_CFA_offset: r14 (r14) at cfa-16
  DW_CFA_advance_loc: 2 to 000000000045d494
  DW_CFA_def_cfa_offset: 24
  DW_CFA_offset: r13 (r13) at cfa-24
  DW_CFA_advance_loc: 2 to 000000000045d496
  DW_CFA_def_cfa_offset: 32
  DW_CFA_offset: r12 (r12) at cfa-32
  DW_CFA_advance_loc: 1 to 000000000045d497
  DW_CFA_def_cfa_offset: 40
  DW_CFA_offset: r6 (rbp) at cfa-40
  DW_CFA_advance_loc: 3 to 000000000045d49a
  DW_CFA_def_cfa_offset: 48
  DW_CFA_offset: r3 (rbx) at cfa-48
  DW_CFA_advance_loc: 4 to 000000000045d49e
  DW_CFA_def_cfa_offset: 64
  DW_CFA_advance_loc1: 194 to 000000000045d560
  DW_CFA_def_cfa_offset: 72
  DW_CFA_advance_loc: 8 to 000000000045d568
  DW_CFA_def_cfa_offset: 80
  DW_CFA_advance_loc: 15 to 000000000045d577
  DW_CFA_def_cfa_offset: 88
  DW_CFA_advance_loc: 10 to 000000000045d581
  DW_CFA_def_cfa_offset: 96
  DW_CFA_advance_loc: 13 to 000000000045d58e
  DW_CFA_def_cfa_offset: 64
  DW_CFA_advance_loc: 29 to 000000000045d5ab
  DW_CFA_remember_state
  DW_CFA_def_cfa_offset: 48
  DW_CFA_advance_loc: 1 to 000000000045d5ac
  DW_CFA_def_cfa_offset: 40
  DW_CFA_advance_loc: 1 to 000000000045d5ad
  DW_CFA_def_cfa_offset: 32
  DW_CFA_advance_loc: 2 to 000000000045d5af
  DW_CFA_def_cfa_offset: 24
  DW_CFA_advance_loc: 2 to 000000000045d5b1
  DW_CFA_def_cfa_offset: 16
  DW_CFA_advance_loc: 2 to 000000000045d5b3
  DW_CFA_def_cfa_offset: 8
  DW_CFA_advance_loc: 1 to 000000000045d5b4
  DW_CFA_restore_state
  DW_CFA_nop
  DW_CFA_nop
  DW_CFA_nop
  DW_CFA_nop
  DW_CFA_nop
  DW_CFA_nop
  DW_CFA_nop

0000d788 000000000000005c 0000d6a0 FDE cie=0000d6a0 pc=000000000045d5c0..000000000045d7c7
  DW_CFA_advance_loc: 1 to 000000000045d5c1
  DW_CFA_def_cfa_offset: 16
  DW_CFA_offset: r6 (rbp) at cfa-16
  DW_CFA_advance_loc: 6 to 000000000045d5c7
  DW_CFA_def_cfa_offset: 24
  DW_CFA_offset: r3 (rbx) at cfa-24
  DW_CFA_advance_loc: 4 to 000000000045d5cb
  DW_CFA_def_cfa_offset: 48
  DW_CFA_advance_loc2: 382 to 000000000045d749
  DW_CFA_remember_state
  DW_CFA_def_cfa_offset: 24
  DW_CFA_advance_loc: 1 to 000000000045d74a
  DW_CFA_def_cfa_offset: 16
  DW_CFA_advance_loc: 1 to 000000000045d74b
  DW_CFA_def_cfa_offset: 8
  DW_CFA_advance_loc: 5 to 000000000045d750
  DW_CFA_restore_state
  DW_CFA_advance_loc: 4 to 000000000045d754
  DW_CFA_def_cfa_offset: 56
  DW_CFA_advance_loc: 2 to 000000000045d756
  DW_CFA_def_cfa_offset: 64
  DW_CFA_advance_loc: 5 to 000000000045d75b
  DW_CFA_def_cfa_offset: 72
  DW_CFA_advance_loc: 5 to 000000000045d760
  DW_CFA_def_cfa_offset: 80
  DW_CFA_advance_loc: 37 to 000000000045d785
  DW_CFA_def_cfa_offset: 48
  DW_CFA_advance_loc: 15 to 000000000045d794
  DW_CFA_remember_state
  DW_CFA_def_cfa_offset: 56
  DW_CFA_advance_loc: 10 to 000000000045d79e
  DW_CFA_def_cfa_offset: 64
  DW_CFA_advance_loc: 10 to 000000000045d7a8
  DW_CFA_def_cfa_offset: 72
  DW_CFA_advance_loc: 5 to 000000000045d7ad
  DW_CFA_def_cfa_offset: 80
  DW_CFA_advance_loc: 3 to 000000000045d7b0
  DW_CFA_restore_state
  DW_CFA_advance_loc: 4 to 000000000045d7b4
  DW_CFA_remember_state
  DW_CFA_def_cfa_offset: 56
  DW_CFA_advance_loc: 2 to 000000000045d7b6
  DW_CFA_def_cfa_offset: 64
  DW_CFA_advance_loc: 5 to 000000000045d7bb
  DW_CFA_def_cfa_offset: 72
  DW_CFA_advance_loc: 5 to 000000000045d7c0
  DW_CFA_def_cfa_offset: 80
  DW_CFA_advance_loc: 2 to 000000000045d7c2
  DW_CFA_restore_state

0000d7e8 000000000000001c 0000d6a0 FDE cie=0000d6a0 pc=000000000045d7d0..000000000045d7ed
  DW_CFA_advance_loc: 4 to 000000000045d7d4
  DW_CFA_def_cfa_offset: 32
  DW_CFA_advance_loc: 24 to 000000000045d7ec
  DW_CFA_def_cfa_offset: 8
  DW_CFA_nop
  DW_CFA_nop

0000d808 0000000000000024 0000d6a0 FDE cie=0000d6a0 pc=000000000045d7f0..000000000045da55
  DW_CFA_advance_loc: 4 to 000000000045d7f4
  DW_CFA_def_cfa_offset: 64
  DW_CFA_advance_loc2: 438 to 000000000045d9aa
  DW_CFA_remember_state
  DW_CFA_def_cfa_offset: 8
  DW_CFA_advance_loc: 6 to 000000000045d9b0
  DW_CFA_restore_state
  DW_CFA_nop
  DW_CFA_nop
  DW_CFA_nop
  DW_CFA_nop
  DW_CFA_nop

0000d830 0000000000000044 0000d6a0 FDE cie=0000d6a0 pc=000000000045da60..000000000045dd76
  DW_CFA_advance_loc: 2 to 000000000045da62
  DW_CFA_def_cfa_offset: 16
  DW_CFA_offset: r13 (r13) at cfa-16
  DW_CFA_advance_loc: 16 to 000000000045da72
  DW_CFA_def_cfa_offset: 24
  DW_CFA_offset: r12 (r12) at cfa-24
  DW_CFA_advance_loc: 16 to 000000000045da82
  DW_CFA_def_cfa_offset: 32
  DW_CFA_offset: r6 (rbp) at cfa-32
  DW_CFA_advance_loc: 13 to 000000000045da8f
  DW_CFA_def_cfa_offset: 40
  DW_CFA_offset: r3 (rbx) at cfa-40
  DW_CFA_advance_loc: 17 to 000000000045daa0
  DW_CFA_def_cfa_offset: 304
  DW_CFA_advance_loc2: 711 to 000000000045dd67
  DW_CFA_remember_state
  DW_CFA_def_cfa_offset: 40
  DW_CFA_advance_loc: 4 to 000000000045dd6b
  DW_CFA_def_cfa_offset: 32
  DW_CFA_advance_loc: 1 to 000000000045dd6c
  DW_CFA_def_cfa_offset: 24
  DW_CFA_advance_loc: 2 to 000000000045dd6e
  DW_CFA_def_cfa_offset: 16
  DW_CFA_advance_loc: 2 to 000000000045dd70
  DW_CFA_def_cfa_offset: 8
  DW_CFA_advance_loc: 1 to 000000000045dd71
  DW_CFA_restore_state
  DW_CFA_nop
  DW_CFA_nop
  DW_CFA_nop
  DW_CFA_nop

0000d878 0000000000000014 0000d6a0 FDE cie=0000d6a0 pc=000000000045dd80..000000000045ddd4

0000d890 0000000000000054 0000d6a0 FDE cie=0000d6a0 pc=000000000045dde0..000000000045e0b7
  DW_CFA_advance_loc: 4 to 000000000045dde4
  DW_CFA_def_cfa_offset: 64
  DW_CFA_advance_loc2: 463 to 000000000045dfb3
  DW_CFA_remember_state
  DW_CFA_def_cfa_offset: 8
  DW_CFA_advance_loc: 5 to 000000000045dfb8
  DW_CFA_restore_state
  DW_CFA_advance_loc1: 112 to 000000000045e028
  DW_CFA_def_cfa_offset: 72
  DW_CFA_advance_loc: 11 to 000000000045e033
  DW_CFA_def_cfa_offset: 80
  DW_CFA_advance_loc: 5 to 000000000045e038
  DW_CFA_def_cfa_offset: 88
  DW_CFA_advance_loc: 5 to 000000000045e03d
  DW_CFA_def_cfa_offset: 96
  DW_CFA_advance_loc: 21 to 000000000045e052
  DW_CFA_def_cfa_offset: 64
  DW_CFA_advance_loc: 18 to 000000000045e064
  DW_CFA_remember_state
  DW_CFA_def_cfa_offset: 72
  DW_CFA_advance_loc: 11 to 000000000045e06f
  DW_CFA_def_cfa_offset: 80
  DW_CFA_advance_loc: 5 to 000000000045e074
  DW_CFA_def_cfa_offset: 88
  DW_CFA_advance_loc: 5 to 000000000045e079
  DW_CFA_def_cfa_offset: 96
  DW_CFA_advance_loc: 7 to 000000000045e080
  DW_CFA_restore_state
  DW_CFA_advance_loc: 27 to 000000000045e09b
  DW_CFA_remember_state
  DW_CFA_def_cfa_offset: 72
  DW_CFA_advance_loc: 11 to 000000000045e0a6
  DW_CFA_def_cfa_offset: 80
  DW_CFA_advance_loc: 5 to 000000000045e0ab
  DW_CFA_def_cfa_offset: 88
  DW_CFA_advance_loc: 5 to 000000000045e0b0
  DW_CFA_def_cfa_offset: 96
  DW_CFA_advance_loc: 2 to 000000000045e0b2
  DW_CFA_restore_state
  DW_CFA_nop
  DW_CFA_nop
  DW_CFA_nop
  DW_CFA_nop
  DW_CFA_nop
  DW_CFA_nop
  DW_CFA_nop

0000d8e8 0000000000000014 ffffffff CIE
  Version:               1
  Augmentation:          ""
  Code alignment factor: 1
  Data alignment factor: -8
  Return address column: 16

  DW_CFA_def_cfa: r7 (rsp) ofs 8
  DW_CFA_offset: r16 (rip) at cfa-8
  DW_CFA_nop
  DW_CFA_nop
  DW_CFA_nop
  DW_CFA_nop
  DW_CFA_nop
  DW_CFA_nop

0000d900 0000000000000074 0000d8e8 FDE cie=0000d8e8 pc=000000000045e0c0..000000000045e2fc
  DW_CFA_advance_loc: 18 to 000000000045e0d2
  DW_CFA_def_cfa_offset: 16
  DW_CFA_offset: r15 (r15) at cfa-16
  DW_CFA_advance_loc: 2 to 000000000045e0d4
  DW_CFA_def_cfa_offset: 24
  DW_CFA_offset: r14 (r14) at cfa-24
  DW_CFA_advance_loc: 2 to 000000000045e0d6
  DW_CFA_def_cfa_offset: 32
  DW_CFA_offset: r13 (r13) at cfa-32
  DW_CFA_advance_loc: 2 to 000000000045e0d8
  DW_CFA_def_cfa_offset: 40
  DW_CFA_offset: r12 (r12) at cfa-40
  DW_CFA_advance_loc: 1 to 000000000045e0d9
  DW_CFA_def_cfa_offset: 48
  DW_CFA_offset: r6 (rbp) at cfa-48
  DW_CFA_advance_loc: 4 to 000000000045e0dd
  DW_CFA_def_cfa_offset: 56
  DW_CFA_offset: r3 (rbx) at cfa-56
  DW_CFA_advance_loc: 6 to 000000000045e0e3
  DW_CFA_def_cfa_offset: 80
  DW_CFA_advance_loc: 55 to 000000000045e11a
  DW_CFA_remember_state
  DW_CFA_def_cfa_offset: 56
  DW_CFA_advance_loc: 1 to 000000000045e11b
  DW_CFA_restore: r3 (rbx)
  DW_CFA_def_cfa_offset: 48
  DW_CFA_advance_loc: 1 to 000000000045e11c
  DW_CFA_restore: r6 (rbp)
  DW_CFA_def_cfa_offset: 40
  DW_CFA_advance_loc: 2 to 000000000045e11e
  DW_CFA_restore: r12 (r12)
  DW_CFA_def_cfa_offset: 32
  DW_CFA_advance_loc: 2 to 000000000045e120
  DW_CFA_restore: r13 (r13)
  DW_CFA_def_cfa_offset: 24
  DW_CFA_advance_loc: 2 to 000000000045e122
  DW_CFA_restore: r14 (r14)
  DW_CFA_def_cfa_offset: 16
  DW_CFA_advance_loc: 2 to 000000000045e124
  DW_CFA_restore: r15 (r15)
  DW_CFA_def_cfa_offset: 8
  DW_CFA_advance_loc: 12 to 000000000045e130
  DW_CFA_restore_state
  DW_CFA_advance_loc2: 432 to 000000000045e2e0
  DW_CFA_def_cfa_offset: 8
  DW_CFA_restore: r3 (rbx)
  DW_CFA_restore: r6 (rbp)
  DW_CFA_restore: r12 (r12)
  DW_CFA_restore: r13 (r13)
  DW_CFA_restore: r14 (r14)
  DW_CFA_restore: r15 (r15)
  DW_CFA_advance_loc: 16 to 000000000045e2f0
  DW_CFA_def_cfa_offset: 80
  DW_CFA_offset: r3 (rbx) at cfa-56
  DW_CFA_offset: r6 (rbp) at cfa-48
  DW_CFA_offset: r12 (r12) at cfa-40
  DW_CFA_offset: r13 (r13) at cfa-32
  DW_CFA_offset: r14 (r14) at cfa-24
  DW_CFA_offset: r15 (r15) at cfa-16
  DW_CFA_nop
  DW_CFA_nop
  DW_CFA_nop
  DW_CFA_nop
  DW_CFA_nop
  DW_CFA_nop
  DW_CFA_nop

0000d978 0000000000000014 0000d8e8 FDE cie=0000d8e8 pc=000000000045e300..000000000045e305

0000d990 0000000000000054 0000d8e8 FDE cie=0000d8e8 pc=000000000045e310..000000000045e5c1
  DW_CFA_advance_loc: 2 to 000000000045e312
  DW_CFA_def_cfa_offset: 16
  DW_CFA_offset: r13 (r13) at cfa-16
  DW_CFA_advance_loc: 2 to 000000000045e314
  DW_CFA_def_cfa_offset: 24
  DW_CFA_offset: r12 (r12) at cfa-24
  DW_CFA_advance_loc: 1 to 000000000045e315
  DW_CFA_def_cfa_offset: 32
  DW_CFA_offset: r6 (rbp) at cfa-32
  DW_CFA_advance_loc: 1 to 000000000045e316
  DW_CFA_def_cfa_offset: 40
  DW_CFA_offset: r3 (rbx) at cfa-40
  DW_CFA_advance_loc: 4 to 000000000045e31a
  DW_CFA_def_cfa_offset: 48
  DW_CFA_advance_loc2: 461 to 000000000045e4e7
  DW_CFA_remember_state
  DW_CFA_def_cfa_offset: 40
  DW_CFA_advance_loc: 4 to 000000000045e4eb
  DW_CFA_def_cfa_offset: 32
  DW_CFA_advance_loc: 1 to 000000000045e4ec
  DW_CFA_def_cfa_offset: 24
  DW_CFA_advance_loc: 2 to 000000000045e4ee
  DW_CFA_def_cfa_offset: 16
  DW_CFA_advance_loc: 2 to 000000000045e4f0
  DW_CFA_def_cfa_offset: 8
  DW_CFA_advance_loc: 8 to 000000000045e4f8
  DW_CFA_restore_state
  DW_CFA_advance_loc1: 122 to 000000000045e572
  DW_CFA_remember_state
  DW_CFA_def_cfa_offset: 40
  DW_CFA_advance_loc: 4 to 000000000045e576
  DW_CFA_def_cfa_offset: 32
  DW_CFA_advance_loc: 1 to 000000000045e577
  DW_CFA_def_cfa_offset: 24
  DW_CFA_advance_loc: 2 to 000000000045e579
  DW_CFA_def_cfa_offset: 16
  DW_CFA_advance_loc: 2 to 000000000045e57b
  DW_CFA_def_cfa_offset: 8
  DW_CFA_advance_loc: 5 to 000000000045e580
  DW_CFA_restore_state
  DW_CFA_nop
  DW_CFA_nop

0000d9e8 0000000000000014 ffffffff CIE
  Version:               1
  Augmentation:          ""
  Code alignment factor: 1
  Data alignment factor: -8
  Return address column: 16

  DW_CFA_def_cfa: r7 (rsp) ofs 8
  DW_CFA_offset: r16 (rip) at cfa-8
  DW_CFA_nop
  DW_CFA_nop
  DW_CFA_nop
  DW_CFA_nop
  DW_CFA_nop
  DW_CFA_nop

0000da00 000000000000006c 0000d9e8 FDE cie=0000d9e8 pc=000000000045e5d0..000000000045e6f9
  DW_CFA_advance_loc: 2 to 000000000045e5d2
  DW_CFA_def_cfa_offset: 16
  DW_CFA_offset: r15 (r15) at cfa-16
  DW_CFA_advance_loc: 5 to 000000000045e5d7
  DW_CFA_def_cfa_offset: 24
  DW_CFA_offset: r14 (r14) at cfa-24
  DW_CFA_advance_loc: 2 to 000000000045e5d9
  DW_CFA_def_cfa_offset: 32
  DW_CFA_offset: r13 (r13) at cfa-32
  DW_CFA_advance_loc: 2 to 000000000045e5db
  DW_CFA_def_cfa_offset: 40
  DW_CFA_offset: r12 (r12) at cfa-40
  DW_CFA_advance_loc: 4 to 000000000045e5df
  DW_CFA_def_cfa_offset: 48
  DW_CFA_offset: r6 (rbp) at cfa-48
  DW_CFA_advance_loc: 4 to 000000000045e5e3
  DW_CFA_def_cfa_offset: 56
  DW_CFA_offset: r3 (rbx) at cfa-56
  DW_CFA_advance_loc: 4 to 000000000045e5e7
  DW_CFA_def_cfa_offset: 96
  DW_CFA_advance_loc1: 193 to 000000000045e6a8
  DW_CFA_remember_state
  DW_CFA_def_cfa_offset: 56
  DW_CFA_advance_loc: 3 to 000000000045e6ab
  DW_CFA_def_cfa_offset: 48
  DW_CFA_advance_loc: 1 to 000000000045e6ac
  DW_CFA_def_cfa_offset: 40
  DW_CFA_advance_loc: 2 to 000000000045e6ae
  DW_CFA_def_cfa_offset: 32
  DW_CFA_advance_loc: 2 to 000000000045e6b0
  DW_CFA_def_cfa_offset: 24
  DW_CFA_advance_loc: 2 to 000000000045e6b2
  DW_CFA_def_cfa_offset: 16
  DW_CFA_advance_loc: 2 to 000000000045e6b4
  DW_CFA_def_cfa_offset: 8
  DW_CFA_advance_loc: 4 to 000000000045e6b8
  DW_CFA_restore_state
  DW_CFA_advance_loc: 41 to 000000000045e6e1
  DW_CFA_remember_state
  DW_CFA_def_cfa_offset: 56
  DW_CFA_advance_loc: 1 to 000000000045e6e2
  DW_CFA_def_cfa_offset: 48
  DW_CFA_advance_loc: 1 to 000000000045e6e3
  DW_CFA_def_cfa_offset: 40
  DW_CFA_advance_loc: 2 to 000000000045e6e5
  DW_CFA_def_cfa_offset: 32
  DW_CFA_advance_loc: 2 to 000000000045e6e7
  DW_CFA_def_cfa_offset: 24
  DW_CFA_advance_loc: 2 to 000000000045e6e9
  DW_CFA_def_cfa_offset: 16
  DW_CFA_advance_loc: 2 to 000000000045e6eb
  DW_CFA_def_cfa_offset: 8
  DW_CFA_advance_loc: 5 to 000000000045e6f0
  DW_CFA_restore_state
  DW_CFA_nop
  DW_CFA_nop
  DW_CFA_nop
  DW_CFA_nop
  DW_CFA_nop
  DW_CFA_nop

0000da70 0000000000000054 0000d9e8 FDE cie=0000d9e8 pc=000000000045e700..000000000045ec26
  DW_CFA_advance_loc: 2 to 000000000045e702
  DW_CFA_def_cfa_offset: 16
  DW_CFA_offset: r15 (r15) at cfa-16
  DW_CFA_advance_loc: 2 to 000000000045e704
  DW_CFA_def_cfa_offset: 24
  DW_CFA_offset: r14 (r14) at cfa-24
  DW_CFA_advance_loc: 2 to 000000000045e706
  DW_CFA_def_cfa_offset: 32
  DW_CFA_offset: r13 (r13) at cfa-32
  DW_CFA_advance_loc: 2 to 000000000045e708
  DW_CFA_def_cfa_offset: 40
  DW_CFA_offset: r12 (r12) at cfa-40
  DW_CFA_advance_loc: 1 to 000000000045e709
  DW_CFA_def_cfa_offset: 48
  DW_CFA_offset: r6 (rbp) at cfa-48
  DW_CFA_advance_loc: 1 to 000000000045e70a
  DW_CFA_def_cfa_offset: 56
  DW_CFA_offset: r3 (rbx) at cfa-56
  DW_CFA_advance_loc: 7 to 000000000045e711
  DW_CFA_def_cfa_offset: 384
  DW_CFA_advance_loc2: 797 to 000000000045ea2e
  DW_CFA_remember_state
  DW_CFA_def_cfa_offset: 56
  DW_CFA_advance_loc: 1 to 000000000045ea2f
  DW_CFA_def_cfa_offset: 48
  DW_CFA_advance_loc: 1 to 000000000045ea30
  DW_CFA_def_cfa_offset: 40
  DW_CFA_advance_loc: 2 to 000000000045ea32
  DW_CFA_def_cfa_offset: 32
  DW_CFA_advance_loc: 2 to 000000000045ea34
  DW_CFA_def_cfa_offset: 24
  DW_CFA_advance_loc: 2 to 000000000045ea36
  DW_CFA_def_cfa_offset: 16
  DW_CFA_advance_loc: 2 to 000000000045ea38
  DW_CFA_def_cfa_offset: 8
  DW_CFA_advance_loc: 8 to 000000000045ea40
  DW_CFA_restore_state
  DW_CFA_nop
  DW_CFA_nop
  DW_CFA_nop
  DW_CFA_nop

0000dac8 0000000000000014 ffffffff CIE
  Version:               1
  Augmentation:          ""
  Code alignment factor: 1
  Data alignment factor: -8
  Return address column: 16

  DW_CFA_def_cfa: r7 (rsp) ofs 8
  DW_CFA_offset: r16 (rip) at cfa-8
  DW_CFA_nop
  DW_CFA_nop
  DW_CFA_nop
  DW_CFA_nop
  DW_CFA_nop
  DW_CFA_nop

0000dae0 0000000000000014 0000dac8 FDE cie=0000dac8 pc=000000000045ec30..000000000045ec5f

0000daf8 0000000000000014 0000dac8 FDE cie=0000dac8 pc=000000000045ec60..000000000045ec99

0000db10 0000000000000024 0000dac8 FDE cie=0000dac8 pc=000000000045eca0..000000000045ecf9
  DW_CFA_advance_loc: 21 to 000000000045ecb5
  DW_CFA_def_cfa_offset: 16
  DW_CFA_offset: r3 (rbx) at cfa-16
  DW_CFA_advance_loc1: 66 to 000000000045ecf7
  DW_CFA_def_cfa_offset: 8
  DW_CFA_advance_loc: 1 to 000000000045ecf8
  DW_CFA_restore: r3 (rbx)
  DW_CFA_nop
  DW_CFA_nop
  DW_CFA_nop
  DW_CFA_nop
  DW_CFA_nop

0000db38 0000000000000014 0000dac8 FDE cie=0000dac8 pc=000000000045ed00..000000000045ed51

0000db50 0000000000000014 0000dac8 FDE cie=0000dac8 pc=000000000045ed60..000000000045ee61

0000db68 000000000000004c 0000dac8 FDE cie=0000dac8 pc=000000000045ee70..000000000045f0b5
  DW_CFA_advance_loc: 26 to 000000000045ee8a
  DW_CFA_def_cfa_offset: 16
  DW_CFA_offset: r14 (r14) at cfa-16
  DW_CFA_advance_loc: 5 to 000000000045ee8f
  DW_CFA_def_cfa_offset: 24
  DW_CFA_offset: r13 (r13) at cfa-24
  DW_CFA_advance_loc: 5 to 000000000045ee94
  DW_CFA_def_cfa_offset: 32
  DW_CFA_offset: r12 (r12) at cfa-32
  DW_CFA_advance_loc: 4 to 000000000045ee98
  DW_CFA_def_cfa_offset: 40
  DW_CFA_offset: r6 (rbp) at cfa-40
  DW_CFA_advance_loc: 3 to 000000000045ee9b
  DW_CFA_def_cfa_offset: 48
  DW_CFA_offset: r3 (rbx) at cfa-48
  DW_CFA_advance_loc1: 122 to 000000000045ef15
  DW_CFA_remember_state
  DW_CFA_restore: r3 (rbx)
  DW_CFA_def_cfa_offset: 40
  DW_CFA_advance_loc: 3 to 000000000045ef18
  DW_CFA_restore: r6 (rbp)
  DW_CFA_def_cfa_offset: 32
  DW_CFA_advance_loc: 7 to 000000000045ef1f
  DW_CFA_restore: r12 (r12)
  DW_CFA_def_cfa_offset: 24
  DW_CFA_advance_loc: 2 to 000000000045ef21
  DW_CFA_restore: r13 (r13)
  DW_CFA_def_cfa_offset: 16
  DW_CFA_advance_loc: 2 to 000000000045ef23
  DW_CFA_restore: r14 (r14)
  DW_CFA_def_cfa_offset: 8
  DW_CFA_advance_loc: 13 to 000000000045ef30
  DW_CFA_restore_state
  DW_CFA_nop
  DW_CFA_nop
  DW_CFA_nop
  DW_CFA_nop
  DW_CFA_nop
  DW_CFA_nop
  DW_CFA_nop

0000dbb8 0000000000000014 ffffffff CIE
  Version:               1
  Augmentation:          ""
  Code alignment factor: 1
  Data alignment factor: -8
  Return address column: 16

  DW_CFA_def_cfa: r7 (rsp) ofs 8
  DW_CFA_offset: r16 (rip) at cfa-8
  DW_CFA_nop
  DW_CFA_nop
  DW_CFA_nop
  DW_CFA_nop
  DW_CFA_nop
  DW_CFA_nop

0000dbd0 000000000000004c 0000dbb8 FDE cie=0000dbb8 pc=000000000045f0c0..000000000045f22c
  DW_CFA_advance_loc: 2 to 000000000045f0c2
  DW_CFA_def_cfa_offset: 16
  DW_CFA_offset: r14 (r14) at cfa-16
  DW_CFA_advance_loc: 2 to 000000000045f0c4
  DW_CFA_def_cfa_offset: 24
  DW_CFA_offset: r13 (r13) at cfa-24
  DW_CFA_advance_loc: 2 to 000000000045f0c6
  DW_CFA_def_cfa_offset: 32
  DW_CFA_offset: r12 (r12) at cfa-32
  DW_CFA_advance_loc: 1 to 000000000045f0c7
  DW_CFA_def_cfa_offset: 40
  DW_CFA_offset: r6 (rbp) at cfa-40
  DW_CFA_advance_loc: 1 to 000000000045f0c8
  DW_CFA_def_cfa_offset: 48
  DW_CFA_offset: r3 (rbx) at cfa-48
  DW_CFA_advance_loc: 4 to 000000000045f0cc
  DW_CFA_def_cfa_offset: 80
  DW_CFA_advance_loc2: 280 to 000000000045f1e4
  DW_CFA_remember_state
  DW_CFA_def_cfa_offset: 48
  DW_CFA_advance_loc: 1 to 000000000045f1e5
  DW_CFA_def_cfa_offset: 40
  DW_CFA_advance_loc: 1 to 000000000045f1e6
  DW_CFA_def_cfa_offset: 32
  DW_CFA_advance_loc: 2 to 000000000045f1e8
  DW_CFA_def_cfa_offset: 24
  DW_CFA_advance_loc: 2 to 000000000045f1ea
  DW_CFA_def_cfa_offset: 16
  DW_CFA_advance_loc: 2 to 000000000045f1ec
  DW_CFA_def_cfa_offset: 8
  DW_CFA_advance_loc: 4 to 000000000045f1f0
  DW_CFA_restore_state
  DW_CFA_nop
  DW_CFA_nop
  DW_CFA_nop
  DW_CFA_nop
  DW_CFA_nop

0000dc20 0000000000000014 ffffffff CIE
  Version:               1
  Augmentation:          ""
  Code alignment factor: 1
  Data alignment factor: -8
  Return address column: 16

  DW_CFA_def_cfa: r7 (rsp) ofs 8
  DW_CFA_offset: r16 (rip) at cfa-8
  DW_CFA_nop
  DW_CFA_nop
  DW_CFA_nop
  DW_CFA_nop
  DW_CFA_nop
  DW_CFA_nop

0000dc38 0000000000000054 0000dc20 FDE cie=0000dc20 pc=000000000045f230..000000000045f4bc
  DW_CFA_advance_loc: 37 to 000000000045f255
  DW_CFA_def_cfa_offset: 16
  DW_CFA_offset: r15 (r15) at cfa-16
  DW_CFA_advance_loc: 16 to 000000000045f265
  DW_CFA_def_cfa_offset: 24
  DW_CFA_offset: r14 (r14) at cfa-24
  DW_CFA_advance_loc: 10 to 000000000045f26f
  DW_CFA_def_cfa_offset: 32
  DW_CFA_offset: r13 (r13) at cfa-32
  DW_CFA_advance_loc: 10 to 000000000045f279
  DW_CFA_def_cfa_offset: 40
  DW_CFA_offset: r12 (r12) at cfa-40
  DW_CFA_advance_loc: 1 to 000000000045f27a
  DW_CFA_def_cfa_offset: 48
  DW_CFA_offset: r6 (rbp) at cfa-48
  DW_CFA_advance_loc: 4 to 000000000045f27e
  DW_CFA_def_cfa_offset: 56
  DW_CFA_offset: r3 (rbx) at cfa-56
  DW_CFA_advance_loc2: 531 to 000000000045f491
  DW_CFA_remember_state
  DW_CFA_def_cfa_offset: 48
  DW_CFA_advance_loc: 1 to 000000000045f492
  DW_CFA_def_cfa_offset: 40
  DW_CFA_advance_loc: 2 to 000000000045f494
  DW_CFA_def_cfa_offset: 32
  DW_CFA_advance_loc: 2 to 000000000045f496
  DW_CFA_def_cfa_offset: 24
  DW_CFA_advance_loc: 2 to 000000000045f498
  DW_CFA_def_cfa_offset: 16
  DW_CFA_advance_loc: 2 to 000000000045f49a
  DW_CFA_def_cfa_offset: 8
  DW_CFA_advance_loc: 6 to 000000000045f4a0
  DW_CFA_restore_state
  DW_CFA_advance_loc: 27 to 000000000045f4bb
  DW_CFA_def_cfa_offset: 8
  DW_CFA_restore: r3 (rbx)
  DW_CFA_restore: r6 (rbp)
  DW_CFA_restore: r12 (r12)
  DW_CFA_restore: r13 (r13)
  DW_CFA_restore: r14 (r14)
  DW_CFA_restore: r15 (r15)
  DW_CFA_nop
  DW_CFA_nop

0000dc90 000000000000006c 0000dc20 FDE cie=0000dc20 pc=000000000045f4c0..000000000045f8b9
  DW_CFA_advance_loc: 2 to 000000000045f4c2
  DW_CFA_def_cfa_offset: 16
  DW_CFA_offset: r15 (r15) at cfa-16
  DW_CFA_advance_loc: 2 to 000000000045f4c4
  DW_CFA_def_cfa_offset: 24
  DW_CFA_offset: r14 (r14) at cfa-24
  DW_CFA_advance_loc: 2 to 000000000045f4c6
  DW_CFA_def_cfa_offset: 32
  DW_CFA_offset: r13 (r13) at cfa-32
  DW_CFA_advance_loc: 2 to 000000000045f4c8
  DW_CFA_def_cfa_offset: 40
  DW_CFA_offset: r12 (r12) at cfa-40
  DW_CFA_advance_loc: 1 to 000000000045f4c9
  DW_CFA_def_cfa_offset: 48
  DW_CFA_offset: r6 (rbp) at cfa-48
  DW_CFA_advance_loc: 1 to 000000000045f4ca
  DW_CFA_def_cfa_offset: 56
  DW_CFA_offset: r3 (rbx) at cfa-56
  DW_CFA_advance_loc: 4 to 000000000045f4ce
  DW_CFA_def_cfa_offset: 128
  DW_CFA_advance_loc1: 167 to 000000000045f575
  DW_CFA_remember_state
  DW_CFA_def_cfa_offset: 56
  DW_CFA_advance_loc: 1 to 000000000045f576
  DW_CFA_def_cfa_offset: 48
  DW_CFA_advance_loc: 1 to 000000000045f577
  DW_CFA_def_cfa_offset: 40
  DW_CFA_advance_loc: 2 to 000000000045f579
  DW_CFA_def_cfa_offset: 32
  DW_CFA_advance_loc: 2 to 000000000045f57b
  DW_CFA_def_cfa_offset: 24
  DW_CFA_advance_loc: 2 to 000000000045f57d
  DW_CFA_def_cfa_offset: 16
  DW_CFA_advance_loc: 2 to 000000000045f57f
  DW_CFA_def_cfa_offset: 8
  DW_CFA_advance_loc: 1 to 000000000045f580
  DW_CFA_restore_state
  DW_CFA_advance_loc2: 656 to 000000000045f810
  DW_CFA_def_cfa_offset: 136
  DW_CFA_advance_loc: 13 to 000000000045f81d
  DW_CFA_def_cfa_offset: 144
  DW_CFA_advance_loc: 5 to 000000000045f822
  DW_CFA_def_cfa_offset: 152
  DW_CFA_advance_loc: 8 to 000000000045f82a
  DW_CFA_def_cfa_offset: 160
  DW_CFA_advance_loc: 29 to 000000000045f847
  DW_CFA_def_cfa_offset: 128
  DW_CFA_nop
  DW_CFA_nop
  DW_CFA_nop
  DW_CFA_nop
  DW_CFA_nop
  DW_CFA_nop
  DW_CFA_nop

0000dd00 0000000000000014 ffffffff CIE
  Version:               1
  Augmentation:          ""
  Code alignment factor: 1
  Data alignment factor: -8
  Return address column: 16

  DW_CFA_def_cfa: r7 (rsp) ofs 8
  DW_CFA_offset: r16 (rip) at cfa-8
  DW_CFA_nop
  DW_CFA_nop
  DW_CFA_nop
  DW_CFA_nop
  DW_CFA_nop
  DW_CFA_nop

0000dd18 0000000000000054 0000dd00 FDE cie=0000dd00 pc=000000000045f8c0..000000000045fbcb
  DW_CFA_advance_loc: 17 to 000000000045f8d1
  DW_CFA_def_cfa_offset: 16
  DW_CFA_offset: r15 (r15) at cfa-16
  DW_CFA_advance_loc: 5 to 000000000045f8d6
  DW_CFA_def_cfa_offset: 24
  DW_CFA_offset: r14 (r14) at cfa-24
  DW_CFA_advance_loc: 2 to 000000000045f8d8
  DW_CFA_def_cfa_offset: 32
  DW_CFA_offset: r13 (r13) at cfa-32
  DW_CFA_advance_loc: 2 to 000000000045f8da
  DW_CFA_def_cfa_offset: 40
  DW_CFA_offset: r12 (r12) at cfa-40
  DW_CFA_advance_loc: 1 to 000000000045f8db
  DW_CFA_def_cfa_offset: 48
  DW_CFA_offset: r6 (rbp) at cfa-48
  DW_CFA_advance_loc: 6 to 000000000045f8e1
  DW_CFA_def_cfa_offset: 56
  DW_CFA_offset: r3 (rbx) at cfa-56
  DW_CFA_advance_loc2: 629 to 000000000045fb56
  DW_CFA_remember_state
  DW_CFA_def_cfa_offset: 48
  DW_CFA_advance_loc: 1 to 000000000045fb57
  DW_CFA_def_cfa_offset: 40
  DW_CFA_advance_loc: 2 to 000000000045fb59
  DW_CFA_def_cfa_offset: 32
  DW_CFA_advance_loc: 2 to 000000000045fb5b
  DW_CFA_def_cfa_offset: 24
  DW_CFA_advance_loc: 2 to 000000000045fb5d
  DW_CFA_def_cfa_offset: 16
  DW_CFA_advance_loc: 2 to 000000000045fb5f
  DW_CFA_def_cfa_offset: 8
  DW_CFA_advance_loc: 1 to 000000000045fb60
  DW_CFA_restore_state
  DW_CFA_advance_loc1: 106 to 000000000045fbca
  DW_CFA_def_cfa_offset: 8
  DW_CFA_restore: r3 (rbx)
  DW_CFA_restore: r6 (rbp)
  DW_CFA_restore: r12 (r12)
  DW_CFA_restore: r13 (r13)
  DW_CFA_restore: r14 (r14)
  DW_CFA_restore: r15 (r15)
  DW_CFA_nop

0000dd70 0000000000000054 0000dd00 FDE cie=0000dd00 pc=000000000045fbd0..000000000045fc78
  DW_CFA_advance_loc: 2 to 000000000045fbd2
  DW_CFA_def_cfa_offset: 16
  DW_CFA_offset: r15 (r15) at cfa-16
  DW_CFA_advance_loc: 5 to 000000000045fbd7
  DW_CFA_def_cfa_offset: 24
  DW_CFA_offset: r14 (r14) at cfa-24
  DW_CFA_advance_loc: 5 to 000000000045fbdc
  DW_CFA_def_cfa_offset: 32
  DW_CFA_offset: r13 (r13) at cfa-32
  DW_CFA_advance_loc: 5 to 000000000045fbe1
  DW_CFA_def_cfa_offset: 40
  DW_CFA_offset: r12 (r12) at cfa-40
  DW_CFA_advance_loc: 4 to 000000000045fbe5
  DW_CFA_def_cfa_offset: 48
  DW_CFA_offset: r6 (rbp) at cfa-48
  DW_CFA_advance_loc: 4 to 000000000045fbe9
  DW_CFA_def_cfa_offset: 56
  DW_CFA_offset: r3 (rbx) at cfa-56
  DW_CFA_advance_loc: 7 to 000000000045fbf0
  DW_CFA_def_cfa_offset: 96
  DW_CFA_advance_loc1: 98 to 000000000045fc52
  DW_CFA_remember_state
  DW_CFA_def_cfa_offset: 56
  DW_CFA_advance_loc: 4 to 000000000045fc56
  DW_CFA_def_cfa_offset: 48
  DW_CFA_advance_loc: 4 to 000000000045fc5a
  DW_CFA_def_cfa_offset: 40
  DW_CFA_advance_loc: 2 to 000000000045fc5c
  DW_CFA_def_cfa_offset: 32
  DW_CFA_advance_loc: 2 to 000000000045fc5e
  DW_CFA_def_cfa_offset: 24
  DW_CFA_advance_loc: 2 to 000000000045fc60
  DW_CFA_def_cfa_offset: 16
  DW_CFA_advance_loc: 2 to 000000000045fc62
  DW_CFA_def_cfa_offset: 8
  DW_CFA_advance_loc: 6 to 000000000045fc68
  DW_CFA_restore_state
  DW_CFA_nop
  DW_CFA_nop
  DW_CFA_nop
  DW_CFA_nop
  DW_CFA_nop
  DW_CFA_nop

0000ddc8 0000000000000014 ffffffff CIE
  Version:               1
  Augmentation:          ""
  Code alignment factor: 1
  Data alignment factor: -8
  Return address column: 16

  DW_CFA_def_cfa: r7 (rsp) ofs 8
  DW_CFA_offset: r16 (rip) at cfa-8
  DW_CFA_nop
  DW_CFA_nop
  DW_CFA_nop
  DW_CFA_nop
  DW_CFA_nop
  DW_CFA_nop

0000dde0 0000000000000054 0000ddc8 FDE cie=0000ddc8 pc=000000000045fc80..000000000045fcd9
  DW_CFA_advance_loc: 6 to 000000000045fc86
  DW_CFA_def_cfa_offset: 16
  DW_CFA_offset: r15 (r15) at cfa-16
  DW_CFA_advance_loc: 5 to 000000000045fc8b
  DW_CFA_def_cfa_offset: 24
  DW_CFA_offset: r14 (r14) at cfa-24
  DW_CFA_advance_loc: 5 to 000000000045fc90
  DW_CFA_def_cfa_offset: 32
  DW_CFA_offset: r13 (r13) at cfa-32
  DW_CFA_advance_loc: 5 to 000000000045fc95
  DW_CFA_def_cfa_offset: 40
  DW_CFA_offset: r12 (r12) at cfa-40
  DW_CFA_advance_loc: 4 to 000000000045fc99
  DW_CFA_def_cfa_offset: 48
  DW_CFA_offset: r6 (rbp) at cfa-48
  DW_CFA_advance_loc: 4 to 000000000045fc9d
  DW_CFA_def_cfa_offset: 56
  DW_CFA_offset: r3 (rbx) at cfa-56
  DW_CFA_advance_loc: 6 to 000000000045fca3
  DW_CFA_def_cfa_offset: 64
  DW_CFA_advance_loc: 35 to 000000000045fcc6
  DW_CFA_def_cfa_offset: 56
  DW_CFA_advance_loc: 1 to 000000000045fcc7
  DW_CFA_def_cfa_offset: 48
  DW_CFA_advance_loc: 1 to 000000000045fcc8
  DW_CFA_def_cfa_offset: 40
  DW_CFA_advance_loc: 2 to 000000000045fcca
  DW_CFA_def_cfa_offset: 32
  DW_CFA_advance_loc: 2 to 000000000045fccc
  DW_CFA_def_cfa_offset: 24
  DW_CFA_advance_loc: 2 to 000000000045fcce
  DW_CFA_def_cfa_offset: 16
  DW_CFA_advance_loc: 2 to 000000000045fcd0
  DW_CFA_def_cfa_offset: 8
  DW_CFA_advance_loc: 8 to 000000000045fcd8
  DW_CFA_restore: r3 (rbx)
  DW_CFA_restore: r6 (rbp)
  DW_CFA_restore: r12 (r12)
  DW_CFA_restore: r13 (r13)
  DW_CFA_restore: r14 (r14)
  DW_CFA_restore: r15 (r15)
  DW_CFA_nop
  DW_CFA_nop
  DW_CFA_nop

0000de38 0000000000000054 0000ddc8 FDE cie=0000ddc8 pc=000000000045fce0..000000000045fd88
  DW_CFA_advance_loc: 2 to 000000000045fce2
  DW_CFA_def_cfa_offset: 16
  DW_CFA_offset: r15 (r15) at cfa-16
  DW_CFA_advance_loc: 5 to 000000000045fce7
  DW_CFA_def_cfa_offset: 24
  DW_CFA_offset: r14 (r14) at cfa-24
  DW_CFA_advance_loc: 5 to 000000000045fcec
  DW_CFA_def_cfa_offset: 32
  DW_CFA_offset: r13 (r13) at cfa-32
  DW_CFA_advance_loc: 5 to 000000000045fcf1
  DW_CFA_def_cfa_offset: 40
  DW_CFA_offset: r12 (r12) at cfa-40
  DW_CFA_advance_loc: 4 to 000000000045fcf5
  DW_CFA_def_cfa_offset: 48
  DW_CFA_offset: r6 (rbp) at cfa-48
  DW_CFA_advance_loc: 4 to 000000000045fcf9
  DW_CFA_def_cfa_offset: 56
  DW_CFA_offset: r3 (rbx) at cfa-56
  DW_CFA_advance_loc: 7 to 000000000045fd00
  DW_CFA_def_cfa_offset: 96
  DW_CFA_advance_loc1: 98 to 000000000045fd62
  DW_CFA_remember_state
  DW_CFA_def_cfa_offset: 56
  DW_CFA_advance_loc: 4 to 000000000045fd66
  DW_CFA_def_cfa_offset: 48
  DW_CFA_advance_loc: 4 to 000000000045fd6a
  DW_CFA_def_cfa_offset: 40
  DW_CFA_advance_loc: 2 to 000000000045fd6c
  DW_CFA_def_cfa_offset: 32
  DW_CFA_advance_loc: 2 to 000000000045fd6e
  DW_CFA_def_cfa_offset: 24
  DW_CFA_advance_loc: 2 to 000000000045fd70
  DW_CFA_def_cfa_offset: 16
  DW_CFA_advance_loc: 2 to 000000000045fd72
  DW_CFA_def_cfa_offset: 8
  DW_CFA_advance_loc: 6 to 000000000045fd78
  DW_CFA_restore_state
  DW_CFA_nop
  DW_CFA_nop
  DW_CFA_nop
  DW_CFA_nop
  DW_CFA_nop
  DW_CFA_nop

0000de90 0000000000000014 ffffffff CIE
  Version:               1
  Augmentation:          ""
  Code alignment factor: 1
  Data alignment factor: -8
  Return address column: 16

  DW_CFA_def_cfa: r7 (rsp) ofs 8
  DW_CFA_offset: r16 (rip) at cfa-8
  DW_CFA_nop
  DW_CFA_nop
  DW_CFA_nop
  DW_CFA_nop
  DW_CFA_nop
  DW_CFA_nop

0000dea8 0000000000000014 0000de90 FDE cie=0000de90 pc=000000000045fd90..000000000045fd91

0000dec0 0000000000000054 0000de90 FDE cie=0000de90 pc=000000000045fda0..000000000045ff49
  DW_CFA_advance_loc: 2 to 000000000045fda2
  DW_CFA_def_cfa_offset: 16
  DW_CFA_offset: r15 (r15) at cfa-16
  DW_CFA_advance_loc: 2 to 000000000045fda4
  DW_CFA_def_cfa_offset: 24
  DW_CFA_offset: r14 (r14) at cfa-24
  DW_CFA_advance_loc: 2 to 000000000045fda6
  DW_CFA_def_cfa_offset: 32
  DW_CFA_offset: r13 (r13) at cfa-32
  DW_CFA_advance_loc: 2 to 000000000045fda8
  DW_CFA_def_cfa_offset: 40
  DW_CFA_offset: r12 (r12) at cfa-40
  DW_CFA_advance_loc: 1 to 000000000045fda9
  DW_CFA_def_cfa_offset: 48
  DW_CFA_offset: r6 (rbp) at cfa-48
  DW_CFA_advance_loc: 1 to 000000000045fdaa
  DW_CFA_def_cfa_offset: 56
  DW_CFA_offset: r3 (rbx) at cfa-56
  DW_CFA_advance_loc: 4 to 000000000045fdae
  DW_CFA_def_cfa_offset: 112
  DW_CFA_advance_loc1: 150 to 000000000045fe44
  DW_CFA_remember_state
  DW_CFA_def_cfa_offset: 56
  DW_CFA_advance_loc: 1 to 000000000045fe45
  DW_CFA_def_cfa_offset: 48
  DW_CFA_advance_loc: 1 to 000000000045fe46
  DW_CFA_def_cfa_offset: 40
  DW_CFA_advance_loc: 2 to 000000000045fe48
  DW_CFA_def_cfa_offset: 32
  DW_CFA_advance_loc: 2 to 000000000045fe4a
  DW_CFA_def_cfa_offset: 24
  DW_CFA_advance_loc: 2 to 000000000045fe4c
  DW_CFA_def_cfa_offset: 16
  DW_CFA_advance_loc: 2 to 000000000045fe4e
  DW_CFA_def_cfa_offset: 8
  DW_CFA_advance_loc: 2 to 000000000045fe50
  DW_CFA_restore_state
  DW_CFA_nop
  DW_CFA_nop
  DW_CFA_nop
  DW_CFA_nop
  DW_CFA_nop
  DW_CFA_nop

0000df18 0000000000000074 0000de90 FDE cie=0000de90 pc=000000000045ff50..0000000000460ab5
  DW_CFA_advance_loc: 2 to 000000000045ff52
  DW_CFA_def_cfa_offset: 16
  DW_CFA_offset: r15 (r15) at cfa-16
  DW_CFA_advance_loc: 5 to 000000000045ff57
  DW_CFA_def_cfa_offset: 24
  DW_CFA_offset: r14 (r14) at cfa-24
  DW_CFA_advance_loc: 2 to 000000000045ff59
  DW_CFA_def_cfa_offset: 32
  DW_CFA_offset: r13 (r13) at cfa-32
  DW_CFA_advance_loc: 2 to 000000000045ff5b
  DW_CFA_def_cfa_offset: 40
  DW_CFA_offset: r12 (r12) at cfa-40
  DW_CFA_advance_loc: 4 to 000000000045ff5f
  DW_CFA_def_cfa_offset: 48
  DW_CFA_offset: r6 (rbp) at cfa-48
  DW_CFA_advance_loc: 1 to 000000000045ff60
  DW_CFA_def_cfa_offset: 56
  DW_CFA_offset: r3 (rbx) at cfa-56
  DW_CFA_advance_loc: 9 to 000000000045ff69
  DW_CFA_def_cfa_offset: 320
  DW_CFA_advance_loc2: 1937 to 00000000004606fa
  DW_CFA_def_cfa_offset: 328
  DW_CFA_advance_loc: 15 to 0000000000460709
  DW_CFA_def_cfa_offset: 336
  DW_CFA_advance_loc: 11 to 0000000000460714
  DW_CFA_def_cfa_offset: 344
  DW_CFA_advance_loc: 4 to 0000000000460718
  DW_CFA_def_cfa_offset: 352
  DW_CFA_advance_loc: 2 to 000000000046071a
  DW_CFA_def_cfa_offset: 360
  DW_CFA_advance_loc: 2 to 000000000046071c
  DW_CFA_def_cfa_offset: 368
  DW_CFA_advance_loc: 9 to 0000000000460725
  DW_CFA_def_cfa_offset: 320
  DW_CFA_advance_loc1: 115 to 0000000000460798
  DW_CFA_remember_state
  DW_CFA_def_cfa_offset: 56
  DW_CFA_advance_loc: 1 to 0000000000460799
  DW_CFA_def_cfa_offset: 48
  DW_CFA_advance_loc: 1 to 000000000046079a
  DW_CFA_def_cfa_offset: 40
  DW_CFA_advance_loc: 2 to 000000000046079c
  DW_CFA_def_cfa_offset: 32
  DW_CFA_advance_loc: 2 to 000000000046079e
  DW_CFA_def_cfa_offset: 24
  DW_CFA_advance_loc: 2 to 00000000004607a0
  DW_CFA_def_cfa_offset: 16
  DW_CFA_advance_loc: 2 to 00000000004607a2
  DW_CFA_def_cfa_offset: 8
  DW_CFA_advance_loc: 14 to 00000000004607b0
  DW_CFA_restore_state
  DW_CFA_nop
  DW_CFA_nop
  DW_CFA_nop
  DW_CFA_nop
  DW_CFA_nop
  DW_CFA_nop
  DW_CFA_nop

0000df90 000000000000002c 0000de90 FDE cie=0000de90 pc=0000000000460ac0..0000000000460b01
  DW_CFA_advance_loc: 14 to 0000000000460ace
  DW_CFA_def_cfa_offset: 16
  DW_CFA_advance_loc: 14 to 0000000000460adc
  DW_CFA_def_cfa_offset: 24
  DW_CFA_advance_loc: 9 to 0000000000460ae5
  DW_CFA_def_cfa_offset: 32
  DW_CFA_advance_loc: 7 to 0000000000460aec
  DW_CFA_def_cfa_offset: 40
  DW_CFA_advance_loc: 2 to 0000000000460aee
  DW_CFA_def_cfa_offset: 48
  DW_CFA_advance_loc: 2 to 0000000000460af0
  DW_CFA_def_cfa_offset: 56
  DW_CFA_advance_loc: 2 to 0000000000460af2
  DW_CFA_def_cfa_offset: 64
  DW_CFA_advance_loc: 9 to 0000000000460afb
  DW_CFA_def_cfa_offset: 8

0000dfc0 000000000000002c 0000de90 FDE cie=0000de90 pc=0000000000460b10..0000000000460c02
  DW_CFA_advance_loc: 1 to 0000000000460b11
  DW_CFA_def_cfa_offset: 16
  DW_CFA_offset: r3 (rbx) at cfa-16
  DW_CFA_advance_loc: 18 to 0000000000460b23
  DW_CFA_def_cfa_offset: 48
  DW_CFA_advance_loc1: 216 to 0000000000460bfb
  DW_CFA_remember_state
  DW_CFA_def_cfa_offset: 16
  DW_CFA_advance_loc: 1 to 0000000000460bfc
  DW_CFA_def_cfa_offset: 8
  DW_CFA_advance_loc: 1 to 0000000000460bfd
  DW_CFA_restore_state
  DW_CFA_nop
  DW_CFA_nop
  DW_CFA_nop
  DW_CFA_nop
  DW_CFA_nop
  DW_CFA_nop

0000dff0 000000000000003c 0000de90 FDE cie=0000de90 pc=0000000000460c10..0000000000460cee
  DW_CFA_advance_loc1: 86 to 0000000000460c66
  DW_CFA_def_cfa_offset: 16
  DW_CFA_advance_loc: 28 to 0000000000460c82
  DW_CFA_def_cfa_offset: 24
  DW_CFA_advance_loc: 7 to 0000000000460c89
  DW_CFA_def_cfa_offset: 32
  DW_CFA_advance_loc: 1 to 0000000000460c8a
  DW_CFA_def_cfa_offset: 40
  DW_CFA_advance_loc: 5 to 0000000000460c8f
  DW_CFA_def_cfa_offset: 48
  DW_CFA_advance_loc: 5 to 0000000000460c94
  DW_CFA_def_cfa_offset: 56
  DW_CFA_advance_loc: 5 to 0000000000460c99
  DW_CFA_def_cfa_offset: 64
  DW_CFA_advance_loc: 14 to 0000000000460ca7
  DW_CFA_def_cfa_offset: 16
  DW_CFA_advance_loc: 18 to 0000000000460cb9
  DW_CFA_remember_state
  DW_CFA_def_cfa_offset: 8
  DW_CFA_advance_loc: 7 to 0000000000460cc0
  DW_CFA_restore_state
  DW_CFA_advance_loc: 16 to 0000000000460cd0
  DW_CFA_def_cfa_offset: 8
  DW_CFA_nop
  DW_CFA_nop
  DW_CFA_nop
  DW_CFA_nop
  DW_CFA_nop
  DW_CFA_nop

0000e030 000000000000005c 0000de90 FDE cie=0000de90 pc=0000000000460cf0..0000000000460dbe
  DW_CFA_advance_loc: 2 to 0000000000460cf2
  DW_CFA_def_cfa_offset: 16
  DW_CFA_offset: r12 (r12) at cfa-16
  DW_CFA_advance_loc: 4 to 0000000000460cf6
  DW_CFA_def_cfa_offset: 24
  DW_CFA_offset: r6 (rbp) at cfa-24
  DW_CFA_advance_loc: 6 to 0000000000460cfc
  DW_CFA_def_cfa_offset: 32
  DW_CFA_advance_loc1: 68 to 0000000000460d40
  DW_CFA_def_cfa_offset: 40
  DW_CFA_advance_loc: 7 to 0000000000460d47
  DW_CFA_def_cfa_offset: 48
  DW_CFA_advance_loc: 7 to 0000000000460d4e
  DW_CFA_def_cfa_offset: 56
  DW_CFA_advance_loc: 2 to 0000000000460d50
  DW_CFA_def_cfa_offset: 64
  DW_CFA_advance_loc: 7 to 0000000000460d57
  DW_CFA_def_cfa_offset: 72
  DW_CFA_advance_loc: 7 to 0000000000460d5e
  DW_CFA_def_cfa_offset: 80
  DW_CFA_advance_loc: 9 to 0000000000460d67
  DW_CFA_def_cfa_offset: 32
  DW_CFA_advance_loc: 33 to 0000000000460d88
  DW_CFA_remember_state
  DW_CFA_def_cfa_offset: 24
  DW_CFA_advance_loc: 1 to 0000000000460d89
  DW_CFA_def_cfa_offset: 16
  DW_CFA_advance_loc: 4 to 0000000000460d8d
  DW_CFA_def_cfa_offset: 8
  DW_CFA_advance_loc: 11 to 0000000000460d98
  DW_CFA_restore_state
  DW_CFA_advance_loc: 18 to 0000000000460daa
  DW_CFA_remember_state
  DW_CFA_def_cfa_offset: 24
  DW_CFA_advance_loc: 1 to 0000000000460dab
  DW_CFA_def_cfa_offset: 16
  DW_CFA_advance_loc: 2 to 0000000000460dad
  DW_CFA_def_cfa_offset: 8
  DW_CFA_advance_loc: 3 to 0000000000460db0
  DW_CFA_restore_state
  DW_CFA_advance_loc: 4 to 0000000000460db4
  DW_CFA_def_cfa_offset: 24
  DW_CFA_advance_loc: 3 to 0000000000460db7
  DW_CFA_def_cfa_offset: 16
  DW_CFA_advance_loc: 2 to 0000000000460db9
  DW_CFA_def_cfa_offset: 8
  DW_CFA_nop
  DW_CFA_nop
  DW_CFA_nop
  DW_CFA_nop

0000e090 000000000000003c 0000de90 FDE cie=0000de90 pc=0000000000460dc0..0000000000460e6a
  DW_CFA_advance_loc: 18 to 0000000000460dd2
  DW_CFA_def_cfa_offset: 16
  DW_CFA_offset: r12 (r12) at cfa-16
  DW_CFA_advance_loc: 31 to 0000000000460df1
  DW_CFA_remember_state
  DW_CFA_restore: r12 (r12)
  DW_CFA_def_cfa_offset: 8
  DW_CFA_advance_loc: 15 to 0000000000460e00
  DW_CFA_restore_state
  DW_CFA_advance_loc: 18 to 0000000000460e12
  DW_CFA_def_cfa_offset: 24
  DW_CFA_advance_loc: 21 to 0000000000460e27
  DW_CFA_def_cfa_offset: 32
  DW_CFA_advance_loc: 2 to 0000000000460e29
  DW_CFA_def_cfa_offset: 40
  DW_CFA_advance_loc: 8 to 0000000000460e31
  DW_CFA_def_cfa_offset: 48
  DW_CFA_advance_loc: 2 to 0000000000460e33
  DW_CFA_def_cfa_offset: 56
  DW_CFA_advance_loc: 2 to 0000000000460e35
  DW_CFA_def_cfa_offset: 64
  DW_CFA_advance_loc: 22 to 0000000000460e4b
  DW_CFA_def_cfa_offset: 16
  DW_CFA_advance_loc: 16 to 0000000000460e5b
  DW_CFA_def_cfa_offset: 8
  DW_CFA_advance_loc: 5 to 0000000000460e60
  DW_CFA_restore: r12 (r12)
  DW_CFA_nop
  DW_CFA_nop

0000e0d0 000000000000002c 0000de90 FDE cie=0000de90 pc=0000000000460e70..0000000000460ef5
  DW_CFA_advance_loc: 2 to 0000000000460e72
  DW_CFA_def_cfa_offset: 16
  DW_CFA_offset: r12 (r12) at cfa-16
  DW_CFA_advance_loc: 15 to 0000000000460e81
  DW_CFA_def_cfa_offset: 24
  DW_CFA_offset: r6 (rbp) at cfa-24
  DW_CFA_advance_loc: 10 to 0000000000460e8b
  DW_CFA_def_cfa_offset: 32
  DW_CFA_advance_loc1: 95 to 0000000000460eea
  DW_CFA_def_cfa_offset: 24
  DW_CFA_advance_loc: 4 to 0000000000460eee
  DW_CFA_def_cfa_offset: 16
  DW_CFA_advance_loc: 2 to 0000000000460ef0
  DW_CFA_def_cfa_offset: 8
  DW_CFA_nop

0000e100 0000000000000014 ffffffff CIE
  Version:               1
  Augmentation:          ""
  Code alignment factor: 1
  Data alignment factor: -8
  Return address column: 16

  DW_CFA_def_cfa: r7 (rsp) ofs 8
  DW_CFA_offset: r16 (rip) at cfa-8
  DW_CFA_nop
  DW_CFA_nop
  DW_CFA_nop
  DW_CFA_nop
  DW_CFA_nop
  DW_CFA_nop

0000e118 0000000000000054 0000e100 FDE cie=0000e100 pc=0000000000460f00..0000000000460fc0
  DW_CFA_advance_loc: 2 to 0000000000460f02
  DW_CFA_def_cfa_offset: 16
  DW_CFA_offset: r13 (r13) at cfa-16
  DW_CFA_advance_loc: 5 to 0000000000460f07
  DW_CFA_def_cfa_offset: 24
  DW_CFA_offset: r12 (r12) at cfa-24
  DW_CFA_advance_loc: 1 to 0000000000460f08
  DW_CFA_def_cfa_offset: 32
  DW_CFA_offset: r6 (rbp) at cfa-32
  DW_CFA_advance_loc: 1 to 0000000000460f09
  DW_CFA_def_cfa_offset: 40
  DW_CFA_offset: r3 (rbx) at cfa-40
  DW_CFA_advance_loc: 7 to 0000000000460f10
  DW_CFA_def_cfa_offset: 48
  DW_CFA_advance_loc1: 86 to 0000000000460f66
  DW_CFA_remember_state
  DW_CFA_def_cfa_offset: 40
  DW_CFA_advance_loc: 1 to 0000000000460f67
  DW_CFA_def_cfa_offset: 32
  DW_CFA_advance_loc: 1 to 0000000000460f68
  DW_CFA_def_cfa_offset: 24
  DW_CFA_advance_loc: 2 to 0000000000460f6a
  DW_CFA_def_cfa_offset: 16
  DW_CFA_advance_loc: 2 to 0000000000460f6c
  DW_CFA_def_cfa_offset: 8
  DW_CFA_advance_loc: 4 to 0000000000460f70
  DW_CFA_restore_state
  DW_CFA_advance_loc: 29 to 0000000000460f8d
  DW_CFA_remember_state
  DW_CFA_def_cfa_offset: 40
  DW_CFA_advance_loc: 4 to 0000000000460f91
  DW_CFA_def_cfa_offset: 32
  DW_CFA_advance_loc: 1 to 0000000000460f92
  DW_CFA_def_cfa_offset: 24
  DW_CFA_advance_loc: 2 to 0000000000460f94
  DW_CFA_def_cfa_offset: 16
  DW_CFA_advance_loc: 2 to 0000000000460f96
  DW_CFA_def_cfa_offset: 8
  DW_CFA_advance_loc: 10 to 0000000000460fa0
  DW_CFA_restore_state
  DW_CFA_nop
  DW_CFA_nop
  DW_CFA_nop
  DW_CFA_nop

0000e170 0000000000000054 0000e100 FDE cie=0000e100 pc=0000000000460fc0..0000000000461112
  DW_CFA_advance_loc: 2 to 0000000000460fc2
  DW_CFA_def_cfa_offset: 16
  DW_CFA_offset: r15 (r15) at cfa-16
  DW_CFA_advance_loc: 2 to 0000000000460fc4
  DW_CFA_def_cfa_offset: 24
  DW_CFA_offset: r14 (r14) at cfa-24
  DW_CFA_advance_loc: 2 to 0000000000460fc6
  DW_CFA_def_cfa_offset: 32
  DW_CFA_offset: r13 (r13) at cfa-32
  DW_CFA_advance_loc: 5 to 0000000000460fcb
  DW_CFA_def_cfa_offset: 40
  DW_CFA_offset: r12 (r12) at cfa-40
  DW_CFA_advance_loc: 4 to 0000000000460fcf
  DW_CFA_def_cfa_offset: 48
  DW_CFA_offset: r6 (rbp) at cfa-48
  DW_CFA_advance_loc: 4 to 0000000000460fd3
  DW_CFA_def_cfa_offset: 56
  DW_CFA_offset: r3 (rbx) at cfa-56
  DW_CFA_advance_loc: 7 to 0000000000460fda
  DW_CFA_def_cfa_offset: 144
  DW_CFA_advance_loc1: 195 to 000000000046109d
  DW_CFA_remember_state
  DW_CFA_def_cfa_offset: 56
  DW_CFA_advance_loc: 1 to 000000000046109e
  DW_CFA_def_cfa_offset: 48
  DW_CFA_advance_loc: 1 to 000000000046109f
  DW_CFA_def_cfa_offset: 40
  DW_CFA_advance_loc: 2 to 00000000004610a1
  DW_CFA_def_cfa_offset: 32
  DW_CFA_advance_loc: 2 to 00000000004610a3
  DW_CFA_def_cfa_offset: 24
  DW_CFA_advance_loc: 2 to 00000000004610a5
  DW_CFA_def_cfa_offset: 16
  DW_CFA_advance_loc: 2 to 00000000004610a7
  DW_CFA_def_cfa_offset: 8
  DW_CFA_advance_loc: 9 to 00000000004610b0
  DW_CFA_restore_state
  DW_CFA_nop
  DW_CFA_nop
  DW_CFA_nop
  DW_CFA_nop
  DW_CFA_nop

0000e1c8 0000000000000054 0000e100 FDE cie=0000e100 pc=0000000000461120..0000000000461274
  DW_CFA_advance_loc: 2 to 0000000000461122
  DW_CFA_def_cfa_offset: 16
  DW_CFA_offset: r15 (r15) at cfa-16
  DW_CFA_advance_loc: 2 to 0000000000461124
  DW_CFA_def_cfa_offset: 24
  DW_CFA_offset: r14 (r14) at cfa-24
  DW_CFA_advance_loc: 2 to 0000000000461126
  DW_CFA_def_cfa_offset: 32
  DW_CFA_offset: r13 (r13) at cfa-32
  DW_CFA_advance_loc: 5 to 000000000046112b
  DW_CFA_def_cfa_offset: 40
  DW_CFA_offset: r12 (r12) at cfa-40
  DW_CFA_advance_loc: 4 to 000000000046112f
  DW_CFA_def_cfa_offset: 48
  DW_CFA_offset: r6 (rbp) at cfa-48
  DW_CFA_advance_loc: 4 to 0000000000461133
  DW_CFA_def_cfa_offset: 56
  DW_CFA_offset: r3 (rbx) at cfa-56
  DW_CFA_advance_loc: 7 to 000000000046113a
  DW_CFA_def_cfa_offset: 144
  DW_CFA_advance_loc1: 203 to 0000000000461205
  DW_CFA_remember_state
  DW_CFA_def_cfa_offset: 56
  DW_CFA_advance_loc: 1 to 0000000000461206
  DW_CFA_def_cfa_offset: 48
  DW_CFA_advance_loc: 1 to 0000000000461207
  DW_CFA_def_cfa_offset: 40
  DW_CFA_advance_loc: 2 to 0000000000461209
  DW_CFA_def_cfa_offset: 32
  DW_CFA_advance_loc: 2 to 000000000046120b
  DW_CFA_def_cfa_offset: 24
  DW_CFA_advance_loc: 2 to 000000000046120d
  DW_CFA_def_cfa_offset: 16
  DW_CFA_advance_loc: 2 to 000000000046120f
  DW_CFA_def_cfa_offset: 8
  DW_CFA_advance_loc: 1 to 0000000000461210
  DW_CFA_restore_state
  DW_CFA_nop
  DW_CFA_nop
  DW_CFA_nop
  DW_CFA_nop
  DW_CFA_nop

0000e220 0000000000000014 ffffffff CIE
  Version:               1
  Augmentation:          ""
  Code alignment factor: 1
  Data alignment factor: -8
  Return address column: 16

  DW_CFA_def_cfa: r7 (rsp) ofs 8
  DW_CFA_offset: r16 (rip) at cfa-8
  DW_CFA_nop
  DW_CFA_nop
  DW_CFA_nop
  DW_CFA_nop
  DW_CFA_nop
  DW_CFA_nop

0000e238 0000000000000014 0000e220 FDE cie=0000e220 pc=0000000000461280..00000000004612b8

0000e250 0000000000000054 0000e220 FDE cie=0000e220 pc=00000000004612c0..00000000004614f6
  DW_CFA_advance_loc: 2 to 00000000004612c2
  DW_CFA_def_cfa_offset: 16
  DW_CFA_offset: r15 (r15) at cfa-16
  DW_CFA_advance_loc: 4 to 00000000004612c6
  DW_CFA_def_cfa_offset: 24
  DW_CFA_offset: r14 (r14) at cfa-24
  DW_CFA_advance_loc: 2 to 00000000004612c8
  DW_CFA_def_cfa_offset: 32
  DW_CFA_offset: r13 (r13) at cfa-32
  DW_CFA_advance_loc: 2 to 00000000004612ca
  DW_CFA_def_cfa_offset: 40
  DW_CFA_offset: r12 (r12) at cfa-40
  DW_CFA_advance_loc: 1 to 00000000004612cb
  DW_CFA_def_cfa_offset: 48
  DW_CFA_offset: r6 (rbp) at cfa-48
  DW_CFA_advance_loc: 1 to 00000000004612cc
  DW_CFA_def_cfa_offset: 56
  DW_CFA_offset: r3 (rbx) at cfa-56
  DW_CFA_advance_loc: 4 to 00000000004612d0
  DW_CFA_def_cfa_offset: 96
  DW_CFA_advance_loc2: 364 to 000000000046143c
  DW_CFA_remember_state
  DW_CFA_def_cfa_offset: 56
  DW_CFA_advance_loc: 4 to 0000000000461440
  DW_CFA_def_cfa_offset: 48
  DW_CFA_advance_loc: 1 to 0000000000461441
  DW_CFA_def_cfa_offset: 40
  DW_CFA_advance_loc: 2 to 0000000000461443
  DW_CFA_def_cfa_offset: 32
  DW_CFA_advance_loc: 2 to 0000000000461445
  DW_CFA_def_cfa_offset: 24
  DW_CFA_advance_loc: 2 to 0000000000461447
  DW_CFA_def_cfa_offset: 16
  DW_CFA_advance_loc: 2 to 0000000000461449
  DW_CFA_def_cfa_offset: 8
  DW_CFA_advance_loc: 7 to 0000000000461450
  DW_CFA_restore_state
  DW_CFA_nop
  DW_CFA_nop
  DW_CFA_nop
  DW_CFA_nop
  DW_CFA_nop

0000e2a8 0000000000000014 ffffffff CIE
  Version:               1
  Augmentation:          ""
  Code alignment factor: 1
  Data alignment factor: -8
  Return address column: 16

  DW_CFA_def_cfa: r7 (rsp) ofs 8
  DW_CFA_offset: r16 (rip) at cfa-8
  DW_CFA_nop
  DW_CFA_nop
  DW_CFA_nop
  DW_CFA_nop
  DW_CFA_nop
  DW_CFA_nop

0000e2c0 0000000000000044 0000e2a8 FDE cie=0000e2a8 pc=0000000000461500..000000000046157a
  DW_CFA_advance_loc: 25 to 0000000000461519
  DW_CFA_def_cfa_offset: 16
  DW_CFA_offset: r14 (r14) at cfa-16
  DW_CFA_advance_loc: 5 to 000000000046151e
  DW_CFA_def_cfa_offset: 24
  DW_CFA_offset: r13 (r13) at cfa-24
  DW_CFA_advance_loc: 5 to 0000000000461523
  DW_CFA_def_cfa_offset: 32
  DW_CFA_offset: r12 (r12) at cfa-32
  DW_CFA_advance_loc: 4 to 0000000000461527
  DW_CFA_def_cfa_offset: 40
  DW_CFA_offset: r6 (rbp) at cfa-40
  DW_CFA_advance_loc: 6 to 000000000046152d
  DW_CFA_def_cfa_offset: 48
  DW_CFA_advance_loc: 46 to 000000000046155b
  DW_CFA_def_cfa_offset: 40
  DW_CFA_advance_loc: 3 to 000000000046155e
  DW_CFA_restore: r6 (rbp)
  DW_CFA_def_cfa_offset: 32
  DW_CFA_advance_loc: 2 to 0000000000461560
  DW_CFA_restore: r12 (r12)
  DW_CFA_def_cfa_offset: 24
  DW_CFA_advance_loc: 2 to 0000000000461562
  DW_CFA_restore: r13 (r13)
  DW_CFA_def_cfa_offset: 16
  DW_CFA_advance_loc: 2 to 0000000000461564
  DW_CFA_restore: r14 (r14)
  DW_CFA_def_cfa_offset: 8
  DW_CFA_nop
  DW_CFA_nop
  DW_CFA_nop
  DW_CFA_nop
  DW_CFA_nop
  DW_CFA_nop

0000e308 0000000000000014 ffffffff CIE
  Version:               1
  Augmentation:          ""
  Code alignment factor: 1
  Data alignment factor: -8
  Return address column: 16

  DW_CFA_def_cfa: r7 (rsp) ofs 8
  DW_CFA_offset: r16 (rip) at cfa-8
  DW_CFA_nop
  DW_CFA_nop
  DW_CFA_nop
  DW_CFA_nop
  DW_CFA_nop
  DW_CFA_nop

0000e320 000000000000002c 0000e308 FDE cie=0000e308 pc=0000000000461580..00000000004615d8
  DW_CFA_advance_loc: 1 to 0000000000461581
  DW_CFA_def_cfa_offset: 16
  DW_CFA_offset: r6 (rbp) at cfa-16
  DW_CFA_advance_loc: 17 to 0000000000461592
  DW_CFA_remember_state
  DW_CFA_def_cfa_offset: 8
  DW_CFA_advance_loc: 6 to 0000000000461598
  DW_CFA_restore_state
  DW_CFA_advance_loc: 52 to 00000000004615cc
  DW_CFA_remember_state
  DW_CFA_def_cfa_offset: 8
  DW_CFA_advance_loc: 4 to 00000000004615d0
  DW_CFA_restore_state
  DW_CFA_advance_loc: 3 to 00000000004615d3
  DW_CFA_def_cfa_offset: 8
  DW_CFA_nop
  DW_CFA_nop
  DW_CFA_nop
  DW_CFA_nop

0000e350 0000000000000014 ffffffff CIE
  Version:               1
  Augmentation:          ""
  Code alignment factor: 1
  Data alignment factor: -8
  Return address column: 16

  DW_CFA_def_cfa: r7 (rsp) ofs 8
  DW_CFA_offset: r16 (rip) at cfa-8
  DW_CFA_nop
  DW_CFA_nop
  DW_CFA_nop
  DW_CFA_nop
  DW_CFA_nop
  DW_CFA_nop

0000e368 000000000000004c 0000e350 FDE cie=0000e350 pc=00000000004615e0..000000000046164f
  DW_CFA_advance_loc: 2 to 00000000004615e2
  DW_CFA_def_cfa_offset: 16
  DW_CFA_offset: r13 (r13) at cfa-16
  DW_CFA_advance_loc: 5 to 00000000004615e7
  DW_CFA_def_cfa_offset: 24
  DW_CFA_offset: r12 (r12) at cfa-24
  DW_CFA_advance_loc: 4 to 00000000004615eb
  DW_CFA_def_cfa_offset: 32
  DW_CFA_offset: r6 (rbp) at cfa-32
  DW_CFA_advance_loc: 4 to 00000000004615ef
  DW_CFA_def_cfa_offset: 40
  DW_CFA_offset: r3 (rbx) at cfa-40
  DW_CFA_advance_loc: 7 to 00000000004615f6
  DW_CFA_def_cfa_offset: 48
  DW_CFA_advance_loc: 13 to 0000000000461603
  DW_CFA_remember_state
  DW_CFA_def_cfa_offset: 40
  DW_CFA_advance_loc: 1 to 0000000000461604
  DW_CFA_def_cfa_offset: 32
  DW_CFA_advance_loc: 1 to 0000000000461605
  DW_CFA_def_cfa_offset: 24
  DW_CFA_advance_loc: 2 to 0000000000461607
  DW_CFA_def_cfa_offset: 16
  DW_CFA_advance_loc: 2 to 0000000000461609
  DW_CFA_def_cfa_offset: 8
  DW_CFA_advance_loc: 7 to 0000000000461610
  DW_CFA_restore_state
  DW_CFA_advance_loc: 56 to 0000000000461648
  DW_CFA_def_cfa_offset: 40
  DW_CFA_advance_loc: 1 to 0000000000461649
  DW_CFA_def_cfa_offset: 32
  DW_CFA_advance_loc: 1 to 000000000046164a
  DW_CFA_def_cfa_offset: 24
  DW_CFA_advance_loc: 2 to 000000000046164c
  DW_CFA_def_cfa_offset: 16
  DW_CFA_advance_loc: 2 to 000000000046164e
  DW_CFA_def_cfa_offset: 8

0000e3b8 0000000000000014 ffffffff CIE
  Version:               1
  Augmentation:          ""
  Code alignment factor: 1
  Data alignment factor: -8
  Return address column: 16

  DW_CFA_def_cfa: r7 (rsp) ofs 8
  DW_CFA_offset: r16 (rip) at cfa-8
  DW_CFA_nop
  DW_CFA_nop
  DW_CFA_nop
  DW_CFA_nop
  DW_CFA_nop
  DW_CFA_nop

0000e3d0 000000000000001c 0000e3b8 FDE cie=0000e3b8 pc=0000000000461650..00000000004616ff
  DW_CFA_advance_loc: 48 to 0000000000461680
  DW_CFA_def_cfa_offset: 32
  DW_CFA_advance_loc: 14 to 000000000046168e
  DW_CFA_def_cfa_offset: 8
  DW_CFA_nop
  DW_CFA_nop

0000e3f0 0000000000000054 0000e3b8 FDE cie=0000e3b8 pc=0000000000461700..00000000004618f3
  DW_CFA_advance_loc1: 94 to 000000000046175e
  DW_CFA_def_cfa_offset: 16
  DW_CFA_offset: r14 (r14) at cfa-16
  DW_CFA_advance_loc: 9 to 0000000000461767
  DW_CFA_def_cfa_offset: 24
  DW_CFA_offset: r13 (r13) at cfa-24
  DW_CFA_advance_loc: 2 to 0000000000461769
  DW_CFA_def_cfa_offset: 32
  DW_CFA_offset: r12 (r12) at cfa-32
  DW_CFA_advance_loc: 1 to 000000000046176a
  DW_CFA_def_cfa_offset: 40
  DW_CFA_offset: r6 (rbp) at cfa-40
  DW_CFA_advance_loc: 1 to 000000000046176b
  DW_CFA_def_cfa_offset: 48
  DW_CFA_offset: r3 (rbx) at cfa-48
  DW_CFA_advance_loc2: 257 to 000000000046186c
  DW_CFA_def_cfa_offset: 40
  DW_CFA_advance_loc: 1 to 000000000046186d
  DW_CFA_def_cfa_offset: 32
  DW_CFA_advance_loc: 2 to 000000000046186f
  DW_CFA_def_cfa_offset: 24
  DW_CFA_advance_loc: 4 to 0000000000461873
  DW_CFA_def_cfa_offset: 16
  DW_CFA_advance_loc: 2 to 0000000000461875
  DW_CFA_def_cfa_offset: 8
  DW_CFA_advance_loc: 19 to 0000000000461888
  DW_CFA_restore: r3 (rbx)
  DW_CFA_restore: r6 (rbp)
  DW_CFA_restore: r12 (r12)
  DW_CFA_restore: r13 (r13)
  DW_CFA_restore: r14 (r14)
  DW_CFA_advance_loc1: 72 to 00000000004618d0
  DW_CFA_def_cfa_offset: 48
  DW_CFA_offset: r3 (rbx) at cfa-48
  DW_CFA_offset: r6 (rbp) at cfa-40
  DW_CFA_offset: r12 (r12) at cfa-32
  DW_CFA_offset: r13 (r13) at cfa-24
  DW_CFA_offset: r14 (r14) at cfa-16
  DW_CFA_nop

0000e448 0000000000000014 ffffffff CIE
  Version:               1
  Augmentation:          ""
  Code alignment factor: 1
  Data alignment factor: -8
  Return address column: 16

  DW_CFA_def_cfa: r7 (rsp) ofs 8
  DW_CFA_offset: r16 (rip) at cfa-8
  DW_CFA_nop
  DW_CFA_nop
  DW_CFA_nop
  DW_CFA_nop
  DW_CFA_nop
  DW_CFA_nop

0000e460 0000000000000034 0000e448 FDE cie=0000e448 pc=0000000000461900..0000000000461a34
  DW_CFA_advance_loc: 11 to 000000000046190b
  DW_CFA_def_cfa_offset: 16
  DW_CFA_offset: r12 (r12) at cfa-16
  DW_CFA_advance_loc: 40 to 0000000000461933
  DW_CFA_remember_state
  DW_CFA_def_cfa_offset: 8
  DW_CFA_advance_loc: 5 to 0000000000461938
  DW_CFA_restore_state
  DW_CFA_advance_loc1: 119 to 00000000004619af
  DW_CFA_def_cfa_offset: 24
  DW_CFA_advance_loc: 11 to 00000000004619ba
  DW_CFA_def_cfa_offset: 32
  DW_CFA_advance_loc: 42 to 00000000004619e4
  DW_CFA_def_cfa_offset: 24
  DW_CFA_advance_loc: 4 to 00000000004619e8
  DW_CFA_def_cfa_offset: 16
  DW_CFA_advance_loc: 2 to 00000000004619ea
  DW_CFA_remember_state
  DW_CFA_def_cfa_offset: 8
  DW_CFA_advance_loc: 6 to 00000000004619f0
  DW_CFA_restore_state
  DW_CFA_nop
  DW_CFA_nop

0000e498 0000000000000014 ffffffff CIE
  Version:               1
  Augmentation:          ""
  Code alignment factor: 1
  Data alignment factor: -8
  Return address column: 16

  DW_CFA_def_cfa: r7 (rsp) ofs 8
  DW_CFA_offset: r16 (rip) at cfa-8
  DW_CFA_nop
  DW_CFA_nop
  DW_CFA_nop
  DW_CFA_nop
  DW_CFA_nop
  DW_CFA_nop

0000e4b0 000000000000001c 0000e498 FDE cie=0000e498 pc=0000000000461a40..0000000000461a92
  DW_CFA_advance_loc: 4 to 0000000000461a44
  DW_CFA_def_cfa_offset: 16
  DW_CFA_advance_loc1: 72 to 0000000000461a8c
  DW_CFA_def_cfa_offset: 8
  DW_CFA_nop

0000e4d0 0000000000000054 0000e498 FDE cie=0000e498 pc=0000000000461aa0..000000000046224d
  DW_CFA_advance_loc: 2 to 0000000000461aa2
  DW_CFA_def_cfa_offset: 16
  DW_CFA_offset: r15 (r15) at cfa-16
  DW_CFA_advance_loc: 2 to 0000000000461aa4
  DW_CFA_def_cfa_offset: 24
  DW_CFA_offset: r14 (r14) at cfa-24
  DW_CFA_advance_loc: 2 to 0000000000461aa6
  DW_CFA_def_cfa_offset: 32
  DW_CFA_offset: r13 (r13) at cfa-32
  DW_CFA_advance_loc: 2 to 0000000000461aa8
  DW_CFA_def_cfa_offset: 40
  DW_CFA_offset: r12 (r12) at cfa-40
  DW_CFA_advance_loc: 1 to 0000000000461aa9
  DW_CFA_def_cfa_offset: 48
  DW_CFA_offset: r6 (rbp) at cfa-48
  DW_CFA_advance_loc: 1 to 0000000000461aaa
  DW_CFA_def_cfa_offset: 56
  DW_CFA_offset: r3 (rbx) at cfa-56
  DW_CFA_advance_loc: 7 to 0000000000461ab1
  DW_CFA_def_cfa_offset: 512
  DW_CFA_advance_loc2: 411 to 0000000000461c4c
  DW_CFA_remember_state
  DW_CFA_def_cfa_offset: 56
  DW_CFA_advance_loc: 3 to 0000000000461c4f
  DW_CFA_def_cfa_offset: 48
  DW_CFA_advance_loc: 1 to 0000000000461c50
  DW_CFA_def_cfa_offset: 40
  DW_CFA_advance_loc: 2 to 0000000000461c52
  DW_CFA_def_cfa_offset: 32
  DW_CFA_advance_loc: 2 to 0000000000461c54
  DW_CFA_def_cfa_offset: 24
  DW_CFA_advance_loc: 2 to 0000000000461c56
  DW_CFA_def_cfa_offset: 16
  DW_CFA_advance_loc: 2 to 0000000000461c58
  DW_CFA_def_cfa_offset: 8
  DW_CFA_advance_loc: 8 to 0000000000461c60
  DW_CFA_restore_state
  DW_CFA_nop
  DW_CFA_nop
  DW_CFA_nop
  DW_CFA_nop

0000e528 0000000000000064 0000e498 FDE cie=0000e498 pc=0000000000462250..00000000004623bc
  DW_CFA_advance_loc: 31 to 000000000046226f
  DW_CFA_def_cfa_offset: 16
  DW_CFA_offset: r6 (rbp) at cfa-16
  DW_CFA_advance_loc: 4 to 0000000000462273
  DW_CFA_def_cfa_offset: 24
  DW_CFA_offset: r3 (rbx) at cfa-24
  DW_CFA_advance_loc: 4 to 0000000000462277
  DW_CFA_def_cfa_offset: 32
  DW_CFA_advance_loc: 42 to 00000000004622a1
  DW_CFA_def_cfa_offset: 40
  DW_CFA_advance_loc: 6 to 00000000004622a7
  DW_CFA_def_cfa_offset: 48
  DW_CFA_advance_loc: 6 to 00000000004622ad
  DW_CFA_def_cfa_offset: 40
  DW_CFA_advance_loc: 1 to 00000000004622ae
  DW_CFA_def_cfa_offset: 32
  DW_CFA_advance_loc: 44 to 00000000004622da
  DW_CFA_def_cfa_offset: 40
  DW_CFA_advance_loc: 34 to 00000000004622fc
  DW_CFA_def_cfa_offset: 48
  DW_CFA_advance_loc: 9 to 0000000000462305
  DW_CFA_def_cfa_offset: 56
  DW_CFA_advance_loc: 2 to 0000000000462307
  DW_CFA_def_cfa_offset: 64
  DW_CFA_advance_loc: 16 to 0000000000462317
  DW_CFA_def_cfa_offset: 32
  DW_CFA_advance_loc: 30 to 0000000000462335
  DW_CFA_def_cfa_offset: 40
  DW_CFA_advance_loc: 7 to 000000000046233c
  DW_CFA_def_cfa_offset: 48
  DW_CFA_advance_loc: 19 to 000000000046234f
  DW_CFA_def_cfa_offset: 56
  DW_CFA_advance_loc: 1 to 0000000000462350
  DW_CFA_def_cfa_offset: 64
  DW_CFA_advance_loc: 9 to 0000000000462359
  DW_CFA_def_cfa_offset: 32
  DW_CFA_advance_loc1: 64 to 0000000000462399
  DW_CFA_remember_state
  DW_CFA_def_cfa_offset: 24
  DW_CFA_advance_loc: 1 to 000000000046239a
  DW_CFA_def_cfa_offset: 16
  DW_CFA_advance_loc: 1 to 000000000046239b
  DW_CFA_def_cfa_offset: 8
  DW_CFA_advance_loc: 5 to 00000000004623a0
  DW_CFA_restore_state
  DW_CFA_advance_loc: 24 to 00000000004623b8
  DW_CFA_def_cfa_offset: 8
  DW_CFA_restore: r3 (rbx)
  DW_CFA_restore: r6 (rbp)
  DW_CFA_nop
  DW_CFA_nop
  DW_CFA_nop
  DW_CFA_nop
  DW_CFA_nop
  DW_CFA_nop
  DW_CFA_nop

0000e590 000000000000002c 0000e498 FDE cie=0000e498 pc=00000000004623c0..00000000004624b8
  DW_CFA_advance_loc: 54 to 00000000004623f6
  DW_CFA_def_cfa_offset: 16
  DW_CFA_advance_loc: 42 to 0000000000462420
  DW_CFA_def_cfa_offset: 24
  DW_CFA_advance_loc: 10 to 000000000046242a
  DW_CFA_def_cfa_offset: 32
  DW_CFA_advance_loc: 6 to 0000000000462430
  DW_CFA_def_cfa_offset: 24
  DW_CFA_advance_loc: 1 to 0000000000462431
  DW_CFA_def_cfa_offset: 16
  DW_CFA_advance_loc1: 74 to 000000000046247b
  DW_CFA_def_cfa_offset: 8
  DW_CFA_advance_loc: 13 to 0000000000462488
  DW_CFA_def_cfa_offset: 16
  DW_CFA_nop
  DW_CFA_nop

0000e5c0 000000000000003c 0000e498 FDE cie=0000e498 pc=00000000004624c0..0000000000462531
  DW_CFA_advance_loc: 2 to 00000000004624c2
  DW_CFA_def_cfa_offset: 16
  DW_CFA_offset: r12 (r12) at cfa-16
  DW_CFA_advance_loc: 4 to 00000000004624c6
  DW_CFA_def_cfa_offset: 24
  DW_CFA_offset: r6 (rbp) at cfa-24
  DW_CFA_advance_loc: 1 to 00000000004624c7
  DW_CFA_def_cfa_offset: 32
  DW_CFA_offset: r3 (rbx) at cfa-32
  DW_CFA_advance_loc: 14 to 00000000004624d5
  DW_CFA_def_cfa_offset: 240
  DW_CFA_advance_loc1: 82 to 0000000000462527
  DW_CFA_remember_state
  DW_CFA_def_cfa_offset: 32
  DW_CFA_advance_loc: 1 to 0000000000462528
  DW_CFA_def_cfa_offset: 24
  DW_CFA_advance_loc: 1 to 0000000000462529
  DW_CFA_def_cfa_offset: 16
  DW_CFA_advance_loc: 2 to 000000000046252b
  DW_CFA_def_cfa_offset: 8
  DW_CFA_advance_loc: 1 to 000000000046252c
  DW_CFA_restore_state
  DW_CFA_nop
  DW_CFA_nop
  DW_CFA_nop
  DW_CFA_nop
  DW_CFA_nop

0000e600 000000000000004c 0000e498 FDE cie=0000e498 pc=0000000000462540..0000000000462837
  DW_CFA_advance_loc: 2 to 0000000000462542
  DW_CFA_def_cfa_offset: 16
  DW_CFA_offset: r14 (r14) at cfa-16
  DW_CFA_advance_loc: 2 to 0000000000462544
  DW_CFA_def_cfa_offset: 24
  DW_CFA_offset: r13 (r13) at cfa-24
  DW_CFA_advance_loc: 2 to 0000000000462546
  DW_CFA_def_cfa_offset: 32
  DW_CFA_offset: r12 (r12) at cfa-32
  DW_CFA_advance_loc: 4 to 000000000046254a
  DW_CFA_def_cfa_offset: 40
  DW_CFA_offset: r6 (rbp) at cfa-40
  DW_CFA_advance_loc: 1 to 000000000046254b
  DW_CFA_def_cfa_offset: 48
  DW_CFA_offset: r3 (rbx) at cfa-48
  DW_CFA_advance_loc: 7 to 0000000000462552
  DW_CFA_def_cfa_offset: 256
  DW_CFA_advance_loc2: 410 to 00000000004626ec
  DW_CFA_remember_state
  DW_CFA_def_cfa_offset: 48
  DW_CFA_advance_loc: 1 to 00000000004626ed
  DW_CFA_def_cfa_offset: 40
  DW_CFA_advance_loc: 1 to 00000000004626ee
  DW_CFA_def_cfa_offset: 32
  DW_CFA_advance_loc: 2 to 00000000004626f0
  DW_CFA_def_cfa_offset: 24
  DW_CFA_advance_loc: 2 to 00000000004626f2
  DW_CFA_def_cfa_offset: 16
  DW_CFA_advance_loc: 2 to 00000000004626f4
  DW_CFA_def_cfa_offset: 8
  DW_CFA_advance_loc: 4 to 00000000004626f8
  DW_CFA_restore_state
  DW_CFA_nop
  DW_CFA_nop
  DW_CFA_nop
  DW_CFA_nop

0000e650 000000000000001c 0000e498 FDE cie=0000e498 pc=0000000000462840..0000000000462868
  DW_CFA_advance_loc: 20 to 0000000000462854
  DW_CFA_def_cfa_offset: 16
  DW_CFA_advance_loc: 19 to 0000000000462867
  DW_CFA_def_cfa_offset: 8
  DW_CFA_nop
  DW_CFA_nop

0000e670 00000000000000cc 0000e498 FDE cie=0000e498 pc=0000000000462870..000000000046327e
  DW_CFA_advance_loc: 2 to 0000000000462872
  DW_CFA_def_cfa_offset: 16
  DW_CFA_offset: r15 (r15) at cfa-16
  DW_CFA_advance_loc: 16 to 0000000000462882
  DW_CFA_def_cfa_offset: 24
  DW_CFA_offset: r14 (r14) at cfa-24
  DW_CFA_advance_loc: 16 to 0000000000462892
  DW_CFA_def_cfa_offset: 32
  DW_CFA_offset: r13 (r13) at cfa-32
  DW_CFA_advance_loc: 14 to 00000000004628a0
  DW_CFA_def_cfa_offset: 40
  DW_CFA_offset: r12 (r12) at cfa-40
  DW_CFA_advance_loc: 5 to 00000000004628a5
  DW_CFA_def_cfa_offset: 48
  DW_CFA_offset: r6 (rbp) at cfa-48
  DW_CFA_advance_loc: 3 to 00000000004628a8
  DW_CFA_def_cfa_offset: 56
  DW_CFA_offset: r3 (rbx) at cfa-56
  DW_CFA_advance_loc: 10 to 00000000004628b2
  DW_CFA_def_cfa_offset: 720
  DW_CFA_advance_loc2: 433 to 0000000000462a63
  DW_CFA_def_cfa_offset: 728
  DW_CFA_advance_loc: 5 to 0000000000462a68
  DW_CFA_def_cfa_offset: 736
  DW_CFA_advance_loc: 13 to 0000000000462a75
  DW_CFA_def_cfa_offset: 744
  DW_CFA_advance_loc: 2 to 0000000000462a77
  DW_CFA_def_cfa_offset: 752
  DW_CFA_advance_loc: 1 to 0000000000462a78
  DW_CFA_def_cfa_offset: 760
  DW_CFA_advance_loc: 2 to 0000000000462a7a
  DW_CFA_def_cfa_offset: 768
  DW_CFA_advance_loc: 33 to 0000000000462a9b
  DW_CFA_def_cfa_offset: 720
  DW_CFA_advance_loc: 15 to 0000000000462aaa
  DW_CFA_def_cfa_offset: 728
  DW_CFA_advance_loc: 5 to 0000000000462aaf
  DW_CFA_def_cfa_offset: 736
  DW_CFA_advance_loc: 13 to 0000000000462abc
  DW_CFA_def_cfa_offset: 744
  DW_CFA_advance_loc: 2 to 0000000000462abe
  DW_CFA_def_cfa_offset: 752
  DW_CFA_advance_loc: 1 to 0000000000462abf
  DW_CFA_def_cfa_offset: 760
  DW_CFA_advance_loc: 2 to 0000000000462ac1
  DW_CFA_def_cfa_offset: 768
  DW_CFA_advance_loc: 58 to 0000000000462afb
  DW_CFA_def_cfa_offset: 720
  DW_CFA_advance_loc: 1 to 0000000000462afc
  DW_CFA_def_cfa_offset: 728
  DW_CFA_advance_loc: 12 to 0000000000462b08
  DW_CFA_def_cfa_offset: 736
  DW_CFA_advance_loc: 6 to 0000000000462b0e
  DW_CFA_def_cfa_offset: 744
  DW_CFA_advance_loc: 2 to 0000000000462b10
  DW_CFA_def_cfa_offset: 752
  DW_CFA_advance_loc: 1 to 0000000000462b11
  DW_CFA_def_cfa_offset: 760
  DW_CFA_advance_loc: 2 to 0000000000462b13
  DW_CFA_def_cfa_offset: 768
  DW_CFA_advance_loc: 16 to 0000000000462b23
  DW_CFA_def_cfa_offset: 720
  DW_CFA_advance_loc2: 396 to 0000000000462caf
  DW_CFA_remember_state
  DW_CFA_def_cfa_offset: 56
  DW_CFA_advance_loc: 4 to 0000000000462cb3
  DW_CFA_def_cfa_offset: 48
  DW_CFA_advance_loc: 1 to 0000000000462cb4
  DW_CFA_def_cfa_offset: 40
  DW_CFA_advance_loc: 2 to 0000000000462cb6
  DW_CFA_def_cfa_offset: 32
  DW_CFA_advance_loc: 2 to 0000000000462cb8
  DW_CFA_def_cfa_offset: 24
  DW_CFA_advance_loc: 2 to 0000000000462cba
  DW_CFA_def_cfa_offset: 16
  DW_CFA_advance_loc: 2 to 0000000000462cbc
  DW_CFA_def_cfa_offset: 8
  DW_CFA_advance_loc: 4 to 0000000000462cc0
  DW_CFA_restore_state
  DW_CFA_advance_loc: 39 to 0000000000462ce7
  DW_CFA_def_cfa_offset: 728
  DW_CFA_advance_loc: 9 to 0000000000462cf0
  DW_CFA_def_cfa_offset: 736
  DW_CFA_advance_loc: 18 to 0000000000462d02
  DW_CFA_def_cfa_offset: 728
  DW_CFA_advance_loc: 2 to 0000000000462d04
  DW_CFA_def_cfa_offset: 720
  DW_CFA_advance_loc2: 273 to 0000000000462e15
  DW_CFA_def_cfa_offset: 728
  DW_CFA_advance_loc: 21 to 0000000000462e2a
  DW_CFA_def_cfa_offset: 736
  DW_CFA_advance_loc1: 119 to 0000000000462ea1
  DW_CFA_def_cfa_offset: 728
  DW_CFA_advance_loc: 2 to 0000000000462ea3
  DW_CFA_def_cfa_offset: 720
  DW_CFA_nop
  DW_CFA_nop
  DW_CFA_nop

0000e740 0000000000000024 0000e498 FDE cie=0000e498 pc=0000000000463280..00000000004634b7
  DW_CFA_advance_loc: 4 to 0000000000463284
  DW_CFA_def_cfa_offset: 16
  DW_CFA_advance_loc1: 192 to 0000000000463344
  DW_CFA_remember_state
  DW_CFA_def_cfa_offset: 8
  DW_CFA_advance_loc: 4 to 0000000000463348
  DW_CFA_restore_state
  DW_CFA_nop
  DW_CFA_nop
  DW_CFA_nop
  DW_CFA_nop
  DW_CFA_nop
  DW_CFA_nop

0000e768 000000000000001c 0000e498 FDE cie=0000e498 pc=00000000004634c0..00000000004634e0
  DW_CFA_advance_loc: 4 to 00000000004634c4
  DW_CFA_def_cfa_offset: 16
  DW_CFA_advance_loc: 23 to 00000000004634db
  DW_CFA_def_cfa_offset: 8
  DW_CFA_nop
  DW_CFA_nop

0000e788 000000000000001c 0000e498 FDE cie=0000e498 pc=00000000004634e0..0000000000463500
  DW_CFA_advance_loc: 4 to 00000000004634e4
  DW_CFA_def_cfa_offset: 16
  DW_CFA_advance_loc: 23 to 00000000004634fb
  DW_CFA_def_cfa_offset: 8
  DW_CFA_nop
  DW_CFA_nop

0000e7a8 0000000000000024 0000e498 FDE cie=0000e498 pc=0000000000463500..000000000046358c
  DW_CFA_advance_loc: 4 to 0000000000463504
  DW_CFA_def_cfa_offset: 48
  DW_CFA_advance_loc: 47 to 0000000000463533
  DW_CFA_remember_state
  DW_CFA_def_cfa_offset: 8
  DW_CFA_advance_loc: 5 to 0000000000463538
  DW_CFA_restore_state
  DW_CFA_nop
  DW_CFA_nop
  DW_CFA_nop
  DW_CFA_nop
  DW_CFA_nop
  DW_CFA_nop
  DW_CFA_nop

0000e7d0 0000000000000014 0000e498 FDE cie=0000e498 pc=0000000000463590..00000000004635ae

0000e7e8 0000000000000054 0000e498 FDE cie=0000e498 pc=00000000004635b0..00000000004636cc
  DW_CFA_advance_loc: 2 to 00000000004635b2
  DW_CFA_def_cfa_offset: 16
  DW_CFA_offset: r13 (r13) at cfa-16
  DW_CFA_advance_loc: 2 to 00000000004635b4
  DW_CFA_def_cfa_offset: 24
  DW_CFA_offset: r12 (r12) at cfa-24
  DW_CFA_advance_loc: 1 to 00000000004635b5
  DW_CFA_def_cfa_offset: 32
  DW_CFA_offset: r6 (rbp) at cfa-32
  DW_CFA_advance_loc: 1 to 00000000004635b6
  DW_CFA_def_cfa_offset: 40
  DW_CFA_offset: r3 (rbx) at cfa-40
  DW_CFA_advance_loc: 4 to 00000000004635ba
  DW_CFA_def_cfa_offset: 96
  DW_CFA_advance_loc1: 94 to 0000000000463618
  DW_CFA_def_cfa_offset: 104
  DW_CFA_advance_loc: 6 to 000000000046361e
  DW_CFA_def_cfa_offset: 112
  DW_CFA_advance_loc: 6 to 0000000000463624
  DW_CFA_def_cfa_offset: 120
  DW_CFA_advance_loc: 6 to 000000000046362a
  DW_CFA_def_cfa_offset: 128
  DW_CFA_advance_loc: 19 to 000000000046363d
  DW_CFA_def_cfa_offset: 96
  DW_CFA_advance_loc: 63 to 000000000046367c
  DW_CFA_remember_state
  DW_CFA_def_cfa_offset: 40
  DW_CFA_advance_loc: 1 to 000000000046367d
  DW_CFA_def_cfa_offset: 32
  DW_CFA_advance_loc: 1 to 000000000046367e
  DW_CFA_def_cfa_offset: 24
  DW_CFA_advance_loc: 2 to 0000000000463680
  DW_CFA_def_cfa_offset: 16
  DW_CFA_advance_loc: 2 to 0000000000463682
  DW_CFA_def_cfa_offset: 8
  DW_CFA_advance_loc: 6 to 0000000000463688
  DW_CFA_restore_state
  DW_CFA_nop
  DW_CFA_nop
  DW_CFA_nop
  DW_CFA_nop
  DW_CFA_nop
  DW_CFA_nop

0000e840 000000000000005c 0000e498 FDE cie=0000e498 pc=00000000004636d0..00000000004638cb
  DW_CFA_advance_loc: 1 to 00000000004636d1
  DW_CFA_def_cfa_offset: 16
  DW_CFA_offset: r6 (rbp) at cfa-16
  DW_CFA_advance_loc: 3 to 00000000004636d4
  DW_CFA_def_cfa_offset: 24
  DW_CFA_offset: r3 (rbx) at cfa-24
  DW_CFA_advance_loc: 6 to 00000000004636da
  DW_CFA_def_cfa_offset: 32
  DW_CFA_advance_loc1: 99 to 000000000046373d
  DW_CFA_def_cfa_offset: 40
  DW_CFA_advance_loc: 10 to 0000000000463747
  DW_CFA_def_cfa_offset: 48
  DW_CFA_advance_loc: 13 to 0000000000463754
  DW_CFA_def_cfa_offset: 56
  DW_CFA_advance_loc: 1 to 0000000000463755
  DW_CFA_def_cfa_offset: 64
  DW_CFA_advance_loc: 12 to 0000000000463761
  DW_CFA_def_cfa_offset: 32
  DW_CFA_advance_loc: 8 to 0000000000463769
  DW_CFA_remember_state
  DW_CFA_def_cfa_offset: 24
  DW_CFA_advance_loc: 1 to 000000000046376a
  DW_CFA_def_cfa_offset: 16
  DW_CFA_advance_loc: 1 to 000000000046376b
  DW_CFA_def_cfa_offset: 8
  DW_CFA_advance_loc: 5 to 0000000000463770
  DW_CFA_restore_state
  DW_CFA_advance_loc1: 108 to 00000000004637dc
  DW_CFA_def_cfa_offset: 40
  DW_CFA_advance_loc: 11 to 00000000004637e7
  DW_CFA_def_cfa_offset: 48
  DW_CFA_advance_loc: 1 to 00000000004637e8
  DW_CFA_def_cfa_offset: 56
  DW_CFA_advance_loc: 2 to 00000000004637ea
  DW_CFA_def_cfa_offset: 64
  DW_CFA_advance_loc: 22 to 0000000000463800
  DW_CFA_def_cfa_offset: 32
  DW_CFA_advance_loc1: 112 to 0000000000463870
  DW_CFA_remember_state
  DW_CFA_def_cfa_offset: 24
  DW_CFA_advance_loc: 3 to 0000000000463873
  DW_CFA_def_cfa_offset: 16
  DW_CFA_advance_loc: 1 to 0000000000463874
  DW_CFA_def_cfa_offset: 8
  DW_CFA_advance_loc: 12 to 0000000000463880
  DW_CFA_restore_state
  DW_CFA_nop
  DW_CFA_nop

0000e8a0 0000000000000014 0000e498 FDE cie=0000e498 pc=00000000004638d0..00000000004638fc

0000e8b8 0000000000000054 0000e498 FDE cie=0000e498 pc=0000000000463900..0000000000463b16
  DW_CFA_advance_loc: 2 to 0000000000463902
  DW_CFA_def_cfa_offset: 16
  DW_CFA_offset: r15 (r15) at cfa-16
  DW_CFA_advance_loc: 7 to 0000000000463909
  DW_CFA_def_cfa_offset: 24
  DW_CFA_offset: r14 (r14) at cfa-24
  DW_CFA_advance_loc: 2 to 000000000046390b
  DW_CFA_def_cfa_offset: 32
  DW_CFA_offset: r13 (r13) at cfa-32
  DW_CFA_advance_loc: 2 to 000000000046390d
  DW_CFA_def_cfa_offset: 40
  DW_CFA_offset: r12 (r12) at cfa-40
  DW_CFA_advance_loc: 1 to 000000000046390e
  DW_CFA_def_cfa_offset: 48
  DW_CFA_offset: r6 (rbp) at cfa-48
  DW_CFA_advance_loc: 1 to 000000000046390f
  DW_CFA_def_cfa_offset: 56
  DW_CFA_offset: r3 (rbx) at cfa-56
  DW_CFA_advance_loc: 7 to 0000000000463916
  DW_CFA_def_cfa_offset: 496
  DW_CFA_advance_loc1: 81 to 0000000000463967
  DW_CFA_remember_state
  DW_CFA_def_cfa_offset: 56
  DW_CFA_advance_loc: 1 to 0000000000463968
  DW_CFA_def_cfa_offset: 48
  DW_CFA_advance_loc: 1 to 0000000000463969
  DW_CFA_def_cfa_offset: 40
  DW_CFA_advance_loc: 2 to 000000000046396b
  DW_CFA_def_cfa_offset: 32
  DW_CFA_advance_loc: 2 to 000000000046396d
  DW_CFA_def_cfa_offset: 24
  DW_CFA_advance_loc: 2 to 000000000046396f
  DW_CFA_def_cfa_offset: 16
  DW_CFA_advance_loc: 2 to 0000000000463971
  DW_CFA_def_cfa_offset: 8
  DW_CFA_advance_loc: 7 to 0000000000463978
  DW_CFA_restore_state
  DW_CFA_nop
  DW_CFA_nop
  DW_CFA_nop
  DW_CFA_nop
  DW_CFA_nop

0000e910 0000000000000054 0000e498 FDE cie=0000e498 pc=0000000000463b20..0000000000463d7e
  DW_CFA_advance_loc: 2 to 0000000000463b22
  DW_CFA_def_cfa_offset: 16
  DW_CFA_offset: r13 (r13) at cfa-16
  DW_CFA_advance_loc: 2 to 0000000000463b24
  DW_CFA_def_cfa_offset: 24
  DW_CFA_offset: r12 (r12) at cfa-24
  DW_CFA_advance_loc: 1 to 0000000000463b25
  DW_CFA_def_cfa_offset: 32
  DW_CFA_offset: r6 (rbp) at cfa-32
  DW_CFA_advance_loc: 1 to 0000000000463b26
  DW_CFA_def_cfa_offset: 40
  DW_CFA_offset: r3 (rbx) at cfa-40
  DW_CFA_advance_loc: 4 to 0000000000463b2a
  DW_CFA_def_cfa_offset: 48
  DW_CFA_advance_loc1: 125 to 0000000000463ba7
  DW_CFA_remember_state
  DW_CFA_def_cfa_offset: 40
  DW_CFA_advance_loc: 4 to 0000000000463bab
  DW_CFA_def_cfa_offset: 32
  DW_CFA_advance_loc: 1 to 0000000000463bac
  DW_CFA_def_cfa_offset: 24
  DW_CFA_advance_loc: 2 to 0000000000463bae
  DW_CFA_def_cfa_offset: 16
  DW_CFA_advance_loc: 2 to 0000000000463bb0
  DW_CFA_def_cfa_offset: 8
  DW_CFA_advance_loc: 8 to 0000000000463bb8
  DW_CFA_restore_state
  DW_CFA_advance_loc: 39 to 0000000000463bdf
  DW_CFA_remember_state
  DW_CFA_def_cfa_offset: 40
  DW_CFA_advance_loc: 4 to 0000000000463be3
  DW_CFA_def_cfa_offset: 32
  DW_CFA_advance_loc: 1 to 0000000000463be4
  DW_CFA_def_cfa_offset: 24
  DW_CFA_advance_loc: 2 to 0000000000463be6
  DW_CFA_def_cfa_offset: 16
  DW_CFA_advance_loc: 2 to 0000000000463be8
  DW_CFA_def_cfa_offset: 8
  DW_CFA_advance_loc: 8 to 0000000000463bf0
  DW_CFA_restore_state
  DW_CFA_nop
  DW_CFA_nop
  DW_CFA_nop
  DW_CFA_nop

0000e968 000000000000004c 0000e498 FDE cie=0000e498 pc=0000000000463d80..0000000000463ea4
  DW_CFA_advance_loc: 2 to 0000000000463d82
  DW_CFA_def_cfa_offset: 16
  DW_CFA_offset: r14 (r14) at cfa-16
  DW_CFA_advance_loc: 7 to 0000000000463d89
  DW_CFA_def_cfa_offset: 24
  DW_CFA_offset: r13 (r13) at cfa-24
  DW_CFA_advance_loc: 5 to 0000000000463d8e
  DW_CFA_def_cfa_offset: 32
  DW_CFA_offset: r12 (r12) at cfa-32
  DW_CFA_advance_loc: 4 to 0000000000463d92
  DW_CFA_def_cfa_offset: 40
  DW_CFA_offset: r6 (rbp) at cfa-40
  DW_CFA_advance_loc: 1 to 0000000000463d93
  DW_CFA_def_cfa_offset: 48
  DW_CFA_offset: r3 (rbx) at cfa-48
  DW_CFA_advance_loc: 7 to 0000000000463d9a
  DW_CFA_def_cfa_offset: 64
  DW_CFA_advance_loc1: 162 to 0000000000463e3c
  DW_CFA_remember_state
  DW_CFA_def_cfa_offset: 48
  DW_CFA_advance_loc: 1 to 0000000000463e3d
  DW_CFA_def_cfa_offset: 40
  DW_CFA_advance_loc: 1 to 0000000000463e3e
  DW_CFA_def_cfa_offset: 32
  DW_CFA_advance_loc: 2 to 0000000000463e40
  DW_CFA_def_cfa_offset: 24
  DW_CFA_advance_loc: 2 to 0000000000463e42
  DW_CFA_def_cfa_offset: 16
  DW_CFA_advance_loc: 2 to 0000000000463e44
  DW_CFA_def_cfa_offset: 8
  DW_CFA_advance_loc: 4 to 0000000000463e48
  DW_CFA_restore_state
  DW_CFA_nop
  DW_CFA_nop
  DW_CFA_nop
  DW_CFA_nop
  DW_CFA_nop
  DW_CFA_nop

0000e9b8 0000000000000014 0000e498 FDE cie=0000e498 pc=0000000000463eb0..0000000000463ec4

0000e9d0 0000000000000014 0000e498 FDE cie=0000e498 pc=0000000000463ed0..0000000000463ed8

0000e9e8 0000000000000014 ffffffff CIE
  Version:               1
  Augmentation:          ""
  Code alignment factor: 1
  Data alignment factor: -8
  Return address column: 16

  DW_CFA_def_cfa: r7 (rsp) ofs 8
  DW_CFA_offset: r16 (rip) at cfa-8
  DW_CFA_nop
  DW_CFA_nop
  DW_CFA_nop
  DW_CFA_nop
  DW_CFA_nop
  DW_CFA_nop

0000ea00 000000000000006c 0000e9e8 FDE cie=0000e9e8 pc=0000000000463ee0..0000000000464477
  DW_CFA_advance_loc: 2 to 0000000000463ee2
  DW_CFA_def_cfa_offset: 16
  DW_CFA_offset: r15 (r15) at cfa-16
  DW_CFA_advance_loc: 2 to 0000000000463ee4
  DW_CFA_def_cfa_offset: 24
  DW_CFA_offset: r14 (r14) at cfa-24
  DW_CFA_advance_loc: 5 to 0000000000463ee9
  DW_CFA_def_cfa_offset: 32
  DW_CFA_offset: r13 (r13) at cfa-32
  DW_CFA_advance_loc: 5 to 0000000000463eee
  DW_CFA_def_cfa_offset: 40
  DW_CFA_offset: r12 (r12) at cfa-40
  DW_CFA_advance_loc: 4 to 0000000000463ef2
  DW_CFA_def_cfa_offset: 48
  DW_CFA_offset: r6 (rbp) at cfa-48
  DW_CFA_advance_loc: 3 to 0000000000463ef5
  DW_CFA_def_cfa_offset: 56
  DW_CFA_offset: r3 (rbx) at cfa-56
  DW_CFA_advance_loc: 6 to 0000000000463efb
  DW_CFA_def_cfa_offset: 112
  DW_CFA_advance_loc1: 66 to 0000000000463f3d
  DW_CFA_remember_state
  DW_CFA_def_cfa_offset: 56
  DW_CFA_advance_loc: 1 to 0000000000463f3e
  DW_CFA_def_cfa_offset: 48
  DW_CFA_advance_loc: 1 to 0000000000463f3f
  DW_CFA_def_cfa_offset: 40
  DW_CFA_advance_loc: 2 to 0000000000463f41
  DW_CFA_def_cfa_offset: 32
  DW_CFA_advance_loc: 2 to 0000000000463f43
  DW_CFA_def_cfa_offset: 24
  DW_CFA_advance_loc: 2 to 0000000000463f45
  DW_CFA_def_cfa_offset: 16
  DW_CFA_advance_loc: 2 to 0000000000463f47
  DW_CFA_def_cfa_offset: 8
  DW_CFA_advance_loc: 9 to 0000000000463f50
  DW_CFA_restore_state
  DW_CFA_advance_loc1: 165 to 0000000000463ff5
  DW_CFA_remember_state
  DW_CFA_def_cfa_offset: 56
  DW_CFA_advance_loc: 8 to 0000000000463ffd
  DW_CFA_def_cfa_offset: 48
  DW_CFA_advance_loc: 1 to 0000000000463ffe
  DW_CFA_def_cfa_offset: 40
  DW_CFA_advance_loc: 2 to 0000000000464000
  DW_CFA_def_cfa_offset: 32
  DW_CFA_advance_loc: 2 to 0000000000464002
  DW_CFA_def_cfa_offset: 24
  DW_CFA_advance_loc: 2 to 0000000000464004
  DW_CFA_def_cfa_offset: 16
  DW_CFA_advance_loc: 2 to 0000000000464006
  DW_CFA_def_cfa_offset: 8
  DW_CFA_advance_loc: 10 to 0000000000464010
  DW_CFA_restore_state
  DW_CFA_nop
  DW_CFA_nop
  DW_CFA_nop
  DW_CFA_nop
  DW_CFA_nop

0000ea70 0000000000000014 ffffffff CIE
  Version:               1
  Augmentation:          ""
  Code alignment factor: 1
  Data alignment factor: -8
  Return address column: 16

  DW_CFA_def_cfa: r7 (rsp) ofs 8
  DW_CFA_offset: r16 (rip) at cfa-8
  DW_CFA_nop
  DW_CFA_nop
  DW_CFA_nop
  DW_CFA_nop
  DW_CFA_nop
  DW_CFA_nop

0000ea88 000000000000005c 0000ea70 FDE cie=0000ea70 pc=0000000000464480..0000000000464706
  DW_CFA_advance_loc: 2 to 0000000000464482
  DW_CFA_def_cfa_offset: 16
  DW_CFA_offset: r15 (r15) at cfa-16
  DW_CFA_advance_loc: 2 to 0000000000464484
  DW_CFA_def_cfa_offset: 24
  DW_CFA_offset: r14 (r14) at cfa-24
  DW_CFA_advance_loc: 2 to 0000000000464486
  DW_CFA_def_cfa_offset: 32
  DW_CFA_offset: r13 (r13) at cfa-32
  DW_CFA_advance_loc: 2 to 0000000000464488
  DW_CFA_def_cfa_offset: 40
  DW_CFA_offset: r12 (r12) at cfa-40
  DW_CFA_advance_loc: 1 to 0000000000464489
  DW_CFA_def_cfa_offset: 48
  DW_CFA_offset: r6 (rbp) at cfa-48
  DW_CFA_advance_loc: 3 to 000000000046448c
  DW_CFA_def_cfa_offset: 56
  DW_CFA_offset: r3 (rbx) at cfa-56
  DW_CFA_advance_loc: 4 to 0000000000464490
  DW_CFA_def_cfa_offset: 80
  DW_CFA_advance_loc1: 251 to 000000000046458b
  DW_CFA_def_cfa_offset: 88
  DW_CFA_advance_loc: 4 to 000000000046458f
  DW_CFA_def_cfa_offset: 96
  DW_CFA_advance_loc: 6 to 0000000000464595
  DW_CFA_def_cfa_offset: 88
  DW_CFA_advance_loc: 1 to 0000000000464596
  DW_CFA_def_cfa_offset: 80
  DW_CFA_advance_loc: 28 to 00000000004645b2
  DW_CFA_remember_state
  DW_CFA_def_cfa_offset: 56
  DW_CFA_advance_loc: 8 to 00000000004645ba
  DW_CFA_def_cfa_offset: 48
  DW_CFA_advance_loc: 1 to 00000000004645bb
  DW_CFA_def_cfa_offset: 40
  DW_CFA_advance_loc: 2 to 00000000004645bd
  DW_CFA_def_cfa_offset: 32
  DW_CFA_advance_loc: 2 to 00000000004645bf
  DW_CFA_def_cfa_offset: 24
  DW_CFA_advance_loc: 2 to 00000000004645c1
  DW_CFA_def_cfa_offset: 16
  DW_CFA_advance_loc: 2 to 00000000004645c3
  DW_CFA_def_cfa_offset: 8
  DW_CFA_advance_loc: 13 to 00000000004645d0
  DW_CFA_restore_state
  DW_CFA_nop
  DW_CFA_nop

0000eae8 0000000000000014 ffffffff CIE
  Version:               1
  Augmentation:          ""
  Code alignment factor: 1
  Data alignment factor: -8
  Return address column: 16

  DW_CFA_def_cfa: r7 (rsp) ofs 8
  DW_CFA_offset: r16 (rip) at cfa-8
  DW_CFA_nop
  DW_CFA_nop
  DW_CFA_nop
  DW_CFA_nop
  DW_CFA_nop
  DW_CFA_nop

0000eb00 0000000000000054 0000eae8 FDE cie=0000eae8 pc=0000000000464710..0000000000464907
  DW_CFA_advance_loc: 2 to 0000000000464712
  DW_CFA_def_cfa_offset: 16
  DW_CFA_offset: r15 (r15) at cfa-16
  DW_CFA_advance_loc: 2 to 0000000000464714
  DW_CFA_def_cfa_offset: 24
  DW_CFA_offset: r14 (r14) at cfa-24
  DW_CFA_advance_loc: 2 to 0000000000464716
  DW_CFA_def_cfa_offset: 32
  DW_CFA_offset: r13 (r13) at cfa-32
  DW_CFA_advance_loc: 2 to 0000000000464718
  DW_CFA_def_cfa_offset: 40
  DW_CFA_offset: r12 (r12) at cfa-40
  DW_CFA_advance_loc: 4 to 000000000046471c
  DW_CFA_def_cfa_offset: 48
  DW_CFA_offset: r6 (rbp) at cfa-48
  DW_CFA_advance_loc: 3 to 000000000046471f
  DW_CFA_def_cfa_offset: 56
  DW_CFA_offset: r3 (rbx) at cfa-56
  DW_CFA_advance_loc: 6 to 0000000000464725
  DW_CFA_def_cfa_offset: 64
  DW_CFA_advance_loc1: 93 to 0000000000464782
  DW_CFA_remember_state
  DW_CFA_def_cfa_offset: 56
  DW_CFA_advance_loc: 4 to 0000000000464786
  DW_CFA_def_cfa_offset: 48
  DW_CFA_advance_loc: 1 to 0000000000464787
  DW_CFA_def_cfa_offset: 40
  DW_CFA_advance_loc: 2 to 0000000000464789
  DW_CFA_def_cfa_offset: 32
  DW_CFA_advance_loc: 2 to 000000000046478b
  DW_CFA_def_cfa_offset: 24
  DW_CFA_advance_loc: 2 to 000000000046478d
  DW_CFA_def_cfa_offset: 16
  DW_CFA_advance_loc: 2 to 000000000046478f
  DW_CFA_def_cfa_offset: 8
  DW_CFA_advance_loc: 1 to 0000000000464790
  DW_CFA_restore_state
  DW_CFA_nop
  DW_CFA_nop
  DW_CFA_nop
  DW_CFA_nop
  DW_CFA_nop
  DW_CFA_nop

0000eb58 0000000000000014 ffffffff CIE
