  DW_CFA_remember_state
  DW_CFA_def_cfa_offset: 56
  DW_CFA_advance_loc: 8 to 00000000004395be
  DW_CFA_def_cfa_offset: 48
  DW_CFA_advance_loc: 1 to 00000000004395bf
  DW_CFA_def_cfa_offset: 40
  DW_CFA_advance_loc: 2 to 00000000004395c1
  DW_CFA_def_cfa_offset: 32
  DW_CFA_advance_loc: 2 to 00000000004395c3
  DW_CFA_def_cfa_offset: 24
  DW_CFA_advance_loc: 2 to 00000000004395c5
  DW_CFA_def_cfa_offset: 16
  DW_CFA_advance_loc: 2 to 00000000004395c7
  DW_CFA_def_cfa_offset: 8
  DW_CFA_advance_loc: 5 to 00000000004395cc
  DW_CFA_restore_state
  DW_CFA_advance_loc: 56 to 0000000000439604
  DW_CFA_remember_state
  DW_CFA_def_cfa_offset: 56
  DW_CFA_advance_loc: 8 to 000000000043960c
  DW_CFA_def_cfa_offset: 48
  DW_CFA_advance_loc: 1 to 000000000043960d
  DW_CFA_def_cfa_offset: 40
  DW_CFA_advance_loc: 2 to 000000000043960f
  DW_CFA_def_cfa_offset: 32
  DW_CFA_advance_loc: 2 to 0000000000439611
  DW_CFA_def_cfa_offset: 24
  DW_CFA_advance_loc: 2 to 0000000000439613
  DW_CFA_def_cfa_offset: 16
  DW_CFA_advance_loc: 2 to 0000000000439615
  DW_CFA_def_cfa_offset: 8
  DW_CFA_advance_loc: 5 to 000000000043961a
  DW_CFA_restore_state
  DW_CFA_advance_loc: 46 to 0000000000439648
  DW_CFA_remember_state
  DW_CFA_def_cfa_offset: 56
  DW_CFA_advance_loc: 8 to 0000000000439650
  DW_CFA_def_cfa_offset: 48
  DW_CFA_advance_loc: 1 to 0000000000439651
  DW_CFA_def_cfa_offset: 40
  DW_CFA_advance_loc: 2 to 0000000000439653
  DW_CFA_def_cfa_offset: 32
  DW_CFA_advance_loc: 2 to 0000000000439655
  DW_CFA_def_cfa_offset: 24
  DW_CFA_advance_loc: 2 to 0000000000439657
  DW_CFA_def_cfa_offset: 16
  DW_CFA_advance_loc: 2 to 0000000000439659
  DW_CFA_def_cfa_offset: 8
  DW_CFA_advance_loc: 5 to 000000000043965e
  DW_CFA_restore_state
  DW_CFA_advance_loc: 56 to 0000000000439696
  DW_CFA_remember_state
  DW_CFA_def_cfa_offset: 56
  DW_CFA_advance_loc: 8 to 000000000043969e
  DW_CFA_def_cfa_offset: 48
  DW_CFA_advance_loc: 1 to 000000000043969f
  DW_CFA_def_cfa_offset: 40
  DW_CFA_advance_loc: 2 to 00000000004396a1
  DW_CFA_def_cfa_offset: 32
  DW_CFA_advance_loc: 2 to 00000000004396a3
  DW_CFA_def_cfa_offset: 24
  DW_CFA_advance_loc: 2 to 00000000004396a5
  DW_CFA_def_cfa_offset: 16
  DW_CFA_advance_loc: 2 to 00000000004396a7
  DW_CFA_def_cfa_offset: 8
  DW_CFA_advance_loc: 5 to 00000000004396ac
  DW_CFA_restore_state
  DW_CFA_advance_loc: 46 to 00000000004396da
  DW_CFA_remember_state
  DW_CFA_def_cfa_offset: 56
  DW_CFA_advance_loc: 8 to 00000000004396e2
  DW_CFA_def_cfa_offset: 48
  DW_CFA_advance_loc: 1 to 00000000004396e3
  DW_CFA_def_cfa_offset: 40
  DW_CFA_advance_loc: 2 to 00000000004396e5
  DW_CFA_def_cfa_offset: 32
  DW_CFA_advance_loc: 2 to 00000000004396e7
  DW_CFA_def_cfa_offset: 24
  DW_CFA_advance_loc: 2 to 00000000004396e9
  DW_CFA_def_cfa_offset: 16
  DW_CFA_advance_loc: 2 to 00000000004396eb
  DW_CFA_def_cfa_offset: 8
  DW_CFA_advance_loc: 5 to 00000000004396f0
  DW_CFA_restore_state
  DW_CFA_advance_loc: 56 to 0000000000439728
  DW_CFA_remember_state
  DW_CFA_def_cfa_offset: 56
  DW_CFA_advance_loc: 8 to 0000000000439730
  DW_CFA_def_cfa_offset: 48
  DW_CFA_advance_loc: 1 to 0000000000439731
  DW_CFA_def_cfa_offset: 40
  DW_CFA_advance_loc: 2 to 0000000000439733
  DW_CFA_def_cfa_offset: 32
  DW_CFA_advance_loc: 2 to 0000000000439735
  DW_CFA_def_cfa_offset: 24
  DW_CFA_advance_loc: 2 to 0000000000439737
  DW_CFA_def_cfa_offset: 16
  DW_CFA_advance_loc: 2 to 0000000000439739
  DW_CFA_def_cfa_offset: 8
  DW_CFA_advance_loc: 5 to 000000000043973e
  DW_CFA_restore_state
  DW_CFA_advance_loc: 46 to 000000000043976c
  DW_CFA_remember_state
  DW_CFA_def_cfa_offset: 56
  DW_CFA_advance_loc: 8 to 0000000000439774
  DW_CFA_def_cfa_offset: 48
  DW_CFA_advance_loc: 1 to 0000000000439775
  DW_CFA_def_cfa_offset: 40
  DW_CFA_advance_loc: 2 to 0000000000439777
  DW_CFA_def_cfa_offset: 32
  DW_CFA_advance_loc: 2 to 0000000000439779
  DW_CFA_def_cfa_offset: 24
  DW_CFA_advance_loc: 2 to 000000000043977b
  DW_CFA_def_cfa_offset: 16
  DW_CFA_advance_loc: 2 to 000000000043977d
  DW_CFA_def_cfa_offset: 8
  DW_CFA_advance_loc: 5 to 0000000000439782
  DW_CFA_restore_state
  DW_CFA_advance_loc: 56 to 00000000004397ba
  DW_CFA_remember_state
  DW_CFA_def_cfa_offset: 56
  DW_CFA_advance_loc: 8 to 00000000004397c2
  DW_CFA_def_cfa_offset: 48
  DW_CFA_advance_loc: 1 to 00000000004397c3
  DW_CFA_def_cfa_offset: 40
  DW_CFA_advance_loc: 2 to 00000000004397c5
  DW_CFA_def_cfa_offset: 32
  DW_CFA_advance_loc: 2 to 00000000004397c7
  DW_CFA_def_cfa_offset: 24
  DW_CFA_advance_loc: 2 to 00000000004397c9
  DW_CFA_def_cfa_offset: 16
  DW_CFA_advance_loc: 2 to 00000000004397cb
  DW_CFA_def_cfa_offset: 8
  DW_CFA_advance_loc: 5 to 00000000004397d0
  DW_CFA_restore_state
  DW_CFA_advance_loc: 46 to 00000000004397fe
  DW_CFA_remember_state
  DW_CFA_def_cfa_offset: 56
  DW_CFA_advance_loc: 8 to 0000000000439806
  DW_CFA_def_cfa_offset: 48
  DW_CFA_advance_loc: 1 to 0000000000439807
  DW_CFA_def_cfa_offset: 40
  DW_CFA_advance_loc: 2 to 0000000000439809
  DW_CFA_def_cfa_offset: 32
  DW_CFA_advance_loc: 2 to 000000000043980b
  DW_CFA_def_cfa_offset: 24
  DW_CFA_advance_loc: 2 to 000000000043980d
  DW_CFA_def_cfa_offset: 16
  DW_CFA_advance_loc: 2 to 000000000043980f
  DW_CFA_def_cfa_offset: 8
  DW_CFA_advance_loc: 5 to 0000000000439814
  DW_CFA_restore_state
  DW_CFA_advance_loc: 56 to 000000000043984c
  DW_CFA_remember_state
  DW_CFA_def_cfa_offset: 56
  DW_CFA_advance_loc: 8 to 0000000000439854
  DW_CFA_def_cfa_offset: 48
  DW_CFA_advance_loc: 1 to 0000000000439855
  DW_CFA_def_cfa_offset: 40
  DW_CFA_advance_loc: 2 to 0000000000439857
  DW_CFA_def_cfa_offset: 32
  DW_CFA_advance_loc: 2 to 0000000000439859
  DW_CFA_def_cfa_offset: 24
  DW_CFA_advance_loc: 2 to 000000000043985b
  DW_CFA_def_cfa_offset: 16
  DW_CFA_advance_loc: 2 to 000000000043985d
  DW_CFA_def_cfa_offset: 8
  DW_CFA_advance_loc: 5 to 0000000000439862
  DW_CFA_restore_state
  DW_CFA_advance_loc: 46 to 0000000000439890
  DW_CFA_remember_state
  DW_CFA_def_cfa_offset: 56
  DW_CFA_advance_loc: 8 to 0000000000439898
  DW_CFA_def_cfa_offset: 48
  DW_CFA_advance_loc: 1 to 0000000000439899
  DW_CFA_def_cfa_offset: 40
  DW_CFA_advance_loc: 2 to 000000000043989b
  DW_CFA_def_cfa_offset: 32
  DW_CFA_advance_loc: 2 to 000000000043989d
  DW_CFA_def_cfa_offset: 24
  DW_CFA_advance_loc: 2 to 000000000043989f
  DW_CFA_def_cfa_offset: 16
  DW_CFA_advance_loc: 2 to 00000000004398a1
  DW_CFA_def_cfa_offset: 8
  DW_CFA_advance_loc: 5 to 00000000004398a6
  DW_CFA_restore_state
  DW_CFA_advance_loc: 56 to 00000000004398de
  DW_CFA_remember_state
  DW_CFA_def_cfa_offset: 56
  DW_CFA_advance_loc: 8 to 00000000004398e6
  DW_CFA_def_cfa_offset: 48
  DW_CFA_advance_loc: 1 to 00000000004398e7
  DW_CFA_def_cfa_offset: 40
  DW_CFA_advance_loc: 2 to 00000000004398e9
  DW_CFA_def_cfa_offset: 32
  DW_CFA_advance_loc: 2 to 00000000004398eb
  DW_CFA_def_cfa_offset: 24
  DW_CFA_advance_loc: 2 to 00000000004398ed
  DW_CFA_def_cfa_offset: 16
  DW_CFA_advance_loc: 2 to 00000000004398ef
  DW_CFA_def_cfa_offset: 8
  DW_CFA_advance_loc: 5 to 00000000004398f4
  DW_CFA_restore_state
  DW_CFA_advance_loc: 46 to 0000000000439922
  DW_CFA_remember_state
  DW_CFA_def_cfa_offset: 56
  DW_CFA_advance_loc: 8 to 000000000043992a
  DW_CFA_def_cfa_offset: 48
  DW_CFA_advance_loc: 1 to 000000000043992b
  DW_CFA_def_cfa_offset: 40
  DW_CFA_advance_loc: 2 to 000000000043992d
  DW_CFA_def_cfa_offset: 32
  DW_CFA_advance_loc: 2 to 000000000043992f
  DW_CFA_def_cfa_offset: 24
  DW_CFA_advance_loc: 2 to 0000000000439931
  DW_CFA_def_cfa_offset: 16
  DW_CFA_advance_loc: 2 to 0000000000439933
  DW_CFA_def_cfa_offset: 8
  DW_CFA_advance_loc: 5 to 0000000000439938
  DW_CFA_restore_state
  DW_CFA_advance_loc: 56 to 0000000000439970
  DW_CFA_remember_state
  DW_CFA_def_cfa_offset: 56
  DW_CFA_advance_loc: 8 to 0000000000439978
  DW_CFA_def_cfa_offset: 48
  DW_CFA_advance_loc: 1 to 0000000000439979
  DW_CFA_def_cfa_offset: 40
  DW_CFA_advance_loc: 2 to 000000000043997b
  DW_CFA_def_cfa_offset: 32
  DW_CFA_advance_loc: 2 to 000000000043997d
  DW_CFA_def_cfa_offset: 24
  DW_CFA_advance_loc: 2 to 000000000043997f
  DW_CFA_def_cfa_offset: 16
  DW_CFA_advance_loc: 2 to 0000000000439981
  DW_CFA_def_cfa_offset: 8
  DW_CFA_advance_loc: 5 to 0000000000439986
  DW_CFA_restore_state
  DW_CFA_advance_loc: 46 to 00000000004399b4
  DW_CFA_remember_state
  DW_CFA_def_cfa_offset: 56
  DW_CFA_advance_loc: 8 to 00000000004399bc
  DW_CFA_def_cfa_offset: 48
  DW_CFA_advance_loc: 1 to 00000000004399bd
  DW_CFA_def_cfa_offset: 40
  DW_CFA_advance_loc: 2 to 00000000004399bf
  DW_CFA_def_cfa_offset: 32
  DW_CFA_advance_loc: 2 to 00000000004399c1
  DW_CFA_def_cfa_offset: 24
  DW_CFA_advance_loc: 2 to 00000000004399c3
  DW_CFA_def_cfa_offset: 16
  DW_CFA_advance_loc: 2 to 00000000004399c5
  DW_CFA_def_cfa_offset: 8
  DW_CFA_advance_loc: 5 to 00000000004399ca
  DW_CFA_restore_state
  DW_CFA_advance_loc: 56 to 0000000000439a02
  DW_CFA_remember_state
  DW_CFA_def_cfa_offset: 56
  DW_CFA_advance_loc: 8 to 0000000000439a0a
  DW_CFA_def_cfa_offset: 48
  DW_CFA_advance_loc: 1 to 0000000000439a0b
  DW_CFA_def_cfa_offset: 40
  DW_CFA_advance_loc: 2 to 0000000000439a0d
  DW_CFA_def_cfa_offset: 32
  DW_CFA_advance_loc: 2 to 0000000000439a0f
  DW_CFA_def_cfa_offset: 24
  DW_CFA_advance_loc: 2 to 0000000000439a11
  DW_CFA_def_cfa_offset: 16
  DW_CFA_advance_loc: 2 to 0000000000439a13
  DW_CFA_def_cfa_offset: 8
  DW_CFA_advance_loc: 5 to 0000000000439a18
  DW_CFA_restore_state
  DW_CFA_advance_loc: 46 to 0000000000439a46
  DW_CFA_remember_state
  DW_CFA_def_cfa_offset: 56
  DW_CFA_advance_loc: 8 to 0000000000439a4e
  DW_CFA_def_cfa_offset: 48
  DW_CFA_advance_loc: 1 to 0000000000439a4f
  DW_CFA_def_cfa_offset: 40
  DW_CFA_advance_loc: 2 to 0000000000439a51
  DW_CFA_def_cfa_offset: 32
  DW_CFA_advance_loc: 2 to 0000000000439a53
  DW_CFA_def_cfa_offset: 24
  DW_CFA_advance_loc: 2 to 0000000000439a55
  DW_CFA_def_cfa_offset: 16
  DW_CFA_advance_loc: 2 to 0000000000439a57
  DW_CFA_def_cfa_offset: 8
  DW_CFA_advance_loc: 5 to 0000000000439a5c
  DW_CFA_restore_state
  DW_CFA_advance_loc: 56 to 0000000000439a94
  DW_CFA_remember_state
  DW_CFA_def_cfa_offset: 56
  DW_CFA_advance_loc: 8 to 0000000000439a9c
  DW_CFA_def_cfa_offset: 48
  DW_CFA_advance_loc: 1 to 0000000000439a9d
  DW_CFA_def_cfa_offset: 40
  DW_CFA_advance_loc: 2 to 0000000000439a9f
  DW_CFA_def_cfa_offset: 32
  DW_CFA_advance_loc: 2 to 0000000000439aa1
  DW_CFA_def_cfa_offset: 24
  DW_CFA_advance_loc: 2 to 0000000000439aa3
  DW_CFA_def_cfa_offset: 16
  DW_CFA_advance_loc: 2 to 0000000000439aa5
  DW_CFA_def_cfa_offset: 8
  DW_CFA_advance_loc: 5 to 0000000000439aaa
  DW_CFA_restore_state
  DW_CFA_advance_loc: 46 to 0000000000439ad8
  DW_CFA_remember_state
  DW_CFA_def_cfa_offset: 56
  DW_CFA_advance_loc: 8 to 0000000000439ae0
  DW_CFA_def_cfa_offset: 48
  DW_CFA_advance_loc: 1 to 0000000000439ae1
  DW_CFA_def_cfa_offset: 40
  DW_CFA_advance_loc: 2 to 0000000000439ae3
  DW_CFA_def_cfa_offset: 32
  DW_CFA_advance_loc: 2 to 0000000000439ae5
  DW_CFA_def_cfa_offset: 24
  DW_CFA_advance_loc: 2 to 0000000000439ae7
  DW_CFA_def_cfa_offset: 16
  DW_CFA_advance_loc: 2 to 0000000000439ae9
  DW_CFA_def_cfa_offset: 8
  DW_CFA_advance_loc: 5 to 0000000000439aee
  DW_CFA_restore_state
  DW_CFA_advance_loc: 56 to 0000000000439b26
  DW_CFA_remember_state
  DW_CFA_def_cfa_offset: 56
  DW_CFA_advance_loc: 8 to 0000000000439b2e
  DW_CFA_def_cfa_offset: 48
  DW_CFA_advance_loc: 1 to 0000000000439b2f
  DW_CFA_def_cfa_offset: 40
  DW_CFA_advance_loc: 2 to 0000000000439b31
  DW_CFA_def_cfa_offset: 32
  DW_CFA_advance_loc: 2 to 0000000000439b33
  DW_CFA_def_cfa_offset: 24
  DW_CFA_advance_loc: 2 to 0000000000439b35
  DW_CFA_def_cfa_offset: 16
  DW_CFA_advance_loc: 2 to 0000000000439b37
  DW_CFA_def_cfa_offset: 8
  DW_CFA_advance_loc: 5 to 0000000000439b3c
  DW_CFA_restore_state
  DW_CFA_advance_loc: 46 to 0000000000439b6a
  DW_CFA_remember_state
  DW_CFA_def_cfa_offset: 56
  DW_CFA_advance_loc: 8 to 0000000000439b72
  DW_CFA_def_cfa_offset: 48
  DW_CFA_advance_loc: 1 to 0000000000439b73
  DW_CFA_def_cfa_offset: 40
  DW_CFA_advance_loc: 2 to 0000000000439b75
  DW_CFA_def_cfa_offset: 32
  DW_CFA_advance_loc: 2 to 0000000000439b77
  DW_CFA_def_cfa_offset: 24
  DW_CFA_advance_loc: 2 to 0000000000439b79
  DW_CFA_def_cfa_offset: 16
  DW_CFA_advance_loc: 2 to 0000000000439b7b
  DW_CFA_def_cfa_offset: 8
  DW_CFA_advance_loc: 5 to 0000000000439b80
  DW_CFA_restore_state
  DW_CFA_advance_loc: 56 to 0000000000439bb8
  DW_CFA_remember_state
  DW_CFA_def_cfa_offset: 56
  DW_CFA_advance_loc: 8 to 0000000000439bc0
  DW_CFA_def_cfa_offset: 48
  DW_CFA_advance_loc: 1 to 0000000000439bc1
  DW_CFA_def_cfa_offset: 40
  DW_CFA_advance_loc: 2 to 0000000000439bc3
  DW_CFA_def_cfa_offset: 32
  DW_CFA_advance_loc: 2 to 0000000000439bc5
  DW_CFA_def_cfa_offset: 24
  DW_CFA_advance_loc: 2 to 0000000000439bc7
  DW_CFA_def_cfa_offset: 16
  DW_CFA_advance_loc: 2 to 0000000000439bc9
  DW_CFA_def_cfa_offset: 8
  DW_CFA_advance_loc: 5 to 0000000000439bce
  DW_CFA_restore_state
  DW_CFA_advance_loc: 46 to 0000000000439bfc
  DW_CFA_remember_state
  DW_CFA_def_cfa_offset: 56
  DW_CFA_advance_loc: 8 to 0000000000439c04
  DW_CFA_def_cfa_offset: 48
  DW_CFA_advance_loc: 1 to 0000000000439c05
  DW_CFA_def_cfa_offset: 40
  DW_CFA_advance_loc: 2 to 0000000000439c07
  DW_CFA_def_cfa_offset: 32
  DW_CFA_advance_loc: 2 to 0000000000439c09
  DW_CFA_def_cfa_offset: 24
  DW_CFA_advance_loc: 2 to 0000000000439c0b
  DW_CFA_def_cfa_offset: 16
  DW_CFA_advance_loc: 2 to 0000000000439c0d
  DW_CFA_def_cfa_offset: 8
  DW_CFA_advance_loc: 5 to 0000000000439c12
  DW_CFA_restore_state
  DW_CFA_advance_loc: 56 to 0000000000439c4a
  DW_CFA_remember_state
  DW_CFA_def_cfa_offset: 56
  DW_CFA_advance_loc: 8 to 0000000000439c52
  DW_CFA_def_cfa_offset: 48
  DW_CFA_advance_loc: 1 to 0000000000439c53
  DW_CFA_def_cfa_offset: 40
  DW_CFA_advance_loc: 2 to 0000000000439c55
  DW_CFA_def_cfa_offset: 32
  DW_CFA_advance_loc: 2 to 0000000000439c57
  DW_CFA_def_cfa_offset: 24
  DW_CFA_advance_loc: 2 to 0000000000439c59
  DW_CFA_def_cfa_offset: 16
  DW_CFA_advance_loc: 2 to 0000000000439c5b
  DW_CFA_def_cfa_offset: 8
  DW_CFA_advance_loc: 5 to 0000000000439c60
  DW_CFA_restore_state
  DW_CFA_advance_loc: 46 to 0000000000439c8e
  DW_CFA_remember_state
  DW_CFA_def_cfa_offset: 56
  DW_CFA_advance_loc: 8 to 0000000000439c96
  DW_CFA_def_cfa_offset: 48
  DW_CFA_advance_loc: 1 to 0000000000439c97
  DW_CFA_def_cfa_offset: 40
  DW_CFA_advance_loc: 2 to 0000000000439c99
  DW_CFA_def_cfa_offset: 32
  DW_CFA_advance_loc: 2 to 0000000000439c9b
  DW_CFA_def_cfa_offset: 24
  DW_CFA_advance_loc: 2 to 0000000000439c9d
  DW_CFA_def_cfa_offset: 16
  DW_CFA_advance_loc: 2 to 0000000000439c9f
  DW_CFA_def_cfa_offset: 8
  DW_CFA_advance_loc: 5 to 0000000000439ca4
  DW_CFA_restore_state
  DW_CFA_advance_loc: 56 to 0000000000439cdc
  DW_CFA_remember_state
  DW_CFA_def_cfa_offset: 56
  DW_CFA_advance_loc: 8 to 0000000000439ce4
  DW_CFA_def_cfa_offset: 48
  DW_CFA_advance_loc: 1 to 0000000000439ce5
  DW_CFA_def_cfa_offset: 40
  DW_CFA_advance_loc: 2 to 0000000000439ce7
  DW_CFA_def_cfa_offset: 32
  DW_CFA_advance_loc: 2 to 0000000000439ce9
  DW_CFA_def_cfa_offset: 24
  DW_CFA_advance_loc: 2 to 0000000000439ceb
  DW_CFA_def_cfa_offset: 16
  DW_CFA_advance_loc: 2 to 0000000000439ced
  DW_CFA_def_cfa_offset: 8
  DW_CFA_advance_loc: 5 to 0000000000439cf2
  DW_CFA_restore_state
  DW_CFA_advance_loc: 46 to 0000000000439d20
  DW_CFA_remember_state
  DW_CFA_def_cfa_offset: 56
  DW_CFA_advance_loc: 8 to 0000000000439d28
  DW_CFA_def_cfa_offset: 48
  DW_CFA_advance_loc: 1 to 0000000000439d29
  DW_CFA_def_cfa_offset: 40
  DW_CFA_advance_loc: 2 to 0000000000439d2b
  DW_CFA_def_cfa_offset: 32
  DW_CFA_advance_loc: 2 to 0000000000439d2d
  DW_CFA_def_cfa_offset: 24
  DW_CFA_advance_loc: 2 to 0000000000439d2f
  DW_CFA_def_cfa_offset: 16
  DW_CFA_advance_loc: 2 to 0000000000439d31
  DW_CFA_def_cfa_offset: 8
  DW_CFA_advance_loc: 5 to 0000000000439d36
  DW_CFA_restore_state
  DW_CFA_advance_loc: 56 to 0000000000439d6e
  DW_CFA_remember_state
  DW_CFA_def_cfa_offset: 56
  DW_CFA_advance_loc: 8 to 0000000000439d76
  DW_CFA_def_cfa_offset: 48
  DW_CFA_advance_loc: 1 to 0000000000439d77
  DW_CFA_def_cfa_offset: 40
  DW_CFA_advance_loc: 2 to 0000000000439d79
  DW_CFA_def_cfa_offset: 32
  DW_CFA_advance_loc: 2 to 0000000000439d7b
  DW_CFA_def_cfa_offset: 24
  DW_CFA_advance_loc: 2 to 0000000000439d7d
  DW_CFA_def_cfa_offset: 16
  DW_CFA_advance_loc: 2 to 0000000000439d7f
  DW_CFA_def_cfa_offset: 8
  DW_CFA_advance_loc: 5 to 0000000000439d84
  DW_CFA_restore_state
  DW_CFA_advance_loc: 46 to 0000000000439db2
  DW_CFA_remember_state
  DW_CFA_def_cfa_offset: 56
  DW_CFA_advance_loc: 8 to 0000000000439dba
  DW_CFA_def_cfa_offset: 48
  DW_CFA_advance_loc: 1 to 0000000000439dbb
  DW_CFA_def_cfa_offset: 40
  DW_CFA_advance_loc: 2 to 0000000000439dbd
  DW_CFA_def_cfa_offset: 32
  DW_CFA_advance_loc: 2 to 0000000000439dbf
  DW_CFA_def_cfa_offset: 24
  DW_CFA_advance_loc: 2 to 0000000000439dc1
  DW_CFA_def_cfa_offset: 16
  DW_CFA_advance_loc: 2 to 0000000000439dc3
  DW_CFA_def_cfa_offset: 8
  DW_CFA_advance_loc: 5 to 0000000000439dc8
  DW_CFA_restore_state
  DW_CFA_advance_loc: 56 to 0000000000439e00
  DW_CFA_remember_state
  DW_CFA_def_cfa_offset: 56
  DW_CFA_advance_loc: 8 to 0000000000439e08
  DW_CFA_def_cfa_offset: 48
  DW_CFA_advance_loc: 1 to 0000000000439e09
  DW_CFA_def_cfa_offset: 40
  DW_CFA_advance_loc: 2 to 0000000000439e0b
  DW_CFA_def_cfa_offset: 32
  DW_CFA_advance_loc: 2 to 0000000000439e0d
  DW_CFA_def_cfa_offset: 24
  DW_CFA_advance_loc: 2 to 0000000000439e0f
  DW_CFA_def_cfa_offset: 16
  DW_CFA_advance_loc: 2 to 0000000000439e11
  DW_CFA_def_cfa_offset: 8
  DW_CFA_advance_loc: 5 to 0000000000439e16
  DW_CFA_restore_state
  DW_CFA_advance_loc: 46 to 0000000000439e44
  DW_CFA_remember_state
  DW_CFA_def_cfa_offset: 56
  DW_CFA_advance_loc: 8 to 0000000000439e4c
  DW_CFA_def_cfa_offset: 48
  DW_CFA_advance_loc: 1 to 0000000000439e4d
  DW_CFA_def_cfa_offset: 40
  DW_CFA_advance_loc: 2 to 0000000000439e4f
  DW_CFA_def_cfa_offset: 32
  DW_CFA_advance_loc: 2 to 0000000000439e51
  DW_CFA_def_cfa_offset: 24
  DW_CFA_advance_loc: 2 to 0000000000439e53
  DW_CFA_def_cfa_offset: 16
  DW_CFA_advance_loc: 2 to 0000000000439e55
  DW_CFA_def_cfa_offset: 8
  DW_CFA_advance_loc: 5 to 0000000000439e5a
  DW_CFA_restore_state
  DW_CFA_advance_loc: 56 to 0000000000439e92
  DW_CFA_remember_state
  DW_CFA_def_cfa_offset: 56
  DW_CFA_advance_loc: 8 to 0000000000439e9a
  DW_CFA_def_cfa_offset: 48
  DW_CFA_advance_loc: 1 to 0000000000439e9b
  DW_CFA_def_cfa_offset: 40
  DW_CFA_advance_loc: 2 to 0000000000439e9d
  DW_CFA_def_cfa_offset: 32
  DW_CFA_advance_loc: 2 to 0000000000439e9f
  DW_CFA_def_cfa_offset: 24
  DW_CFA_advance_loc: 2 to 0000000000439ea1
  DW_CFA_def_cfa_offset: 16
  DW_CFA_advance_loc: 2 to 0000000000439ea3
  DW_CFA_def_cfa_offset: 8
  DW_CFA_advance_loc: 5 to 0000000000439ea8
  DW_CFA_restore_state
  DW_CFA_advance_loc: 46 to 0000000000439ed6
  DW_CFA_remember_state
  DW_CFA_def_cfa_offset: 56
  DW_CFA_advance_loc: 8 to 0000000000439ede
  DW_CFA_def_cfa_offset: 48
  DW_CFA_advance_loc: 1 to 0000000000439edf
  DW_CFA_def_cfa_offset: 40
  DW_CFA_advance_loc: 2 to 0000000000439ee1
  DW_CFA_def_cfa_offset: 32
  DW_CFA_advance_loc: 2 to 0000000000439ee3
  DW_CFA_def_cfa_offset: 24
  DW_CFA_advance_loc: 2 to 0000000000439ee5
  DW_CFA_def_cfa_offset: 16
  DW_CFA_advance_loc: 2 to 0000000000439ee7
  DW_CFA_def_cfa_offset: 8
  DW_CFA_advance_loc: 5 to 0000000000439eec
  DW_CFA_restore_state
  DW_CFA_advance_loc: 56 to 0000000000439f24
  DW_CFA_remember_state
  DW_CFA_def_cfa_offset: 56
  DW_CFA_advance_loc: 8 to 0000000000439f2c
  DW_CFA_def_cfa_offset: 48
  DW_CFA_advance_loc: 1 to 0000000000439f2d
  DW_CFA_def_cfa_offset: 40
  DW_CFA_advance_loc: 2 to 0000000000439f2f
  DW_CFA_def_cfa_offset: 32
  DW_CFA_advance_loc: 2 to 0000000000439f31
  DW_CFA_def_cfa_offset: 24
  DW_CFA_advance_loc: 2 to 0000000000439f33
  DW_CFA_def_cfa_offset: 16
  DW_CFA_advance_loc: 2 to 0000000000439f35
  DW_CFA_def_cfa_offset: 8
  DW_CFA_advance_loc: 5 to 0000000000439f3a
  DW_CFA_restore_state
  DW_CFA_advance_loc: 46 to 0000000000439f68
  DW_CFA_remember_state
  DW_CFA_def_cfa_offset: 56
  DW_CFA_advance_loc: 8 to 0000000000439f70
  DW_CFA_def_cfa_offset: 48
  DW_CFA_advance_loc: 1 to 0000000000439f71
  DW_CFA_def_cfa_offset: 40
  DW_CFA_advance_loc: 2 to 0000000000439f73
  DW_CFA_def_cfa_offset: 32
  DW_CFA_advance_loc: 2 to 0000000000439f75
  DW_CFA_def_cfa_offset: 24
  DW_CFA_advance_loc: 2 to 0000000000439f77
  DW_CFA_def_cfa_offset: 16
  DW_CFA_advance_loc: 2 to 0000000000439f79
  DW_CFA_def_cfa_offset: 8
  DW_CFA_advance_loc: 5 to 0000000000439f7e
  DW_CFA_restore_state
  DW_CFA_advance_loc: 56 to 0000000000439fb6
  DW_CFA_remember_state
  DW_CFA_def_cfa_offset: 56
  DW_CFA_advance_loc: 8 to 0000000000439fbe
  DW_CFA_def_cfa_offset: 48
  DW_CFA_advance_loc: 1 to 0000000000439fbf
  DW_CFA_def_cfa_offset: 40
  DW_CFA_advance_loc: 2 to 0000000000439fc1
  DW_CFA_def_cfa_offset: 32
  DW_CFA_advance_loc: 2 to 0000000000439fc3
  DW_CFA_def_cfa_offset: 24
  DW_CFA_advance_loc: 2 to 0000000000439fc5
  DW_CFA_def_cfa_offset: 16
  DW_CFA_advance_loc: 2 to 0000000000439fc7
  DW_CFA_def_cfa_offset: 8
  DW_CFA_advance_loc: 5 to 0000000000439fcc
  DW_CFA_restore_state
  DW_CFA_advance_loc: 46 to 0000000000439ffa
  DW_CFA_remember_state
  DW_CFA_def_cfa_offset: 56
  DW_CFA_advance_loc: 8 to 000000000043a002
  DW_CFA_def_cfa_offset: 48
  DW_CFA_advance_loc: 1 to 000000000043a003
  DW_CFA_def_cfa_offset: 40
  DW_CFA_advance_loc: 2 to 000000000043a005
  DW_CFA_def_cfa_offset: 32
  DW_CFA_advance_loc: 2 to 000000000043a007
  DW_CFA_def_cfa_offset: 24
  DW_CFA_advance_loc: 2 to 000000000043a009
  DW_CFA_def_cfa_offset: 16
  DW_CFA_advance_loc: 2 to 000000000043a00b
  DW_CFA_def_cfa_offset: 8
  DW_CFA_advance_loc: 5 to 000000000043a010
  DW_CFA_restore_state
  DW_CFA_advance_loc: 56 to 000000000043a048
  DW_CFA_remember_state
  DW_CFA_def_cfa_offset: 56
  DW_CFA_advance_loc: 8 to 000000000043a050
  DW_CFA_def_cfa_offset: 48
  DW_CFA_advance_loc: 1 to 000000000043a051
  DW_CFA_def_cfa_offset: 40
  DW_CFA_advance_loc: 2 to 000000000043a053
  DW_CFA_def_cfa_offset: 32
  DW_CFA_advance_loc: 2 to 000000000043a055
  DW_CFA_def_cfa_offset: 24
  DW_CFA_advance_loc: 2 to 000000000043a057
  DW_CFA_def_cfa_offset: 16
  DW_CFA_advance_loc: 2 to 000000000043a059
  DW_CFA_def_cfa_offset: 8
  DW_CFA_advance_loc: 5 to 000000000043a05e
  DW_CFA_restore_state
  DW_CFA_advance_loc: 46 to 000000000043a08c
  DW_CFA_remember_state
  DW_CFA_def_cfa_offset: 56
  DW_CFA_advance_loc: 8 to 000000000043a094
  DW_CFA_def_cfa_offset: 48
  DW_CFA_advance_loc: 1 to 000000000043a095
  DW_CFA_def_cfa_offset: 40
  DW_CFA_advance_loc: 2 to 000000000043a097
  DW_CFA_def_cfa_offset: 32
  DW_CFA_advance_loc: 2 to 000000000043a099
  DW_CFA_def_cfa_offset: 24
  DW_CFA_advance_loc: 2 to 000000000043a09b
  DW_CFA_def_cfa_offset: 16
  DW_CFA_advance_loc: 2 to 000000000043a09d
  DW_CFA_def_cfa_offset: 8
  DW_CFA_advance_loc: 5 to 000000000043a0a2
  DW_CFA_restore_state
  DW_CFA_advance_loc: 56 to 000000000043a0da
  DW_CFA_remember_state
  DW_CFA_def_cfa_offset: 56
  DW_CFA_advance_loc: 8 to 000000000043a0e2
  DW_CFA_def_cfa_offset: 48
  DW_CFA_advance_loc: 1 to 000000000043a0e3
  DW_CFA_def_cfa_offset: 40
  DW_CFA_advance_loc: 2 to 000000000043a0e5
  DW_CFA_def_cfa_offset: 32
  DW_CFA_advance_loc: 2 to 000000000043a0e7
  DW_CFA_def_cfa_offset: 24
  DW_CFA_advance_loc: 2 to 000000000043a0e9
  DW_CFA_def_cfa_offset: 16
  DW_CFA_advance_loc: 2 to 000000000043a0eb
  DW_CFA_def_cfa_offset: 8
  DW_CFA_advance_loc: 5 to 000000000043a0f0
  DW_CFA_restore_state
  DW_CFA_advance_loc: 46 to 000000000043a11e
  DW_CFA_remember_state
  DW_CFA_def_cfa_offset: 56
  DW_CFA_advance_loc: 8 to 000000000043a126
  DW_CFA_def_cfa_offset: 48
  DW_CFA_advance_loc: 1 to 000000000043a127
  DW_CFA_def_cfa_offset: 40
  DW_CFA_advance_loc: 2 to 000000000043a129
  DW_CFA_def_cfa_offset: 32
  DW_CFA_advance_loc: 2 to 000000000043a12b
  DW_CFA_def_cfa_offset: 24
  DW_CFA_advance_loc: 2 to 000000000043a12d
  DW_CFA_def_cfa_offset: 16
  DW_CFA_advance_loc: 2 to 000000000043a12f
  DW_CFA_def_cfa_offset: 8
  DW_CFA_advance_loc: 5 to 000000000043a134
  DW_CFA_restore_state
  DW_CFA_advance_loc: 56 to 000000000043a16c
  DW_CFA_remember_state
  DW_CFA_def_cfa_offset: 56
  DW_CFA_advance_loc: 8 to 000000000043a174
  DW_CFA_def_cfa_offset: 48
  DW_CFA_advance_loc: 1 to 000000000043a175
  DW_CFA_def_cfa_offset: 40
  DW_CFA_advance_loc: 2 to 000000000043a177
  DW_CFA_def_cfa_offset: 32
  DW_CFA_advance_loc: 2 to 000000000043a179
  DW_CFA_def_cfa_offset: 24
  DW_CFA_advance_loc: 2 to 000000000043a17b
  DW_CFA_def_cfa_offset: 16
  DW_CFA_advance_loc: 2 to 000000000043a17d
  DW_CFA_def_cfa_offset: 8
  DW_CFA_advance_loc: 5 to 000000000043a182
  DW_CFA_restore_state
  DW_CFA_advance_loc: 46 to 000000000043a1b0
  DW_CFA_remember_state
  DW_CFA_def_cfa_offset: 56
  DW_CFA_advance_loc: 8 to 000000000043a1b8
  DW_CFA_def_cfa_offset: 48
  DW_CFA_advance_loc: 1 to 000000000043a1b9
  DW_CFA_def_cfa_offset: 40
  DW_CFA_advance_loc: 2 to 000000000043a1bb
  DW_CFA_def_cfa_offset: 32
  DW_CFA_advance_loc: 2 to 000000000043a1bd
  DW_CFA_def_cfa_offset: 24
  DW_CFA_advance_loc: 2 to 000000000043a1bf
  DW_CFA_def_cfa_offset: 16
  DW_CFA_advance_loc: 2 to 000000000043a1c1
  DW_CFA_def_cfa_offset: 8
  DW_CFA_advance_loc: 5 to 000000000043a1c6
  DW_CFA_restore_state
  DW_CFA_advance_loc: 56 to 000000000043a1fe
  DW_CFA_remember_state
  DW_CFA_def_cfa_offset: 56
  DW_CFA_advance_loc: 8 to 000000000043a206
  DW_CFA_def_cfa_offset: 48
  DW_CFA_advance_loc: 1 to 000000000043a207
  DW_CFA_def_cfa_offset: 40
  DW_CFA_advance_loc: 2 to 000000000043a209
  DW_CFA_def_cfa_offset: 32
  DW_CFA_advance_loc: 2 to 000000000043a20b
  DW_CFA_def_cfa_offset: 24
  DW_CFA_advance_loc: 2 to 000000000043a20d
  DW_CFA_def_cfa_offset: 16
  DW_CFA_advance_loc: 2 to 000000000043a20f
  DW_CFA_def_cfa_offset: 8
  DW_CFA_advance_loc: 5 to 000000000043a214
  DW_CFA_restore_state
  DW_CFA_advance_loc: 46 to 000000000043a242
  DW_CFA_remember_state
  DW_CFA_def_cfa_offset: 56
  DW_CFA_advance_loc: 8 to 000000000043a24a
  DW_CFA_def_cfa_offset: 48
  DW_CFA_advance_loc: 1 to 000000000043a24b
  DW_CFA_def_cfa_offset: 40
  DW_CFA_advance_loc: 2 to 000000000043a24d
  DW_CFA_def_cfa_offset: 32
  DW_CFA_advance_loc: 2 to 000000000043a24f
  DW_CFA_def_cfa_offset: 24
  DW_CFA_advance_loc: 2 to 000000000043a251
  DW_CFA_def_cfa_offset: 16
  DW_CFA_advance_loc: 2 to 000000000043a253
  DW_CFA_def_cfa_offset: 8
  DW_CFA_advance_loc: 5 to 000000000043a258
  DW_CFA_restore_state
  DW_CFA_advance_loc: 56 to 000000000043a290
  DW_CFA_remember_state
  DW_CFA_def_cfa_offset: 56
  DW_CFA_advance_loc: 8 to 000000000043a298
  DW_CFA_def_cfa_offset: 48
  DW_CFA_advance_loc: 1 to 000000000043a299
  DW_CFA_def_cfa_offset: 40
  DW_CFA_advance_loc: 2 to 000000000043a29b
  DW_CFA_def_cfa_offset: 32
  DW_CFA_advance_loc: 2 to 000000000043a29d
  DW_CFA_def_cfa_offset: 24
  DW_CFA_advance_loc: 2 to 000000000043a29f
  DW_CFA_def_cfa_offset: 16
  DW_CFA_advance_loc: 2 to 000000000043a2a1
  DW_CFA_def_cfa_offset: 8
  DW_CFA_advance_loc: 5 to 000000000043a2a6
  DW_CFA_restore_state
  DW_CFA_advance_loc: 46 to 000000000043a2d4
  DW_CFA_remember_state
  DW_CFA_def_cfa_offset: 56
  DW_CFA_advance_loc: 8 to 000000000043a2dc
  DW_CFA_def_cfa_offset: 48
  DW_CFA_advance_loc: 1 to 000000000043a2dd
  DW_CFA_def_cfa_offset: 40
  DW_CFA_advance_loc: 2 to 000000000043a2df
  DW_CFA_def_cfa_offset: 32
  DW_CFA_advance_loc: 2 to 000000000043a2e1
  DW_CFA_def_cfa_offset: 24
  DW_CFA_advance_loc: 2 to 000000000043a2e3
  DW_CFA_def_cfa_offset: 16
  DW_CFA_advance_loc: 2 to 000000000043a2e5
  DW_CFA_def_cfa_offset: 8
  DW_CFA_advance_loc: 5 to 000000000043a2ea
  DW_CFA_restore_state
  DW_CFA_advance_loc: 56 to 000000000043a322
  DW_CFA_remember_state
  DW_CFA_def_cfa_offset: 56
  DW_CFA_advance_loc: 8 to 000000000043a32a
  DW_CFA_def_cfa_offset: 48
  DW_CFA_advance_loc: 1 to 000000000043a32b
  DW_CFA_def_cfa_offset: 40
  DW_CFA_advance_loc: 2 to 000000000043a32d
  DW_CFA_def_cfa_offset: 32
  DW_CFA_advance_loc: 2 to 000000000043a32f
  DW_CFA_def_cfa_offset: 24
  DW_CFA_advance_loc: 2 to 000000000043a331
  DW_CFA_def_cfa_offset: 16
  DW_CFA_advance_loc: 2 to 000000000043a333
  DW_CFA_def_cfa_offset: 8
  DW_CFA_advance_loc: 5 to 000000000043a338
  DW_CFA_restore_state
  DW_CFA_advance_loc: 46 to 000000000043a366
  DW_CFA_remember_state
  DW_CFA_def_cfa_offset: 56
  DW_CFA_advance_loc: 8 to 000000000043a36e
  DW_CFA_def_cfa_offset: 48
  DW_CFA_advance_loc: 1 to 000000000043a36f
  DW_CFA_def_cfa_offset: 40
  DW_CFA_advance_loc: 2 to 000000000043a371
  DW_CFA_def_cfa_offset: 32
  DW_CFA_advance_loc: 2 to 000000000043a373
  DW_CFA_def_cfa_offset: 24
  DW_CFA_advance_loc: 2 to 000000000043a375
  DW_CFA_def_cfa_offset: 16
  DW_CFA_advance_loc: 2 to 000000000043a377
  DW_CFA_def_cfa_offset: 8
  DW_CFA_advance_loc: 5 to 000000000043a37c
  DW_CFA_restore_state
  DW_CFA_advance_loc: 56 to 000000000043a3b4
  DW_CFA_remember_state
  DW_CFA_def_cfa_offset: 56
  DW_CFA_advance_loc: 8 to 000000000043a3bc
  DW_CFA_def_cfa_offset: 48
  DW_CFA_advance_loc: 1 to 000000000043a3bd
  DW_CFA_def_cfa_offset: 40
  DW_CFA_advance_loc: 2 to 000000000043a3bf
  DW_CFA_def_cfa_offset: 32
  DW_CFA_advance_loc: 2 to 000000000043a3c1
  DW_CFA_def_cfa_offset: 24
  DW_CFA_advance_loc: 2 to 000000000043a3c3
  DW_CFA_def_cfa_offset: 16
  DW_CFA_advance_loc: 2 to 000000000043a3c5
  DW_CFA_def_cfa_offset: 8
  DW_CFA_advance_loc: 5 to 000000000043a3ca
  DW_CFA_restore_state
  DW_CFA_advance_loc: 46 to 000000000043a3f8
  DW_CFA_remember_state
  DW_CFA_def_cfa_offset: 56
  DW_CFA_advance_loc: 8 to 000000000043a400
  DW_CFA_def_cfa_offset: 48
  DW_CFA_advance_loc: 1 to 000000000043a401
  DW_CFA_def_cfa_offset: 40
  DW_CFA_advance_loc: 2 to 000000000043a403
  DW_CFA_def_cfa_offset: 32
  DW_CFA_advance_loc: 2 to 000000000043a405
  DW_CFA_def_cfa_offset: 24
  DW_CFA_advance_loc: 2 to 000000000043a407
  DW_CFA_def_cfa_offset: 16
  DW_CFA_advance_loc: 2 to 000000000043a409
  DW_CFA_def_cfa_offset: 8
  DW_CFA_advance_loc: 5 to 000000000043a40e
  DW_CFA_restore_state
  DW_CFA_advance_loc: 56 to 000000000043a446
  DW_CFA_remember_state
  DW_CFA_def_cfa_offset: 56
  DW_CFA_advance_loc: 8 to 000000000043a44e
  DW_CFA_def_cfa_offset: 48
  DW_CFA_advance_loc: 1 to 000000000043a44f
  DW_CFA_def_cfa_offset: 40
  DW_CFA_advance_loc: 2 to 000000000043a451
  DW_CFA_def_cfa_offset: 32
  DW_CFA_advance_loc: 2 to 000000000043a453
  DW_CFA_def_cfa_offset: 24
  DW_CFA_advance_loc: 2 to 000000000043a455
  DW_CFA_def_cfa_offset: 16
  DW_CFA_advance_loc: 2 to 000000000043a457
  DW_CFA_def_cfa_offset: 8
  DW_CFA_advance_loc: 5 to 000000000043a45c
  DW_CFA_restore_state
  DW_CFA_advance_loc: 46 to 000000000043a48a
  DW_CFA_remember_state
  DW_CFA_def_cfa_offset: 56
  DW_CFA_advance_loc: 8 to 000000000043a492
  DW_CFA_def_cfa_offset: 48
  DW_CFA_advance_loc: 1 to 000000000043a493
  DW_CFA_def_cfa_offset: 40
  DW_CFA_advance_loc: 2 to 000000000043a495
  DW_CFA_def_cfa_offset: 32
  DW_CFA_advance_loc: 2 to 000000000043a497
  DW_CFA_def_cfa_offset: 24
  DW_CFA_advance_loc: 2 to 000000000043a499
  DW_CFA_def_cfa_offset: 16
  DW_CFA_advance_loc: 2 to 000000000043a49b
  DW_CFA_def_cfa_offset: 8
  DW_CFA_advance_loc: 5 to 000000000043a4a0
  DW_CFA_restore_state
  DW_CFA_advance_loc: 56 to 000000000043a4d8
  DW_CFA_remember_state
  DW_CFA_def_cfa_offset: 56
  DW_CFA_advance_loc: 8 to 000000000043a4e0
  DW_CFA_def_cfa_offset: 48
  DW_CFA_advance_loc: 1 to 000000000043a4e1
  DW_CFA_def_cfa_offset: 40
  DW_CFA_advance_loc: 2 to 000000000043a4e3
  DW_CFA_def_cfa_offset: 32
  DW_CFA_advance_loc: 2 to 000000000043a4e5
  DW_CFA_def_cfa_offset: 24
  DW_CFA_advance_loc: 2 to 000000000043a4e7
  DW_CFA_def_cfa_offset: 16
  DW_CFA_advance_loc: 2 to 000000000043a4e9
  DW_CFA_def_cfa_offset: 8
  DW_CFA_advance_loc: 5 to 000000000043a4ee
  DW_CFA_restore_state
  DW_CFA_advance_loc: 46 to 000000000043a51c
  DW_CFA_remember_state
  DW_CFA_def_cfa_offset: 56
  DW_CFA_advance_loc: 8 to 000000000043a524
  DW_CFA_def_cfa_offset: 48
  DW_CFA_advance_loc: 1 to 000000000043a525
  DW_CFA_def_cfa_offset: 40
  DW_CFA_advance_loc: 2 to 000000000043a527
  DW_CFA_def_cfa_offset: 32
  DW_CFA_advance_loc: 2 to 000000000043a529
  DW_CFA_def_cfa_offset: 24
  DW_CFA_advance_loc: 2 to 000000000043a52b
  DW_CFA_def_cfa_offset: 16
  DW_CFA_advance_loc: 2 to 000000000043a52d
  DW_CFA_def_cfa_offset: 8
  DW_CFA_advance_loc: 5 to 000000000043a532
  DW_CFA_restore_state
  DW_CFA_advance_loc: 56 to 000000000043a56a
  DW_CFA_remember_state
  DW_CFA_def_cfa_offset: 56
  DW_CFA_advance_loc: 8 to 000000000043a572
  DW_CFA_def_cfa_offset: 48
  DW_CFA_advance_loc: 1 to 000000000043a573
  DW_CFA_def_cfa_offset: 40
  DW_CFA_advance_loc: 2 to 000000000043a575
  DW_CFA_def_cfa_offset: 32
  DW_CFA_advance_loc: 2 to 000000000043a577
  DW_CFA_def_cfa_offset: 24
  DW_CFA_advance_loc: 2 to 000000000043a579
  DW_CFA_def_cfa_offset: 16
  DW_CFA_advance_loc: 2 to 000000000043a57b
  DW_CFA_def_cfa_offset: 8
  DW_CFA_advance_loc: 5 to 000000000043a580
  DW_CFA_restore_state
  DW_CFA_advance_loc: 46 to 000000000043a5ae
  DW_CFA_remember_state
  DW_CFA_def_cfa_offset: 56
  DW_CFA_advance_loc: 8 to 000000000043a5b6
  DW_CFA_def_cfa_offset: 48
  DW_CFA_advance_loc: 1 to 000000000043a5b7
  DW_CFA_def_cfa_offset: 40
  DW_CFA_advance_loc: 2 to 000000000043a5b9
  DW_CFA_def_cfa_offset: 32
  DW_CFA_advance_loc: 2 to 000000000043a5bb
  DW_CFA_def_cfa_offset: 24
  DW_CFA_advance_loc: 2 to 000000000043a5bd
  DW_CFA_def_cfa_offset: 16
  DW_CFA_advance_loc: 2 to 000000000043a5bf
  DW_CFA_def_cfa_offset: 8
  DW_CFA_advance_loc: 5 to 000000000043a5c4
  DW_CFA_restore_state
  DW_CFA_advance_loc: 56 to 000000000043a5fc
  DW_CFA_remember_state
  DW_CFA_def_cfa_offset: 56
  DW_CFA_advance_loc: 8 to 000000000043a604
  DW_CFA_def_cfa_offset: 48
  DW_CFA_advance_loc: 1 to 000000000043a605
  DW_CFA_def_cfa_offset: 40
  DW_CFA_advance_loc: 2 to 000000000043a607
  DW_CFA_def_cfa_offset: 32
  DW_CFA_advance_loc: 2 to 000000000043a609
  DW_CFA_def_cfa_offset: 24
  DW_CFA_advance_loc: 2 to 000000000043a60b
  DW_CFA_def_cfa_offset: 16
  DW_CFA_advance_loc: 2 to 000000000043a60d
  DW_CFA_def_cfa_offset: 8
  DW_CFA_advance_loc: 5 to 000000000043a612
  DW_CFA_restore_state
  DW_CFA_advance_loc: 46 to 000000000043a640
  DW_CFA_remember_state
  DW_CFA_def_cfa_offset: 56
  DW_CFA_advance_loc: 8 to 000000000043a648
  DW_CFA_def_cfa_offset: 48
  DW_CFA_advance_loc: 1 to 000000000043a649
  DW_CFA_def_cfa_offset: 40
  DW_CFA_advance_loc: 2 to 000000000043a64b
  DW_CFA_def_cfa_offset: 32
  DW_CFA_advance_loc: 2 to 000000000043a64d
  DW_CFA_def_cfa_offset: 24
  DW_CFA_advance_loc: 2 to 000000000043a64f
  DW_CFA_def_cfa_offset: 16
  DW_CFA_advance_loc: 2 to 000000000043a651
  DW_CFA_def_cfa_offset: 8
  DW_CFA_advance_loc: 5 to 000000000043a656
  DW_CFA_restore_state
  DW_CFA_advance_loc: 56 to 000000000043a68e
  DW_CFA_remember_state
  DW_CFA_def_cfa_offset: 56
  DW_CFA_advance_loc: 8 to 000000000043a696
  DW_CFA_def_cfa_offset: 48
  DW_CFA_advance_loc: 1 to 000000000043a697
  DW_CFA_def_cfa_offset: 40
  DW_CFA_advance_loc: 2 to 000000000043a699
  DW_CFA_def_cfa_offset: 32
  DW_CFA_advance_loc: 2 to 000000000043a69b
  DW_CFA_def_cfa_offset: 24
  DW_CFA_advance_loc: 2 to 000000000043a69d
  DW_CFA_def_cfa_offset: 16
  DW_CFA_advance_loc: 2 to 000000000043a69f
  DW_CFA_def_cfa_offset: 8
  DW_CFA_advance_loc: 5 to 000000000043a6a4
  DW_CFA_restore_state
  DW_CFA_advance_loc: 46 to 000000000043a6d2
  DW_CFA_remember_state
  DW_CFA_def_cfa_offset: 56
  DW_CFA_advance_loc: 8 to 000000000043a6da
  DW_CFA_def_cfa_offset: 48
  DW_CFA_advance_loc: 1 to 000000000043a6db
  DW_CFA_def_cfa_offset: 40
  DW_CFA_advance_loc: 2 to 000000000043a6dd
  DW_CFA_def_cfa_offset: 32
  DW_CFA_advance_loc: 2 to 000000000043a6df
  DW_CFA_def_cfa_offset: 24
  DW_CFA_advance_loc: 2 to 000000000043a6e1
  DW_CFA_def_cfa_offset: 16
  DW_CFA_advance_loc: 2 to 000000000043a6e3
  DW_CFA_def_cfa_offset: 8
  DW_CFA_advance_loc: 5 to 000000000043a6e8
  DW_CFA_restore_state
  DW_CFA_advance_loc: 56 to 000000000043a720
  DW_CFA_remember_state
  DW_CFA_def_cfa_offset: 56
  DW_CFA_advance_loc: 8 to 000000000043a728
  DW_CFA_def_cfa_offset: 48
  DW_CFA_advance_loc: 1 to 000000000043a729
  DW_CFA_def_cfa_offset: 40
  DW_CFA_advance_loc: 2 to 000000000043a72b
  DW_CFA_def_cfa_offset: 32
  DW_CFA_advance_loc: 2 to 000000000043a72d
  DW_CFA_def_cfa_offset: 24
  DW_CFA_advance_loc: 2 to 000000000043a72f
  DW_CFA_def_cfa_offset: 16
  DW_CFA_advance_loc: 2 to 000000000043a731
  DW_CFA_def_cfa_offset: 8
  DW_CFA_advance_loc: 5 to 000000000043a736
  DW_CFA_restore_state
  DW_CFA_advance_loc: 46 to 000000000043a764
  DW_CFA_remember_state
  DW_CFA_def_cfa_offset: 56
  DW_CFA_advance_loc: 8 to 000000000043a76c
  DW_CFA_def_cfa_offset: 48
  DW_CFA_advance_loc: 1 to 000000000043a76d
  DW_CFA_def_cfa_offset: 40
  DW_CFA_advance_loc: 2 to 000000000043a76f
  DW_CFA_def_cfa_offset: 32
  DW_CFA_advance_loc: 2 to 000000000043a771
  DW_CFA_def_cfa_offset: 24
  DW_CFA_advance_loc: 2 to 000000000043a773
  DW_CFA_def_cfa_offset: 16
  DW_CFA_advance_loc: 2 to 000000000043a775
  DW_CFA_def_cfa_offset: 8
  DW_CFA_advance_loc: 5 to 000000000043a77a
  DW_CFA_restore_state
  DW_CFA_advance_loc: 56 to 000000000043a7b2
  DW_CFA_remember_state
  DW_CFA_def_cfa_offset: 56
  DW_CFA_advance_loc: 8 to 000000000043a7ba
  DW_CFA_def_cfa_offset: 48
  DW_CFA_advance_loc: 1 to 000000000043a7bb
  DW_CFA_def_cfa_offset: 40
  DW_CFA_advance_loc: 2 to 000000000043a7bd
  DW_CFA_def_cfa_offset: 32
  DW_CFA_advance_loc: 2 to 000000000043a7bf
  DW_CFA_def_cfa_offset: 24
  DW_CFA_advance_loc: 2 to 000000000043a7c1
  DW_CFA_def_cfa_offset: 16
  DW_CFA_advance_loc: 2 to 000000000043a7c3
  DW_CFA_def_cfa_offset: 8
  DW_CFA_advance_loc: 5 to 000000000043a7c8
  DW_CFA_restore_state
  DW_CFA_advance_loc: 46 to 000000000043a7f6
  DW_CFA_remember_state
  DW_CFA_def_cfa_offset: 56
  DW_CFA_advance_loc: 8 to 000000000043a7fe
  DW_CFA_def_cfa_offset: 48
  DW_CFA_advance_loc: 1 to 000000000043a7ff
  DW_CFA_def_cfa_offset: 40
  DW_CFA_advance_loc: 2 to 000000000043a801
  DW_CFA_def_cfa_offset: 32
  DW_CFA_advance_loc: 2 to 000000000043a803
  DW_CFA_def_cfa_offset: 24
  DW_CFA_advance_loc: 2 to 000000000043a805
  DW_CFA_def_cfa_offset: 16
  DW_CFA_advance_loc: 2 to 000000000043a807
  DW_CFA_def_cfa_offset: 8
  DW_CFA_advance_loc: 5 to 000000000043a80c
  DW_CFA_restore_state
  DW_CFA_advance_loc: 56 to 000000000043a844
  DW_CFA_remember_state
  DW_CFA_def_cfa_offset: 56
  DW_CFA_advance_loc: 8 to 000000000043a84c
  DW_CFA_def_cfa_offset: 48
  DW_CFA_advance_loc: 1 to 000000000043a84d
  DW_CFA_def_cfa_offset: 40
  DW_CFA_advance_loc: 2 to 000000000043a84f
  DW_CFA_def_cfa_offset: 32
  DW_CFA_advance_loc: 2 to 000000000043a851
  DW_CFA_def_cfa_offset: 24
  DW_CFA_advance_loc: 2 to 000000000043a853
  DW_CFA_def_cfa_offset: 16
  DW_CFA_advance_loc: 2 to 000000000043a855
  DW_CFA_def_cfa_offset: 8
  DW_CFA_advance_loc: 5 to 000000000043a85a
  DW_CFA_restore_state
  DW_CFA_advance_loc: 46 to 000000000043a888
  DW_CFA_remember_state
  DW_CFA_def_cfa_offset: 56
  DW_CFA_advance_loc: 8 to 000000000043a890
  DW_CFA_def_cfa_offset: 48
  DW_CFA_advance_loc: 1 to 000000000043a891
  DW_CFA_def_cfa_offset: 40
  DW_CFA_advance_loc: 2 to 000000000043a893
  DW_CFA_def_cfa_offset: 32
  DW_CFA_advance_loc: 2 to 000000000043a895
  DW_CFA_def_cfa_offset: 24
  DW_CFA_advance_loc: 2 to 000000000043a897
  DW_CFA_def_cfa_offset: 16
  DW_CFA_advance_loc: 2 to 000000000043a899
  DW_CFA_def_cfa_offset: 8
  DW_CFA_advance_loc: 5 to 000000000043a89e
  DW_CFA_restore_state
  DW_CFA_advance_loc: 56 to 000000000043a8d6
  DW_CFA_remember_state
  DW_CFA_def_cfa_offset: 56
  DW_CFA_advance_loc: 8 to 000000000043a8de
  DW_CFA_def_cfa_offset: 48
  DW_CFA_advance_loc: 1 to 000000000043a8df
  DW_CFA_def_cfa_offset: 40
  DW_CFA_advance_loc: 2 to 000000000043a8e1
  DW_CFA_def_cfa_offset: 32
  DW_CFA_advance_loc: 2 to 000000000043a8e3
  DW_CFA_def_cfa_offset: 24
  DW_CFA_advance_loc: 2 to 000000000043a8e5
  DW_CFA_def_cfa_offset: 16
  DW_CFA_advance_loc: 2 to 000000000043a8e7
  DW_CFA_def_cfa_offset: 8
  DW_CFA_advance_loc: 5 to 000000000043a8ec
  DW_CFA_restore_state
  DW_CFA_advance_loc: 46 to 000000000043a91a
  DW_CFA_remember_state
  DW_CFA_def_cfa_offset: 56
  DW_CFA_advance_loc: 8 to 000000000043a922
  DW_CFA_def_cfa_offset: 48
  DW_CFA_advance_loc: 1 to 000000000043a923
  DW_CFA_def_cfa_offset: 40
  DW_CFA_advance_loc: 2 to 000000000043a925
  DW_CFA_def_cfa_offset: 32
  DW_CFA_advance_loc: 2 to 000000000043a927
  DW_CFA_def_cfa_offset: 24
  DW_CFA_advance_loc: 2 to 000000000043a929
  DW_CFA_def_cfa_offset: 16
  DW_CFA_advance_loc: 2 to 000000000043a92b
  DW_CFA_def_cfa_offset: 8
  DW_CFA_advance_loc: 5 to 000000000043a930
  DW_CFA_restore_state
  DW_CFA_advance_loc: 56 to 000000000043a968
  DW_CFA_remember_state
  DW_CFA_def_cfa_offset: 56
  DW_CFA_advance_loc: 8 to 000000000043a970
  DW_CFA_def_cfa_offset: 48
  DW_CFA_advance_loc: 1 to 000000000043a971
  DW_CFA_def_cfa_offset: 40
  DW_CFA_advance_loc: 2 to 000000000043a973
  DW_CFA_def_cfa_offset: 32
  DW_CFA_advance_loc: 2 to 000000000043a975
  DW_CFA_def_cfa_offset: 24
  DW_CFA_advance_loc: 2 to 000000000043a977
  DW_CFA_def_cfa_offset: 16
  DW_CFA_advance_loc: 2 to 000000000043a979
  DW_CFA_def_cfa_offset: 8
  DW_CFA_advance_loc: 5 to 000000000043a97e
  DW_CFA_restore_state
  DW_CFA_advance_loc: 46 to 000000000043a9ac
  DW_CFA_remember_state
  DW_CFA_def_cfa_offset: 56
  DW_CFA_advance_loc: 8 to 000000000043a9b4
  DW_CFA_def_cfa_offset: 48
  DW_CFA_advance_loc: 1 to 000000000043a9b5
  DW_CFA_def_cfa_offset: 40
  DW_CFA_advance_loc: 2 to 000000000043a9b7
  DW_CFA_def_cfa_offset: 32
  DW_CFA_advance_loc: 2 to 000000000043a9b9
  DW_CFA_def_cfa_offset: 24
  DW_CFA_advance_loc: 2 to 000000000043a9bb
  DW_CFA_def_cfa_offset: 16
  DW_CFA_advance_loc: 2 to 000000000043a9bd
  DW_CFA_def_cfa_offset: 8
  DW_CFA_advance_loc: 5 to 000000000043a9c2
  DW_CFA_restore_state
  DW_CFA_advance_loc: 56 to 000000000043a9fa
  DW_CFA_remember_state
  DW_CFA_def_cfa_offset: 56
  DW_CFA_advance_loc: 8 to 000000000043aa02
  DW_CFA_def_cfa_offset: 48
  DW_CFA_advance_loc: 1 to 000000000043aa03
  DW_CFA_def_cfa_offset: 40
  DW_CFA_advance_loc: 2 to 000000000043aa05
  DW_CFA_def_cfa_offset: 32
  DW_CFA_advance_loc: 2 to 000000000043aa07
  DW_CFA_def_cfa_offset: 24
  DW_CFA_advance_loc: 2 to 000000000043aa09
  DW_CFA_def_cfa_offset: 16
  DW_CFA_advance_loc: 2 to 000000000043aa0b
  DW_CFA_def_cfa_offset: 8
  DW_CFA_advance_loc: 5 to 000000000043aa10
  DW_CFA_restore_state
  DW_CFA_advance_loc: 46 to 000000000043aa3e
  DW_CFA_remember_state
  DW_CFA_def_cfa_offset: 56
  DW_CFA_advance_loc: 8 to 000000000043aa46
  DW_CFA_def_cfa_offset: 48
  DW_CFA_advance_loc: 1 to 000000000043aa47
  DW_CFA_def_cfa_offset: 40
  DW_CFA_advance_loc: 2 to 000000000043aa49
  DW_CFA_def_cfa_offset: 32
  DW_CFA_advance_loc: 2 to 000000000043aa4b
  DW_CFA_def_cfa_offset: 24
  DW_CFA_advance_loc: 2 to 000000000043aa4d
  DW_CFA_def_cfa_offset: 16
  DW_CFA_advance_loc: 2 to 000000000043aa4f
  DW_CFA_def_cfa_offset: 8
  DW_CFA_advance_loc: 5 to 000000000043aa54
  DW_CFA_restore_state
  DW_CFA_advance_loc: 56 to 000000000043aa8c
  DW_CFA_remember_state
  DW_CFA_def_cfa_offset: 56
  DW_CFA_advance_loc: 8 to 000000000043aa94
  DW_CFA_def_cfa_offset: 48
  DW_CFA_advance_loc: 1 to 000000000043aa95
  DW_CFA_def_cfa_offset: 40
  DW_CFA_advance_loc: 2 to 000000000043aa97
  DW_CFA_def_cfa_offset: 32
  DW_CFA_advance_loc: 2 to 000000000043aa99
  DW_CFA_def_cfa_offset: 24
  DW_CFA_advance_loc: 2 to 000000000043aa9b
  DW_CFA_def_cfa_offset: 16
  DW_CFA_advance_loc: 2 to 000000000043aa9d
  DW_CFA_def_cfa_offset: 8
  DW_CFA_advance_loc: 5 to 000000000043aaa2
  DW_CFA_restore_state
  DW_CFA_advance_loc: 46 to 000000000043aad0
  DW_CFA_remember_state
  DW_CFA_def_cfa_offset: 56
  DW_CFA_advance_loc: 8 to 000000000043aad8
  DW_CFA_def_cfa_offset: 48
  DW_CFA_advance_loc: 1 to 000000000043aad9
  DW_CFA_def_cfa_offset: 40
  DW_CFA_advance_loc: 2 to 000000000043aadb
  DW_CFA_def_cfa_offset: 32
  DW_CFA_advance_loc: 2 to 000000000043aadd
  DW_CFA_def_cfa_offset: 24
  DW_CFA_advance_loc: 2 to 000000000043aadf
  DW_CFA_def_cfa_offset: 16
  DW_CFA_advance_loc: 2 to 000000000043aae1
  DW_CFA_def_cfa_offset: 8
  DW_CFA_advance_loc: 5 to 000000000043aae6
  DW_CFA_restore_state
  DW_CFA_advance_loc: 56 to 000000000043ab1e
  DW_CFA_remember_state
  DW_CFA_def_cfa_offset: 56
  DW_CFA_advance_loc: 8 to 000000000043ab26
  DW_CFA_def_cfa_offset: 48
  DW_CFA_advance_loc: 1 to 000000000043ab27
  DW_CFA_def_cfa_offset: 40
  DW_CFA_advance_loc: 2 to 000000000043ab29
  DW_CFA_def_cfa_offset: 32
  DW_CFA_advance_loc: 2 to 000000000043ab2b
  DW_CFA_def_cfa_offset: 24
  DW_CFA_advance_loc: 2 to 000000000043ab2d
  DW_CFA_def_cfa_offset: 16
  DW_CFA_advance_loc: 2 to 000000000043ab2f
  DW_CFA_def_cfa_offset: 8
  DW_CFA_advance_loc: 5 to 000000000043ab34
  DW_CFA_restore_state
  DW_CFA_advance_loc: 46 to 000000000043ab62
  DW_CFA_remember_state
  DW_CFA_def_cfa_offset: 56
  DW_CFA_advance_loc: 8 to 000000000043ab6a
  DW_CFA_def_cfa_offset: 48
  DW_CFA_advance_loc: 1 to 000000000043ab6b
  DW_CFA_def_cfa_offset: 40
  DW_CFA_advance_loc: 2 to 000000000043ab6d
  DW_CFA_def_cfa_offset: 32
  DW_CFA_advance_loc: 2 to 000000000043ab6f
  DW_CFA_def_cfa_offset: 24
  DW_CFA_advance_loc: 2 to 000000000043ab71
  DW_CFA_def_cfa_offset: 16
  DW_CFA_advance_loc: 2 to 000000000043ab73
  DW_CFA_def_cfa_offset: 8
  DW_CFA_advance_loc: 5 to 000000000043ab78
  DW_CFA_restore_state
  DW_CFA_advance_loc: 56 to 000000000043abb0
  DW_CFA_remember_state
  DW_CFA_def_cfa_offset: 56
  DW_CFA_advance_loc: 8 to 000000000043abb8
  DW_CFA_def_cfa_offset: 48
  DW_CFA_advance_loc: 1 to 000000000043abb9
  DW_CFA_def_cfa_offset: 40
  DW_CFA_advance_loc: 2 to 000000000043abbb
  DW_CFA_def_cfa_offset: 32
  DW_CFA_advance_loc: 2 to 000000000043abbd
  DW_CFA_def_cfa_offset: 24
  DW_CFA_advance_loc: 2 to 000000000043abbf
  DW_CFA_def_cfa_offset: 16
  DW_CFA_advance_loc: 2 to 000000000043abc1
  DW_CFA_def_cfa_offset: 8
  DW_CFA_advance_loc: 5 to 000000000043abc6
  DW_CFA_restore_state
  DW_CFA_advance_loc: 46 to 000000000043abf4
  DW_CFA_remember_state
  DW_CFA_def_cfa_offset: 56
  DW_CFA_advance_loc: 8 to 000000000043abfc
  DW_CFA_def_cfa_offset: 48
  DW_CFA_advance_loc: 1 to 000000000043abfd
  DW_CFA_def_cfa_offset: 40
  DW_CFA_advance_loc: 2 to 000000000043abff
  DW_CFA_def_cfa_offset: 32
  DW_CFA_advance_loc: 2 to 000000000043ac01
  DW_CFA_def_cfa_offset: 24
  DW_CFA_advance_loc: 2 to 000000000043ac03
  DW_CFA_def_cfa_offset: 16
  DW_CFA_advance_loc: 2 to 000000000043ac05
  DW_CFA_def_cfa_offset: 8
  DW_CFA_advance_loc: 5 to 000000000043ac0a
  DW_CFA_restore_state
  DW_CFA_advance_loc: 56 to 000000000043ac42
  DW_CFA_remember_state
  DW_CFA_def_cfa_offset: 56
  DW_CFA_advance_loc: 8 to 000000000043ac4a
  DW_CFA_def_cfa_offset: 48
  DW_CFA_advance_loc: 1 to 000000000043ac4b
  DW_CFA_def_cfa_offset: 40
  DW_CFA_advance_loc: 2 to 000000000043ac4d
  DW_CFA_def_cfa_offset: 32
  DW_CFA_advance_loc: 2 to 000000000043ac4f
  DW_CFA_def_cfa_offset: 24
  DW_CFA_advance_loc: 2 to 000000000043ac51
  DW_CFA_def_cfa_offset: 16
  DW_CFA_advance_loc: 2 to 000000000043ac53
  DW_CFA_def_cfa_offset: 8
  DW_CFA_advance_loc: 5 to 000000000043ac58
  DW_CFA_restore_state
  DW_CFA_advance_loc: 46 to 000000000043ac86
  DW_CFA_remember_state
  DW_CFA_def_cfa_offset: 56
  DW_CFA_advance_loc: 8 to 000000000043ac8e
  DW_CFA_def_cfa_offset: 48
  DW_CFA_advance_loc: 1 to 000000000043ac8f
  DW_CFA_def_cfa_offset: 40
  DW_CFA_advance_loc: 2 to 000000000043ac91
  DW_CFA_def_cfa_offset: 32
  DW_CFA_advance_loc: 2 to 000000000043ac93
  DW_CFA_def_cfa_offset: 24
  DW_CFA_advance_loc: 2 to 000000000043ac95
  DW_CFA_def_cfa_offset: 16
  DW_CFA_advance_loc: 2 to 000000000043ac97
  DW_CFA_def_cfa_offset: 8
  DW_CFA_advance_loc: 5 to 000000000043ac9c
  DW_CFA_restore_state
  DW_CFA_advance_loc: 56 to 000000000043acd4
  DW_CFA_remember_state
  DW_CFA_def_cfa_offset: 56
  DW_CFA_advance_loc: 8 to 000000000043acdc
  DW_CFA_def_cfa_offset: 48
  DW_CFA_advance_loc: 1 to 000000000043acdd
  DW_CFA_def_cfa_offset: 40
  DW_CFA_advance_loc: 2 to 000000000043acdf
  DW_CFA_def_cfa_offset: 32
  DW_CFA_advance_loc: 2 to 000000000043ace1
  DW_CFA_def_cfa_offset: 24
  DW_CFA_advance_loc: 2 to 000000000043ace3
  DW_CFA_def_cfa_offset: 16
  DW_CFA_advance_loc: 2 to 000000000043ace5
  DW_CFA_def_cfa_offset: 8
  DW_CFA_advance_loc: 5 to 000000000043acea
  DW_CFA_restore_state
  DW_CFA_advance_loc: 46 to 000000000043ad18
  DW_CFA_remember_state
  DW_CFA_def_cfa_offset: 56
  DW_CFA_advance_loc: 8 to 000000000043ad20
  DW_CFA_def_cfa_offset: 48
  DW_CFA_advance_loc: 1 to 000000000043ad21
  DW_CFA_def_cfa_offset: 40
  DW_CFA_advance_loc: 2 to 000000000043ad23
  DW_CFA_def_cfa_offset: 32
  DW_CFA_advance_loc: 2 to 000000000043ad25
  DW_CFA_def_cfa_offset: 24
  DW_CFA_advance_loc: 2 to 000000000043ad27
  DW_CFA_def_cfa_offset: 16
  DW_CFA_advance_loc: 2 to 000000000043ad29
  DW_CFA_def_cfa_offset: 8
  DW_CFA_advance_loc: 5 to 000000000043ad2e
  DW_CFA_restore_state
  DW_CFA_advance_loc: 56 to 000000000043ad66
  DW_CFA_remember_state
  DW_CFA_def_cfa_offset: 56
  DW_CFA_advance_loc: 8 to 000000000043ad6e
  DW_CFA_def_cfa_offset: 48
  DW_CFA_advance_loc: 1 to 000000000043ad6f
  DW_CFA_def_cfa_offset: 40
  DW_CFA_advance_loc: 2 to 000000000043ad71
  DW_CFA_def_cfa_offset: 32
  DW_CFA_advance_loc: 2 to 000000000043ad73
  DW_CFA_def_cfa_offset: 24
  DW_CFA_advance_loc: 2 to 000000000043ad75
  DW_CFA_def_cfa_offset: 16
  DW_CFA_advance_loc: 2 to 000000000043ad77
  DW_CFA_def_cfa_offset: 8
  DW_CFA_advance_loc: 5 to 000000000043ad7c
  DW_CFA_restore_state
  DW_CFA_advance_loc: 46 to 000000000043adaa
  DW_CFA_remember_state
  DW_CFA_def_cfa_offset: 56
  DW_CFA_advance_loc: 8 to 000000000043adb2
  DW_CFA_def_cfa_offset: 48
  DW_CFA_advance_loc: 1 to 000000000043adb3
  DW_CFA_def_cfa_offset: 40
  DW_CFA_advance_loc: 2 to 000000000043adb5
  DW_CFA_def_cfa_offset: 32
  DW_CFA_advance_loc: 2 to 000000000043adb7
  DW_CFA_def_cfa_offset: 24
  DW_CFA_advance_loc: 2 to 000000000043adb9
  DW_CFA_def_cfa_offset: 16
  DW_CFA_advance_loc: 2 to 000000000043adbb
  DW_CFA_def_cfa_offset: 8
  DW_CFA_advance_loc: 5 to 000000000043adc0
  DW_CFA_restore_state
  DW_CFA_advance_loc: 56 to 000000000043adf8
  DW_CFA_remember_state
  DW_CFA_def_cfa_offset: 56
  DW_CFA_advance_loc: 8 to 000000000043ae00
  DW_CFA_def_cfa_offset: 48
  DW_CFA_advance_loc: 1 to 000000000043ae01
  DW_CFA_def_cfa_offset: 40
  DW_CFA_advance_loc: 2 to 000000000043ae03
  DW_CFA_def_cfa_offset: 32
  DW_CFA_advance_loc: 2 to 000000000043ae05
  DW_CFA_def_cfa_offset: 24
  DW_CFA_advance_loc: 2 to 000000000043ae07
  DW_CFA_def_cfa_offset: 16
  DW_CFA_advance_loc: 2 to 000000000043ae09
  DW_CFA_def_cfa_offset: 8
  DW_CFA_advance_loc: 5 to 000000000043ae0e
  DW_CFA_restore_state
  DW_CFA_advance_loc: 46 to 000000000043ae3c
  DW_CFA_remember_state
  DW_CFA_def_cfa_offset: 56
  DW_CFA_advance_loc: 8 to 000000000043ae44
  DW_CFA_def_cfa_offset: 48
  DW_CFA_advance_loc: 1 to 000000000043ae45
  DW_CFA_def_cfa_offset: 40
  DW_CFA_advance_loc: 2 to 000000000043ae47
  DW_CFA_def_cfa_offset: 32
  DW_CFA_advance_loc: 2 to 000000000043ae49
  DW_CFA_def_cfa_offset: 24
  DW_CFA_advance_loc: 2 to 000000000043ae4b
  DW_CFA_def_cfa_offset: 16
  DW_CFA_advance_loc: 2 to 000000000043ae4d
  DW_CFA_def_cfa_offset: 8
  DW_CFA_advance_loc: 5 to 000000000043ae52
  DW_CFA_restore_state
  DW_CFA_advance_loc: 56 to 000000000043ae8a
  DW_CFA_remember_state
  DW_CFA_def_cfa_offset: 56
  DW_CFA_advance_loc: 8 to 000000000043ae92
  DW_CFA_def_cfa_offset: 48
  DW_CFA_advance_loc: 1 to 000000000043ae93
  DW_CFA_def_cfa_offset: 40
  DW_CFA_advance_loc: 2 to 000000000043ae95
  DW_CFA_def_cfa_offset: 32
  DW_CFA_advance_loc: 2 to 000000000043ae97
  DW_CFA_def_cfa_offset: 24
  DW_CFA_advance_loc: 2 to 000000000043ae99
  DW_CFA_def_cfa_offset: 16
  DW_CFA_advance_loc: 2 to 000000000043ae9b
  DW_CFA_def_cfa_offset: 8
  DW_CFA_advance_loc: 5 to 000000000043aea0
  DW_CFA_restore_state
  DW_CFA_advance_loc: 46 to 000000000043aece
  DW_CFA_remember_state
  DW_CFA_def_cfa_offset: 56
  DW_CFA_advance_loc: 8 to 000000000043aed6
  DW_CFA_def_cfa_offset: 48
  DW_CFA_advance_loc: 1 to 000000000043aed7
  DW_CFA_def_cfa_offset: 40
  DW_CFA_advance_loc: 2 to 000000000043aed9
  DW_CFA_def_cfa_offset: 32
  DW_CFA_advance_loc: 2 to 000000000043aedb
  DW_CFA_def_cfa_offset: 24
  DW_CFA_advance_loc: 2 to 000000000043aedd
  DW_CFA_def_cfa_offset: 16
  DW_CFA_advance_loc: 2 to 000000000043aedf
  DW_CFA_def_cfa_offset: 8
  DW_CFA_advance_loc: 5 to 000000000043aee4
  DW_CFA_restore_state
  DW_CFA_advance_loc: 56 to 000000000043af1c
  DW_CFA_remember_state
  DW_CFA_def_cfa_offset: 56
  DW_CFA_advance_loc: 8 to 000000000043af24
  DW_CFA_def_cfa_offset: 48
  DW_CFA_advance_loc: 1 to 000000000043af25
  DW_CFA_def_cfa_offset: 40
  DW_CFA_advance_loc: 2 to 000000000043af27
  DW_CFA_def_cfa_offset: 32
  DW_CFA_advance_loc: 2 to 000000000043af29
  DW_CFA_def_cfa_offset: 24
  DW_CFA_advance_loc: 2 to 000000000043af2b
  DW_CFA_def_cfa_offset: 16
  DW_CFA_advance_loc: 2 to 000000000043af2d
  DW_CFA_def_cfa_offset: 8
  DW_CFA_advance_loc: 5 to 000000000043af32
  DW_CFA_restore_state
  DW_CFA_advance_loc: 46 to 000000000043af60
  DW_CFA_remember_state
  DW_CFA_def_cfa_offset: 56
  DW_CFA_advance_loc: 8 to 000000000043af68
  DW_CFA_def_cfa_offset: 48
  DW_CFA_advance_loc: 1 to 000000000043af69
  DW_CFA_def_cfa_offset: 40
  DW_CFA_advance_loc: 2 to 000000000043af6b
  DW_CFA_def_cfa_offset: 32
  DW_CFA_advance_loc: 2 to 000000000043af6d
  DW_CFA_def_cfa_offset: 24
  DW_CFA_advance_loc: 2 to 000000000043af6f
  DW_CFA_def_cfa_offset: 16
  DW_CFA_advance_loc: 2 to 000000000043af71
  DW_CFA_def_cfa_offset: 8
  DW_CFA_advance_loc: 5 to 000000000043af76
  DW_CFA_restore_state
  DW_CFA_advance_loc: 56 to 000000000043afae
  DW_CFA_remember_state
  DW_CFA_def_cfa_offset: 56
  DW_CFA_advance_loc: 8 to 000000000043afb6
  DW_CFA_def_cfa_offset: 48
  DW_CFA_advance_loc: 1 to 000000000043afb7
  DW_CFA_def_cfa_offset: 40
  DW_CFA_advance_loc: 2 to 000000000043afb9
  DW_CFA_def_cfa_offset: 32
  DW_CFA_advance_loc: 2 to 000000000043afbb
  DW_CFA_def_cfa_offset: 24
  DW_CFA_advance_loc: 2 to 000000000043afbd
  DW_CFA_def_cfa_offset: 16
  DW_CFA_advance_loc: 2 to 000000000043afbf
  DW_CFA_def_cfa_offset: 8
  DW_CFA_advance_loc: 5 to 000000000043afc4
  DW_CFA_restore_state
  DW_CFA_advance_loc: 46 to 000000000043aff2
  DW_CFA_remember_state
  DW_CFA_def_cfa_offset: 56
  DW_CFA_advance_loc: 8 to 000000000043affa
  DW_CFA_def_cfa_offset: 48
  DW_CFA_advance_loc: 1 to 000000000043affb
  DW_CFA_def_cfa_offset: 40
  DW_CFA_advance_loc: 2 to 000000000043affd
  DW_CFA_def_cfa_offset: 32
  DW_CFA_advance_loc: 2 to 000000000043afff
  DW_CFA_def_cfa_offset: 24
  DW_CFA_advance_loc: 2 to 000000000043b001
  DW_CFA_def_cfa_offset: 16
  DW_CFA_advance_loc: 2 to 000000000043b003
  DW_CFA_def_cfa_offset: 8
  DW_CFA_advance_loc: 5 to 000000000043b008
  DW_CFA_restore_state
  DW_CFA_advance_loc: 56 to 000000000043b040
  DW_CFA_remember_state
  DW_CFA_def_cfa_offset: 56
  DW_CFA_advance_loc: 8 to 000000000043b048
  DW_CFA_def_cfa_offset: 48
  DW_CFA_advance_loc: 1 to 000000000043b049
  DW_CFA_def_cfa_offset: 40
  DW_CFA_advance_loc: 2 to 000000000043b04b
  DW_CFA_def_cfa_offset: 32
  DW_CFA_advance_loc: 2 to 000000000043b04d
  DW_CFA_def_cfa_offset: 24
  DW_CFA_advance_loc: 2 to 000000000043b04f
  DW_CFA_def_cfa_offset: 16
  DW_CFA_advance_loc: 2 to 000000000043b051
  DW_CFA_def_cfa_offset: 8
  DW_CFA_advance_loc: 5 to 000000000043b056
  DW_CFA_restore_state
  DW_CFA_advance_loc: 46 to 000000000043b084
  DW_CFA_remember_state
  DW_CFA_def_cfa_offset: 56
  DW_CFA_advance_loc: 8 to 000000000043b08c
  DW_CFA_def_cfa_offset: 48
  DW_CFA_advance_loc: 1 to 000000000043b08d
  DW_CFA_def_cfa_offset: 40
  DW_CFA_advance_loc: 2 to 000000000043b08f
  DW_CFA_def_cfa_offset: 32
  DW_CFA_advance_loc: 2 to 000000000043b091
  DW_CFA_def_cfa_offset: 24
  DW_CFA_advance_loc: 2 to 000000000043b093
  DW_CFA_def_cfa_offset: 16
  DW_CFA_advance_loc: 2 to 000000000043b095
  DW_CFA_def_cfa_offset: 8
  DW_CFA_advance_loc: 5 to 000000000043b09a
  DW_CFA_restore_state
  DW_CFA_advance_loc: 56 to 000000000043b0d2
  DW_CFA_remember_state
  DW_CFA_def_cfa_offset: 56
  DW_CFA_advance_loc: 8 to 000000000043b0da
  DW_CFA_def_cfa_offset: 48
  DW_CFA_advance_loc: 1 to 000000000043b0db
  DW_CFA_def_cfa_offset: 40
  DW_CFA_advance_loc: 2 to 000000000043b0dd
  DW_CFA_def_cfa_offset: 32
  DW_CFA_advance_loc: 2 to 000000000043b0df
  DW_CFA_def_cfa_offset: 24
  DW_CFA_advance_loc: 2 to 000000000043b0e1
  DW_CFA_def_cfa_offset: 16
  DW_CFA_advance_loc: 2 to 000000000043b0e3
  DW_CFA_def_cfa_offset: 8
  DW_CFA_advance_loc: 5 to 000000000043b0e8
  DW_CFA_restore_state
  DW_CFA_advance_loc: 46 to 000000000043b116
  DW_CFA_remember_state
  DW_CFA_def_cfa_offset: 56
  DW_CFA_advance_loc: 8 to 000000000043b11e
  DW_CFA_def_cfa_offset: 48
  DW_CFA_advance_loc: 1 to 000000000043b11f
  DW_CFA_def_cfa_offset: 40
  DW_CFA_advance_loc: 2 to 000000000043b121
  DW_CFA_def_cfa_offset: 32
  DW_CFA_advance_loc: 2 to 000000000043b123
  DW_CFA_def_cfa_offset: 24
  DW_CFA_advance_loc: 2 to 000000000043b125
  DW_CFA_def_cfa_offset: 16
  DW_CFA_advance_loc: 2 to 000000000043b127
  DW_CFA_def_cfa_offset: 8
  DW_CFA_advance_loc: 5 to 000000000043b12c
  DW_CFA_restore_state
  DW_CFA_advance_loc: 56 to 000000000043b164
  DW_CFA_remember_state
  DW_CFA_def_cfa_offset: 56
  DW_CFA_advance_loc: 8 to 000000000043b16c
  DW_CFA_def_cfa_offset: 48
  DW_CFA_advance_loc: 1 to 000000000043b16d
  DW_CFA_def_cfa_offset: 40
  DW_CFA_advance_loc: 2 to 000000000043b16f
  DW_CFA_def_cfa_offset: 32
  DW_CFA_advance_loc: 2 to 000000000043b171
  DW_CFA_def_cfa_offset: 24
  DW_CFA_advance_loc: 2 to 000000000043b173
  DW_CFA_def_cfa_offset: 16
  DW_CFA_advance_loc: 2 to 000000000043b175
  DW_CFA_def_cfa_offset: 8
  DW_CFA_advance_loc: 5 to 000000000043b17a
  DW_CFA_restore_state
  DW_CFA_advance_loc: 46 to 000000000043b1a8
  DW_CFA_remember_state
  DW_CFA_def_cfa_offset: 56
  DW_CFA_advance_loc: 8 to 000000000043b1b0
  DW_CFA_def_cfa_offset: 48
  DW_CFA_advance_loc: 1 to 000000000043b1b1
  DW_CFA_def_cfa_offset: 40
  DW_CFA_advance_loc: 2 to 000000000043b1b3
  DW_CFA_def_cfa_offset: 32
  DW_CFA_advance_loc: 2 to 000000000043b1b5
  DW_CFA_def_cfa_offset: 24
  DW_CFA_advance_loc: 2 to 000000000043b1b7
  DW_CFA_def_cfa_offset: 16
  DW_CFA_advance_loc: 2 to 000000000043b1b9
  DW_CFA_def_cfa_offset: 8
  DW_CFA_advance_loc: 5 to 000000000043b1be
  DW_CFA_restore_state
  DW_CFA_advance_loc: 56 to 000000000043b1f6
  DW_CFA_remember_state
  DW_CFA_def_cfa_offset: 56
  DW_CFA_advance_loc: 8 to 000000000043b1fe
  DW_CFA_def_cfa_offset: 48
  DW_CFA_advance_loc: 1 to 000000000043b1ff
  DW_CFA_def_cfa_offset: 40
  DW_CFA_advance_loc: 2 to 000000000043b201
  DW_CFA_def_cfa_offset: 32
  DW_CFA_advance_loc: 2 to 000000000043b203
  DW_CFA_def_cfa_offset: 24
  DW_CFA_advance_loc: 2 to 000000000043b205
  DW_CFA_def_cfa_offset: 16
  DW_CFA_advance_loc: 2 to 000000000043b207
  DW_CFA_def_cfa_offset: 8
  DW_CFA_advance_loc: 5 to 000000000043b20c
  DW_CFA_restore_state
  DW_CFA_advance_loc: 46 to 000000000043b23a
  DW_CFA_remember_state
  DW_CFA_def_cfa_offset: 56
  DW_CFA_advance_loc: 8 to 000000000043b242
  DW_CFA_def_cfa_offset: 48
  DW_CFA_advance_loc: 1 to 000000000043b243
  DW_CFA_def_cfa_offset: 40
  DW_CFA_advance_loc: 2 to 000000000043b245
  DW_CFA_def_cfa_offset: 32
  DW_CFA_advance_loc: 2 to 000000000043b247
  DW_CFA_def_cfa_offset: 24
  DW_CFA_advance_loc: 2 to 000000000043b249
  DW_CFA_def_cfa_offset: 16
  DW_CFA_advance_loc: 2 to 000000000043b24b
  DW_CFA_def_cfa_offset: 8
  DW_CFA_advance_loc: 5 to 000000000043b250
  DW_CFA_restore_state
  DW_CFA_advance_loc: 56 to 000000000043b288
  DW_CFA_remember_state
  DW_CFA_def_cfa_offset: 56
  DW_CFA_advance_loc: 8 to 000000000043b290
  DW_CFA_def_cfa_offset: 48
  DW_CFA_advance_loc: 1 to 000000000043b291
  DW_CFA_def_cfa_offset: 40
  DW_CFA_advance_loc: 2 to 000000000043b293
  DW_CFA_def_cfa_offset: 32
  DW_CFA_advance_loc: 2 to 000000000043b295
  DW_CFA_def_cfa_offset: 24
  DW_CFA_advance_loc: 2 to 000000000043b297
  DW_CFA_def_cfa_offset: 16
  DW_CFA_advance_loc: 2 to 000000000043b299
  DW_CFA_def_cfa_offset: 8
  DW_CFA_advance_loc: 5 to 000000000043b29e
  DW_CFA_restore_state
  DW_CFA_advance_loc: 46 to 000000000043b2cc
  DW_CFA_remember_state
  DW_CFA_def_cfa_offset: 56
  DW_CFA_advance_loc: 8 to 000000000043b2d4
  DW_CFA_def_cfa_offset: 48
  DW_CFA_advance_loc: 1 to 000000000043b2d5
  DW_CFA_def_cfa_offset: 40
  DW_CFA_advance_loc: 2 to 000000000043b2d7
  DW_CFA_def_cfa_offset: 32
  DW_CFA_advance_loc: 2 to 000000000043b2d9
  DW_CFA_def_cfa_offset: 24
  DW_CFA_advance_loc: 2 to 000000000043b2db
  DW_CFA_def_cfa_offset: 16
  DW_CFA_advance_loc: 2 to 000000000043b2dd
  DW_CFA_def_cfa_offset: 8
  DW_CFA_advance_loc: 5 to 000000000043b2e2
  DW_CFA_restore_state
  DW_CFA_advance_loc: 56 to 000000000043b31a
  DW_CFA_remember_state
  DW_CFA_def_cfa_offset: 56
  DW_CFA_advance_loc: 8 to 000000000043b322
  DW_CFA_def_cfa_offset: 48
  DW_CFA_advance_loc: 1 to 000000000043b323
  DW_CFA_def_cfa_offset: 40
  DW_CFA_advance_loc: 2 to 000000000043b325
  DW_CFA_def_cfa_offset: 32
  DW_CFA_advance_loc: 2 to 000000000043b327
  DW_CFA_def_cfa_offset: 24
  DW_CFA_advance_loc: 2 to 000000000043b329
  DW_CFA_def_cfa_offset: 16
  DW_CFA_advance_loc: 2 to 000000000043b32b
  DW_CFA_def_cfa_offset: 8
  DW_CFA_advance_loc: 5 to 000000000043b330
  DW_CFA_restore_state
  DW_CFA_advance_loc: 46 to 000000000043b35e
  DW_CFA_remember_state
  DW_CFA_def_cfa_offset: 56
  DW_CFA_advance_loc: 8 to 000000000043b366
  DW_CFA_def_cfa_offset: 48
  DW_CFA_advance_loc: 1 to 000000000043b367
  DW_CFA_def_cfa_offset: 40
  DW_CFA_advance_loc: 2 to 000000000043b369
  DW_CFA_def_cfa_offset: 32
  DW_CFA_advance_loc: 2 to 000000000043b36b
  DW_CFA_def_cfa_offset: 24
  DW_CFA_advance_loc: 2 to 000000000043b36d
  DW_CFA_def_cfa_offset: 16
  DW_CFA_advance_loc: 2 to 000000000043b36f
  DW_CFA_def_cfa_offset: 8
  DW_CFA_advance_loc: 5 to 000000000043b374
  DW_CFA_restore_state
  DW_CFA_advance_loc: 56 to 000000000043b3ac
  DW_CFA_remember_state
  DW_CFA_def_cfa_offset: 56
  DW_CFA_advance_loc: 8 to 000000000043b3b4
  DW_CFA_def_cfa_offset: 48
  DW_CFA_advance_loc: 1 to 000000000043b3b5
  DW_CFA_def_cfa_offset: 40
  DW_CFA_advance_loc: 2 to 000000000043b3b7
  DW_CFA_def_cfa_offset: 32
  DW_CFA_advance_loc: 2 to 000000000043b3b9
  DW_CFA_def_cfa_offset: 24
  DW_CFA_advance_loc: 2 to 000000000043b3bb
  DW_CFA_def_cfa_offset: 16
  DW_CFA_advance_loc: 2 to 000000000043b3bd
  DW_CFA_def_cfa_offset: 8
  DW_CFA_advance_loc: 5 to 000000000043b3c2
  DW_CFA_restore_state
  DW_CFA_advance_loc: 46 to 000000000043b3f0
  DW_CFA_remember_state
  DW_CFA_def_cfa_offset: 56
  DW_CFA_advance_loc: 8 to 000000000043b3f8
  DW_CFA_def_cfa_offset: 48
  DW_CFA_advance_loc: 1 to 000000000043b3f9
  DW_CFA_def_cfa_offset: 40
  DW_CFA_advance_loc: 2 to 000000000043b3fb
  DW_CFA_def_cfa_offset: 32
  DW_CFA_advance_loc: 2 to 000000000043b3fd
  DW_CFA_def_cfa_offset: 24
  DW_CFA_advance_loc: 2 to 000000000043b3ff
  DW_CFA_def_cfa_offset: 16
  DW_CFA_advance_loc: 2 to 000000000043b401
  DW_CFA_def_cfa_offset: 8
  DW_CFA_advance_loc: 5 to 000000000043b406
  DW_CFA_restore_state
  DW_CFA_advance_loc: 56 to 000000000043b43e
  DW_CFA_remember_state
  DW_CFA_def_cfa_offset: 56
  DW_CFA_advance_loc: 8 to 000000000043b446
  DW_CFA_def_cfa_offset: 48
  DW_CFA_advance_loc: 1 to 000000000043b447
  DW_CFA_def_cfa_offset: 40
  DW_CFA_advance_loc: 2 to 000000000043b449
  DW_CFA_def_cfa_offset: 32
  DW_CFA_advance_loc: 2 to 000000000043b44b
  DW_CFA_def_cfa_offset: 24
  DW_CFA_advance_loc: 2 to 000000000043b44d
  DW_CFA_def_cfa_offset: 16
  DW_CFA_advance_loc: 2 to 000000000043b44f
  DW_CFA_def_cfa_offset: 8
  DW_CFA_advance_loc: 5 to 000000000043b454
  DW_CFA_restore_state
  DW_CFA_advance_loc: 46 to 000000000043b482
  DW_CFA_remember_state
  DW_CFA_def_cfa_offset: 56
  DW_CFA_advance_loc: 8 to 000000000043b48a
  DW_CFA_def_cfa_offset: 48
  DW_CFA_advance_loc: 1 to 000000000043b48b
  DW_CFA_def_cfa_offset: 40
  DW_CFA_advance_loc: 2 to 000000000043b48d
  DW_CFA_def_cfa_offset: 32
  DW_CFA_advance_loc: 2 to 000000000043b48f
  DW_CFA_def_cfa_offset: 24
  DW_CFA_advance_loc: 2 to 000000000043b491
  DW_CFA_def_cfa_offset: 16
  DW_CFA_advance_loc: 2 to 000000000043b493
  DW_CFA_def_cfa_offset: 8
  DW_CFA_advance_loc: 5 to 000000000043b498
  DW_CFA_restore_state
  DW_CFA_advance_loc: 56 to 000000000043b4d0
  DW_CFA_remember_state
  DW_CFA_def_cfa_offset: 56
  DW_CFA_advance_loc: 8 to 000000000043b4d8
  DW_CFA_def_cfa_offset: 48
  DW_CFA_advance_loc: 1 to 000000000043b4d9
  DW_CFA_def_cfa_offset: 40
  DW_CFA_advance_loc: 2 to 000000000043b4db
  DW_CFA_def_cfa_offset: 32
  DW_CFA_advance_loc: 2 to 000000000043b4dd
  DW_CFA_def_cfa_offset: 24
  DW_CFA_advance_loc: 2 to 000000000043b4df
  DW_CFA_def_cfa_offset: 16
  DW_CFA_advance_loc: 2 to 000000000043b4e1
  DW_CFA_def_cfa_offset: 8
  DW_CFA_advance_loc: 5 to 000000000043b4e6
  DW_CFA_restore_state
  DW_CFA_advance_loc: 46 to 000000000043b514
  DW_CFA_remember_state
  DW_CFA_def_cfa_offset: 56
  DW_CFA_advance_loc: 8 to 000000000043b51c
  DW_CFA_def_cfa_offset: 48
  DW_CFA_advance_loc: 1 to 000000000043b51d
  DW_CFA_def_cfa_offset: 40
  DW_CFA_advance_loc: 2 to 000000000043b51f
  DW_CFA_def_cfa_offset: 32
  DW_CFA_advance_loc: 2 to 000000000043b521
  DW_CFA_def_cfa_offset: 24
  DW_CFA_advance_loc: 2 to 000000000043b523
  DW_CFA_def_cfa_offset: 16
  DW_CFA_advance_loc: 2 to 000000000043b525
  DW_CFA_def_cfa_offset: 8
  DW_CFA_advance_loc: 5 to 000000000043b52a
  DW_CFA_restore_state
  DW_CFA_advance_loc: 56 to 000000000043b562
  DW_CFA_remember_state
  DW_CFA_def_cfa_offset: 56
  DW_CFA_advance_loc: 8 to 000000000043b56a
  DW_CFA_def_cfa_offset: 48
  DW_CFA_advance_loc: 1 to 000000000043b56b
  DW_CFA_def_cfa_offset: 40
  DW_CFA_advance_loc: 2 to 000000000043b56d
  DW_CFA_def_cfa_offset: 32
  DW_CFA_advance_loc: 2 to 000000000043b56f
  DW_CFA_def_cfa_offset: 24
  DW_CFA_advance_loc: 2 to 000000000043b571
  DW_CFA_def_cfa_offset: 16
  DW_CFA_advance_loc: 2 to 000000000043b573
  DW_CFA_def_cfa_offset: 8
  DW_CFA_advance_loc: 5 to 000000000043b578
  DW_CFA_restore_state
  DW_CFA_advance_loc: 46 to 000000000043b5a6
  DW_CFA_remember_state
  DW_CFA_def_cfa_offset: 56
  DW_CFA_advance_loc: 8 to 000000000043b5ae
  DW_CFA_def_cfa_offset: 48
  DW_CFA_advance_loc: 1 to 000000000043b5af
  DW_CFA_def_cfa_offset: 40
  DW_CFA_advance_loc: 2 to 000000000043b5b1
  DW_CFA_def_cfa_offset: 32
  DW_CFA_advance_loc: 2 to 000000000043b5b3
  DW_CFA_def_cfa_offset: 24
  DW_CFA_advance_loc: 2 to 000000000043b5b5
  DW_CFA_def_cfa_offset: 16
  DW_CFA_advance_loc: 2 to 000000000043b5b7
  DW_CFA_def_cfa_offset: 8
  DW_CFA_advance_loc: 5 to 000000000043b5bc
  DW_CFA_restore_state
  DW_CFA_advance_loc: 56 to 000000000043b5f4
  DW_CFA_remember_state
  DW_CFA_def_cfa_offset: 56
  DW_CFA_advance_loc: 8 to 000000000043b5fc
  DW_CFA_def_cfa_offset: 48
  DW_CFA_advance_loc: 1 to 000000000043b5fd
  DW_CFA_def_cfa_offset: 40
  DW_CFA_advance_loc: 2 to 000000000043b5ff
  DW_CFA_def_cfa_offset: 32
  DW_CFA_advance_loc: 2 to 000000000043b601
  DW_CFA_def_cfa_offset: 24
  DW_CFA_advance_loc: 2 to 000000000043b603
  DW_CFA_def_cfa_offset: 16
  DW_CFA_advance_loc: 2 to 000000000043b605
  DW_CFA_def_cfa_offset: 8
  DW_CFA_advance_loc: 5 to 000000000043b60a
  DW_CFA_restore_state
  DW_CFA_advance_loc: 46 to 000000000043b638
  DW_CFA_remember_state
  DW_CFA_def_cfa_offset: 56
  DW_CFA_advance_loc: 8 to 000000000043b640
  DW_CFA_def_cfa_offset: 48
  DW_CFA_advance_loc: 1 to 000000000043b641
  DW_CFA_def_cfa_offset: 40
  DW_CFA_advance_loc: 2 to 000000000043b643
  DW_CFA_def_cfa_offset: 32
  DW_CFA_advance_loc: 2 to 000000000043b645
  DW_CFA_def_cfa_offset: 24
  DW_CFA_advance_loc: 2 to 000000000043b647
  DW_CFA_def_cfa_offset: 16
  DW_CFA_advance_loc: 2 to 000000000043b649
  DW_CFA_def_cfa_offset: 8
  DW_CFA_advance_loc: 5 to 000000000043b64e
  DW_CFA_restore_state
  DW_CFA_advance_loc: 56 to 000000000043b686
  DW_CFA_remember_state
  DW_CFA_def_cfa_offset: 56
  DW_CFA_advance_loc: 8 to 000000000043b68e
  DW_CFA_def_cfa_offset: 48
  DW_CFA_advance_loc: 1 to 000000000043b68f
  DW_CFA_def_cfa_offset: 40
  DW_CFA_advance_loc: 2 to 000000000043b691
  DW_CFA_def_cfa_offset: 32
  DW_CFA_advance_loc: 2 to 000000000043b693
  DW_CFA_def_cfa_offset: 24
  DW_CFA_advance_loc: 2 to 000000000043b695
  DW_CFA_def_cfa_offset: 16
  DW_CFA_advance_loc: 2 to 000000000043b697
  DW_CFA_def_cfa_offset: 8
  DW_CFA_advance_loc: 5 to 000000000043b69c
  DW_CFA_restore_state
  DW_CFA_advance_loc: 46 to 000000000043b6ca
  DW_CFA_remember_state
  DW_CFA_def_cfa_offset: 56
  DW_CFA_advance_loc: 8 to 000000000043b6d2
  DW_CFA_def_cfa_offset: 48
  DW_CFA_advance_loc: 1 to 000000000043b6d3
  DW_CFA_def_cfa_offset: 40
  DW_CFA_advance_loc: 2 to 000000000043b6d5
  DW_CFA_def_cfa_offset: 32
  DW_CFA_advance_loc: 2 to 000000000043b6d7
  DW_CFA_def_cfa_offset: 24
  DW_CFA_advance_loc: 2 to 000000000043b6d9
  DW_CFA_def_cfa_offset: 16
  DW_CFA_advance_loc: 2 to 000000000043b6db
  DW_CFA_def_cfa_offset: 8
  DW_CFA_advance_loc: 5 to 000000000043b6e0
  DW_CFA_restore_state
  DW_CFA_advance_loc: 56 to 000000000043b718
  DW_CFA_remember_state
  DW_CFA_def_cfa_offset: 56
  DW_CFA_advance_loc: 8 to 000000000043b720
  DW_CFA_def_cfa_offset: 48
  DW_CFA_advance_loc: 1 to 000000000043b721
  DW_CFA_def_cfa_offset: 40
  DW_CFA_advance_loc: 2 to 000000000043b723
  DW_CFA_def_cfa_offset: 32
  DW_CFA_advance_loc: 2 to 000000000043b725
  DW_CFA_def_cfa_offset: 24
  DW_CFA_advance_loc: 2 to 000000000043b727
  DW_CFA_def_cfa_offset: 16
  DW_CFA_advance_loc: 2 to 000000000043b729
  DW_CFA_def_cfa_offset: 8
  DW_CFA_advance_loc: 5 to 000000000043b72e
  DW_CFA_restore_state
  DW_CFA_advance_loc: 46 to 000000000043b75c
  DW_CFA_remember_state
  DW_CFA_def_cfa_offset: 56
  DW_CFA_advance_loc: 8 to 000000000043b764
  DW_CFA_def_cfa_offset: 48
  DW_CFA_advance_loc: 1 to 000000000043b765
  DW_CFA_def_cfa_offset: 40
  DW_CFA_advance_loc: 2 to 000000000043b767
  DW_CFA_def_cfa_offset: 32
  DW_CFA_advance_loc: 2 to 000000000043b769
  DW_CFA_def_cfa_offset: 24
  DW_CFA_advance_loc: 2 to 000000000043b76b
  DW_CFA_def_cfa_offset: 16
  DW_CFA_advance_loc: 2 to 000000000043b76d
  DW_CFA_def_cfa_offset: 8
  DW_CFA_advance_loc: 5 to 000000000043b772
  DW_CFA_restore_state
  DW_CFA_advance_loc: 56 to 000000000043b7aa
  DW_CFA_remember_state
  DW_CFA_def_cfa_offset: 56
  DW_CFA_advance_loc: 8 to 000000000043b7b2
  DW_CFA_def_cfa_offset: 48
  DW_CFA_advance_loc: 1 to 000000000043b7b3
  DW_CFA_def_cfa_offset: 40
  DW_CFA_advance_loc: 2 to 000000000043b7b5
  DW_CFA_def_cfa_offset: 32
  DW_CFA_advance_loc: 2 to 000000000043b7b7
  DW_CFA_def_cfa_offset: 24
  DW_CFA_advance_loc: 2 to 000000000043b7b9
  DW_CFA_def_cfa_offset: 16
  DW_CFA_advance_loc: 2 to 000000000043b7bb
  DW_CFA_def_cfa_offset: 8
  DW_CFA_advance_loc: 5 to 000000000043b7c0
  DW_CFA_restore_state
  DW_CFA_advance_loc: 46 to 000000000043b7ee
  DW_CFA_remember_state
  DW_CFA_def_cfa_offset: 56
  DW_CFA_advance_loc: 8 to 000000000043b7f6
  DW_CFA_def_cfa_offset: 48
  DW_CFA_advance_loc: 1 to 000000000043b7f7
  DW_CFA_def_cfa_offset: 40
  DW_CFA_advance_loc: 2 to 000000000043b7f9
  DW_CFA_def_cfa_offset: 32
  DW_CFA_advance_loc: 2 to 000000000043b7fb
  DW_CFA_def_cfa_offset: 24
  DW_CFA_advance_loc: 2 to 000000000043b7fd
  DW_CFA_def_cfa_offset: 16
  DW_CFA_advance_loc: 2 to 000000000043b7ff
  DW_CFA_def_cfa_offset: 8
  DW_CFA_advance_loc: 5 to 000000000043b804
  DW_CFA_restore_state
  DW_CFA_advance_loc: 56 to 000000000043b83c
  DW_CFA_remember_state
  DW_CFA_def_cfa_offset: 56
  DW_CFA_advance_loc: 8 to 000000000043b844
  DW_CFA_def_cfa_offset: 48
  DW_CFA_advance_loc: 1 to 000000000043b845
  DW_CFA_def_cfa_offset: 40
  DW_CFA_advance_loc: 2 to 000000000043b847
  DW_CFA_def_cfa_offset: 32
  DW_CFA_advance_loc: 2 to 000000000043b849
  DW_CFA_def_cfa_offset: 24
  DW_CFA_advance_loc: 2 to 000000000043b84b
  DW_CFA_def_cfa_offset: 16
  DW_CFA_advance_loc: 2 to 000000000043b84d
  DW_CFA_def_cfa_offset: 8
  DW_CFA_advance_loc: 5 to 000000000043b852
  DW_CFA_restore_state
  DW_CFA_advance_loc: 46 to 000000000043b880
  DW_CFA_remember_state
  DW_CFA_def_cfa_offset: 56
  DW_CFA_advance_loc: 8 to 000000000043b888
  DW_CFA_def_cfa_offset: 48
  DW_CFA_advance_loc: 1 to 000000000043b889
  DW_CFA_def_cfa_offset: 40
  DW_CFA_advance_loc: 2 to 000000000043b88b
  DW_CFA_def_cfa_offset: 32
  DW_CFA_advance_loc: 2 to 000000000043b88d
  DW_CFA_def_cfa_offset: 24
  DW_CFA_advance_loc: 2 to 000000000043b88f
  DW_CFA_def_cfa_offset: 16
  DW_CFA_advance_loc: 2 to 000000000043b891
  DW_CFA_def_cfa_offset: 8
  DW_CFA_advance_loc: 5 to 000000000043b896
  DW_CFA_restore_state
  DW_CFA_advance_loc: 56 to 000000000043b8ce
  DW_CFA_remember_state
  DW_CFA_def_cfa_offset: 56
  DW_CFA_advance_loc: 8 to 000000000043b8d6
  DW_CFA_def_cfa_offset: 48
  DW_CFA_advance_loc: 1 to 000000000043b8d7
  DW_CFA_def_cfa_offset: 40
  DW_CFA_advance_loc: 2 to 000000000043b8d9
  DW_CFA_def_cfa_offset: 32
  DW_CFA_advance_loc: 2 to 000000000043b8db
  DW_CFA_def_cfa_offset: 24
  DW_CFA_advance_loc: 2 to 000000000043b8dd
  DW_CFA_def_cfa_offset: 16
  DW_CFA_advance_loc: 2 to 000000000043b8df
  DW_CFA_def_cfa_offset: 8
  DW_CFA_advance_loc: 5 to 000000000043b8e4
  DW_CFA_restore_state
  DW_CFA_advance_loc: 46 to 000000000043b912
  DW_CFA_remember_state
  DW_CFA_def_cfa_offset: 56
  DW_CFA_advance_loc: 8 to 000000000043b91a
  DW_CFA_def_cfa_offset: 48
  DW_CFA_advance_loc: 1 to 000000000043b91b
  DW_CFA_def_cfa_offset: 40
  DW_CFA_advance_loc: 2 to 000000000043b91d
  DW_CFA_def_cfa_offset: 32
  DW_CFA_advance_loc: 2 to 000000000043b91f
  DW_CFA_def_cfa_offset: 24
  DW_CFA_advance_loc: 2 to 000000000043b921
  DW_CFA_def_cfa_offset: 16
  DW_CFA_advance_loc: 2 to 000000000043b923
  DW_CFA_def_cfa_offset: 8
  DW_CFA_advance_loc: 5 to 000000000043b928
  DW_CFA_restore_state
  DW_CFA_advance_loc: 56 to 000000000043b960
  DW_CFA_remember_state
  DW_CFA_def_cfa_offset: 56
  DW_CFA_advance_loc: 8 to 000000000043b968
  DW_CFA_def_cfa_offset: 48
  DW_CFA_advance_loc: 1 to 000000000043b969
  DW_CFA_def_cfa_offset: 40
  DW_CFA_advance_loc: 2 to 000000000043b96b
  DW_CFA_def_cfa_offset: 32
  DW_CFA_advance_loc: 2 to 000000000043b96d
  DW_CFA_def_cfa_offset: 24
  DW_CFA_advance_loc: 2 to 000000000043b96f
  DW_CFA_def_cfa_offset: 16
  DW_CFA_advance_loc: 2 to 000000000043b971
  DW_CFA_def_cfa_offset: 8
  DW_CFA_advance_loc: 5 to 000000000043b976
  DW_CFA_restore_state
  DW_CFA_advance_loc: 46 to 000000000043b9a4
  DW_CFA_remember_state
  DW_CFA_def_cfa_offset: 56
  DW_CFA_advance_loc: 8 to 000000000043b9ac
  DW_CFA_def_cfa_offset: 48
  DW_CFA_advance_loc: 1 to 000000000043b9ad
  DW_CFA_def_cfa_offset: 40
  DW_CFA_advance_loc: 2 to 000000000043b9af
  DW_CFA_def_cfa_offset: 32
  DW_CFA_advance_loc: 2 to 000000000043b9b1
  DW_CFA_def_cfa_offset: 24
  DW_CFA_advance_loc: 2 to 000000000043b9b3
  DW_CFA_def_cfa_offset: 16
  DW_CFA_advance_loc: 2 to 000000000043b9b5
  DW_CFA_def_cfa_offset: 8
  DW_CFA_advance_loc: 5 to 000000000043b9ba
  DW_CFA_restore_state
  DW_CFA_advance_loc: 56 to 000000000043b9f2
  DW_CFA_remember_state
  DW_CFA_def_cfa_offset: 56
  DW_CFA_advance_loc: 8 to 000000000043b9fa
  DW_CFA_def_cfa_offset: 48
  DW_CFA_advance_loc: 1 to 000000000043b9fb
  DW_CFA_def_cfa_offset: 40
  DW_CFA_advance_loc: 2 to 000000000043b9fd
  DW_CFA_def_cfa_offset: 32
  DW_CFA_advance_loc: 2 to 000000000043b9ff
  DW_CFA_def_cfa_offset: 24
  DW_CFA_advance_loc: 2 to 000000000043ba01
  DW_CFA_def_cfa_offset: 16
  DW_CFA_advance_loc: 2 to 000000000043ba03
  DW_CFA_def_cfa_offset: 8
  DW_CFA_advance_loc: 5 to 000000000043ba08
  DW_CFA_restore_state
  DW_CFA_advance_loc: 46 to 000000000043ba36
  DW_CFA_remember_state
  DW_CFA_def_cfa_offset: 56
  DW_CFA_advance_loc: 8 to 000000000043ba3e
  DW_CFA_def_cfa_offset: 48
  DW_CFA_advance_loc: 1 to 000000000043ba3f
  DW_CFA_def_cfa_offset: 40
  DW_CFA_advance_loc: 2 to 000000000043ba41
  DW_CFA_def_cfa_offset: 32
  DW_CFA_advance_loc: 2 to 000000000043ba43
  DW_CFA_def_cfa_offset: 24
  DW_CFA_advance_loc: 2 to 000000000043ba45
  DW_CFA_def_cfa_offset: 16
  DW_CFA_advance_loc: 2 to 000000000043ba47
  DW_CFA_def_cfa_offset: 8
  DW_CFA_advance_loc: 5 to 000000000043ba4c
  DW_CFA_restore_state
  DW_CFA_advance_loc: 56 to 000000000043ba84
  DW_CFA_remember_state
  DW_CFA_def_cfa_offset: 56
  DW_CFA_advance_loc: 8 to 000000000043ba8c
  DW_CFA_def_cfa_offset: 48
  DW_CFA_advance_loc: 1 to 000000000043ba8d
  DW_CFA_def_cfa_offset: 40
  DW_CFA_advance_loc: 2 to 000000000043ba8f
  DW_CFA_def_cfa_offset: 32
  DW_CFA_advance_loc: 2 to 000000000043ba91
  DW_CFA_def_cfa_offset: 24
  DW_CFA_advance_loc: 2 to 000000000043ba93
  DW_CFA_def_cfa_offset: 16
  DW_CFA_advance_loc: 2 to 000000000043ba95
  DW_CFA_def_cfa_offset: 8
  DW_CFA_advance_loc: 5 to 000000000043ba9a
  DW_CFA_restore_state
  DW_CFA_advance_loc: 46 to 000000000043bac8
  DW_CFA_remember_state
  DW_CFA_def_cfa_offset: 56
  DW_CFA_advance_loc: 8 to 000000000043bad0
  DW_CFA_def_cfa_offset: 48
  DW_CFA_advance_loc: 1 to 000000000043bad1
  DW_CFA_def_cfa_offset: 40
  DW_CFA_advance_loc: 2 to 000000000043bad3
  DW_CFA_def_cfa_offset: 32
  DW_CFA_advance_loc: 2 to 000000000043bad5
  DW_CFA_def_cfa_offset: 24
  DW_CFA_advance_loc: 2 to 000000000043bad7
  DW_CFA_def_cfa_offset: 16
  DW_CFA_advance_loc: 2 to 000000000043bad9
  DW_CFA_def_cfa_offset: 8
  DW_CFA_advance_loc: 5 to 000000000043bade
  DW_CFA_restore_state
  DW_CFA_advance_loc: 56 to 000000000043bb16
  DW_CFA_remember_state
  DW_CFA_def_cfa_offset: 56
  DW_CFA_advance_loc: 8 to 000000000043bb1e
  DW_CFA_def_cfa_offset: 48
  DW_CFA_advance_loc: 1 to 000000000043bb1f
  DW_CFA_def_cfa_offset: 40
  DW_CFA_advance_loc: 2 to 000000000043bb21
  DW_CFA_def_cfa_offset: 32
  DW_CFA_advance_loc: 2 to 000000000043bb23
  DW_CFA_def_cfa_offset: 24
  DW_CFA_advance_loc: 2 to 000000000043bb25
  DW_CFA_def_cfa_offset: 16
  DW_CFA_advance_loc: 2 to 000000000043bb27
  DW_CFA_def_cfa_offset: 8
  DW_CFA_advance_loc: 5 to 000000000043bb2c
  DW_CFA_restore_state
  DW_CFA_advance_loc: 46 to 000000000043bb5a
  DW_CFA_remember_state
  DW_CFA_def_cfa_offset: 56
  DW_CFA_advance_loc: 8 to 000000000043bb62
  DW_CFA_def_cfa_offset: 48
  DW_CFA_advance_loc: 1 to 000000000043bb63
  DW_CFA_def_cfa_offset: 40
  DW_CFA_advance_loc: 2 to 000000000043bb65
  DW_CFA_def_cfa_offset: 32
  DW_CFA_advance_loc: 2 to 000000000043bb67
  DW_CFA_def_cfa_offset: 24
  DW_CFA_advance_loc: 2 to 000000000043bb69
  DW_CFA_def_cfa_offset: 16
  DW_CFA_advance_loc: 2 to 000000000043bb6b
  DW_CFA_def_cfa_offset: 8
  DW_CFA_advance_loc: 5 to 000000000043bb70
  DW_CFA_restore_state
  DW_CFA_advance_loc: 56 to 000000000043bba8
  DW_CFA_remember_state
  DW_CFA_def_cfa_offset: 56
  DW_CFA_advance_loc: 8 to 000000000043bbb0
  DW_CFA_def_cfa_offset: 48
  DW_CFA_advance_loc: 1 to 000000000043bbb1
  DW_CFA_def_cfa_offset: 40
  DW_CFA_advance_loc: 2 to 000000000043bbb3
  DW_CFA_def_cfa_offset: 32
  DW_CFA_advance_loc: 2 to 000000000043bbb5
  DW_CFA_def_cfa_offset: 24
  DW_CFA_advance_loc: 2 to 000000000043bbb7
  DW_CFA_def_cfa_offset: 16
  DW_CFA_advance_loc: 2 to 000000000043bbb9
  DW_CFA_def_cfa_offset: 8
  DW_CFA_advance_loc: 5 to 000000000043bbbe
  DW_CFA_restore_state
  DW_CFA_advance_loc: 46 to 000000000043bbec
  DW_CFA_remember_state
  DW_CFA_def_cfa_offset: 56
  DW_CFA_advance_loc: 8 to 000000000043bbf4
  DW_CFA_def_cfa_offset: 48
  DW_CFA_advance_loc: 1 to 000000000043bbf5
  DW_CFA_def_cfa_offset: 40
  DW_CFA_advance_loc: 2 to 000000000043bbf7
  DW_CFA_def_cfa_offset: 32
  DW_CFA_advance_loc: 2 to 000000000043bbf9
  DW_CFA_def_cfa_offset: 24
  DW_CFA_advance_loc: 2 to 000000000043bbfb
  DW_CFA_def_cfa_offset: 16
  DW_CFA_advance_loc: 2 to 000000000043bbfd
  DW_CFA_def_cfa_offset: 8
  DW_CFA_advance_loc: 5 to 000000000043bc02
  DW_CFA_restore_state
  DW_CFA_advance_loc: 56 to 000000000043bc3a
  DW_CFA_remember_state
  DW_CFA_def_cfa_offset: 56
  DW_CFA_advance_loc: 8 to 000000000043bc42
  DW_CFA_def_cfa_offset: 48
  DW_CFA_advance_loc: 1 to 000000000043bc43
  DW_CFA_def_cfa_offset: 40
  DW_CFA_advance_loc: 2 to 000000000043bc45
  DW_CFA_def_cfa_offset: 32
  DW_CFA_advance_loc: 2 to 000000000043bc47
  DW_CFA_def_cfa_offset: 24
  DW_CFA_advance_loc: 2 to 000000000043bc49
  DW_CFA_def_cfa_offset: 16
  DW_CFA_advance_loc: 2 to 000000000043bc4b
  DW_CFA_def_cfa_offset: 8
  DW_CFA_advance_loc: 5 to 000000000043bc50
  DW_CFA_restore_state
  DW_CFA_advance_loc: 46 to 000000000043bc7e
  DW_CFA_remember_state
  DW_CFA_def_cfa_offset: 56
  DW_CFA_advance_loc: 8 to 000000000043bc86
  DW_CFA_def_cfa_offset: 48
  DW_CFA_advance_loc: 1 to 000000000043bc87
  DW_CFA_def_cfa_offset: 40
  DW_CFA_advance_loc: 2 to 000000000043bc89
  DW_CFA_def_cfa_offset: 32
  DW_CFA_advance_loc: 2 to 000000000043bc8b
  DW_CFA_def_cfa_offset: 24
  DW_CFA_advance_loc: 2 to 000000000043bc8d
  DW_CFA_def_cfa_offset: 16
  DW_CFA_advance_loc: 2 to 000000000043bc8f
  DW_CFA_def_cfa_offset: 8
  DW_CFA_advance_loc: 5 to 000000000043bc94
  DW_CFA_restore_state
  DW_CFA_advance_loc: 56 to 000000000043bccc
  DW_CFA_remember_state
  DW_CFA_def_cfa_offset: 56
  DW_CFA_advance_loc: 8 to 000000000043bcd4
  DW_CFA_def_cfa_offset: 48
  DW_CFA_advance_loc: 1 to 000000000043bcd5
  DW_CFA_def_cfa_offset: 40
  DW_CFA_advance_loc: 2 to 000000000043bcd7
  DW_CFA_def_cfa_offset: 32
  DW_CFA_advance_loc: 2 to 000000000043bcd9
  DW_CFA_def_cfa_offset: 24
  DW_CFA_advance_loc: 2 to 000000000043bcdb
  DW_CFA_def_cfa_offset: 16
  DW_CFA_advance_loc: 2 to 000000000043bcdd
  DW_CFA_def_cfa_offset: 8
  DW_CFA_advance_loc: 5 to 000000000043bce2
  DW_CFA_restore_state
  DW_CFA_advance_loc: 46 to 000000000043bd10
  DW_CFA_remember_state
  DW_CFA_def_cfa_offset: 56
  DW_CFA_advance_loc: 8 to 000000000043bd18
  DW_CFA_def_cfa_offset: 48
  DW_CFA_advance_loc: 1 to 000000000043bd19
  DW_CFA_def_cfa_offset: 40
  DW_CFA_advance_loc: 2 to 000000000043bd1b
  DW_CFA_def_cfa_offset: 32
  DW_CFA_advance_loc: 2 to 000000000043bd1d
  DW_CFA_def_cfa_offset: 24
  DW_CFA_advance_loc: 2 to 000000000043bd1f
  DW_CFA_def_cfa_offset: 16
  DW_CFA_advance_loc: 2 to 000000000043bd21
  DW_CFA_def_cfa_offset: 8
  DW_CFA_advance_loc: 5 to 000000000043bd26
  DW_CFA_restore_state
  DW_CFA_advance_loc: 56 to 000000000043bd5e
  DW_CFA_remember_state
  DW_CFA_def_cfa_offset: 56
  DW_CFA_advance_loc: 8 to 000000000043bd66
  DW_CFA_def_cfa_offset: 48
  DW_CFA_advance_loc: 1 to 000000000043bd67
  DW_CFA_def_cfa_offset: 40
  DW_CFA_advance_loc: 2 to 000000000043bd69
  DW_CFA_def_cfa_offset: 32
  DW_CFA_advance_loc: 2 to 000000000043bd6b
  DW_CFA_def_cfa_offset: 24
  DW_CFA_advance_loc: 2 to 000000000043bd6d
  DW_CFA_def_cfa_offset: 16
  DW_CFA_advance_loc: 2 to 000000000043bd6f
  DW_CFA_def_cfa_offset: 8
  DW_CFA_advance_loc: 5 to 000000000043bd74
  DW_CFA_restore_state
  DW_CFA_advance_loc: 46 to 000000000043bda2
  DW_CFA_remember_state
  DW_CFA_def_cfa_offset: 56
  DW_CFA_advance_loc: 8 to 000000000043bdaa
  DW_CFA_def_cfa_offset: 48
  DW_CFA_advance_loc: 1 to 000000000043bdab
  DW_CFA_def_cfa_offset: 40
  DW_CFA_advance_loc: 2 to 000000000043bdad
  DW_CFA_def_cfa_offset: 32
  DW_CFA_advance_loc: 2 to 000000000043bdaf
  DW_CFA_def_cfa_offset: 24
  DW_CFA_advance_loc: 2 to 000000000043bdb1
  DW_CFA_def_cfa_offset: 16
  DW_CFA_advance_loc: 2 to 000000000043bdb3
  DW_CFA_def_cfa_offset: 8
  DW_CFA_advance_loc: 5 to 000000000043bdb8
  DW_CFA_restore_state
  DW_CFA_advance_loc: 56 to 000000000043bdf0
  DW_CFA_remember_state
  DW_CFA_def_cfa_offset: 56
  DW_CFA_advance_loc: 8 to 000000000043bdf8
  DW_CFA_def_cfa_offset: 48
  DW_CFA_advance_loc: 1 to 000000000043bdf9
  DW_CFA_def_cfa_offset: 40
  DW_CFA_advance_loc: 2 to 000000000043bdfb
  DW_CFA_def_cfa_offset: 32
  DW_CFA_advance_loc: 2 to 000000000043bdfd
  DW_CFA_def_cfa_offset: 24
  DW_CFA_advance_loc: 2 to 000000000043bdff
  DW_CFA_def_cfa_offset: 16
  DW_CFA_advance_loc: 2 to 000000000043be01
  DW_CFA_def_cfa_offset: 8
  DW_CFA_advance_loc: 5 to 000000000043be06
  DW_CFA_restore_state
  DW_CFA_advance_loc: 46 to 000000000043be34
  DW_CFA_remember_state
  DW_CFA_def_cfa_offset: 56
  DW_CFA_advance_loc: 8 to 000000000043be3c
  DW_CFA_def_cfa_offset: 48
  DW_CFA_advance_loc: 1 to 000000000043be3d
  DW_CFA_def_cfa_offset: 40
  DW_CFA_advance_loc: 2 to 000000000043be3f
  DW_CFA_def_cfa_offset: 32
  DW_CFA_advance_loc: 2 to 000000000043be41
  DW_CFA_def_cfa_offset: 24
  DW_CFA_advance_loc: 2 to 000000000043be43
  DW_CFA_def_cfa_offset: 16
  DW_CFA_advance_loc: 2 to 000000000043be45
  DW_CFA_def_cfa_offset: 8
  DW_CFA_advance_loc: 5 to 000000000043be4a
  DW_CFA_restore_state
  DW_CFA_advance_loc: 56 to 000000000043be82
  DW_CFA_remember_state
  DW_CFA_def_cfa_offset: 56
  DW_CFA_advance_loc: 8 to 000000000043be8a
  DW_CFA_def_cfa_offset: 48
  DW_CFA_advance_loc: 1 to 000000000043be8b
  DW_CFA_def_cfa_offset: 40
  DW_CFA_advance_loc: 2 to 000000000043be8d
  DW_CFA_def_cfa_offset: 32
  DW_CFA_advance_loc: 2 to 000000000043be8f
  DW_CFA_def_cfa_offset: 24
  DW_CFA_advance_loc: 2 to 000000000043be91
  DW_CFA_def_cfa_offset: 16
  DW_CFA_advance_loc: 2 to 000000000043be93
  DW_CFA_def_cfa_offset: 8
  DW_CFA_advance_loc: 5 to 000000000043be98
  DW_CFA_restore_state
  DW_CFA_advance_loc: 46 to 000000000043bec6
  DW_CFA_remember_state
  DW_CFA_def_cfa_offset: 56
  DW_CFA_advance_loc: 8 to 000000000043bece
  DW_CFA_def_cfa_offset: 48
  DW_CFA_advance_loc: 1 to 000000000043becf
  DW_CFA_def_cfa_offset: 40
  DW_CFA_advance_loc: 2 to 000000000043bed1
  DW_CFA_def_cfa_offset: 32
  DW_CFA_advance_loc: 2 to 000000000043bed3
  DW_CFA_def_cfa_offset: 24
  DW_CFA_advance_loc: 2 to 000000000043bed5
  DW_CFA_def_cfa_offset: 16
  DW_CFA_advance_loc: 2 to 000000000043bed7
  DW_CFA_def_cfa_offset: 8
  DW_CFA_advance_loc: 5 to 000000000043bedc
  DW_CFA_restore_state
  DW_CFA_advance_loc: 56 to 000000000043bf14
  DW_CFA_remember_state
  DW_CFA_def_cfa_offset: 56
  DW_CFA_advance_loc: 8 to 000000000043bf1c
  DW_CFA_def_cfa_offset: 48
  DW_CFA_advance_loc: 1 to 000000000043bf1d
  DW_CFA_def_cfa_offset: 40
  DW_CFA_advance_loc: 2 to 000000000043bf1f
  DW_CFA_def_cfa_offset: 32
  DW_CFA_advance_loc: 2 to 000000000043bf21
  DW_CFA_def_cfa_offset: 24
  DW_CFA_advance_loc: 2 to 000000000043bf23
  DW_CFA_def_cfa_offset: 16
  DW_CFA_advance_loc: 2 to 000000000043bf25
  DW_CFA_def_cfa_offset: 8
  DW_CFA_advance_loc: 5 to 000000000043bf2a
  DW_CFA_restore_state
  DW_CFA_advance_loc: 46 to 000000000043bf58
  DW_CFA_remember_state
  DW_CFA_def_cfa_offset: 56
  DW_CFA_advance_loc: 8 to 000000000043bf60
  DW_CFA_def_cfa_offset: 48
  DW_CFA_advance_loc: 1 to 000000000043bf61
  DW_CFA_def_cfa_offset: 40
  DW_CFA_advance_loc: 2 to 000000000043bf63
  DW_CFA_def_cfa_offset: 32
  DW_CFA_advance_loc: 2 to 000000000043bf65
  DW_CFA_def_cfa_offset: 24
  DW_CFA_advance_loc: 2 to 000000000043bf67
  DW_CFA_def_cfa_offset: 16
  DW_CFA_advance_loc: 2 to 000000000043bf69
  DW_CFA_def_cfa_offset: 8
  DW_CFA_advance_loc: 5 to 000000000043bf6e
  DW_CFA_restore_state
  DW_CFA_advance_loc: 56 to 000000000043bfa6
  DW_CFA_remember_state
  DW_CFA_def_cfa_offset: 56
  DW_CFA_advance_loc: 8 to 000000000043bfae
  DW_CFA_def_cfa_offset: 48
  DW_CFA_advance_loc: 1 to 000000000043bfaf
  DW_CFA_def_cfa_offset: 40
  DW_CFA_advance_loc: 2 to 000000000043bfb1
  DW_CFA_def_cfa_offset: 32
  DW_CFA_advance_loc: 2 to 000000000043bfb3
  DW_CFA_def_cfa_offset: 24
  DW_CFA_advance_loc: 2 to 000000000043bfb5
  DW_CFA_def_cfa_offset: 16
  DW_CFA_advance_loc: 2 to 000000000043bfb7
  DW_CFA_def_cfa_offset: 8
  DW_CFA_advance_loc: 5 to 000000000043bfbc
  DW_CFA_restore_state
  DW_CFA_advance_loc1: 112 to 000000000043c02c
  DW_CFA_remember_state
  DW_CFA_def_cfa_offset: 56
  DW_CFA_advance_loc: 8 to 000000000043c034
  DW_CFA_def_cfa_offset: 48
  DW_CFA_advance_loc: 1 to 000000000043c035
  DW_CFA_def_cfa_offset: 40
  DW_CFA_advance_loc: 2 to 000000000043c037
  DW_CFA_def_cfa_offset: 32
  DW_CFA_advance_loc: 2 to 000000000043c039
  DW_CFA_def_cfa_offset: 24
  DW_CFA_advance_loc: 2 to 000000000043c03b
  DW_CFA_def_cfa_offset: 16
  DW_CFA_advance_loc: 2 to 000000000043c03d
  DW_CFA_def_cfa_offset: 8
  DW_CFA_advance_loc: 5 to 000000000043c042
  DW_CFA_restore_state
  DW_CFA_advance_loc: 46 to 000000000043c070
  DW_CFA_remember_state
  DW_CFA_def_cfa_offset: 56
  DW_CFA_advance_loc: 8 to 000000000043c078
  DW_CFA_def_cfa_offset: 48
  DW_CFA_advance_loc: 1 to 000000000043c079
  DW_CFA_def_cfa_offset: 40
  DW_CFA_advance_loc: 2 to 000000000043c07b
  DW_CFA_def_cfa_offset: 32
  DW_CFA_advance_loc: 2 to 000000000043c07d
  DW_CFA_def_cfa_offset: 24
  DW_CFA_advance_loc: 2 to 000000000043c07f
  DW_CFA_def_cfa_offset: 16
  DW_CFA_advance_loc: 2 to 000000000043c081
  DW_CFA_def_cfa_offset: 8
  DW_CFA_advance_loc: 5 to 000000000043c086
  DW_CFA_restore_state
  DW_CFA_advance_loc: 56 to 000000000043c0be
  DW_CFA_remember_state
  DW_CFA_def_cfa_offset: 56
  DW_CFA_advance_loc: 8 to 000000000043c0c6
  DW_CFA_def_cfa_offset: 48
  DW_CFA_advance_loc: 1 to 000000000043c0c7
  DW_CFA_def_cfa_offset: 40
  DW_CFA_advance_loc: 2 to 000000000043c0c9
  DW_CFA_def_cfa_offset: 32
  DW_CFA_advance_loc: 2 to 000000000043c0cb
  DW_CFA_def_cfa_offset: 24
  DW_CFA_advance_loc: 2 to 000000000043c0cd
  DW_CFA_def_cfa_offset: 16
  DW_CFA_advance_loc: 2 to 000000000043c0cf
  DW_CFA_def_cfa_offset: 8
  DW_CFA_advance_loc: 5 to 000000000043c0d4
  DW_CFA_restore_state
  DW_CFA_advance_loc: 46 to 000000000043c102
  DW_CFA_remember_state
  DW_CFA_def_cfa_offset: 56
  DW_CFA_advance_loc: 8 to 000000000043c10a
  DW_CFA_def_cfa_offset: 48
  DW_CFA_advance_loc: 1 to 000000000043c10b
  DW_CFA_def_cfa_offset: 40
  DW_CFA_advance_loc: 2 to 000000000043c10d
  DW_CFA_def_cfa_offset: 32
  DW_CFA_advance_loc: 2 to 000000000043c10f
  DW_CFA_def_cfa_offset: 24
  DW_CFA_advance_loc: 2 to 000000000043c111
  DW_CFA_def_cfa_offset: 16
  DW_CFA_advance_loc: 2 to 000000000043c113
  DW_CFA_def_cfa_offset: 8
  DW_CFA_advance_loc: 5 to 000000000043c118
  DW_CFA_restore_state
  DW_CFA_advance_loc: 56 to 000000000043c150
  DW_CFA_remember_state
  DW_CFA_def_cfa_offset: 56
  DW_CFA_advance_loc: 8 to 000000000043c158
  DW_CFA_def_cfa_offset: 48
  DW_CFA_advance_loc: 1 to 000000000043c159
  DW_CFA_def_cfa_offset: 40
  DW_CFA_advance_loc: 2 to 000000000043c15b
  DW_CFA_def_cfa_offset: 32
  DW_CFA_advance_loc: 2 to 000000000043c15d
  DW_CFA_def_cfa_offset: 24
  DW_CFA_advance_loc: 2 to 000000000043c15f
  DW_CFA_def_cfa_offset: 16
  DW_CFA_advance_loc: 2 to 000000000043c161
  DW_CFA_def_cfa_offset: 8
  DW_CFA_advance_loc: 5 to 000000000043c166
  DW_CFA_restore_state
  DW_CFA_advance_loc: 46 to 000000000043c194
  DW_CFA_remember_state
  DW_CFA_def_cfa_offset: 56
  DW_CFA_advance_loc: 8 to 000000000043c19c
  DW_CFA_def_cfa_offset: 48
  DW_CFA_advance_loc: 1 to 000000000043c19d
  DW_CFA_def_cfa_offset: 40
  DW_CFA_advance_loc: 2 to 000000000043c19f
  DW_CFA_def_cfa_offset: 32
  DW_CFA_advance_loc: 2 to 000000000043c1a1
  DW_CFA_def_cfa_offset: 24
  DW_CFA_advance_loc: 2 to 000000000043c1a3
  DW_CFA_def_cfa_offset: 16
  DW_CFA_advance_loc: 2 to 000000000043c1a5
  DW_CFA_def_cfa_offset: 8
  DW_CFA_advance_loc: 5 to 000000000043c1aa
  DW_CFA_restore_state
  DW_CFA_advance_loc: 56 to 000000000043c1e2
  DW_CFA_remember_state
  DW_CFA_def_cfa_offset: 56
  DW_CFA_advance_loc: 8 to 000000000043c1ea
  DW_CFA_def_cfa_offset: 48
  DW_CFA_advance_loc: 1 to 000000000043c1eb
  DW_CFA_def_cfa_offset: 40
  DW_CFA_advance_loc: 2 to 000000000043c1ed
  DW_CFA_def_cfa_offset: 32
  DW_CFA_advance_loc: 2 to 000000000043c1ef
  DW_CFA_def_cfa_offset: 24
  DW_CFA_advance_loc: 2 to 000000000043c1f1
  DW_CFA_def_cfa_offset: 16
  DW_CFA_advance_loc: 2 to 000000000043c1f3
  DW_CFA_def_cfa_offset: 8
  DW_CFA_advance_loc: 5 to 000000000043c1f8
  DW_CFA_restore_state
  DW_CFA_advance_loc: 46 to 000000000043c226
  DW_CFA_remember_state
  DW_CFA_def_cfa_offset: 56
  DW_CFA_advance_loc: 8 to 000000000043c22e
  DW_CFA_def_cfa_offset: 48
  DW_CFA_advance_loc: 1 to 000000000043c22f
  DW_CFA_def_cfa_offset: 40
  DW_CFA_advance_loc: 2 to 000000000043c231
  DW_CFA_def_cfa_offset: 32
  DW_CFA_advance_loc: 2 to 000000000043c233
  DW_CFA_def_cfa_offset: 24
  DW_CFA_advance_loc: 2 to 000000000043c235
  DW_CFA_def_cfa_offset: 16
  DW_CFA_advance_loc: 2 to 000000000043c237
  DW_CFA_def_cfa_offset: 8
  DW_CFA_advance_loc: 5 to 000000000043c23c
  DW_CFA_restore_state
  DW_CFA_advance_loc: 56 to 000000000043c274
  DW_CFA_remember_state
  DW_CFA_def_cfa_offset: 56
  DW_CFA_advance_loc: 8 to 000000000043c27c
  DW_CFA_def_cfa_offset: 48
  DW_CFA_advance_loc: 1 to 000000000043c27d
  DW_CFA_def_cfa_offset: 40
  DW_CFA_advance_loc: 2 to 000000000043c27f
  DW_CFA_def_cfa_offset: 32
  DW_CFA_advance_loc: 2 to 000000000043c281
  DW_CFA_def_cfa_offset: 24
  DW_CFA_advance_loc: 2 to 000000000043c283
  DW_CFA_def_cfa_offset: 16
  DW_CFA_advance_loc: 2 to 000000000043c285
  DW_CFA_def_cfa_offset: 8
  DW_CFA_advance_loc: 5 to 000000000043c28a
  DW_CFA_restore_state
  DW_CFA_advance_loc: 46 to 000000000043c2b8
  DW_CFA_remember_state
  DW_CFA_def_cfa_offset: 56
  DW_CFA_advance_loc: 8 to 000000000043c2c0
  DW_CFA_def_cfa_offset: 48
  DW_CFA_advance_loc: 1 to 000000000043c2c1
  DW_CFA_def_cfa_offset: 40
  DW_CFA_advance_loc: 2 to 000000000043c2c3
  DW_CFA_def_cfa_offset: 32
  DW_CFA_advance_loc: 2 to 000000000043c2c5
  DW_CFA_def_cfa_offset: 24
  DW_CFA_advance_loc: 2 to 000000000043c2c7
  DW_CFA_def_cfa_offset: 16
  DW_CFA_advance_loc: 2 to 000000000043c2c9
  DW_CFA_def_cfa_offset: 8
  DW_CFA_advance_loc: 5 to 000000000043c2ce
  DW_CFA_restore_state
  DW_CFA_advance_loc: 56 to 000000000043c306
  DW_CFA_remember_state
  DW_CFA_def_cfa_offset: 56
  DW_CFA_advance_loc: 8 to 000000000043c30e
  DW_CFA_def_cfa_offset: 48
  DW_CFA_advance_loc: 1 to 000000000043c30f
  DW_CFA_def_cfa_offset: 40
  DW_CFA_advance_loc: 2 to 000000000043c311
  DW_CFA_def_cfa_offset: 32
  DW_CFA_advance_loc: 2 to 000000000043c313
  DW_CFA_def_cfa_offset: 24
  DW_CFA_advance_loc: 2 to 000000000043c315
  DW_CFA_def_cfa_offset: 16
  DW_CFA_advance_loc: 2 to 000000000043c317
  DW_CFA_def_cfa_offset: 8
  DW_CFA_advance_loc: 5 to 000000000043c31c
  DW_CFA_restore_state
  DW_CFA_advance_loc: 46 to 000000000043c34a
  DW_CFA_remember_state
  DW_CFA_def_cfa_offset: 56
  DW_CFA_advance_loc: 8 to 000000000043c352
  DW_CFA_def_cfa_offset: 48
  DW_CFA_advance_loc: 1 to 000000000043c353
  DW_CFA_def_cfa_offset: 40
  DW_CFA_advance_loc: 2 to 000000000043c355
  DW_CFA_def_cfa_offset: 32
  DW_CFA_advance_loc: 2 to 000000000043c357
  DW_CFA_def_cfa_offset: 24
  DW_CFA_advance_loc: 2 to 000000000043c359
  DW_CFA_def_cfa_offset: 16
  DW_CFA_advance_loc: 2 to 000000000043c35b
  DW_CFA_def_cfa_offset: 8
  DW_CFA_advance_loc: 5 to 000000000043c360
  DW_CFA_restore_state
  DW_CFA_advance_loc: 56 to 000000000043c398
  DW_CFA_remember_state
  DW_CFA_def_cfa_offset: 56
  DW_CFA_advance_loc: 8 to 000000000043c3a0
  DW_CFA_def_cfa_offset: 48
  DW_CFA_advance_loc: 1 to 000000000043c3a1
  DW_CFA_def_cfa_offset: 40
  DW_CFA_advance_loc: 2 to 000000000043c3a3
  DW_CFA_def_cfa_offset: 32
  DW_CFA_advance_loc: 2 to 000000000043c3a5
  DW_CFA_def_cfa_offset: 24
  DW_CFA_advance_loc: 2 to 000000000043c3a7
  DW_CFA_def_cfa_offset: 16
  DW_CFA_advance_loc: 2 to 000000000043c3a9
  DW_CFA_def_cfa_offset: 8
  DW_CFA_advance_loc: 5 to 000000000043c3ae
  DW_CFA_restore_state
  DW_CFA_advance_loc: 46 to 000000000043c3dc
  DW_CFA_remember_state
  DW_CFA_def_cfa_offset: 56
  DW_CFA_advance_loc: 8 to 000000000043c3e4
  DW_CFA_def_cfa_offset: 48
  DW_CFA_advance_loc: 1 to 000000000043c3e5
  DW_CFA_def_cfa_offset: 40
  DW_CFA_advance_loc: 2 to 000000000043c3e7
  DW_CFA_def_cfa_offset: 32
  DW_CFA_advance_loc: 2 to 000000000043c3e9
  DW_CFA_def_cfa_offset: 24
  DW_CFA_advance_loc: 2 to 000000000043c3eb
  DW_CFA_def_cfa_offset: 16
  DW_CFA_advance_loc: 2 to 000000000043c3ed
  DW_CFA_def_cfa_offset: 8
  DW_CFA_advance_loc: 5 to 000000000043c3f2
  DW_CFA_restore_state
  DW_CFA_advance_loc: 56 to 000000000043c42a
  DW_CFA_remember_state
  DW_CFA_def_cfa_offset: 56
  DW_CFA_advance_loc: 8 to 000000000043c432
  DW_CFA_def_cfa_offset: 48
  DW_CFA_advance_loc: 1 to 000000000043c433
  DW_CFA_def_cfa_offset: 40
  DW_CFA_advance_loc: 2 to 000000000043c435
  DW_CFA_def_cfa_offset: 32
  DW_CFA_advance_loc: 2 to 000000000043c437
  DW_CFA_def_cfa_offset: 24
  DW_CFA_advance_loc: 2 to 000000000043c439
  DW_CFA_def_cfa_offset: 16
  DW_CFA_advance_loc: 2 to 000000000043c43b
  DW_CFA_def_cfa_offset: 8
  DW_CFA_advance_loc: 5 to 000000000043c440
  DW_CFA_restore_state
  DW_CFA_advance_loc: 46 to 000000000043c46e
  DW_CFA_remember_state
  DW_CFA_def_cfa_offset: 56
  DW_CFA_advance_loc: 8 to 000000000043c476
  DW_CFA_def_cfa_offset: 48
  DW_CFA_advance_loc: 1 to 000000000043c477
  DW_CFA_def_cfa_offset: 40
  DW_CFA_advance_loc: 2 to 000000000043c479
  DW_CFA_def_cfa_offset: 32
  DW_CFA_advance_loc: 2 to 000000000043c47b
  DW_CFA_def_cfa_offset: 24
  DW_CFA_advance_loc: 2 to 000000000043c47d
  DW_CFA_def_cfa_offset: 16
  DW_CFA_advance_loc: 2 to 000000000043c47f
  DW_CFA_def_cfa_offset: 8
  DW_CFA_advance_loc: 5 to 000000000043c484
  DW_CFA_restore_state
  DW_CFA_advance_loc: 56 to 000000000043c4bc
  DW_CFA_remember_state
  DW_CFA_def_cfa_offset: 56
  DW_CFA_advance_loc: 8 to 000000000043c4c4
  DW_CFA_def_cfa_offset: 48
  DW_CFA_advance_loc: 1 to 000000000043c4c5
  DW_CFA_def_cfa_offset: 40
  DW_CFA_advance_loc: 2 to 000000000043c4c7
  DW_CFA_def_cfa_offset: 32
  DW_CFA_advance_loc: 2 to 000000000043c4c9
  DW_CFA_def_cfa_offset: 24
  DW_CFA_advance_loc: 2 to 000000000043c4cb
  DW_CFA_def_cfa_offset: 16
  DW_CFA_advance_loc: 2 to 000000000043c4cd
  DW_CFA_def_cfa_offset: 8
  DW_CFA_advance_loc: 5 to 000000000043c4d2
  DW_CFA_restore_state
  DW_CFA_advance_loc: 46 to 000000000043c500
  DW_CFA_remember_state
  DW_CFA_def_cfa_offset: 56
  DW_CFA_advance_loc: 8 to 000000000043c508
  DW_CFA_def_cfa_offset: 48
  DW_CFA_advance_loc: 1 to 000000000043c509
  DW_CFA_def_cfa_offset: 40
  DW_CFA_advance_loc: 2 to 000000000043c50b
  DW_CFA_def_cfa_offset: 32
  DW_CFA_advance_loc: 2 to 000000000043c50d
  DW_CFA_def_cfa_offset: 24
  DW_CFA_advance_loc: 2 to 000000000043c50f
  DW_CFA_def_cfa_offset: 16
  DW_CFA_advance_loc: 2 to 000000000043c511
  DW_CFA_def_cfa_offset: 8
  DW_CFA_advance_loc: 5 to 000000000043c516
  DW_CFA_restore_state
  DW_CFA_advance_loc: 56 to 000000000043c54e
  DW_CFA_remember_state
  DW_CFA_def_cfa_offset: 56
  DW_CFA_advance_loc: 8 to 000000000043c556
  DW_CFA_def_cfa_offset: 48
  DW_CFA_advance_loc: 1 to 000000000043c557
  DW_CFA_def_cfa_offset: 40
  DW_CFA_advance_loc: 2 to 000000000043c559
  DW_CFA_def_cfa_offset: 32
  DW_CFA_advance_loc: 2 to 000000000043c55b
  DW_CFA_def_cfa_offset: 24
  DW_CFA_advance_loc: 2 to 000000000043c55d
  DW_CFA_def_cfa_offset: 16
  DW_CFA_advance_loc: 2 to 000000000043c55f
  DW_CFA_def_cfa_offset: 8
  DW_CFA_advance_loc: 5 to 000000000043c564
  DW_CFA_restore_state
  DW_CFA_advance_loc: 46 to 000000000043c592
  DW_CFA_remember_state
  DW_CFA_def_cfa_offset: 56
  DW_CFA_advance_loc: 8 to 000000000043c59a
  DW_CFA_def_cfa_offset: 48
  DW_CFA_advance_loc: 1 to 000000000043c59b
  DW_CFA_def_cfa_offset: 40
  DW_CFA_advance_loc: 2 to 000000000043c59d
  DW_CFA_def_cfa_offset: 32
  DW_CFA_advance_loc: 2 to 000000000043c59f
  DW_CFA_def_cfa_offset: 24
  DW_CFA_advance_loc: 2 to 000000000043c5a1
  DW_CFA_def_cfa_offset: 16
  DW_CFA_advance_loc: 2 to 000000000043c5a3
  DW_CFA_def_cfa_offset: 8
  DW_CFA_advance_loc: 5 to 000000000043c5a8
  DW_CFA_restore_state
  DW_CFA_advance_loc: 56 to 000000000043c5e0
  DW_CFA_remember_state
  DW_CFA_def_cfa_offset: 56
  DW_CFA_advance_loc: 8 to 000000000043c5e8
  DW_CFA_def_cfa_offset: 48
  DW_CFA_advance_loc: 1 to 000000000043c5e9
  DW_CFA_def_cfa_offset: 40
  DW_CFA_advance_loc: 2 to 000000000043c5eb
  DW_CFA_def_cfa_offset: 32
  DW_CFA_advance_loc: 2 to 000000000043c5ed
  DW_CFA_def_cfa_offset: 24
  DW_CFA_advance_loc: 2 to 000000000043c5ef
  DW_CFA_def_cfa_offset: 16
  DW_CFA_advance_loc: 2 to 000000000043c5f1
  DW_CFA_def_cfa_offset: 8
  DW_CFA_advance_loc: 5 to 000000000043c5f6
  DW_CFA_restore_state
  DW_CFA_advance_loc: 46 to 000000000043c624
  DW_CFA_remember_state
  DW_CFA_def_cfa_offset: 56
  DW_CFA_advance_loc: 8 to 000000000043c62c
  DW_CFA_def_cfa_offset: 48
  DW_CFA_advance_loc: 1 to 000000000043c62d
  DW_CFA_def_cfa_offset: 40
  DW_CFA_advance_loc: 2 to 000000000043c62f
  DW_CFA_def_cfa_offset: 32
  DW_CFA_advance_loc: 2 to 000000000043c631
  DW_CFA_def_cfa_offset: 24
  DW_CFA_advance_loc: 2 to 000000000043c633
  DW_CFA_def_cfa_offset: 16
  DW_CFA_advance_loc: 2 to 000000000043c635
  DW_CFA_def_cfa_offset: 8
  DW_CFA_advance_loc: 5 to 000000000043c63a
  DW_CFA_restore_state
  DW_CFA_advance_loc: 56 to 000000000043c672
  DW_CFA_remember_state
  DW_CFA_def_cfa_offset: 56
  DW_CFA_advance_loc: 8 to 000000000043c67a
  DW_CFA_def_cfa_offset: 48
  DW_CFA_advance_loc: 1 to 000000000043c67b
  DW_CFA_def_cfa_offset: 40
  DW_CFA_advance_loc: 2 to 000000000043c67d
  DW_CFA_def_cfa_offset: 32
  DW_CFA_advance_loc: 2 to 000000000043c67f
  DW_CFA_def_cfa_offset: 24
  DW_CFA_advance_loc: 2 to 000000000043c681
  DW_CFA_def_cfa_offset: 16
  DW_CFA_advance_loc: 2 to 000000000043c683
  DW_CFA_def_cfa_offset: 8
  DW_CFA_advance_loc: 5 to 000000000043c688
  DW_CFA_restore_state
  DW_CFA_advance_loc: 46 to 000000000043c6b6
  DW_CFA_remember_state
  DW_CFA_def_cfa_offset: 56
  DW_CFA_advance_loc: 8 to 000000000043c6be
  DW_CFA_def_cfa_offset: 48
  DW_CFA_advance_loc: 1 to 000000000043c6bf
  DW_CFA_def_cfa_offset: 40
  DW_CFA_advance_loc: 2 to 000000000043c6c1
  DW_CFA_def_cfa_offset: 32
  DW_CFA_advance_loc: 2 to 000000000043c6c3
  DW_CFA_def_cfa_offset: 24
  DW_CFA_advance_loc: 2 to 000000000043c6c5
  DW_CFA_def_cfa_offset: 16
  DW_CFA_advance_loc: 2 to 000000000043c6c7
  DW_CFA_def_cfa_offset: 8
  DW_CFA_advance_loc: 5 to 000000000043c6cc
  DW_CFA_restore_state
  DW_CFA_advance_loc: 56 to 000000000043c704
  DW_CFA_remember_state
  DW_CFA_def_cfa_offset: 56
  DW_CFA_advance_loc: 8 to 000000000043c70c
  DW_CFA_def_cfa_offset: 48
  DW_CFA_advance_loc: 1 to 000000000043c70d
  DW_CFA_def_cfa_offset: 40
  DW_CFA_advance_loc: 2 to 000000000043c70f
  DW_CFA_def_cfa_offset: 32
  DW_CFA_advance_loc: 2 to 000000000043c711
  DW_CFA_def_cfa_offset: 24
  DW_CFA_advance_loc: 2 to 000000000043c713
  DW_CFA_def_cfa_offset: 16
  DW_CFA_advance_loc: 2 to 000000000043c715
  DW_CFA_def_cfa_offset: 8
  DW_CFA_advance_loc: 5 to 000000000043c71a
  DW_CFA_restore_state
  DW_CFA_advance_loc: 46 to 000000000043c748
  DW_CFA_remember_state
  DW_CFA_def_cfa_offset: 56
  DW_CFA_advance_loc: 8 to 000000000043c750
  DW_CFA_def_cfa_offset: 48
  DW_CFA_advance_loc: 1 to 000000000043c751
  DW_CFA_def_cfa_offset: 40
  DW_CFA_advance_loc: 2 to 000000000043c753
  DW_CFA_def_cfa_offset: 32
  DW_CFA_advance_loc: 2 to 000000000043c755
  DW_CFA_def_cfa_offset: 24
  DW_CFA_advance_loc: 2 to 000000000043c757
  DW_CFA_def_cfa_offset: 16
  DW_CFA_advance_loc: 2 to 000000000043c759
  DW_CFA_def_cfa_offset: 8
  DW_CFA_advance_loc: 5 to 000000000043c75e
  DW_CFA_restore_state
  DW_CFA_advance_loc: 56 to 000000000043c796
  DW_CFA_remember_state
  DW_CFA_def_cfa_offset: 56
  DW_CFA_advance_loc: 8 to 000000000043c79e
  DW_CFA_def_cfa_offset: 48
  DW_CFA_advance_loc: 1 to 000000000043c79f
  DW_CFA_def_cfa_offset: 40
  DW_CFA_advance_loc: 2 to 000000000043c7a1
  DW_CFA_def_cfa_offset: 32
  DW_CFA_advance_loc: 2 to 000000000043c7a3
  DW_CFA_def_cfa_offset: 24
  DW_CFA_advance_loc: 2 to 000000000043c7a5
  DW_CFA_def_cfa_offset: 16
  DW_CFA_advance_loc: 2 to 000000000043c7a7
  DW_CFA_def_cfa_offset: 8
  DW_CFA_advance_loc: 5 to 000000000043c7ac
  DW_CFA_restore_state
  DW_CFA_advance_loc: 46 to 000000000043c7da
  DW_CFA_remember_state
  DW_CFA_def_cfa_offset: 56
  DW_CFA_advance_loc: 8 to 000000000043c7e2
  DW_CFA_def_cfa_offset: 48
  DW_CFA_advance_loc: 1 to 000000000043c7e3
  DW_CFA_def_cfa_offset: 40
  DW_CFA_advance_loc: 2 to 000000000043c7e5
  DW_CFA_def_cfa_offset: 32
  DW_CFA_advance_loc: 2 to 000000000043c7e7
  DW_CFA_def_cfa_offset: 24
  DW_CFA_advance_loc: 2 to 000000000043c7e9
  DW_CFA_def_cfa_offset: 16
  DW_CFA_advance_loc: 2 to 000000000043c7eb
  DW_CFA_def_cfa_offset: 8
  DW_CFA_advance_loc: 5 to 000000000043c7f0
  DW_CFA_restore_state
  DW_CFA_advance_loc: 56 to 000000000043c828
  DW_CFA_remember_state
  DW_CFA_def_cfa_offset: 56
  DW_CFA_advance_loc: 8 to 000000000043c830
  DW_CFA_def_cfa_offset: 48
  DW_CFA_advance_loc: 1 to 000000000043c831
  DW_CFA_def_cfa_offset: 40
  DW_CFA_advance_loc: 2 to 000000000043c833
  DW_CFA_def_cfa_offset: 32
  DW_CFA_advance_loc: 2 to 000000000043c835
  DW_CFA_def_cfa_offset: 24
  DW_CFA_advance_loc: 2 to 000000000043c837
  DW_CFA_def_cfa_offset: 16
  DW_CFA_advance_loc: 2 to 000000000043c839
  DW_CFA_def_cfa_offset: 8
  DW_CFA_advance_loc: 5 to 000000000043c83e
  DW_CFA_restore_state
  DW_CFA_advance_loc: 46 to 000000000043c86c
  DW_CFA_remember_state
  DW_CFA_def_cfa_offset: 56
  DW_CFA_advance_loc: 8 to 000000000043c874
  DW_CFA_def_cfa_offset: 48
  DW_CFA_advance_loc: 1 to 000000000043c875
  DW_CFA_def_cfa_offset: 40
  DW_CFA_advance_loc: 2 to 000000000043c877
  DW_CFA_def_cfa_offset: 32
  DW_CFA_advance_loc: 2 to 000000000043c879
  DW_CFA_def_cfa_offset: 24
  DW_CFA_advance_loc: 2 to 000000000043c87b
  DW_CFA_def_cfa_offset: 16
  DW_CFA_advance_loc: 2 to 000000000043c87d
  DW_CFA_def_cfa_offset: 8
  DW_CFA_advance_loc: 5 to 000000000043c882
  DW_CFA_restore_state
  DW_CFA_advance_loc: 56 to 000000000043c8ba
  DW_CFA_remember_state
  DW_CFA_def_cfa_offset: 56
  DW_CFA_advance_loc: 8 to 000000000043c8c2
  DW_CFA_def_cfa_offset: 48
  DW_CFA_advance_loc: 1 to 000000000043c8c3
  DW_CFA_def_cfa_offset: 40
  DW_CFA_advance_loc: 2 to 000000000043c8c5
  DW_CFA_def_cfa_offset: 32
  DW_CFA_advance_loc: 2 to 000000000043c8c7
  DW_CFA_def_cfa_offset: 24
  DW_CFA_advance_loc: 2 to 000000000043c8c9
  DW_CFA_def_cfa_offset: 16
  DW_CFA_advance_loc: 2 to 000000000043c8cb
  DW_CFA_def_cfa_offset: 8
  DW_CFA_advance_loc: 5 to 000000000043c8d0
  DW_CFA_restore_state
  DW_CFA_advance_loc: 46 to 000000000043c8fe
  DW_CFA_remember_state
  DW_CFA_def_cfa_offset: 56
  DW_CFA_advance_loc: 8 to 000000000043c906
  DW_CFA_def_cfa_offset: 48
  DW_CFA_advance_loc: 1 to 000000000043c907
  DW_CFA_def_cfa_offset: 40
  DW_CFA_advance_loc: 2 to 000000000043c909
  DW_CFA_def_cfa_offset: 32
  DW_CFA_advance_loc: 2 to 000000000043c90b
  DW_CFA_def_cfa_offset: 24
  DW_CFA_advance_loc: 2 to 000000000043c90d
  DW_CFA_def_cfa_offset: 16
  DW_CFA_advance_loc: 2 to 000000000043c90f
  DW_CFA_def_cfa_offset: 8
  DW_CFA_advance_loc: 5 to 000000000043c914
  DW_CFA_restore_state
  DW_CFA_advance_loc: 56 to 000000000043c94c
  DW_CFA_remember_state
  DW_CFA_def_cfa_offset: 56
  DW_CFA_advance_loc: 8 to 000000000043c954
  DW_CFA_def_cfa_offset: 48
  DW_CFA_advance_loc: 1 to 000000000043c955
  DW_CFA_def_cfa_offset: 40
  DW_CFA_advance_loc: 2 to 000000000043c957
  DW_CFA_def_cfa_offset: 32
  DW_CFA_advance_loc: 2 to 000000000043c959
  DW_CFA_def_cfa_offset: 24
  DW_CFA_advance_loc: 2 to 000000000043c95b
  DW_CFA_def_cfa_offset: 16
  DW_CFA_advance_loc: 2 to 000000000043c95d
  DW_CFA_def_cfa_offset: 8
  DW_CFA_advance_loc: 5 to 000000000043c962
  DW_CFA_restore_state
  DW_CFA_advance_loc: 46 to 000000000043c990
  DW_CFA_remember_state
  DW_CFA_def_cfa_offset: 56
  DW_CFA_advance_loc: 8 to 000000000043c998
  DW_CFA_def_cfa_offset: 48
  DW_CFA_advance_loc: 1 to 000000000043c999
  DW_CFA_def_cfa_offset: 40
  DW_CFA_advance_loc: 2 to 000000000043c99b
  DW_CFA_def_cfa_offset: 32
  DW_CFA_advance_loc: 2 to 000000000043c99d
  DW_CFA_def_cfa_offset: 24
  DW_CFA_advance_loc: 2 to 000000000043c99f
  DW_CFA_def_cfa_offset: 16
  DW_CFA_advance_loc: 2 to 000000000043c9a1
  DW_CFA_def_cfa_offset: 8
  DW_CFA_advance_loc: 5 to 000000000043c9a6
  DW_CFA_restore_state
  DW_CFA_advance_loc: 56 to 000000000043c9de
  DW_CFA_remember_state
  DW_CFA_def_cfa_offset: 56
  DW_CFA_advance_loc: 8 to 000000000043c9e6
  DW_CFA_def_cfa_offset: 48
  DW_CFA_advance_loc: 1 to 000000000043c9e7
  DW_CFA_def_cfa_offset: 40
  DW_CFA_advance_loc: 2 to 000000000043c9e9
  DW_CFA_def_cfa_offset: 32
  DW_CFA_advance_loc: 2 to 000000000043c9eb
  DW_CFA_def_cfa_offset: 24
  DW_CFA_advance_loc: 2 to 000000000043c9ed
  DW_CFA_def_cfa_offset: 16
  DW_CFA_advance_loc: 2 to 000000000043c9ef
  DW_CFA_def_cfa_offset: 8
  DW_CFA_advance_loc: 5 to 000000000043c9f4
  DW_CFA_restore_state
  DW_CFA_advance_loc: 46 to 000000000043ca22
  DW_CFA_remember_state
  DW_CFA_def_cfa_offset: 56
  DW_CFA_advance_loc: 8 to 000000000043ca2a
  DW_CFA_def_cfa_offset: 48
  DW_CFA_advance_loc: 1 to 000000000043ca2b
  DW_CFA_def_cfa_offset: 40
  DW_CFA_advance_loc: 2 to 000000000043ca2d
  DW_CFA_def_cfa_offset: 32
  DW_CFA_advance_loc: 2 to 000000000043ca2f
  DW_CFA_def_cfa_offset: 24
  DW_CFA_advance_loc: 2 to 000000000043ca31
  DW_CFA_def_cfa_offset: 16
  DW_CFA_advance_loc: 2 to 000000000043ca33
  DW_CFA_def_cfa_offset: 8
  DW_CFA_advance_loc: 5 to 000000000043ca38
  DW_CFA_restore_state
  DW_CFA_advance_loc: 56 to 000000000043ca70
  DW_CFA_remember_state
  DW_CFA_def_cfa_offset: 56
  DW_CFA_advance_loc: 8 to 000000000043ca78
  DW_CFA_def_cfa_offset: 48
  DW_CFA_advance_loc: 1 to 000000000043ca79
  DW_CFA_def_cfa_offset: 40
  DW_CFA_advance_loc: 2 to 000000000043ca7b
  DW_CFA_def_cfa_offset: 32
  DW_CFA_advance_loc: 2 to 000000000043ca7d
  DW_CFA_def_cfa_offset: 24
  DW_CFA_advance_loc: 2 to 000000000043ca7f
  DW_CFA_def_cfa_offset: 16
  DW_CFA_advance_loc: 2 to 000000000043ca81
  DW_CFA_def_cfa_offset: 8
  DW_CFA_advance_loc: 5 to 000000000043ca86
  DW_CFA_restore_state
  DW_CFA_advance_loc: 46 to 000000000043cab4
  DW_CFA_remember_state
  DW_CFA_def_cfa_offset: 56
  DW_CFA_advance_loc: 8 to 000000000043cabc
  DW_CFA_def_cfa_offset: 48
  DW_CFA_advance_loc: 1 to 000000000043cabd
  DW_CFA_def_cfa_offset: 40
  DW_CFA_advance_loc: 2 to 000000000043cabf
  DW_CFA_def_cfa_offset: 32
  DW_CFA_advance_loc: 2 to 000000000043cac1
  DW_CFA_def_cfa_offset: 24
  DW_CFA_advance_loc: 2 to 000000000043cac3
  DW_CFA_def_cfa_offset: 16
  DW_CFA_advance_loc: 2 to 000000000043cac5
  DW_CFA_def_cfa_offset: 8
  DW_CFA_advance_loc: 5 to 000000000043caca
  DW_CFA_restore_state
  DW_CFA_advance_loc: 56 to 000000000043cb02
  DW_CFA_remember_state
  DW_CFA_def_cfa_offset: 56
  DW_CFA_advance_loc: 8 to 000000000043cb0a
  DW_CFA_def_cfa_offset: 48
  DW_CFA_advance_loc: 1 to 000000000043cb0b
  DW_CFA_def_cfa_offset: 40
  DW_CFA_advance_loc: 2 to 000000000043cb0d
  DW_CFA_def_cfa_offset: 32
  DW_CFA_advance_loc: 2 to 000000000043cb0f
  DW_CFA_def_cfa_offset: 24
  DW_CFA_advance_loc: 2 to 000000000043cb11
  DW_CFA_def_cfa_offset: 16
  DW_CFA_advance_loc: 2 to 000000000043cb13
  DW_CFA_def_cfa_offset: 8
  DW_CFA_advance_loc: 5 to 000000000043cb18
  DW_CFA_restore_state
  DW_CFA_advance_loc: 46 to 000000000043cb46
  DW_CFA_remember_state
  DW_CFA_def_cfa_offset: 56
  DW_CFA_advance_loc: 8 to 000000000043cb4e
  DW_CFA_def_cfa_offset: 48
  DW_CFA_advance_loc: 1 to 000000000043cb4f
  DW_CFA_def_cfa_offset: 40
  DW_CFA_advance_loc: 2 to 000000000043cb51
  DW_CFA_def_cfa_offset: 32
  DW_CFA_advance_loc: 2 to 000000000043cb53
  DW_CFA_def_cfa_offset: 24
  DW_CFA_advance_loc: 2 to 000000000043cb55
  DW_CFA_def_cfa_offset: 16
  DW_CFA_advance_loc: 2 to 000000000043cb57
  DW_CFA_def_cfa_offset: 8
  DW_CFA_advance_loc: 5 to 000000000043cb5c
  DW_CFA_restore_state
  DW_CFA_advance_loc: 56 to 000000000043cb94
  DW_CFA_remember_state
  DW_CFA_def_cfa_offset: 56
  DW_CFA_advance_loc: 8 to 000000000043cb9c
  DW_CFA_def_cfa_offset: 48
  DW_CFA_advance_loc: 1 to 000000000043cb9d
  DW_CFA_def_cfa_offset: 40
  DW_CFA_advance_loc: 2 to 000000000043cb9f
  DW_CFA_def_cfa_offset: 32
  DW_CFA_advance_loc: 2 to 000000000043cba1
  DW_CFA_def_cfa_offset: 24
  DW_CFA_advance_loc: 2 to 000000000043cba3
  DW_CFA_def_cfa_offset: 16
  DW_CFA_advance_loc: 2 to 000000000043cba5
  DW_CFA_def_cfa_offset: 8
  DW_CFA_advance_loc: 5 to 000000000043cbaa
  DW_CFA_restore_state
  DW_CFA_advance_loc: 46 to 000000000043cbd8
  DW_CFA_remember_state
  DW_CFA_def_cfa_offset: 56
  DW_CFA_advance_loc: 8 to 000000000043cbe0
  DW_CFA_def_cfa_offset: 48
  DW_CFA_advance_loc: 1 to 000000000043cbe1
  DW_CFA_def_cfa_offset: 40
  DW_CFA_advance_loc: 2 to 000000000043cbe3
  DW_CFA_def_cfa_offset: 32
  DW_CFA_advance_loc: 2 to 000000000043cbe5
  DW_CFA_def_cfa_offset: 24
  DW_CFA_advance_loc: 2 to 000000000043cbe7
  DW_CFA_def_cfa_offset: 16
  DW_CFA_advance_loc: 2 to 000000000043cbe9
  DW_CFA_def_cfa_offset: 8
  DW_CFA_advance_loc: 5 to 000000000043cbee
  DW_CFA_restore_state
  DW_CFA_advance_loc: 56 to 000000000043cc26
  DW_CFA_remember_state
  DW_CFA_def_cfa_offset: 56
  DW_CFA_advance_loc: 8 to 000000000043cc2e
  DW_CFA_def_cfa_offset: 48
  DW_CFA_advance_loc: 1 to 000000000043cc2f
  DW_CFA_def_cfa_offset: 40
  DW_CFA_advance_loc: 2 to 000000000043cc31
  DW_CFA_def_cfa_offset: 32
  DW_CFA_advance_loc: 2 to 000000000043cc33
  DW_CFA_def_cfa_offset: 24
  DW_CFA_advance_loc: 2 to 000000000043cc35
  DW_CFA_def_cfa_offset: 16
  DW_CFA_advance_loc: 2 to 000000000043cc37
  DW_CFA_def_cfa_offset: 8
  DW_CFA_advance_loc: 5 to 000000000043cc3c
  DW_CFA_restore_state
  DW_CFA_advance_loc: 46 to 000000000043cc6a
  DW_CFA_remember_state
  DW_CFA_def_cfa_offset: 56
  DW_CFA_advance_loc: 8 to 000000000043cc72
  DW_CFA_def_cfa_offset: 48
  DW_CFA_advance_loc: 1 to 000000000043cc73
  DW_CFA_def_cfa_offset: 40
  DW_CFA_advance_loc: 2 to 000000000043cc75
  DW_CFA_def_cfa_offset: 32
  DW_CFA_advance_loc: 2 to 000000000043cc77
  DW_CFA_def_cfa_offset: 24
  DW_CFA_advance_loc: 2 to 000000000043cc79
  DW_CFA_def_cfa_offset: 16
  DW_CFA_advance_loc: 2 to 000000000043cc7b
  DW_CFA_def_cfa_offset: 8
  DW_CFA_advance_loc: 5 to 000000000043cc80
  DW_CFA_restore_state
  DW_CFA_advance_loc: 56 to 000000000043ccb8
  DW_CFA_remember_state
  DW_CFA_def_cfa_offset: 56
  DW_CFA_advance_loc: 8 to 000000000043ccc0
  DW_CFA_def_cfa_offset: 48
  DW_CFA_advance_loc: 1 to 000000000043ccc1
  DW_CFA_def_cfa_offset: 40
  DW_CFA_advance_loc: 2 to 000000000043ccc3
  DW_CFA_def_cfa_offset: 32
  DW_CFA_advance_loc: 2 to 000000000043ccc5
  DW_CFA_def_cfa_offset: 24
  DW_CFA_advance_loc: 2 to 000000000043ccc7
  DW_CFA_def_cfa_offset: 16
  DW_CFA_advance_loc: 2 to 000000000043ccc9
  DW_CFA_def_cfa_offset: 8
  DW_CFA_advance_loc: 5 to 000000000043ccce
  DW_CFA_restore_state
  DW_CFA_advance_loc: 46 to 000000000043ccfc
  DW_CFA_remember_state
  DW_CFA_def_cfa_offset: 56
  DW_CFA_advance_loc: 8 to 000000000043cd04
  DW_CFA_def_cfa_offset: 48
  DW_CFA_advance_loc: 1 to 000000000043cd05
  DW_CFA_def_cfa_offset: 40
  DW_CFA_advance_loc: 2 to 000000000043cd07
  DW_CFA_def_cfa_offset: 32
  DW_CFA_advance_loc: 2 to 000000000043cd09
  DW_CFA_def_cfa_offset: 24
  DW_CFA_advance_loc: 2 to 000000000043cd0b
  DW_CFA_def_cfa_offset: 16
  DW_CFA_advance_loc: 2 to 000000000043cd0d
  DW_CFA_def_cfa_offset: 8
  DW_CFA_advance_loc: 5 to 000000000043cd12
  DW_CFA_restore_state
  DW_CFA_advance_loc: 56 to 000000000043cd4a
  DW_CFA_remember_state
  DW_CFA_def_cfa_offset: 56
  DW_CFA_advance_loc: 8 to 000000000043cd52
  DW_CFA_def_cfa_offset: 48
  DW_CFA_advance_loc: 1 to 000000000043cd53
  DW_CFA_def_cfa_offset: 40
  DW_CFA_advance_loc: 2 to 000000000043cd55
  DW_CFA_def_cfa_offset: 32
  DW_CFA_advance_loc: 2 to 000000000043cd57
  DW_CFA_def_cfa_offset: 24
  DW_CFA_advance_loc: 2 to 000000000043cd59
  DW_CFA_def_cfa_offset: 16
  DW_CFA_advance_loc: 2 to 000000000043cd5b
  DW_CFA_def_cfa_offset: 8
  DW_CFA_advance_loc: 5 to 000000000043cd60
  DW_CFA_restore_state
  DW_CFA_advance_loc: 46 to 000000000043cd8e
  DW_CFA_remember_state
  DW_CFA_def_cfa_offset: 56
  DW_CFA_advance_loc: 8 to 000000000043cd96
  DW_CFA_def_cfa_offset: 48
  DW_CFA_advance_loc: 1 to 000000000043cd97
  DW_CFA_def_cfa_offset: 40
  DW_CFA_advance_loc: 2 to 000000000043cd99
  DW_CFA_def_cfa_offset: 32
  DW_CFA_advance_loc: 2 to 000000000043cd9b
  DW_CFA_def_cfa_offset: 24
  DW_CFA_advance_loc: 2 to 000000000043cd9d
  DW_CFA_def_cfa_offset: 16
  DW_CFA_advance_loc: 2 to 000000000043cd9f
  DW_CFA_def_cfa_offset: 8
  DW_CFA_advance_loc: 5 to 000000000043cda4
  DW_CFA_restore_state
  DW_CFA_advance_loc: 56 to 000000000043cddc
  DW_CFA_remember_state
  DW_CFA_def_cfa_offset: 56
  DW_CFA_advance_loc: 8 to 000000000043cde4
  DW_CFA_def_cfa_offset: 48
  DW_CFA_advance_loc: 1 to 000000000043cde5
  DW_CFA_def_cfa_offset: 40
  DW_CFA_advance_loc: 2 to 000000000043cde7
  DW_CFA_def_cfa_offset: 32
  DW_CFA_advance_loc: 2 to 000000000043cde9
  DW_CFA_def_cfa_offset: 24
  DW_CFA_advance_loc: 2 to 000000000043cdeb
  DW_CFA_def_cfa_offset: 16
  DW_CFA_advance_loc: 2 to 000000000043cded
  DW_CFA_def_cfa_offset: 8
  DW_CFA_advance_loc: 5 to 000000000043cdf2
  DW_CFA_restore_state
  DW_CFA_advance_loc: 46 to 000000000043ce20
  DW_CFA_remember_state
  DW_CFA_def_cfa_offset: 56
  DW_CFA_advance_loc: 8 to 000000000043ce28
  DW_CFA_def_cfa_offset: 48
  DW_CFA_advance_loc: 1 to 000000000043ce29
  DW_CFA_def_cfa_offset: 40
  DW_CFA_advance_loc: 2 to 000000000043ce2b
  DW_CFA_def_cfa_offset: 32
  DW_CFA_advance_loc: 2 to 000000000043ce2d
  DW_CFA_def_cfa_offset: 24
  DW_CFA_advance_loc: 2 to 000000000043ce2f
  DW_CFA_def_cfa_offset: 16
  DW_CFA_advance_loc: 2 to 000000000043ce31
  DW_CFA_def_cfa_offset: 8
  DW_CFA_advance_loc: 5 to 000000000043ce36
  DW_CFA_restore_state
  DW_CFA_advance_loc: 56 to 000000000043ce6e
  DW_CFA_remember_state
  DW_CFA_def_cfa_offset: 56
  DW_CFA_advance_loc: 8 to 000000000043ce76
  DW_CFA_def_cfa_offset: 48
  DW_CFA_advance_loc: 1 to 000000000043ce77
  DW_CFA_def_cfa_offset: 40
  DW_CFA_advance_loc: 2 to 000000000043ce79
  DW_CFA_def_cfa_offset: 32
  DW_CFA_advance_loc: 2 to 000000000043ce7b
  DW_CFA_def_cfa_offset: 24
  DW_CFA_advance_loc: 2 to 000000000043ce7d
  DW_CFA_def_cfa_offset: 16
  DW_CFA_advance_loc: 2 to 000000000043ce7f
  DW_CFA_def_cfa_offset: 8
  DW_CFA_advance_loc: 5 to 000000000043ce84
  DW_CFA_restore_state
  DW_CFA_advance_loc: 46 to 000000000043ceb2
  DW_CFA_remember_state
  DW_CFA_def_cfa_offset: 56
  DW_CFA_advance_loc: 8 to 000000000043ceba
  DW_CFA_def_cfa_offset: 48
  DW_CFA_advance_loc: 1 to 000000000043cebb
  DW_CFA_def_cfa_offset: 40
  DW_CFA_advance_loc: 2 to 000000000043cebd
  DW_CFA_def_cfa_offset: 32
  DW_CFA_advance_loc: 2 to 000000000043cebf
  DW_CFA_def_cfa_offset: 24
  DW_CFA_advance_loc: 2 to 000000000043cec1
  DW_CFA_def_cfa_offset: 16
  DW_CFA_advance_loc: 2 to 000000000043cec3
  DW_CFA_def_cfa_offset: 8
  DW_CFA_advance_loc: 5 to 000000000043cec8
  DW_CFA_restore_state
  DW_CFA_advance_loc: 56 to 000000000043cf00
  DW_CFA_remember_state
  DW_CFA_def_cfa_offset: 56
  DW_CFA_advance_loc: 8 to 000000000043cf08
  DW_CFA_def_cfa_offset: 48
  DW_CFA_advance_loc: 1 to 000000000043cf09
  DW_CFA_def_cfa_offset: 40
  DW_CFA_advance_loc: 2 to 000000000043cf0b
  DW_CFA_def_cfa_offset: 32
  DW_CFA_advance_loc: 2 to 000000000043cf0d
  DW_CFA_def_cfa_offset: 24
  DW_CFA_advance_loc: 2 to 000000000043cf0f
  DW_CFA_def_cfa_offset: 16
  DW_CFA_advance_loc: 2 to 000000000043cf11
  DW_CFA_def_cfa_offset: 8
  DW_CFA_advance_loc: 5 to 000000000043cf16
  DW_CFA_restore_state
  DW_CFA_advance_loc: 46 to 000000000043cf44
  DW_CFA_remember_state
  DW_CFA_def_cfa_offset: 56
  DW_CFA_advance_loc: 8 to 000000000043cf4c
  DW_CFA_def_cfa_offset: 48
  DW_CFA_advance_loc: 1 to 000000000043cf4d
  DW_CFA_def_cfa_offset: 40
  DW_CFA_advance_loc: 2 to 000000000043cf4f
  DW_CFA_def_cfa_offset: 32
  DW_CFA_advance_loc: 2 to 000000000043cf51
  DW_CFA_def_cfa_offset: 24
  DW_CFA_advance_loc: 2 to 000000000043cf53
  DW_CFA_def_cfa_offset: 16
  DW_CFA_advance_loc: 2 to 000000000043cf55
  DW_CFA_def_cfa_offset: 8
  DW_CFA_advance_loc: 5 to 000000000043cf5a
  DW_CFA_restore_state
  DW_CFA_advance_loc: 56 to 000000000043cf92
  DW_CFA_remember_state
  DW_CFA_def_cfa_offset: 56
  DW_CFA_advance_loc: 8 to 000000000043cf9a
  DW_CFA_def_cfa_offset: 48
  DW_CFA_advance_loc: 1 to 000000000043cf9b
  DW_CFA_def_cfa_offset: 40
  DW_CFA_advance_loc: 2 to 000000000043cf9d
  DW_CFA_def_cfa_offset: 32
  DW_CFA_advance_loc: 2 to 000000000043cf9f
  DW_CFA_def_cfa_offset: 24
  DW_CFA_advance_loc: 2 to 000000000043cfa1
  DW_CFA_def_cfa_offset: 16
  DW_CFA_advance_loc: 2 to 000000000043cfa3
  DW_CFA_def_cfa_offset: 8
  DW_CFA_advance_loc: 5 to 000000000043cfa8
  DW_CFA_restore_state
  DW_CFA_advance_loc: 46 to 000000000043cfd6
  DW_CFA_remember_state
  DW_CFA_def_cfa_offset: 56
  DW_CFA_advance_loc: 8 to 000000000043cfde
  DW_CFA_def_cfa_offset: 48
  DW_CFA_advance_loc: 1 to 000000000043cfdf
  DW_CFA_def_cfa_offset: 40
  DW_CFA_advance_loc: 2 to 000000000043cfe1
  DW_CFA_def_cfa_offset: 32
  DW_CFA_advance_loc: 2 to 000000000043cfe3
  DW_CFA_def_cfa_offset: 24
  DW_CFA_advance_loc: 2 to 000000000043cfe5
  DW_CFA_def_cfa_offset: 16
  DW_CFA_advance_loc: 2 to 000000000043cfe7
  DW_CFA_def_cfa_offset: 8
  DW_CFA_advance_loc: 5 to 000000000043cfec
  DW_CFA_restore_state
  DW_CFA_advance_loc: 56 to 000000000043d024
  DW_CFA_remember_state
  DW_CFA_def_cfa_offset: 56
  DW_CFA_advance_loc: 8 to 000000000043d02c
  DW_CFA_def_cfa_offset: 48
  DW_CFA_advance_loc: 1 to 000000000043d02d
  DW_CFA_def_cfa_offset: 40
  DW_CFA_advance_loc: 2 to 000000000043d02f
  DW_CFA_def_cfa_offset: 32
  DW_CFA_advance_loc: 2 to 000000000043d031
  DW_CFA_def_cfa_offset: 24
  DW_CFA_advance_loc: 2 to 000000000043d033
  DW_CFA_def_cfa_offset: 16
  DW_CFA_advance_loc: 2 to 000000000043d035
  DW_CFA_def_cfa_offset: 8
  DW_CFA_advance_loc: 5 to 000000000043d03a
  DW_CFA_restore_state
  DW_CFA_advance_loc: 46 to 000000000043d068
  DW_CFA_remember_state
  DW_CFA_def_cfa_offset: 56
  DW_CFA_advance_loc: 8 to 000000000043d070
  DW_CFA_def_cfa_offset: 48
  DW_CFA_advance_loc: 1 to 000000000043d071
  DW_CFA_def_cfa_offset: 40
  DW_CFA_advance_loc: 2 to 000000000043d073
  DW_CFA_def_cfa_offset: 32
  DW_CFA_advance_loc: 2 to 000000000043d075
  DW_CFA_def_cfa_offset: 24
  DW_CFA_advance_loc: 2 to 000000000043d077
  DW_CFA_def_cfa_offset: 16
  DW_CFA_advance_loc: 2 to 000000000043d079
  DW_CFA_def_cfa_offset: 8
  DW_CFA_advance_loc: 5 to 000000000043d07e
  DW_CFA_restore_state
  DW_CFA_advance_loc: 56 to 000000000043d0b6
  DW_CFA_remember_state
  DW_CFA_def_cfa_offset: 56
  DW_CFA_advance_loc: 8 to 000000000043d0be
  DW_CFA_def_cfa_offset: 48
  DW_CFA_advance_loc: 1 to 000000000043d0bf
  DW_CFA_def_cfa_offset: 40
  DW_CFA_advance_loc: 2 to 000000000043d0c1
  DW_CFA_def_cfa_offset: 32
  DW_CFA_advance_loc: 2 to 000000000043d0c3
  DW_CFA_def_cfa_offset: 24
  DW_CFA_advance_loc: 2 to 000000000043d0c5
  DW_CFA_def_cfa_offset: 16
  DW_CFA_advance_loc: 2 to 000000000043d0c7
  DW_CFA_def_cfa_offset: 8
  DW_CFA_advance_loc: 5 to 000000000043d0cc
  DW_CFA_restore_state
  DW_CFA_advance_loc: 46 to 000000000043d0fa
  DW_CFA_remember_state
  DW_CFA_def_cfa_offset: 56
  DW_CFA_advance_loc: 8 to 000000000043d102
  DW_CFA_def_cfa_offset: 48
  DW_CFA_advance_loc: 1 to 000000000043d103
  DW_CFA_def_cfa_offset: 40
  DW_CFA_advance_loc: 2 to 000000000043d105
  DW_CFA_def_cfa_offset: 32
  DW_CFA_advance_loc: 2 to 000000000043d107
  DW_CFA_def_cfa_offset: 24
  DW_CFA_advance_loc: 2 to 000000000043d109
  DW_CFA_def_cfa_offset: 16
  DW_CFA_advance_loc: 2 to 000000000043d10b
  DW_CFA_def_cfa_offset: 8
  DW_CFA_advance_loc: 5 to 000000000043d110
  DW_CFA_restore_state
  DW_CFA_advance_loc: 56 to 000000000043d148
  DW_CFA_remember_state
  DW_CFA_def_cfa_offset: 56
  DW_CFA_advance_loc: 8 to 000000000043d150
  DW_CFA_def_cfa_offset: 48
  DW_CFA_advance_loc: 1 to 000000000043d151
  DW_CFA_def_cfa_offset: 40
  DW_CFA_advance_loc: 2 to 000000000043d153
  DW_CFA_def_cfa_offset: 32
  DW_CFA_advance_loc: 2 to 000000000043d155
  DW_CFA_def_cfa_offset: 24
  DW_CFA_advance_loc: 2 to 000000000043d157
  DW_CFA_def_cfa_offset: 16
  DW_CFA_advance_loc: 2 to 000000000043d159
  DW_CFA_def_cfa_offset: 8
  DW_CFA_advance_loc: 5 to 000000000043d15e
  DW_CFA_restore_state
  DW_CFA_advance_loc: 46 to 000000000043d18c
  DW_CFA_remember_state
  DW_CFA_def_cfa_offset: 56
  DW_CFA_advance_loc: 8 to 000000000043d194
  DW_CFA_def_cfa_offset: 48
  DW_CFA_advance_loc: 1 to 000000000043d195
  DW_CFA_def_cfa_offset: 40
  DW_CFA_advance_loc: 2 to 000000000043d197
  DW_CFA_def_cfa_offset: 32
  DW_CFA_advance_loc: 2 to 000000000043d199
  DW_CFA_def_cfa_offset: 24
  DW_CFA_advance_loc: 2 to 000000000043d19b
  DW_CFA_def_cfa_offset: 16
  DW_CFA_advance_loc: 2 to 000000000043d19d
  DW_CFA_def_cfa_offset: 8
  DW_CFA_advance_loc: 5 to 000000000043d1a2
  DW_CFA_restore_state
  DW_CFA_advance_loc: 56 to 000000000043d1da
  DW_CFA_remember_state
  DW_CFA_def_cfa_offset: 56
  DW_CFA_advance_loc: 8 to 000000000043d1e2
  DW_CFA_def_cfa_offset: 48
  DW_CFA_advance_loc: 1 to 000000000043d1e3
  DW_CFA_def_cfa_offset: 40
  DW_CFA_advance_loc: 2 to 000000000043d1e5
  DW_CFA_def_cfa_offset: 32
  DW_CFA_advance_loc: 2 to 000000000043d1e7
  DW_CFA_def_cfa_offset: 24
  DW_CFA_advance_loc: 2 to 000000000043d1e9
  DW_CFA_def_cfa_offset: 16
  DW_CFA_advance_loc: 2 to 000000000043d1eb
  DW_CFA_def_cfa_offset: 8
  DW_CFA_advance_loc: 5 to 000000000043d1f0
  DW_CFA_restore_state
  DW_CFA_advance_loc: 46 to 000000000043d21e
  DW_CFA_remember_state
  DW_CFA_def_cfa_offset: 56
  DW_CFA_advance_loc: 8 to 000000000043d226
  DW_CFA_def_cfa_offset: 48
  DW_CFA_advance_loc: 1 to 000000000043d227
  DW_CFA_def_cfa_offset: 40
  DW_CFA_advance_loc: 2 to 000000000043d229
  DW_CFA_def_cfa_offset: 32
  DW_CFA_advance_loc: 2 to 000000000043d22b
  DW_CFA_def_cfa_offset: 24
  DW_CFA_advance_loc: 2 to 000000000043d22d
  DW_CFA_def_cfa_offset: 16
  DW_CFA_advance_loc: 2 to 000000000043d22f
  DW_CFA_def_cfa_offset: 8
  DW_CFA_advance_loc: 5 to 000000000043d234
  DW_CFA_restore_state
  DW_CFA_advance_loc: 56 to 000000000043d26c
  DW_CFA_remember_state
  DW_CFA_def_cfa_offset: 56
  DW_CFA_advance_loc: 8 to 000000000043d274
  DW_CFA_def_cfa_offset: 48
  DW_CFA_advance_loc: 1 to 000000000043d275
  DW_CFA_def_cfa_offset: 40
  DW_CFA_advance_loc: 2 to 000000000043d277
  DW_CFA_def_cfa_offset: 32
  DW_CFA_advance_loc: 2 to 000000000043d279
  DW_CFA_def_cfa_offset: 24
  DW_CFA_advance_loc: 2 to 000000000043d27b
  DW_CFA_def_cfa_offset: 16
  DW_CFA_advance_loc: 2 to 000000000043d27d
  DW_CFA_def_cfa_offset: 8
  DW_CFA_advance_loc: 5 to 000000000043d282
  DW_CFA_restore_state
  DW_CFA_advance_loc: 46 to 000000000043d2b0
  DW_CFA_remember_state
  DW_CFA_def_cfa_offset: 56
  DW_CFA_advance_loc: 8 to 000000000043d2b8
  DW_CFA_def_cfa_offset: 48
  DW_CFA_advance_loc: 1 to 000000000043d2b9
  DW_CFA_def_cfa_offset: 40
  DW_CFA_advance_loc: 2 to 000000000043d2bb
  DW_CFA_def_cfa_offset: 32
  DW_CFA_advance_loc: 2 to 000000000043d2bd
  DW_CFA_def_cfa_offset: 24
  DW_CFA_advance_loc: 2 to 000000000043d2bf
  DW_CFA_def_cfa_offset: 16
  DW_CFA_advance_loc: 2 to 000000000043d2c1
  DW_CFA_def_cfa_offset: 8
  DW_CFA_advance_loc: 5 to 000000000043d2c6
  DW_CFA_restore_state
  DW_CFA_advance_loc: 56 to 000000000043d2fe
  DW_CFA_remember_state
  DW_CFA_def_cfa_offset: 56
  DW_CFA_advance_loc: 8 to 000000000043d306
  DW_CFA_def_cfa_offset: 48
  DW_CFA_advance_loc: 1 to 000000000043d307
  DW_CFA_def_cfa_offset: 40
  DW_CFA_advance_loc: 2 to 000000000043d309
  DW_CFA_def_cfa_offset: 32
  DW_CFA_advance_loc: 2 to 000000000043d30b
  DW_CFA_def_cfa_offset: 24
  DW_CFA_advance_loc: 2 to 000000000043d30d
  DW_CFA_def_cfa_offset: 16
  DW_CFA_advance_loc: 2 to 000000000043d30f
  DW_CFA_def_cfa_offset: 8
  DW_CFA_advance_loc: 5 to 000000000043d314
  DW_CFA_restore_state
  DW_CFA_advance_loc: 46 to 000000000043d342
  DW_CFA_remember_state
  DW_CFA_def_cfa_offset: 56
  DW_CFA_advance_loc: 8 to 000000000043d34a
  DW_CFA_def_cfa_offset: 48
  DW_CFA_advance_loc: 1 to 000000000043d34b
  DW_CFA_def_cfa_offset: 40
  DW_CFA_advance_loc: 2 to 000000000043d34d
  DW_CFA_def_cfa_offset: 32
  DW_CFA_advance_loc: 2 to 000000000043d34f
  DW_CFA_def_cfa_offset: 24
  DW_CFA_advance_loc: 2 to 000000000043d351
  DW_CFA_def_cfa_offset: 16
  DW_CFA_advance_loc: 2 to 000000000043d353
  DW_CFA_def_cfa_offset: 8
  DW_CFA_advance_loc: 5 to 000000000043d358
  DW_CFA_restore_state
  DW_CFA_advance_loc: 56 to 000000000043d390
  DW_CFA_remember_state
  DW_CFA_def_cfa_offset: 56
  DW_CFA_advance_loc: 8 to 000000000043d398
  DW_CFA_def_cfa_offset: 48
  DW_CFA_advance_loc: 1 to 000000000043d399
  DW_CFA_def_cfa_offset: 40
  DW_CFA_advance_loc: 2 to 000000000043d39b
  DW_CFA_def_cfa_offset: 32
  DW_CFA_advance_loc: 2 to 000000000043d39d
  DW_CFA_def_cfa_offset: 24
  DW_CFA_advance_loc: 2 to 000000000043d39f
  DW_CFA_def_cfa_offset: 16
  DW_CFA_advance_loc: 2 to 000000000043d3a1
  DW_CFA_def_cfa_offset: 8
  DW_CFA_advance_loc: 5 to 000000000043d3a6
  DW_CFA_restore_state
  DW_CFA_advance_loc: 46 to 000000000043d3d4
  DW_CFA_remember_state
  DW_CFA_def_cfa_offset: 56
  DW_CFA_advance_loc: 8 to 000000000043d3dc
  DW_CFA_def_cfa_offset: 48
  DW_CFA_advance_loc: 1 to 000000000043d3dd
  DW_CFA_def_cfa_offset: 40
  DW_CFA_advance_loc: 2 to 000000000043d3df
  DW_CFA_def_cfa_offset: 32
  DW_CFA_advance_loc: 2 to 000000000043d3e1
  DW_CFA_def_cfa_offset: 24
  DW_CFA_advance_loc: 2 to 000000000043d3e3
  DW_CFA_def_cfa_offset: 16
  DW_CFA_advance_loc: 2 to 000000000043d3e5
  DW_CFA_def_cfa_offset: 8
  DW_CFA_advance_loc: 5 to 000000000043d3ea
  DW_CFA_restore_state
  DW_CFA_advance_loc: 56 to 000000000043d422
  DW_CFA_remember_state
  DW_CFA_def_cfa_offset: 56
  DW_CFA_advance_loc: 8 to 000000000043d42a
  DW_CFA_def_cfa_offset: 48
  DW_CFA_advance_loc: 1 to 000000000043d42b
  DW_CFA_def_cfa_offset: 40
  DW_CFA_advance_loc: 2 to 000000000043d42d
  DW_CFA_def_cfa_offset: 32
  DW_CFA_advance_loc: 2 to 000000000043d42f
  DW_CFA_def_cfa_offset: 24
  DW_CFA_advance_loc: 2 to 000000000043d431
  DW_CFA_def_cfa_offset: 16
  DW_CFA_advance_loc: 2 to 000000000043d433
  DW_CFA_def_cfa_offset: 8
  DW_CFA_advance_loc: 5 to 000000000043d438
  DW_CFA_restore_state
  DW_CFA_advance_loc: 46 to 000000000043d466
  DW_CFA_remember_state
  DW_CFA_def_cfa_offset: 56
  DW_CFA_advance_loc: 8 to 000000000043d46e
  DW_CFA_def_cfa_offset: 48
  DW_CFA_advance_loc: 1 to 000000000043d46f
  DW_CFA_def_cfa_offset: 40
  DW_CFA_advance_loc: 2 to 000000000043d471
  DW_CFA_def_cfa_offset: 32
  DW_CFA_advance_loc: 2 to 000000000043d473
  DW_CFA_def_cfa_offset: 24
  DW_CFA_advance_loc: 2 to 000000000043d475
  DW_CFA_def_cfa_offset: 16
  DW_CFA_advance_loc: 2 to 000000000043d477
  DW_CFA_def_cfa_offset: 8
  DW_CFA_advance_loc: 5 to 000000000043d47c
  DW_CFA_restore_state
  DW_CFA_advance_loc: 56 to 000000000043d4b4
  DW_CFA_remember_state
  DW_CFA_def_cfa_offset: 56
  DW_CFA_advance_loc: 8 to 000000000043d4bc
  DW_CFA_def_cfa_offset: 48
  DW_CFA_advance_loc: 1 to 000000000043d4bd
  DW_CFA_def_cfa_offset: 40
  DW_CFA_advance_loc: 2 to 000000000043d4bf
  DW_CFA_def_cfa_offset: 32
  DW_CFA_advance_loc: 2 to 000000000043d4c1
  DW_CFA_def_cfa_offset: 24
  DW_CFA_advance_loc: 2 to 000000000043d4c3
  DW_CFA_def_cfa_offset: 16
  DW_CFA_advance_loc: 2 to 000000000043d4c5
  DW_CFA_def_cfa_offset: 8
  DW_CFA_advance_loc: 5 to 000000000043d4ca
  DW_CFA_restore_state
  DW_CFA_advance_loc: 46 to 000000000043d4f8
  DW_CFA_remember_state
  DW_CFA_def_cfa_offset: 56
  DW_CFA_advance_loc: 8 to 000000000043d500
  DW_CFA_def_cfa_offset: 48
  DW_CFA_advance_loc: 1 to 000000000043d501
  DW_CFA_def_cfa_offset: 40
  DW_CFA_advance_loc: 2 to 000000000043d503
  DW_CFA_def_cfa_offset: 32
  DW_CFA_advance_loc: 2 to 000000000043d505
  DW_CFA_def_cfa_offset: 24
  DW_CFA_advance_loc: 2 to 000000000043d507
  DW_CFA_def_cfa_offset: 16
  DW_CFA_advance_loc: 2 to 000000000043d509
  DW_CFA_def_cfa_offset: 8
  DW_CFA_advance_loc: 5 to 000000000043d50e
  DW_CFA_restore_state
  DW_CFA_advance_loc: 56 to 000000000043d546
  DW_CFA_remember_state
  DW_CFA_def_cfa_offset: 56
  DW_CFA_advance_loc: 8 to 000000000043d54e
  DW_CFA_def_cfa_offset: 48
  DW_CFA_advance_loc: 1 to 000000000043d54f
  DW_CFA_def_cfa_offset: 40
  DW_CFA_advance_loc: 2 to 000000000043d551
  DW_CFA_def_cfa_offset: 32
  DW_CFA_advance_loc: 2 to 000000000043d553
  DW_CFA_def_cfa_offset: 24
  DW_CFA_advance_loc: 2 to 000000000043d555
  DW_CFA_def_cfa_offset: 16
  DW_CFA_advance_loc: 2 to 000000000043d557
  DW_CFA_def_cfa_offset: 8
  DW_CFA_advance_loc: 5 to 000000000043d55c
  DW_CFA_restore_state
  DW_CFA_advance_loc: 46 to 000000000043d58a
  DW_CFA_remember_state
  DW_CFA_def_cfa_offset: 56
  DW_CFA_advance_loc: 8 to 000000000043d592
  DW_CFA_def_cfa_offset: 48
  DW_CFA_advance_loc: 1 to 000000000043d593
  DW_CFA_def_cfa_offset: 40
  DW_CFA_advance_loc: 2 to 000000000043d595
  DW_CFA_def_cfa_offset: 32
  DW_CFA_advance_loc: 2 to 000000000043d597
  DW_CFA_def_cfa_offset: 24
  DW_CFA_advance_loc: 2 to 000000000043d599
  DW_CFA_def_cfa_offset: 16
  DW_CFA_advance_loc: 2 to 000000000043d59b
  DW_CFA_def_cfa_offset: 8
  DW_CFA_advance_loc: 5 to 000000000043d5a0
  DW_CFA_restore_state
  DW_CFA_advance_loc: 56 to 000000000043d5d8
  DW_CFA_remember_state
  DW_CFA_def_cfa_offset: 56
  DW_CFA_advance_loc: 8 to 000000000043d5e0
  DW_CFA_def_cfa_offset: 48
  DW_CFA_advance_loc: 1 to 000000000043d5e1
  DW_CFA_def_cfa_offset: 40
  DW_CFA_advance_loc: 2 to 000000000043d5e3
  DW_CFA_def_cfa_offset: 32
  DW_CFA_advance_loc: 2 to 000000000043d5e5
  DW_CFA_def_cfa_offset: 24
  DW_CFA_advance_loc: 2 to 000000000043d5e7
  DW_CFA_def_cfa_offset: 16
  DW_CFA_advance_loc: 2 to 000000000043d5e9
  DW_CFA_def_cfa_offset: 8
  DW_CFA_advance_loc: 5 to 000000000043d5ee
  DW_CFA_restore_state
  DW_CFA_advance_loc: 46 to 000000000043d61c
  DW_CFA_remember_state
  DW_CFA_def_cfa_offset: 56
  DW_CFA_advance_loc: 8 to 000000000043d624
  DW_CFA_def_cfa_offset: 48
  DW_CFA_advance_loc: 1 to 000000000043d625
  DW_CFA_def_cfa_offset: 40
  DW_CFA_advance_loc: 2 to 000000000043d627
  DW_CFA_def_cfa_offset: 32
  DW_CFA_advance_loc: 2 to 000000000043d629
  DW_CFA_def_cfa_offset: 24
  DW_CFA_advance_loc: 2 to 000000000043d62b
  DW_CFA_def_cfa_offset: 16
  DW_CFA_advance_loc: 2 to 000000000043d62d
  DW_CFA_def_cfa_offset: 8
  DW_CFA_advance_loc: 5 to 000000000043d632
  DW_CFA_restore_state
  DW_CFA_advance_loc: 56 to 000000000043d66a
  DW_CFA_remember_state
  DW_CFA_def_cfa_offset: 56
  DW_CFA_advance_loc: 8 to 000000000043d672
  DW_CFA_def_cfa_offset: 48
  DW_CFA_advance_loc: 1 to 000000000043d673
  DW_CFA_def_cfa_offset: 40
  DW_CFA_advance_loc: 2 to 000000000043d675
  DW_CFA_def_cfa_offset: 32
  DW_CFA_advance_loc: 2 to 000000000043d677
  DW_CFA_def_cfa_offset: 24
  DW_CFA_advance_loc: 2 to 000000000043d679
  DW_CFA_def_cfa_offset: 16
  DW_CFA_advance_loc: 2 to 000000000043d67b
  DW_CFA_def_cfa_offset: 8
  DW_CFA_advance_loc: 5 to 000000000043d680
  DW_CFA_restore_state
  DW_CFA_advance_loc: 46 to 000000000043d6ae
  DW_CFA_remember_state
  DW_CFA_def_cfa_offset: 56
  DW_CFA_advance_loc: 8 to 000000000043d6b6
  DW_CFA_def_cfa_offset: 48
  DW_CFA_advance_loc: 1 to 000000000043d6b7
  DW_CFA_def_cfa_offset: 40
  DW_CFA_advance_loc: 2 to 000000000043d6b9
  DW_CFA_def_cfa_offset: 32
  DW_CFA_advance_loc: 2 to 000000000043d6bb
  DW_CFA_def_cfa_offset: 24
  DW_CFA_advance_loc: 2 to 000000000043d6bd
  DW_CFA_def_cfa_offset: 16
  DW_CFA_advance_loc: 2 to 000000000043d6bf
  DW_CFA_def_cfa_offset: 8
  DW_CFA_advance_loc: 5 to 000000000043d6c4
  DW_CFA_restore_state
  DW_CFA_advance_loc: 56 to 000000000043d6fc
  DW_CFA_remember_state
  DW_CFA_def_cfa_offset: 56
  DW_CFA_advance_loc: 8 to 000000000043d704
  DW_CFA_def_cfa_offset: 48
  DW_CFA_advance_loc: 1 to 000000000043d705
  DW_CFA_def_cfa_offset: 40
  DW_CFA_advance_loc: 2 to 000000000043d707
  DW_CFA_def_cfa_offset: 32
  DW_CFA_advance_loc: 2 to 000000000043d709
  DW_CFA_def_cfa_offset: 24
  DW_CFA_advance_loc: 2 to 000000000043d70b
  DW_CFA_def_cfa_offset: 16
  DW_CFA_advance_loc: 2 to 000000000043d70d
  DW_CFA_def_cfa_offset: 8
  DW_CFA_advance_loc: 5 to 000000000043d712
  DW_CFA_restore_state
  DW_CFA_advance_loc: 46 to 000000000043d740
  DW_CFA_remember_state
  DW_CFA_def_cfa_offset: 56
  DW_CFA_advance_loc: 8 to 000000000043d748
  DW_CFA_def_cfa_offset: 48
  DW_CFA_advance_loc: 1 to 000000000043d749
  DW_CFA_def_cfa_offset: 40
  DW_CFA_advance_loc: 2 to 000000000043d74b
  DW_CFA_def_cfa_offset: 32
  DW_CFA_advance_loc: 2 to 000000000043d74d
  DW_CFA_def_cfa_offset: 24
  DW_CFA_advance_loc: 2 to 000000000043d74f
  DW_CFA_def_cfa_offset: 16
  DW_CFA_advance_loc: 2 to 000000000043d751
  DW_CFA_def_cfa_offset: 8
  DW_CFA_advance_loc: 5 to 000000000043d756
  DW_CFA_restore_state
  DW_CFA_advance_loc: 56 to 000000000043d78e
  DW_CFA_remember_state
  DW_CFA_def_cfa_offset: 56
  DW_CFA_advance_loc: 8 to 000000000043d796
  DW_CFA_def_cfa_offset: 48
  DW_CFA_advance_loc: 1 to 000000000043d797
  DW_CFA_def_cfa_offset: 40
  DW_CFA_advance_loc: 2 to 000000000043d799
  DW_CFA_def_cfa_offset: 32
  DW_CFA_advance_loc: 2 to 000000000043d79b
  DW_CFA_def_cfa_offset: 24
  DW_CFA_advance_loc: 2 to 000000000043d79d
  DW_CFA_def_cfa_offset: 16
  DW_CFA_advance_loc: 2 to 000000000043d79f
  DW_CFA_def_cfa_offset: 8
  DW_CFA_advance_loc: 5 to 000000000043d7a4
  DW_CFA_restore_state
  DW_CFA_advance_loc: 46 to 000000000043d7d2
  DW_CFA_remember_state
  DW_CFA_def_cfa_offset: 56
  DW_CFA_advance_loc: 8 to 000000000043d7da
  DW_CFA_def_cfa_offset: 48
  DW_CFA_advance_loc: 1 to 000000000043d7db
  DW_CFA_def_cfa_offset: 40
  DW_CFA_advance_loc: 2 to 000000000043d7dd
  DW_CFA_def_cfa_offset: 32
  DW_CFA_advance_loc: 2 to 000000000043d7df
  DW_CFA_def_cfa_offset: 24
  DW_CFA_advance_loc: 2 to 000000000043d7e1
  DW_CFA_def_cfa_offset: 16
  DW_CFA_advance_loc: 2 to 000000000043d7e3
  DW_CFA_def_cfa_offset: 8
  DW_CFA_advance_loc: 5 to 000000000043d7e8
  DW_CFA_restore_state
  DW_CFA_advance_loc: 56 to 000000000043d820
  DW_CFA_remember_state
  DW_CFA_def_cfa_offset: 56
  DW_CFA_advance_loc: 8 to 000000000043d828
  DW_CFA_def_cfa_offset: 48
  DW_CFA_advance_loc: 1 to 000000000043d829
  DW_CFA_def_cfa_offset: 40
  DW_CFA_advance_loc: 2 to 000000000043d82b
  DW_CFA_def_cfa_offset: 32
  DW_CFA_advance_loc: 2 to 000000000043d82d
  DW_CFA_def_cfa_offset: 24
  DW_CFA_advance_loc: 2 to 000000000043d82f
  DW_CFA_def_cfa_offset: 16
  DW_CFA_advance_loc: 2 to 000000000043d831
  DW_CFA_def_cfa_offset: 8
  DW_CFA_advance_loc: 5 to 000000000043d836
  DW_CFA_restore_state
  DW_CFA_advance_loc: 46 to 000000000043d864
  DW_CFA_remember_state
  DW_CFA_def_cfa_offset: 56
  DW_CFA_advance_loc: 8 to 000000000043d86c
  DW_CFA_def_cfa_offset: 48
  DW_CFA_advance_loc: 1 to 000000000043d86d
  DW_CFA_def_cfa_offset: 40
  DW_CFA_advance_loc: 2 to 000000000043d86f
  DW_CFA_def_cfa_offset: 32
  DW_CFA_advance_loc: 2 to 000000000043d871
  DW_CFA_def_cfa_offset: 24
  DW_CFA_advance_loc: 2 to 000000000043d873
  DW_CFA_def_cfa_offset: 16
  DW_CFA_advance_loc: 2 to 000000000043d875
  DW_CFA_def_cfa_offset: 8
  DW_CFA_advance_loc: 5 to 000000000043d87a
  DW_CFA_restore_state
  DW_CFA_advance_loc: 56 to 000000000043d8b2
  DW_CFA_remember_state
  DW_CFA_def_cfa_offset: 56
  DW_CFA_advance_loc: 8 to 000000000043d8ba
  DW_CFA_def_cfa_offset: 48
  DW_CFA_advance_loc: 1 to 000000000043d8bb
  DW_CFA_def_cfa_offset: 40
  DW_CFA_advance_loc: 2 to 000000000043d8bd
  DW_CFA_def_cfa_offset: 32
  DW_CFA_advance_loc: 2 to 000000000043d8bf
  DW_CFA_def_cfa_offset: 24
  DW_CFA_advance_loc: 2 to 000000000043d8c1
  DW_CFA_def_cfa_offset: 16
  DW_CFA_advance_loc: 2 to 000000000043d8c3
  DW_CFA_def_cfa_offset: 8
  DW_CFA_advance_loc: 5 to 000000000043d8c8
  DW_CFA_restore_state
  DW_CFA_advance_loc: 46 to 000000000043d8f6
  DW_CFA_remember_state
  DW_CFA_def_cfa_offset: 56
  DW_CFA_advance_loc: 8 to 000000000043d8fe
  DW_CFA_def_cfa_offset: 48
  DW_CFA_advance_loc: 1 to 000000000043d8ff
  DW_CFA_def_cfa_offset: 40
  DW_CFA_advance_loc: 2 to 000000000043d901
  DW_CFA_def_cfa_offset: 32
  DW_CFA_advance_loc: 2 to 000000000043d903
  DW_CFA_def_cfa_offset: 24
  DW_CFA_advance_loc: 2 to 000000000043d905
  DW_CFA_def_cfa_offset: 16
  DW_CFA_advance_loc: 2 to 000000000043d907
  DW_CFA_def_cfa_offset: 8
  DW_CFA_advance_loc: 5 to 000000000043d90c
  DW_CFA_restore_state
  DW_CFA_advance_loc: 56 to 000000000043d944
  DW_CFA_remember_state
  DW_CFA_def_cfa_offset: 56
  DW_CFA_advance_loc: 8 to 000000000043d94c
  DW_CFA_def_cfa_offset: 48
  DW_CFA_advance_loc: 1 to 000000000043d94d
  DW_CFA_def_cfa_offset: 40
  DW_CFA_advance_loc: 2 to 000000000043d94f
  DW_CFA_def_cfa_offset: 32
  DW_CFA_advance_loc: 2 to 000000000043d951
  DW_CFA_def_cfa_offset: 24
  DW_CFA_advance_loc: 2 to 000000000043d953
  DW_CFA_def_cfa_offset: 16
  DW_CFA_advance_loc: 2 to 000000000043d955
  DW_CFA_def_cfa_offset: 8
  DW_CFA_advance_loc: 5 to 000000000043d95a
  DW_CFA_restore_state
  DW_CFA_advance_loc: 46 to 000000000043d988
  DW_CFA_remember_state
  DW_CFA_def_cfa_offset: 56
  DW_CFA_advance_loc: 8 to 000000000043d990
  DW_CFA_def_cfa_offset: 48
  DW_CFA_advance_loc: 1 to 000000000043d991
  DW_CFA_def_cfa_offset: 40
  DW_CFA_advance_loc: 2 to 000000000043d993
  DW_CFA_def_cfa_offset: 32
  DW_CFA_advance_loc: 2 to 000000000043d995
  DW_CFA_def_cfa_offset: 24
  DW_CFA_advance_loc: 2 to 000000000043d997
  DW_CFA_def_cfa_offset: 16
  DW_CFA_advance_loc: 2 to 000000000043d999
  DW_CFA_def_cfa_offset: 8
  DW_CFA_advance_loc: 5 to 000000000043d99e
  DW_CFA_restore_state
  DW_CFA_advance_loc: 56 to 000000000043d9d6
  DW_CFA_remember_state
  DW_CFA_def_cfa_offset: 56
  DW_CFA_advance_loc: 8 to 000000000043d9de
  DW_CFA_def_cfa_offset: 48
  DW_CFA_advance_loc: 1 to 000000000043d9df
  DW_CFA_def_cfa_offset: 40
  DW_CFA_advance_loc: 2 to 000000000043d9e1
  DW_CFA_def_cfa_offset: 32
  DW_CFA_advance_loc: 2 to 000000000043d9e3
  DW_CFA_def_cfa_offset: 24
  DW_CFA_advance_loc: 2 to 000000000043d9e5
  DW_CFA_def_cfa_offset: 16
  DW_CFA_advance_loc: 2 to 000000000043d9e7
  DW_CFA_def_cfa_offset: 8
  DW_CFA_advance_loc: 5 to 000000000043d9ec
  DW_CFA_restore_state
  DW_CFA_advance_loc: 46 to 000000000043da1a
  DW_CFA_remember_state
  DW_CFA_def_cfa_offset: 56
  DW_CFA_advance_loc: 8 to 000000000043da22
  DW_CFA_def_cfa_offset: 48
  DW_CFA_advance_loc: 1 to 000000000043da23
  DW_CFA_def_cfa_offset: 40
  DW_CFA_advance_loc: 2 to 000000000043da25
  DW_CFA_def_cfa_offset: 32
  DW_CFA_advance_loc: 2 to 000000000043da27
  DW_CFA_def_cfa_offset: 24
  DW_CFA_advance_loc: 2 to 000000000043da29
  DW_CFA_def_cfa_offset: 16
  DW_CFA_advance_loc: 2 to 000000000043da2b
  DW_CFA_def_cfa_offset: 8
  DW_CFA_advance_loc: 5 to 000000000043da30
  DW_CFA_restore_state
  DW_CFA_advance_loc: 56 to 000000000043da68
  DW_CFA_remember_state
  DW_CFA_def_cfa_offset: 56
  DW_CFA_advance_loc: 8 to 000000000043da70
  DW_CFA_def_cfa_offset: 48
  DW_CFA_advance_loc: 1 to 000000000043da71
  DW_CFA_def_cfa_offset: 40
  DW_CFA_advance_loc: 2 to 000000000043da73
  DW_CFA_def_cfa_offset: 32
  DW_CFA_advance_loc: 2 to 000000000043da75
  DW_CFA_def_cfa_offset: 24
  DW_CFA_advance_loc: 2 to 000000000043da77
  DW_CFA_def_cfa_offset: 16
  DW_CFA_advance_loc: 2 to 000000000043da79
  DW_CFA_def_cfa_offset: 8
  DW_CFA_advance_loc: 5 to 000000000043da7e
  DW_CFA_restore_state
  DW_CFA_advance_loc: 46 to 000000000043daac
  DW_CFA_remember_state
  DW_CFA_def_cfa_offset: 56
  DW_CFA_advance_loc: 8 to 000000000043dab4
  DW_CFA_def_cfa_offset: 48
  DW_CFA_advance_loc: 1 to 000000000043dab5
  DW_CFA_def_cfa_offset: 40
  DW_CFA_advance_loc: 2 to 000000000043dab7
  DW_CFA_def_cfa_offset: 32
  DW_CFA_advance_loc: 2 to 000000000043dab9
  DW_CFA_def_cfa_offset: 24
  DW_CFA_advance_loc: 2 to 000000000043dabb
  DW_CFA_def_cfa_offset: 16
  DW_CFA_advance_loc: 2 to 000000000043dabd
  DW_CFA_def_cfa_offset: 8
  DW_CFA_advance_loc: 5 to 000000000043dac2
  DW_CFA_restore_state
  DW_CFA_advance_loc: 56 to 000000000043dafa
  DW_CFA_remember_state
  DW_CFA_def_cfa_offset: 56
  DW_CFA_advance_loc: 8 to 000000000043db02
  DW_CFA_def_cfa_offset: 48
  DW_CFA_advance_loc: 1 to 000000000043db03
  DW_CFA_def_cfa_offset: 40
  DW_CFA_advance_loc: 2 to 000000000043db05
  DW_CFA_def_cfa_offset: 32
  DW_CFA_advance_loc: 2 to 000000000043db07
  DW_CFA_def_cfa_offset: 24
  DW_CFA_advance_loc: 2 to 000000000043db09
  DW_CFA_def_cfa_offset: 16
  DW_CFA_advance_loc: 2 to 000000000043db0b
  DW_CFA_def_cfa_offset: 8
  DW_CFA_advance_loc: 5 to 000000000043db10
  DW_CFA_restore_state
  DW_CFA_advance_loc: 46 to 000000000043db3e
  DW_CFA_remember_state
  DW_CFA_def_cfa_offset: 56
  DW_CFA_advance_loc: 8 to 000000000043db46
  DW_CFA_def_cfa_offset: 48
  DW_CFA_advance_loc: 1 to 000000000043db47
  DW_CFA_def_cfa_offset: 40
  DW_CFA_advance_loc: 2 to 000000000043db49
  DW_CFA_def_cfa_offset: 32
  DW_CFA_advance_loc: 2 to 000000000043db4b
  DW_CFA_def_cfa_offset: 24
  DW_CFA_advance_loc: 2 to 000000000043db4d
  DW_CFA_def_cfa_offset: 16
  DW_CFA_advance_loc: 2 to 000000000043db4f
  DW_CFA_def_cfa_offset: 8
  DW_CFA_advance_loc: 5 to 000000000043db54
  DW_CFA_restore_state
  DW_CFA_advance_loc: 56 to 000000000043db8c
  DW_CFA_remember_state
  DW_CFA_def_cfa_offset: 56
  DW_CFA_advance_loc: 8 to 000000000043db94
  DW_CFA_def_cfa_offset: 48
  DW_CFA_advance_loc: 1 to 000000000043db95
  DW_CFA_def_cfa_offset: 40
  DW_CFA_advance_loc: 2 to 000000000043db97
  DW_CFA_def_cfa_offset: 32
  DW_CFA_advance_loc: 2 to 000000000043db99
  DW_CFA_def_cfa_offset: 24
  DW_CFA_advance_loc: 2 to 000000000043db9b
  DW_CFA_def_cfa_offset: 16
  DW_CFA_advance_loc: 2 to 000000000043db9d
  DW_CFA_def_cfa_offset: 8
  DW_CFA_advance_loc: 5 to 000000000043dba2
  DW_CFA_restore_state
  DW_CFA_advance_loc: 46 to 000000000043dbd0
  DW_CFA_remember_state
  DW_CFA_def_cfa_offset: 56
  DW_CFA_advance_loc: 8 to 000000000043dbd8
  DW_CFA_def_cfa_offset: 48
  DW_CFA_advance_loc: 1 to 000000000043dbd9
  DW_CFA_def_cfa_offset: 40
  DW_CFA_advance_loc: 2 to 000000000043dbdb
  DW_CFA_def_cfa_offset: 32
  DW_CFA_advance_loc: 2 to 000000000043dbdd
  DW_CFA_def_cfa_offset: 24
  DW_CFA_advance_loc: 2 to 000000000043dbdf
  DW_CFA_def_cfa_offset: 16
  DW_CFA_advance_loc: 2 to 000000000043dbe1
  DW_CFA_def_cfa_offset: 8
  DW_CFA_advance_loc: 5 to 000000000043dbe6
  DW_CFA_restore_state
  DW_CFA_advance_loc: 56 to 000000000043dc1e
  DW_CFA_remember_state
  DW_CFA_def_cfa_offset: 56
  DW_CFA_advance_loc: 8 to 000000000043dc26
  DW_CFA_def_cfa_offset: 48
  DW_CFA_advance_loc: 1 to 000000000043dc27
  DW_CFA_def_cfa_offset: 40
  DW_CFA_advance_loc: 2 to 000000000043dc29
  DW_CFA_def_cfa_offset: 32
  DW_CFA_advance_loc: 2 to 000000000043dc2b
  DW_CFA_def_cfa_offset: 24
  DW_CFA_advance_loc: 2 to 000000000043dc2d
  DW_CFA_def_cfa_offset: 16
  DW_CFA_advance_loc: 2 to 000000000043dc2f
  DW_CFA_def_cfa_offset: 8
  DW_CFA_advance_loc: 5 to 000000000043dc34
  DW_CFA_restore_state
  DW_CFA_advance_loc: 46 to 000000000043dc62
  DW_CFA_remember_state
  DW_CFA_def_cfa_offset: 56
  DW_CFA_advance_loc: 8 to 000000000043dc6a
  DW_CFA_def_cfa_offset: 48
  DW_CFA_advance_loc: 1 to 000000000043dc6b
  DW_CFA_def_cfa_offset: 40
  DW_CFA_advance_loc: 2 to 000000000043dc6d
  DW_CFA_def_cfa_offset: 32
  DW_CFA_advance_loc: 2 to 000000000043dc6f
  DW_CFA_def_cfa_offset: 24
  DW_CFA_advance_loc: 2 to 000000000043dc71
  DW_CFA_def_cfa_offset: 16
  DW_CFA_advance_loc: 2 to 000000000043dc73
  DW_CFA_def_cfa_offset: 8
  DW_CFA_advance_loc: 5 to 000000000043dc78
  DW_CFA_restore_state
  DW_CFA_advance_loc: 56 to 000000000043dcb0
  DW_CFA_remember_state
  DW_CFA_def_cfa_offset: 56
  DW_CFA_advance_loc: 8 to 000000000043dcb8
  DW_CFA_def_cfa_offset: 48
  DW_CFA_advance_loc: 1 to 000000000043dcb9
  DW_CFA_def_cfa_offset: 40
  DW_CFA_advance_loc: 2 to 000000000043dcbb
  DW_CFA_def_cfa_offset: 32
  DW_CFA_advance_loc: 2 to 000000000043dcbd
  DW_CFA_def_cfa_offset: 24
  DW_CFA_advance_loc: 2 to 000000000043dcbf
  DW_CFA_def_cfa_offset: 16
  DW_CFA_advance_loc: 2 to 000000000043dcc1
  DW_CFA_def_cfa_offset: 8
  DW_CFA_advance_loc: 5 to 000000000043dcc6
  DW_CFA_restore_state
  DW_CFA_advance_loc: 46 to 000000000043dcf4
  DW_CFA_remember_state
  DW_CFA_def_cfa_offset: 56
  DW_CFA_advance_loc: 8 to 000000000043dcfc
  DW_CFA_def_cfa_offset: 48
  DW_CFA_advance_loc: 1 to 000000000043dcfd
  DW_CFA_def_cfa_offset: 40
  DW_CFA_advance_loc: 2 to 000000000043dcff
  DW_CFA_def_cfa_offset: 32
  DW_CFA_advance_loc: 2 to 000000000043dd01
  DW_CFA_def_cfa_offset: 24
  DW_CFA_advance_loc: 2 to 000000000043dd03
  DW_CFA_def_cfa_offset: 16
  DW_CFA_advance_loc: 2 to 000000000043dd05
  DW_CFA_def_cfa_offset: 8
  DW_CFA_advance_loc: 5 to 000000000043dd0a
  DW_CFA_restore_state
  DW_CFA_advance_loc: 56 to 000000000043dd42
  DW_CFA_remember_state
  DW_CFA_def_cfa_offset: 56
  DW_CFA_advance_loc: 8 to 000000000043dd4a
  DW_CFA_def_cfa_offset: 48
  DW_CFA_advance_loc: 1 to 000000000043dd4b
  DW_CFA_def_cfa_offset: 40
  DW_CFA_advance_loc: 2 to 000000000043dd4d
  DW_CFA_def_cfa_offset: 32
  DW_CFA_advance_loc: 2 to 000000000043dd4f
  DW_CFA_def_cfa_offset: 24
  DW_CFA_advance_loc: 2 to 000000000043dd51
  DW_CFA_def_cfa_offset: 16
  DW_CFA_advance_loc: 2 to 000000000043dd53
  DW_CFA_def_cfa_offset: 8
  DW_CFA_advance_loc: 5 to 000000000043dd58
  DW_CFA_restore_state
  DW_CFA_advance_loc: 46 to 000000000043dd86
  DW_CFA_remember_state
  DW_CFA_def_cfa_offset: 56
  DW_CFA_advance_loc: 8 to 000000000043dd8e
  DW_CFA_def_cfa_offset: 48
  DW_CFA_advance_loc: 1 to 000000000043dd8f
  DW_CFA_def_cfa_offset: 40
  DW_CFA_advance_loc: 2 to 000000000043dd91
  DW_CFA_def_cfa_offset: 32
  DW_CFA_advance_loc: 2 to 000000000043dd93
  DW_CFA_def_cfa_offset: 24
  DW_CFA_advance_loc: 2 to 000000000043dd95
  DW_CFA_def_cfa_offset: 16
  DW_CFA_advance_loc: 2 to 000000000043dd97
  DW_CFA_def_cfa_offset: 8
  DW_CFA_advance_loc: 5 to 000000000043dd9c
  DW_CFA_restore_state
  DW_CFA_advance_loc: 56 to 000000000043ddd4
  DW_CFA_remember_state
  DW_CFA_def_cfa_offset: 56
  DW_CFA_advance_loc: 8 to 000000000043dddc
  DW_CFA_def_cfa_offset: 48
  DW_CFA_advance_loc: 1 to 000000000043dddd
  DW_CFA_def_cfa_offset: 40
  DW_CFA_advance_loc: 2 to 000000000043dddf
  DW_CFA_def_cfa_offset: 32
  DW_CFA_advance_loc: 2 to 000000000043dde1
  DW_CFA_def_cfa_offset: 24
  DW_CFA_advance_loc: 2 to 000000000043dde3
  DW_CFA_def_cfa_offset: 16
  DW_CFA_advance_loc: 2 to 000000000043dde5
  DW_CFA_def_cfa_offset: 8
  DW_CFA_advance_loc: 5 to 000000000043ddea
  DW_CFA_restore_state
  DW_CFA_advance_loc: 46 to 000000000043de18
  DW_CFA_remember_state
  DW_CFA_def_cfa_offset: 56
  DW_CFA_advance_loc: 8 to 000000000043de20
  DW_CFA_def_cfa_offset: 48
  DW_CFA_advance_loc: 1 to 000000000043de21
  DW_CFA_def_cfa_offset: 40
  DW_CFA_advance_loc: 2 to 000000000043de23
  DW_CFA_def_cfa_offset: 32
  DW_CFA_advance_loc: 2 to 000000000043de25
  DW_CFA_def_cfa_offset: 24
  DW_CFA_advance_loc: 2 to 000000000043de27
  DW_CFA_def_cfa_offset: 16
  DW_CFA_advance_loc: 2 to 000000000043de29
  DW_CFA_def_cfa_offset: 8
  DW_CFA_advance_loc: 5 to 000000000043de2e
  DW_CFA_restore_state
  DW_CFA_advance_loc: 56 to 000000000043de66
  DW_CFA_remember_state
  DW_CFA_def_cfa_offset: 56
  DW_CFA_advance_loc: 8 to 000000000043de6e
  DW_CFA_def_cfa_offset: 48
  DW_CFA_advance_loc: 1 to 000000000043de6f
  DW_CFA_def_cfa_offset: 40
  DW_CFA_advance_loc: 2 to 000000000043de71
  DW_CFA_def_cfa_offset: 32
  DW_CFA_advance_loc: 2 to 000000000043de73
  DW_CFA_def_cfa_offset: 24
  DW_CFA_advance_loc: 2 to 000000000043de75
  DW_CFA_def_cfa_offset: 16
  DW_CFA_advance_loc: 2 to 000000000043de77
  DW_CFA_def_cfa_offset: 8
  DW_CFA_advance_loc: 5 to 000000000043de7c
  DW_CFA_restore_state
  DW_CFA_advance_loc: 46 to 000000000043deaa
  DW_CFA_remember_state
  DW_CFA_def_cfa_offset: 56
  DW_CFA_advance_loc: 8 to 000000000043deb2
  DW_CFA_def_cfa_offset: 48
  DW_CFA_advance_loc: 1 to 000000000043deb3
  DW_CFA_def_cfa_offset: 40
  DW_CFA_advance_loc: 2 to 000000000043deb5
  DW_CFA_def_cfa_offset: 32
  DW_CFA_advance_loc: 2 to 000000000043deb7
  DW_CFA_def_cfa_offset: 24
  DW_CFA_advance_loc: 2 to 000000000043deb9
  DW_CFA_def_cfa_offset: 16
  DW_CFA_advance_loc: 2 to 000000000043debb
  DW_CFA_def_cfa_offset: 8
  DW_CFA_advance_loc: 5 to 000000000043dec0
  DW_CFA_restore_state
  DW_CFA_advance_loc: 56 to 000000000043def8
  DW_CFA_remember_state
  DW_CFA_def_cfa_offset: 56
  DW_CFA_advance_loc: 8 to 000000000043df00
  DW_CFA_def_cfa_offset: 48
  DW_CFA_advance_loc: 1 to 000000000043df01
  DW_CFA_def_cfa_offset: 40
  DW_CFA_advance_loc: 2 to 000000000043df03
  DW_CFA_def_cfa_offset: 32
  DW_CFA_advance_loc: 2 to 000000000043df05
  DW_CFA_def_cfa_offset: 24
  DW_CFA_advance_loc: 2 to 000000000043df07
  DW_CFA_def_cfa_offset: 16
  DW_CFA_advance_loc: 2 to 000000000043df09
  DW_CFA_def_cfa_offset: 8
  DW_CFA_advance_loc: 5 to 000000000043df0e
  DW_CFA_restore_state
  DW_CFA_advance_loc: 46 to 000000000043df3c
  DW_CFA_remember_state
  DW_CFA_def_cfa_offset: 56
  DW_CFA_advance_loc: 8 to 000000000043df44
  DW_CFA_def_cfa_offset: 48
  DW_CFA_advance_loc: 1 to 000000000043df45
  DW_CFA_def_cfa_offset: 40
  DW_CFA_advance_loc: 2 to 000000000043df47
  DW_CFA_def_cfa_offset: 32
  DW_CFA_advance_loc: 2 to 000000000043df49
  DW_CFA_def_cfa_offset: 24
  DW_CFA_advance_loc: 2 to 000000000043df4b
  DW_CFA_def_cfa_offset: 16
  DW_CFA_advance_loc: 2 to 000000000043df4d
  DW_CFA_def_cfa_offset: 8
  DW_CFA_advance_loc: 5 to 000000000043df52
  DW_CFA_restore_state
  DW_CFA_advance_loc: 56 to 000000000043df8a
  DW_CFA_remember_state
  DW_CFA_def_cfa_offset: 56
  DW_CFA_advance_loc: 8 to 000000000043df92
  DW_CFA_def_cfa_offset: 48
  DW_CFA_advance_loc: 1 to 000000000043df93
  DW_CFA_def_cfa_offset: 40
  DW_CFA_advance_loc: 2 to 000000000043df95
  DW_CFA_def_cfa_offset: 32
  DW_CFA_advance_loc: 2 to 000000000043df97
  DW_CFA_def_cfa_offset: 24
  DW_CFA_advance_loc: 2 to 000000000043df99
  DW_CFA_def_cfa_offset: 16
  DW_CFA_advance_loc: 2 to 000000000043df9b
  DW_CFA_def_cfa_offset: 8
  DW_CFA_advance_loc: 5 to 000000000043dfa0
  DW_CFA_restore_state
  DW_CFA_advance_loc: 46 to 000000000043dfce
  DW_CFA_remember_state
  DW_CFA_def_cfa_offset: 56
  DW_CFA_advance_loc: 8 to 000000000043dfd6
  DW_CFA_def_cfa_offset: 48
  DW_CFA_advance_loc: 1 to 000000000043dfd7
  DW_CFA_def_cfa_offset: 40
  DW_CFA_advance_loc: 2 to 000000000043dfd9
  DW_CFA_def_cfa_offset: 32
  DW_CFA_advance_loc: 2 to 000000000043dfdb
  DW_CFA_def_cfa_offset: 24
  DW_CFA_advance_loc: 2 to 000000000043dfdd
  DW_CFA_def_cfa_offset: 16
  DW_CFA_advance_loc: 2 to 000000000043dfdf
  DW_CFA_def_cfa_offset: 8
  DW_CFA_advance_loc: 5 to 000000000043dfe4
  DW_CFA_restore_state
  DW_CFA_advance_loc: 56 to 000000000043e01c
  DW_CFA_remember_state
  DW_CFA_def_cfa_offset: 56
  DW_CFA_advance_loc: 8 to 000000000043e024
  DW_CFA_def_cfa_offset: 48
  DW_CFA_advance_loc: 1 to 000000000043e025
  DW_CFA_def_cfa_offset: 40
  DW_CFA_advance_loc: 2 to 000000000043e027
  DW_CFA_def_cfa_offset: 32
  DW_CFA_advance_loc: 2 to 000000000043e029
  DW_CFA_def_cfa_offset: 24
  DW_CFA_advance_loc: 2 to 000000000043e02b
  DW_CFA_def_cfa_offset: 16
  DW_CFA_advance_loc: 2 to 000000000043e02d
  DW_CFA_def_cfa_offset: 8
  DW_CFA_advance_loc: 5 to 000000000043e032
  DW_CFA_restore_state
  DW_CFA_advance_loc: 46 to 000000000043e060
  DW_CFA_remember_state
  DW_CFA_def_cfa_offset: 56
  DW_CFA_advance_loc: 8 to 000000000043e068
  DW_CFA_def_cfa_offset: 48
  DW_CFA_advance_loc: 1 to 000000000043e069
  DW_CFA_def_cfa_offset: 40
  DW_CFA_advance_loc: 2 to 000000000043e06b
  DW_CFA_def_cfa_offset: 32
  DW_CFA_advance_loc: 2 to 000000000043e06d
  DW_CFA_def_cfa_offset: 24
  DW_CFA_advance_loc: 2 to 000000000043e06f
  DW_CFA_def_cfa_offset: 16
  DW_CFA_advance_loc: 2 to 000000000043e071
  DW_CFA_def_cfa_offset: 8
  DW_CFA_advance_loc: 5 to 000000000043e076
  DW_CFA_restore_state
  DW_CFA_advance_loc: 56 to 000000000043e0ae
  DW_CFA_remember_state
  DW_CFA_def_cfa_offset: 56
  DW_CFA_advance_loc: 8 to 000000000043e0b6
  DW_CFA_def_cfa_offset: 48
  DW_CFA_advance_loc: 1 to 000000000043e0b7
  DW_CFA_def_cfa_offset: 40
  DW_CFA_advance_loc: 2 to 000000000043e0b9
  DW_CFA_def_cfa_offset: 32
  DW_CFA_advance_loc: 2 to 000000000043e0bb
  DW_CFA_def_cfa_offset: 24
  DW_CFA_advance_loc: 2 to 000000000043e0bd
  DW_CFA_def_cfa_offset: 16
  DW_CFA_advance_loc: 2 to 000000000043e0bf
  DW_CFA_def_cfa_offset: 8
  DW_CFA_advance_loc: 5 to 000000000043e0c4
  DW_CFA_restore_state
  DW_CFA_advance_loc: 46 to 000000000043e0f2
  DW_CFA_remember_state
  DW_CFA_def_cfa_offset: 56
  DW_CFA_advance_loc: 8 to 000000000043e0fa
  DW_CFA_def_cfa_offset: 48
  DW_CFA_advance_loc: 1 to 000000000043e0fb
  DW_CFA_def_cfa_offset: 40
  DW_CFA_advance_loc: 2 to 000000000043e0fd
  DW_CFA_def_cfa_offset: 32
  DW_CFA_advance_loc: 2 to 000000000043e0ff
  DW_CFA_def_cfa_offset: 24
  DW_CFA_advance_loc: 2 to 000000000043e101
  DW_CFA_def_cfa_offset: 16
  DW_CFA_advance_loc: 2 to 000000000043e103
  DW_CFA_def_cfa_offset: 8
  DW_CFA_advance_loc: 5 to 000000000043e108
  DW_CFA_restore_state
  DW_CFA_advance_loc: 56 to 000000000043e140
  DW_CFA_remember_state
  DW_CFA_def_cfa_offset: 56
  DW_CFA_advance_loc: 8 to 000000000043e148
  DW_CFA_def_cfa_offset: 48
  DW_CFA_advance_loc: 1 to 000000000043e149
  DW_CFA_def_cfa_offset: 40
  DW_CFA_advance_loc: 2 to 000000000043e14b
  DW_CFA_def_cfa_offset: 32
  DW_CFA_advance_loc: 2 to 000000000043e14d
  DW_CFA_def_cfa_offset: 24
  DW_CFA_advance_loc: 2 to 000000000043e14f
  DW_CFA_def_cfa_offset: 16
  DW_CFA_advance_loc: 2 to 000000000043e151
  DW_CFA_def_cfa_offset: 8
  DW_CFA_advance_loc: 5 to 000000000043e156
  DW_CFA_restore_state
  DW_CFA_advance_loc: 46 to 000000000043e184
  DW_CFA_remember_state
  DW_CFA_def_cfa_offset: 56
  DW_CFA_advance_loc: 8 to 000000000043e18c
  DW_CFA_def_cfa_offset: 48
  DW_CFA_advance_loc: 1 to 000000000043e18d
  DW_CFA_def_cfa_offset: 40
  DW_CFA_advance_loc: 2 to 000000000043e18f
  DW_CFA_def_cfa_offset: 32
  DW_CFA_advance_loc: 2 to 000000000043e191
  DW_CFA_def_cfa_offset: 24
  DW_CFA_advance_loc: 2 to 000000000043e193
  DW_CFA_def_cfa_offset: 16
  DW_CFA_advance_loc: 2 to 000000000043e195
  DW_CFA_def_cfa_offset: 8
  DW_CFA_advance_loc: 5 to 000000000043e19a
  DW_CFA_restore_state
  DW_CFA_advance_loc: 56 to 000000000043e1d2
  DW_CFA_remember_state
  DW_CFA_def_cfa_offset: 56
  DW_CFA_advance_loc: 8 to 000000000043e1da
  DW_CFA_def_cfa_offset: 48
  DW_CFA_advance_loc: 1 to 000000000043e1db
  DW_CFA_def_cfa_offset: 40
  DW_CFA_advance_loc: 2 to 000000000043e1dd
  DW_CFA_def_cfa_offset: 32
  DW_CFA_advance_loc: 2 to 000000000043e1df
  DW_CFA_def_cfa_offset: 24
  DW_CFA_advance_loc: 2 to 000000000043e1e1
  DW_CFA_def_cfa_offset: 16
  DW_CFA_advance_loc: 2 to 000000000043e1e3
  DW_CFA_def_cfa_offset: 8
  DW_CFA_advance_loc: 5 to 000000000043e1e8
  DW_CFA_restore_state
  DW_CFA_advance_loc: 46 to 000000000043e216
  DW_CFA_remember_state
  DW_CFA_def_cfa_offset: 56
  DW_CFA_advance_loc: 8 to 000000000043e21e
  DW_CFA_def_cfa_offset: 48
  DW_CFA_advance_loc: 1 to 000000000043e21f
  DW_CFA_def_cfa_offset: 40
  DW_CFA_advance_loc: 2 to 000000000043e221
  DW_CFA_def_cfa_offset: 32
  DW_CFA_advance_loc: 2 to 000000000043e223
  DW_CFA_def_cfa_offset: 24
  DW_CFA_advance_loc: 2 to 000000000043e225
  DW_CFA_def_cfa_offset: 16
  DW_CFA_advance_loc: 2 to 000000000043e227
  DW_CFA_def_cfa_offset: 8
  DW_CFA_advance_loc: 5 to 000000000043e22c
  DW_CFA_restore_state
  DW_CFA_advance_loc: 56 to 000000000043e264
  DW_CFA_remember_state
  DW_CFA_def_cfa_offset: 56
  DW_CFA_advance_loc: 8 to 000000000043e26c
  DW_CFA_def_cfa_offset: 48
  DW_CFA_advance_loc: 1 to 000000000043e26d
  DW_CFA_def_cfa_offset: 40
  DW_CFA_advance_loc: 2 to 000000000043e26f
  DW_CFA_def_cfa_offset: 32
  DW_CFA_advance_loc: 2 to 000000000043e271
  DW_CFA_def_cfa_offset: 24
  DW_CFA_advance_loc: 2 to 000000000043e273
  DW_CFA_def_cfa_offset: 16
  DW_CFA_advance_loc: 2 to 000000000043e275
  DW_CFA_def_cfa_offset: 8
  DW_CFA_advance_loc: 5 to 000000000043e27a
  DW_CFA_restore_state
  DW_CFA_advance_loc: 46 to 000000000043e2a8
  DW_CFA_remember_state
  DW_CFA_def_cfa_offset: 56
  DW_CFA_advance_loc: 8 to 000000000043e2b0
  DW_CFA_def_cfa_offset: 48
  DW_CFA_advance_loc: 1 to 000000000043e2b1
  DW_CFA_def_cfa_offset: 40
  DW_CFA_advance_loc: 2 to 000000000043e2b3
  DW_CFA_def_cfa_offset: 32
  DW_CFA_advance_loc: 2 to 000000000043e2b5
  DW_CFA_def_cfa_offset: 24
  DW_CFA_advance_loc: 2 to 000000000043e2b7
  DW_CFA_def_cfa_offset: 16
  DW_CFA_advance_loc: 2 to 000000000043e2b9
  DW_CFA_def_cfa_offset: 8
  DW_CFA_advance_loc: 5 to 000000000043e2be
  DW_CFA_restore_state
  DW_CFA_advance_loc: 56 to 000000000043e2f6
  DW_CFA_remember_state
  DW_CFA_def_cfa_offset: 56
  DW_CFA_advance_loc: 8 to 000000000043e2fe
  DW_CFA_def_cfa_offset: 48
  DW_CFA_advance_loc: 1 to 000000000043e2ff
  DW_CFA_def_cfa_offset: 40
  DW_CFA_advance_loc: 2 to 000000000043e301
  DW_CFA_def_cfa_offset: 32
  DW_CFA_advance_loc: 2 to 000000000043e303
  DW_CFA_def_cfa_offset: 24
  DW_CFA_advance_loc: 2 to 000000000043e305
  DW_CFA_def_cfa_offset: 16
  DW_CFA_advance_loc: 2 to 000000000043e307
  DW_CFA_def_cfa_offset: 8
  DW_CFA_advance_loc: 5 to 000000000043e30c
  DW_CFA_restore_state
  DW_CFA_advance_loc: 46 to 000000000043e33a
  DW_CFA_remember_state
  DW_CFA_def_cfa_offset: 56
  DW_CFA_advance_loc: 8 to 000000000043e342
  DW_CFA_def_cfa_offset: 48
  DW_CFA_advance_loc: 1 to 000000000043e343
  DW_CFA_def_cfa_offset: 40
  DW_CFA_advance_loc: 2 to 000000000043e345
  DW_CFA_def_cfa_offset: 32
  DW_CFA_advance_loc: 2 to 000000000043e347
  DW_CFA_def_cfa_offset: 24
  DW_CFA_advance_loc: 2 to 000000000043e349
  DW_CFA_def_cfa_offset: 16
  DW_CFA_advance_loc: 2 to 000000000043e34b
  DW_CFA_def_cfa_offset: 8
  DW_CFA_advance_loc: 5 to 000000000043e350
  DW_CFA_restore_state
  DW_CFA_advance_loc: 56 to 000000000043e388
  DW_CFA_remember_state
  DW_CFA_def_cfa_offset: 56
  DW_CFA_advance_loc: 8 to 000000000043e390
  DW_CFA_def_cfa_offset: 48
  DW_CFA_advance_loc: 1 to 000000000043e391
  DW_CFA_def_cfa_offset: 40
  DW_CFA_advance_loc: 2 to 000000000043e393
  DW_CFA_def_cfa_offset: 32
  DW_CFA_advance_loc: 2 to 000000000043e395
  DW_CFA_def_cfa_offset: 24
  DW_CFA_advance_loc: 2 to 000000000043e397
  DW_CFA_def_cfa_offset: 16
  DW_CFA_advance_loc: 2 to 000000000043e399
  DW_CFA_def_cfa_offset: 8
  DW_CFA_advance_loc: 5 to 000000000043e39e
  DW_CFA_restore_state
  DW_CFA_advance_loc: 46 to 000000000043e3cc
  DW_CFA_remember_state
  DW_CFA_def_cfa_offset: 56
  DW_CFA_advance_loc: 8 to 000000000043e3d4
  DW_CFA_def_cfa_offset: 48
  DW_CFA_advance_loc: 1 to 000000000043e3d5
  DW_CFA_def_cfa_offset: 40
  DW_CFA_advance_loc: 2 to 000000000043e3d7
  DW_CFA_def_cfa_offset: 32
  DW_CFA_advance_loc: 2 to 000000000043e3d9
  DW_CFA_def_cfa_offset: 24
  DW_CFA_advance_loc: 2 to 000000000043e3db
  DW_CFA_def_cfa_offset: 16
  DW_CFA_advance_loc: 2 to 000000000043e3dd
  DW_CFA_def_cfa_offset: 8
  DW_CFA_advance_loc: 5 to 000000000043e3e2
  DW_CFA_restore_state
  DW_CFA_advance_loc: 56 to 000000000043e41a
  DW_CFA_remember_state
  DW_CFA_def_cfa_offset: 56
  DW_CFA_advance_loc: 8 to 000000000043e422
  DW_CFA_def_cfa_offset: 48
  DW_CFA_advance_loc: 1 to 000000000043e423
  DW_CFA_def_cfa_offset: 40
  DW_CFA_advance_loc: 2 to 000000000043e425
  DW_CFA_def_cfa_offset: 32
  DW_CFA_advance_loc: 2 to 000000000043e427
  DW_CFA_def_cfa_offset: 24
  DW_CFA_advance_loc: 2 to 000000000043e429
  DW_CFA_def_cfa_offset: 16
  DW_CFA_advance_loc: 2 to 000000000043e42b
  DW_CFA_def_cfa_offset: 8
  DW_CFA_advance_loc: 5 to 000000000043e430
  DW_CFA_restore_state
  DW_CFA_advance_loc: 46 to 000000000043e45e
  DW_CFA_remember_state
  DW_CFA_def_cfa_offset: 56
  DW_CFA_advance_loc: 8 to 000000000043e466
  DW_CFA_def_cfa_offset: 48
  DW_CFA_advance_loc: 1 to 000000000043e467
  DW_CFA_def_cfa_offset: 40
  DW_CFA_advance_loc: 2 to 000000000043e469
  DW_CFA_def_cfa_offset: 32
  DW_CFA_advance_loc: 2 to 000000000043e46b
  DW_CFA_def_cfa_offset: 24
  DW_CFA_advance_loc: 2 to 000000000043e46d
  DW_CFA_def_cfa_offset: 16
  DW_CFA_advance_loc: 2 to 000000000043e46f
  DW_CFA_def_cfa_offset: 8
  DW_CFA_advance_loc: 5 to 000000000043e474
  DW_CFA_restore_state
  DW_CFA_advance_loc: 56 to 000000000043e4ac
  DW_CFA_remember_state
  DW_CFA_def_cfa_offset: 56
  DW_CFA_advance_loc: 8 to 000000000043e4b4
  DW_CFA_def_cfa_offset: 48
  DW_CFA_advance_loc: 1 to 000000000043e4b5
  DW_CFA_def_cfa_offset: 40
  DW_CFA_advance_loc: 2 to 000000000043e4b7
  DW_CFA_def_cfa_offset: 32
  DW_CFA_advance_loc: 2 to 000000000043e4b9
  DW_CFA_def_cfa_offset: 24
  DW_CFA_advance_loc: 2 to 000000000043e4bb
  DW_CFA_def_cfa_offset: 16
  DW_CFA_advance_loc: 2 to 000000000043e4bd
  DW_CFA_def_cfa_offset: 8
  DW_CFA_advance_loc: 5 to 000000000043e4c2
  DW_CFA_restore_state
  DW_CFA_advance_loc: 46 to 000000000043e4f0
  DW_CFA_remember_state
  DW_CFA_def_cfa_offset: 56
  DW_CFA_advance_loc: 8 to 000000000043e4f8
  DW_CFA_def_cfa_offset: 48
  DW_CFA_advance_loc: 1 to 000000000043e4f9
  DW_CFA_def_cfa_offset: 40
  DW_CFA_advance_loc: 2 to 000000000043e4fb
  DW_CFA_def_cfa_offset: 32
  DW_CFA_advance_loc: 2 to 000000000043e4fd
  DW_CFA_def_cfa_offset: 24
  DW_CFA_advance_loc: 2 to 000000000043e4ff
  DW_CFA_def_cfa_offset: 16
  DW_CFA_advance_loc: 2 to 000000000043e501
  DW_CFA_def_cfa_offset: 8
  DW_CFA_advance_loc: 5 to 000000000043e506
  DW_CFA_restore_state
  DW_CFA_advance_loc: 56 to 000000000043e53e
  DW_CFA_remember_state
  DW_CFA_def_cfa_offset: 56
  DW_CFA_advance_loc: 8 to 000000000043e546
  DW_CFA_def_cfa_offset: 48
  DW_CFA_advance_loc: 1 to 000000000043e547
  DW_CFA_def_cfa_offset: 40
  DW_CFA_advance_loc: 2 to 000000000043e549
  DW_CFA_def_cfa_offset: 32
  DW_CFA_advance_loc: 2 to 000000000043e54b
  DW_CFA_def_cfa_offset: 24
  DW_CFA_advance_loc: 2 to 000000000043e54d
  DW_CFA_def_cfa_offset: 16
  DW_CFA_advance_loc: 2 to 000000000043e54f
  DW_CFA_def_cfa_offset: 8
  DW_CFA_advance_loc: 5 to 000000000043e554
  DW_CFA_restore_state
  DW_CFA_advance_loc: 46 to 000000000043e582
  DW_CFA_remember_state
  DW_CFA_def_cfa_offset: 56
  DW_CFA_advance_loc: 8 to 000000000043e58a
  DW_CFA_def_cfa_offset: 48
  DW_CFA_advance_loc: 1 to 000000000043e58b
  DW_CFA_def_cfa_offset: 40
  DW_CFA_advance_loc: 2 to 000000000043e58d
  DW_CFA_def_cfa_offset: 32
  DW_CFA_advance_loc: 2 to 000000000043e58f
  DW_CFA_def_cfa_offset: 24
  DW_CFA_advance_loc: 2 to 000000000043e591
  DW_CFA_def_cfa_offset: 16
  DW_CFA_advance_loc: 2 to 000000000043e593
  DW_CFA_def_cfa_offset: 8
  DW_CFA_advance_loc: 5 to 000000000043e598
  DW_CFA_restore_state
  DW_CFA_advance_loc: 56 to 000000000043e5d0
  DW_CFA_remember_state
  DW_CFA_def_cfa_offset: 56
  DW_CFA_advance_loc: 8 to 000000000043e5d8
  DW_CFA_def_cfa_offset: 48
  DW_CFA_advance_loc: 1 to 000000000043e5d9
  DW_CFA_def_cfa_offset: 40
  DW_CFA_advance_loc: 2 to 000000000043e5db
  DW_CFA_def_cfa_offset: 32
  DW_CFA_advance_loc: 2 to 000000000043e5dd
  DW_CFA_def_cfa_offset: 24
  DW_CFA_advance_loc: 2 to 000000000043e5df
  DW_CFA_def_cfa_offset: 16
  DW_CFA_advance_loc: 2 to 000000000043e5e1
  DW_CFA_def_cfa_offset: 8
  DW_CFA_advance_loc: 5 to 000000000043e5e6
  DW_CFA_restore_state
  DW_CFA_advance_loc: 46 to 000000000043e614
  DW_CFA_remember_state
  DW_CFA_def_cfa_offset: 56
  DW_CFA_advance_loc: 8 to 000000000043e61c
  DW_CFA_def_cfa_offset: 48
  DW_CFA_advance_loc: 1 to 000000000043e61d
  DW_CFA_def_cfa_offset: 40
  DW_CFA_advance_loc: 2 to 000000000043e61f
  DW_CFA_def_cfa_offset: 32
  DW_CFA_advance_loc: 2 to 000000000043e621
  DW_CFA_def_cfa_offset: 24
  DW_CFA_advance_loc: 2 to 000000000043e623
  DW_CFA_def_cfa_offset: 16
  DW_CFA_advance_loc: 2 to 000000000043e625
  DW_CFA_def_cfa_offset: 8
  DW_CFA_advance_loc: 5 to 000000000043e62a
  DW_CFA_restore_state
  DW_CFA_advance_loc: 56 to 000000000043e662
  DW_CFA_remember_state
  DW_CFA_def_cfa_offset: 56
  DW_CFA_advance_loc: 8 to 000000000043e66a
  DW_CFA_def_cfa_offset: 48
  DW_CFA_advance_loc: 1 to 000000000043e66b
  DW_CFA_def_cfa_offset: 40
  DW_CFA_advance_loc: 2 to 000000000043e66d
  DW_CFA_def_cfa_offset: 32
  DW_CFA_advance_loc: 2 to 000000000043e66f
  DW_CFA_def_cfa_offset: 24
  DW_CFA_advance_loc: 2 to 000000000043e671
  DW_CFA_def_cfa_offset: 16
  DW_CFA_advance_loc: 2 to 000000000043e673
  DW_CFA_def_cfa_offset: 8
  DW_CFA_advance_loc: 5 to 000000000043e678
  DW_CFA_restore_state
  DW_CFA_advance_loc: 46 to 000000000043e6a6
  DW_CFA_remember_state
  DW_CFA_def_cfa_offset: 56
  DW_CFA_advance_loc: 8 to 000000000043e6ae
  DW_CFA_def_cfa_offset: 48
  DW_CFA_advance_loc: 1 to 000000000043e6af
  DW_CFA_def_cfa_offset: 40
  DW_CFA_advance_loc: 2 to 000000000043e6b1
  DW_CFA_def_cfa_offset: 32
  DW_CFA_advance_loc: 2 to 000000000043e6b3
  DW_CFA_def_cfa_offset: 24
  DW_CFA_advance_loc: 2 to 000000000043e6b5
  DW_CFA_def_cfa_offset: 16
  DW_CFA_advance_loc: 2 to 000000000043e6b7
  DW_CFA_def_cfa_offset: 8
  DW_CFA_advance_loc: 5 to 000000000043e6bc
  DW_CFA_restore_state
  DW_CFA_advance_loc: 56 to 000000000043e6f4
  DW_CFA_remember_state
  DW_CFA_def_cfa_offset: 56
  DW_CFA_advance_loc: 8 to 000000000043e6fc
  DW_CFA_def_cfa_offset: 48
  DW_CFA_advance_loc: 1 to 000000000043e6fd
  DW_CFA_def_cfa_offset: 40
  DW_CFA_advance_loc: 2 to 000000000043e6ff
  DW_CFA_def_cfa_offset: 32
  DW_CFA_advance_loc: 2 to 000000000043e701
  DW_CFA_def_cfa_offset: 24
  DW_CFA_advance_loc: 2 to 000000000043e703
  DW_CFA_def_cfa_offset: 16
  DW_CFA_advance_loc: 2 to 000000000043e705
  DW_CFA_def_cfa_offset: 8
  DW_CFA_advance_loc: 5 to 000000000043e70a
  DW_CFA_restore_state
  DW_CFA_advance_loc: 46 to 000000000043e738
  DW_CFA_remember_state
  DW_CFA_def_cfa_offset: 56
  DW_CFA_advance_loc: 8 to 000000000043e740
  DW_CFA_def_cfa_offset: 48
  DW_CFA_advance_loc: 1 to 000000000043e741
  DW_CFA_def_cfa_offset: 40
  DW_CFA_advance_loc: 2 to 000000000043e743
  DW_CFA_def_cfa_offset: 32
  DW_CFA_advance_loc: 2 to 000000000043e745
  DW_CFA_def_cfa_offset: 24
  DW_CFA_advance_loc: 2 to 000000000043e747
  DW_CFA_def_cfa_offset: 16
  DW_CFA_advance_loc: 2 to 000000000043e749
  DW_CFA_def_cfa_offset: 8
  DW_CFA_advance_loc: 5 to 000000000043e74e
  DW_CFA_restore_state
  DW_CFA_advance_loc: 56 to 000000000043e786
  DW_CFA_remember_state
  DW_CFA_def_cfa_offset: 56
  DW_CFA_advance_loc: 8 to 000000000043e78e
  DW_CFA_def_cfa_offset: 48
  DW_CFA_advance_loc: 1 to 000000000043e78f
  DW_CFA_def_cfa_offset: 40
  DW_CFA_advance_loc: 2 to 000000000043e791
  DW_CFA_def_cfa_offset: 32
  DW_CFA_advance_loc: 2 to 000000000043e793
  DW_CFA_def_cfa_offset: 24
  DW_CFA_advance_loc: 2 to 000000000043e795
  DW_CFA_def_cfa_offset: 16
  DW_CFA_advance_loc: 2 to 000000000043e797
  DW_CFA_def_cfa_offset: 8
  DW_CFA_advance_loc: 5 to 000000000043e79c
  DW_CFA_restore_state
  DW_CFA_advance_loc: 46 to 000000000043e7ca
  DW_CFA_remember_state
  DW_CFA_def_cfa_offset: 56
  DW_CFA_advance_loc: 8 to 000000000043e7d2
  DW_CFA_def_cfa_offset: 48
  DW_CFA_advance_loc: 1 to 000000000043e7d3
  DW_CFA_def_cfa_offset: 40
  DW_CFA_advance_loc: 2 to 000000000043e7d5
  DW_CFA_def_cfa_offset: 32
  DW_CFA_advance_loc: 2 to 000000000043e7d7
  DW_CFA_def_cfa_offset: 24
  DW_CFA_advance_loc: 2 to 000000000043e7d9
  DW_CFA_def_cfa_offset: 16
  DW_CFA_advance_loc: 2 to 000000000043e7db
  DW_CFA_def_cfa_offset: 8
  DW_CFA_advance_loc: 5 to 000000000043e7e0
  DW_CFA_restore_state
  DW_CFA_advance_loc: 56 to 000000000043e818
  DW_CFA_remember_state
  DW_CFA_def_cfa_offset: 56
  DW_CFA_advance_loc: 8 to 000000000043e820
  DW_CFA_def_cfa_offset: 48
  DW_CFA_advance_loc: 1 to 000000000043e821
  DW_CFA_def_cfa_offset: 40
  DW_CFA_advance_loc: 2 to 000000000043e823
  DW_CFA_def_cfa_offset: 32
  DW_CFA_advance_loc: 2 to 000000000043e825
  DW_CFA_def_cfa_offset: 24
  DW_CFA_advance_loc: 2 to 000000000043e827
  DW_CFA_def_cfa_offset: 16
  DW_CFA_advance_loc: 2 to 000000000043e829
  DW_CFA_def_cfa_offset: 8
  DW_CFA_advance_loc: 5 to 000000000043e82e
  DW_CFA_restore_state
  DW_CFA_advance_loc: 46 to 000000000043e85c
  DW_CFA_remember_state
  DW_CFA_def_cfa_offset: 56
  DW_CFA_advance_loc: 8 to 000000000043e864
  DW_CFA_def_cfa_offset: 48
  DW_CFA_advance_loc: 1 to 000000000043e865
  DW_CFA_def_cfa_offset: 40
  DW_CFA_advance_loc: 2 to 000000000043e867
  DW_CFA_def_cfa_offset: 32
  DW_CFA_advance_loc: 2 to 000000000043e869
  DW_CFA_def_cfa_offset: 24
  DW_CFA_advance_loc: 2 to 000000000043e86b
  DW_CFA_def_cfa_offset: 16
  DW_CFA_advance_loc: 2 to 000000000043e86d
  DW_CFA_def_cfa_offset: 8
  DW_CFA_advance_loc: 5 to 000000000043e872
  DW_CFA_restore_state
  DW_CFA_advance_loc: 56 to 000000000043e8aa
  DW_CFA_remember_state
  DW_CFA_def_cfa_offset: 56
  DW_CFA_advance_loc: 8 to 000000000043e8b2
  DW_CFA_def_cfa_offset: 48
  DW_CFA_advance_loc: 1 to 000000000043e8b3
  DW_CFA_def_cfa_offset: 40
  DW_CFA_advance_loc: 2 to 000000000043e8b5
  DW_CFA_def_cfa_offset: 32
  DW_CFA_advance_loc: 2 to 000000000043e8b7
  DW_CFA_def_cfa_offset: 24
  DW_CFA_advance_loc: 2 to 000000000043e8b9
  DW_CFA_def_cfa_offset: 16
  DW_CFA_advance_loc: 2 to 000000000043e8bb
  DW_CFA_def_cfa_offset: 8
  DW_CFA_advance_loc: 5 to 000000000043e8c0
  DW_CFA_restore_state
  DW_CFA_advance_loc: 46 to 000000000043e8ee
  DW_CFA_remember_state
  DW_CFA_def_cfa_offset: 56
  DW_CFA_advance_loc: 8 to 000000000043e8f6
  DW_CFA_def_cfa_offset: 48
  DW_CFA_advance_loc: 1 to 000000000043e8f7
  DW_CFA_def_cfa_offset: 40
  DW_CFA_advance_loc: 2 to 000000000043e8f9
  DW_CFA_def_cfa_offset: 32
  DW_CFA_advance_loc: 2 to 000000000043e8fb
  DW_CFA_def_cfa_offset: 24
  DW_CFA_advance_loc: 2 to 000000000043e8fd
  DW_CFA_def_cfa_offset: 16
  DW_CFA_advance_loc: 2 to 000000000043e8ff
  DW_CFA_def_cfa_offset: 8
  DW_CFA_advance_loc: 5 to 000000000043e904
  DW_CFA_restore_state
  DW_CFA_advance_loc: 56 to 000000000043e93c
  DW_CFA_remember_state
  DW_CFA_def_cfa_offset: 56
  DW_CFA_advance_loc: 8 to 000000000043e944
  DW_CFA_def_cfa_offset: 48
  DW_CFA_advance_loc: 1 to 000000000043e945
  DW_CFA_def_cfa_offset: 40
  DW_CFA_advance_loc: 2 to 000000000043e947
  DW_CFA_def_cfa_offset: 32
  DW_CFA_advance_loc: 2 to 000000000043e949
  DW_CFA_def_cfa_offset: 24
  DW_CFA_advance_loc: 2 to 000000000043e94b
  DW_CFA_def_cfa_offset: 16
  DW_CFA_advance_loc: 2 to 000000000043e94d
  DW_CFA_def_cfa_offset: 8
  DW_CFA_advance_loc: 5 to 000000000043e952
  DW_CFA_restore_state
  DW_CFA_advance_loc: 46 to 000000000043e980
  DW_CFA_remember_state
  DW_CFA_def_cfa_offset: 56
  DW_CFA_advance_loc: 8 to 000000000043e988
  DW_CFA_def_cfa_offset: 48
  DW_CFA_advance_loc: 1 to 000000000043e989
  DW_CFA_def_cfa_offset: 40
  DW_CFA_advance_loc: 2 to 000000000043e98b
  DW_CFA_def_cfa_offset: 32
  DW_CFA_advance_loc: 2 to 000000000043e98d
  DW_CFA_def_cfa_offset: 24
  DW_CFA_advance_loc: 2 to 000000000043e98f
  DW_CFA_def_cfa_offset: 16
  DW_CFA_advance_loc: 2 to 000000000043e991
  DW_CFA_def_cfa_offset: 8
  DW_CFA_advance_loc: 5 to 000000000043e996
  DW_CFA_restore_state
  DW_CFA_advance_loc: 56 to 000000000043e9ce
  DW_CFA_remember_state
  DW_CFA_def_cfa_offset: 56
  DW_CFA_advance_loc: 8 to 000000000043e9d6
  DW_CFA_def_cfa_offset: 48
  DW_CFA_advance_loc: 1 to 000000000043e9d7
  DW_CFA_def_cfa_offset: 40
  DW_CFA_advance_loc: 2 to 000000000043e9d9
  DW_CFA_def_cfa_offset: 32
  DW_CFA_advance_loc: 2 to 000000000043e9db
  DW_CFA_def_cfa_offset: 24
  DW_CFA_advance_loc: 2 to 000000000043e9dd
  DW_CFA_def_cfa_offset: 16
  DW_CFA_advance_loc: 2 to 000000000043e9df
  DW_CFA_def_cfa_offset: 8
  DW_CFA_advance_loc: 5 to 000000000043e9e4
  DW_CFA_restore_state
  DW_CFA_advance_loc: 46 to 000000000043ea12
  DW_CFA_remember_state
  DW_CFA_def_cfa_offset: 56
  DW_CFA_advance_loc: 8 to 000000000043ea1a
  DW_CFA_def_cfa_offset: 48
  DW_CFA_advance_loc: 1 to 000000000043ea1b
  DW_CFA_def_cfa_offset: 40
  DW_CFA_advance_loc: 2 to 000000000043ea1d
  DW_CFA_def_cfa_offset: 32
  DW_CFA_advance_loc: 2 to 000000000043ea1f
  DW_CFA_def_cfa_offset: 24
  DW_CFA_advance_loc: 2 to 000000000043ea21
  DW_CFA_def_cfa_offset: 16
  DW_CFA_advance_loc: 2 to 000000000043ea23
  DW_CFA_def_cfa_offset: 8
  DW_CFA_advance_loc: 5 to 000000000043ea28
  DW_CFA_restore_state
  DW_CFA_advance_loc: 56 to 000000000043ea60
  DW_CFA_remember_state
  DW_CFA_def_cfa_offset: 56
  DW_CFA_advance_loc: 8 to 000000000043ea68
  DW_CFA_def_cfa_offset: 48
  DW_CFA_advance_loc: 1 to 000000000043ea69
  DW_CFA_def_cfa_offset: 40
  DW_CFA_advance_loc: 2 to 000000000043ea6b
  DW_CFA_def_cfa_offset: 32
  DW_CFA_advance_loc: 2 to 000000000043ea6d
  DW_CFA_def_cfa_offset: 24
  DW_CFA_advance_loc: 2 to 000000000043ea6f
  DW_CFA_def_cfa_offset: 16
  DW_CFA_advance_loc: 2 to 000000000043ea71
  DW_CFA_def_cfa_offset: 8
  DW_CFA_advance_loc: 5 to 000000000043ea76
  DW_CFA_restore_state
  DW_CFA_advance_loc: 46 to 000000000043eaa4
  DW_CFA_remember_state
  DW_CFA_def_cfa_offset: 56
  DW_CFA_advance_loc: 8 to 000000000043eaac
  DW_CFA_def_cfa_offset: 48
  DW_CFA_advance_loc: 1 to 000000000043eaad
  DW_CFA_def_cfa_offset: 40
  DW_CFA_advance_loc: 2 to 000000000043eaaf
  DW_CFA_def_cfa_offset: 32
  DW_CFA_advance_loc: 2 to 000000000043eab1
  DW_CFA_def_cfa_offset: 24
  DW_CFA_advance_loc: 2 to 000000000043eab3
  DW_CFA_def_cfa_offset: 16
  DW_CFA_advance_loc: 2 to 000000000043eab5
  DW_CFA_def_cfa_offset: 8
  DW_CFA_advance_loc: 5 to 000000000043eaba
  DW_CFA_restore_state
  DW_CFA_advance_loc: 56 to 000000000043eaf2
  DW_CFA_remember_state
  DW_CFA_def_cfa_offset: 56
  DW_CFA_advance_loc: 8 to 000000000043eafa
  DW_CFA_def_cfa_offset: 48
  DW_CFA_advance_loc: 1 to 000000000043eafb
  DW_CFA_def_cfa_offset: 40
  DW_CFA_advance_loc: 2 to 000000000043eafd
  DW_CFA_def_cfa_offset: 32
  DW_CFA_advance_loc: 2 to 000000000043eaff
  DW_CFA_def_cfa_offset: 24
  DW_CFA_advance_loc: 2 to 000000000043eb01
  DW_CFA_def_cfa_offset: 16
  DW_CFA_advance_loc: 2 to 000000000043eb03
  DW_CFA_def_cfa_offset: 8
  DW_CFA_advance_loc: 5 to 000000000043eb08
  DW_CFA_restore_state
  DW_CFA_advance_loc: 46 to 000000000043eb36
  DW_CFA_remember_state
  DW_CFA_def_cfa_offset: 56
  DW_CFA_advance_loc: 8 to 000000000043eb3e
  DW_CFA_def_cfa_offset: 48
  DW_CFA_advance_loc: 1 to 000000000043eb3f
  DW_CFA_def_cfa_offset: 40
  DW_CFA_advance_loc: 2 to 000000000043eb41
  DW_CFA_def_cfa_offset: 32
  DW_CFA_advance_loc: 2 to 000000000043eb43
  DW_CFA_def_cfa_offset: 24
  DW_CFA_advance_loc: 2 to 000000000043eb45
  DW_CFA_def_cfa_offset: 16
  DW_CFA_advance_loc: 2 to 000000000043eb47
  DW_CFA_def_cfa_offset: 8
  DW_CFA_advance_loc: 5 to 000000000043eb4c
  DW_CFA_restore_state
  DW_CFA_advance_loc: 56 to 000000000043eb84
  DW_CFA_remember_state
  DW_CFA_def_cfa_offset: 56
  DW_CFA_advance_loc: 8 to 000000000043eb8c
  DW_CFA_def_cfa_offset: 48
  DW_CFA_advance_loc: 1 to 000000000043eb8d
  DW_CFA_def_cfa_offset: 40
  DW_CFA_advance_loc: 2 to 000000000043eb8f
  DW_CFA_def_cfa_offset: 32
  DW_CFA_advance_loc: 2 to 000000000043eb91
  DW_CFA_def_cfa_offset: 24
  DW_CFA_advance_loc: 2 to 000000000043eb93
  DW_CFA_def_cfa_offset: 16
  DW_CFA_advance_loc: 2 to 000000000043eb95
  DW_CFA_def_cfa_offset: 8
  DW_CFA_advance_loc: 5 to 000000000043eb9a
  DW_CFA_restore_state
  DW_CFA_advance_loc: 46 to 000000000043ebc8
  DW_CFA_remember_state
  DW_CFA_def_cfa_offset: 56
  DW_CFA_advance_loc: 8 to 000000000043ebd0
  DW_CFA_def_cfa_offset: 48
  DW_CFA_advance_loc: 1 to 000000000043ebd1
  DW_CFA_def_cfa_offset: 40
  DW_CFA_advance_loc: 2 to 000000000043ebd3
  DW_CFA_def_cfa_offset: 32
  DW_CFA_advance_loc: 2 to 000000000043ebd5
  DW_CFA_def_cfa_offset: 24
  DW_CFA_advance_loc: 2 to 000000000043ebd7
  DW_CFA_def_cfa_offset: 16
  DW_CFA_advance_loc: 2 to 000000000043ebd9
  DW_CFA_def_cfa_offset: 8
  DW_CFA_advance_loc: 5 to 000000000043ebde
  DW_CFA_restore_state
  DW_CFA_advance_loc: 56 to 000000000043ec16
  DW_CFA_remember_state
  DW_CFA_def_cfa_offset: 56
  DW_CFA_advance_loc: 8 to 000000000043ec1e
  DW_CFA_def_cfa_offset: 48
  DW_CFA_advance_loc: 1 to 000000000043ec1f
  DW_CFA_def_cfa_offset: 40
  DW_CFA_advance_loc: 2 to 000000000043ec21
  DW_CFA_def_cfa_offset: 32
  DW_CFA_advance_loc: 2 to 000000000043ec23
  DW_CFA_def_cfa_offset: 24
  DW_CFA_advance_loc: 2 to 000000000043ec25
  DW_CFA_def_cfa_offset: 16
  DW_CFA_advance_loc: 2 to 000000000043ec27
  DW_CFA_def_cfa_offset: 8
  DW_CFA_advance_loc: 5 to 000000000043ec2c
  DW_CFA_restore_state
  DW_CFA_advance_loc: 46 to 000000000043ec5a
  DW_CFA_remember_state
  DW_CFA_def_cfa_offset: 56
  DW_CFA_advance_loc: 8 to 000000000043ec62
  DW_CFA_def_cfa_offset: 48
  DW_CFA_advance_loc: 1 to 000000000043ec63
  DW_CFA_def_cfa_offset: 40
  DW_CFA_advance_loc: 2 to 000000000043ec65
  DW_CFA_def_cfa_offset: 32
  DW_CFA_advance_loc: 2 to 000000000043ec67
  DW_CFA_def_cfa_offset: 24
  DW_CFA_advance_loc: 2 to 000000000043ec69
  DW_CFA_def_cfa_offset: 16
  DW_CFA_advance_loc: 2 to 000000000043ec6b
  DW_CFA_def_cfa_offset: 8
  DW_CFA_advance_loc: 5 to 000000000043ec70
  DW_CFA_restore_state
  DW_CFA_advance_loc: 56 to 000000000043eca8
  DW_CFA_remember_state
  DW_CFA_def_cfa_offset: 56
  DW_CFA_advance_loc: 8 to 000000000043ecb0
  DW_CFA_def_cfa_offset: 48
  DW_CFA_advance_loc: 1 to 000000000043ecb1
  DW_CFA_def_cfa_offset: 40
  DW_CFA_advance_loc: 2 to 000000000043ecb3
  DW_CFA_def_cfa_offset: 32
  DW_CFA_advance_loc: 2 to 000000000043ecb5
  DW_CFA_def_cfa_offset: 24
  DW_CFA_advance_loc: 2 to 000000000043ecb7
  DW_CFA_def_cfa_offset: 16
  DW_CFA_advance_loc: 2 to 000000000043ecb9
  DW_CFA_def_cfa_offset: 8
  DW_CFA_advance_loc: 5 to 000000000043ecbe
  DW_CFA_restore_state
  DW_CFA_advance_loc: 46 to 000000000043ecec
  DW_CFA_remember_state
  DW_CFA_def_cfa_offset: 56
  DW_CFA_advance_loc: 8 to 000000000043ecf4
  DW_CFA_def_cfa_offset: 48
  DW_CFA_advance_loc: 1 to 000000000043ecf5
  DW_CFA_def_cfa_offset: 40
  DW_CFA_advance_loc: 2 to 000000000043ecf7
  DW_CFA_def_cfa_offset: 32
  DW_CFA_advance_loc: 2 to 000000000043ecf9
  DW_CFA_def_cfa_offset: 24
  DW_CFA_advance_loc: 2 to 000000000043ecfb
  DW_CFA_def_cfa_offset: 16
  DW_CFA_advance_loc: 2 to 000000000043ecfd
  DW_CFA_def_cfa_offset: 8
  DW_CFA_advance_loc: 5 to 000000000043ed02
  DW_CFA_restore_state
  DW_CFA_advance_loc: 56 to 000000000043ed3a
  DW_CFA_remember_state
  DW_CFA_def_cfa_offset: 56
  DW_CFA_advance_loc: 8 to 000000000043ed42
  DW_CFA_def_cfa_offset: 48
  DW_CFA_advance_loc: 1 to 000000000043ed43
  DW_CFA_def_cfa_offset: 40
  DW_CFA_advance_loc: 2 to 000000000043ed45
  DW_CFA_def_cfa_offset: 32
  DW_CFA_advance_loc: 2 to 000000000043ed47
  DW_CFA_def_cfa_offset: 24
  DW_CFA_advance_loc: 2 to 000000000043ed49
  DW_CFA_def_cfa_offset: 16
  DW_CFA_advance_loc: 2 to 000000000043ed4b
  DW_CFA_def_cfa_offset: 8
  DW_CFA_advance_loc: 5 to 000000000043ed50
  DW_CFA_restore_state
  DW_CFA_advance_loc: 46 to 000000000043ed7e
  DW_CFA_remember_state
  DW_CFA_def_cfa_offset: 56
  DW_CFA_advance_loc: 8 to 000000000043ed86
  DW_CFA_def_cfa_offset: 48
  DW_CFA_advance_loc: 1 to 000000000043ed87
  DW_CFA_def_cfa_offset: 40
  DW_CFA_advance_loc: 2 to 000000000043ed89
  DW_CFA_def_cfa_offset: 32
  DW_CFA_advance_loc: 2 to 000000000043ed8b
  DW_CFA_def_cfa_offset: 24
  DW_CFA_advance_loc: 2 to 000000000043ed8d
