  4057db:	e9 40 f8 ff ff       	jmp    405020 <_init+0x20>

00000000004057e0 <glTexImage2D@plt>:
  4057e0:	ff 25 0a 6c 07 00    	jmp    QWORD PTR [rip+0x76c0a]        # 47c3f0 <glTexImage2D>
  4057e6:	68 7b 00 00 00       	push   0x7b
  4057eb:	e9 30 f8 ff ff       	jmp    405020 <_init+0x20>

00000000004057f0 <XSync@plt>:
  4057f0:	ff 25 02 6c 07 00    	jmp    QWORD PTR [rip+0x76c02]        # 47c3f8 <XSync>
  4057f6:	68 7c 00 00 00       	push   0x7c
  4057fb:	e9 20 f8 ff ff       	jmp    405020 <_init+0x20>

0000000000405800 <pthread_mutexattr_settype@plt>:
  405800:	ff 25 fa 6b 07 00    	jmp    QWORD PTR [rip+0x76bfa]        # 47c400 <pthread_mutexattr_settype@GLIBC_2.2.5>
  405806:	68 7d 00 00 00       	push   0x7d
  40580b:	e9 10 f8 ff ff       	jmp    405020 <_init+0x20>

0000000000405810 <sincos@plt>:
  405810:	ff 25 f2 6b 07 00    	jmp    QWORD PTR [rip+0x76bf2]        # 47c408 <sincos@GLIBC_2.2.5>
  405816:	68 7e 00 00 00       	push   0x7e
  40581b:	e9 00 f8 ff ff       	jmp    405020 <_init+0x20>

0000000000405820 <XStoreColors@plt>:
  405820:	ff 25 ea 6b 07 00    	jmp    QWORD PTR [rip+0x76bea]        # 47c410 <XStoreColors>
  405826:	68 7f 00 00 00       	push   0x7f
  40582b:	e9 f0 f7 ff ff       	jmp    405020 <_init+0x20>

0000000000405830 <XMaskEvent@plt>:
  405830:	ff 25 e2 6b 07 00    	jmp    QWORD PTR [rip+0x76be2]        # 47c418 <XMaskEvent>
  405836:	68 80 00 00 00       	push   0x80
  40583b:	e9 e0 f7 ff ff       	jmp    405020 <_init+0x20>

0000000000405840 <strncasecmp@plt>:
  405840:	ff 25 da 6b 07 00    	jmp    QWORD PTR [rip+0x76bda]        # 47c420 <strncasecmp@GLIBC_2.2.5>
  405846:	68 81 00 00 00       	push   0x81
  40584b:	e9 d0 f7 ff ff       	jmp    405020 <_init+0x20>

0000000000405850 <XSendEvent@plt>:
  405850:	ff 25 d2 6b 07 00    	jmp    QWORD PTR [rip+0x76bd2]        # 47c428 <XSendEvent>
  405856:	68 82 00 00 00       	push   0x82
  40585b:	e9 c0 f7 ff ff       	jmp    405020 <_init+0x20>

0000000000405860 <__stack_chk_fail@plt>:
  405860:	ff 25 ca 6b 07 00    	jmp    QWORD PTR [rip+0x76bca]        # 47c430 <__stack_chk_fail@GLIBC_2.4>
  405866:	68 83 00 00 00       	push   0x83
  40586b:	e9 b0 f7 ff ff       	jmp    405020 <_init+0x20>

0000000000405870 <XWarpPointer@plt>:
  405870:	ff 25 c2 6b 07 00    	jmp    QWORD PTR [rip+0x76bc2]        # 47c438 <XWarpPointer>
  405876:	68 84 00 00 00       	push   0x84
  40587b:	e9 a0 f7 ff ff       	jmp    405020 <_init+0x20>

0000000000405880 <XRRConfigSizes@plt>:
  405880:	ff 25 ba 6b 07 00    	jmp    QWORD PTR [rip+0x76bba]        # 47c440 <XRRConfigSizes>
  405886:	68 85 00 00 00       	push   0x85
  40588b:	e9 90 f7 ff ff       	jmp    405020 <_init+0x20>

0000000000405890 <XPutImage@plt>:
  405890:	ff 25 b2 6b 07 00    	jmp    QWORD PTR [rip+0x76bb2]        # 47c448 <XPutImage>
  405896:	68 86 00 00 00       	push   0x86
  40589b:	e9 80 f7 ff ff       	jmp    405020 <_init+0x20>

00000000004058a0 <__memset_chk@plt>:
  4058a0:	ff 25 aa 6b 07 00    	jmp    QWORD PTR [rip+0x76baa]        # 47c450 <__memset_chk@GLIBC_2.3.4>
  4058a6:	68 87 00 00 00       	push   0x87
  4058ab:	e9 70 f7 ff ff       	jmp    405020 <_init+0x20>

00000000004058b0 <XShmAttach@plt>:
  4058b0:	ff 25 a2 6b 07 00    	jmp    QWORD PTR [rip+0x76ba2]        # 47c458 <XShmAttach>
  4058b6:	68 88 00 00 00       	push   0x88
  4058bb:	e9 60 f7 ff ff       	jmp    405020 <_init+0x20>

00000000004058c0 <XPeekEvent@plt>:
  4058c0:	ff 25 9a 6b 07 00    	jmp    QWORD PTR [rip+0x76b9a]        # 47c460 <XPeekEvent>
  4058c6:	68 89 00 00 00       	push   0x89
  4058cb:	e9 50 f7 ff ff       	jmp    405020 <_init+0x20>

00000000004058d0 <XShapeCombineMask@plt>:
  4058d0:	ff 25 92 6b 07 00    	jmp    QWORD PTR [rip+0x76b92]        # 47c468 <XShapeCombineMask>
  4058d6:	68 8a 00 00 00       	push   0x8a
  4058db:	e9 40 f7 ff ff       	jmp    405020 <_init+0x20>

00000000004058e0 <XInitThreads@plt>:
  4058e0:	ff 25 8a 6b 07 00    	jmp    QWORD PTR [rip+0x76b8a]        # 47c470 <XInitThreads>
  4058e6:	68 8b 00 00 00       	push   0x8b
  4058eb:	e9 30 f7 ff ff       	jmp    405020 <_init+0x20>

00000000004058f0 <tgoto@plt>:
  4058f0:	ff 25 82 6b 07 00    	jmp    QWORD PTR [rip+0x76b82]        # 47c478 <tgoto>
  4058f6:	68 8c 00 00 00       	push   0x8c
  4058fb:	e9 20 f7 ff ff       	jmp    405020 <_init+0x20>

0000000000405900 <strcpy@plt>:
  405900:	ff 25 7a 6b 07 00    	jmp    QWORD PTR [rip+0x76b7a]        # 47c480 <strcpy@GLIBC_2.2.5>
  405906:	68 8d 00 00 00       	push   0x8d
  40590b:	e9 10 f7 ff ff       	jmp    405020 <_init+0x20>

0000000000405910 <XRRConfigCurrentConfiguration@plt>:
  405910:	ff 25 72 6b 07 00    	jmp    QWORD PTR [rip+0x76b72]        # 47c488 <XRRConfigCurrentConfiguration>
  405916:	68 8e 00 00 00       	push   0x8e
  40591b:	e9 00 f7 ff ff       	jmp    405020 <_init+0x20>

0000000000405920 <pthread_cond_wait@plt>:
  405920:	ff 25 6a 6b 07 00    	jmp    QWORD PTR [rip+0x76b6a]        # 47c490 <pthread_cond_wait@GLIBC_2.3.2>
  405926:	68 8f 00 00 00       	push   0x8f
  40592b:	e9 f0 f6 ff ff       	jmp    405020 <_init+0x20>

0000000000405930 <__ctype_tolower_loc@plt>:
  405930:	ff 25 62 6b 07 00    	jmp    QWORD PTR [rip+0x76b62]        # 47c498 <__ctype_tolower_loc@GLIBC_2.3>
  405936:	68 90 00 00 00       	push   0x90
  40593b:	e9 e0 f6 ff ff       	jmp    405020 <_init+0x20>

0000000000405940 <memcmp@plt>:
  405940:	ff 25 5a 6b 07 00    	jmp    QWORD PTR [rip+0x76b5a]        # 47c4a0 <memcmp@GLIBC_2.2.5>
  405946:	68 91 00 00 00       	push   0x91
  40594b:	e9 d0 f6 ff ff       	jmp    405020 <_init+0x20>

0000000000405950 <XDefineCursor@plt>:
  405950:	ff 25 52 6b 07 00    	jmp    QWORD PTR [rip+0x76b52]        # 47c4a8 <XDefineCursor>
  405956:	68 92 00 00 00       	push   0x92
  40595b:	e9 c0 f6 ff ff       	jmp    405020 <_init+0x20>

0000000000405960 <calloc@plt>:
  405960:	ff 25 4a 6b 07 00    	jmp    QWORD PTR [rip+0x76b4a]        # 47c4b0 <calloc@GLIBC_2.2.5>
  405966:	68 93 00 00 00       	push   0x93
  40596b:	e9 b0 f6 ff ff       	jmp    405020 <_init+0x20>

0000000000405970 <munmap@plt>:
  405970:	ff 25 42 6b 07 00    	jmp    QWORD PTR [rip+0x76b42]        # 47c4b8 <munmap@GLIBC_2.2.5>
  405976:	68 94 00 00 00       	push   0x94
  40597b:	e9 a0 f6 ff ff       	jmp    405020 <_init+0x20>

0000000000405980 <shmget@plt>:
  405980:	ff 25 3a 6b 07 00    	jmp    QWORD PTR [rip+0x76b3a]        # 47c4c0 <shmget@GLIBC_2.2.5>
  405986:	68 95 00 00 00       	push   0x95
  40598b:	e9 90 f6 ff ff       	jmp    405020 <_init+0x20>

0000000000405990 <feof@plt>:
  405990:	ff 25 32 6b 07 00    	jmp    QWORD PTR [rip+0x76b32]        # 47c4c8 <feof@GLIBC_2.2.5>
  405996:	68 96 00 00 00       	push   0x96
  40599b:	e9 80 f6 ff ff       	jmp    405020 <_init+0x20>

00000000004059a0 <XInternAtom@plt>:
  4059a0:	ff 25 2a 6b 07 00    	jmp    QWORD PTR [rip+0x76b2a]        # 47c4d0 <XInternAtom>
  4059a6:	68 97 00 00 00       	push   0x97
  4059ab:	e9 70 f6 ff ff       	jmp    405020 <_init+0x20>

00000000004059b0 <XGrabKeyboard@plt>:
  4059b0:	ff 25 22 6b 07 00    	jmp    QWORD PTR [rip+0x76b22]        # 47c4d8 <XGrabKeyboard>
  4059b6:	68 98 00 00 00       	push   0x98
  4059bb:	e9 60 f6 ff ff       	jmp    405020 <_init+0x20>

00000000004059c0 <fclose@plt>:
  4059c0:	ff 25 1a 6b 07 00    	jmp    QWORD PTR [rip+0x76b1a]        # 47c4e0 <fclose@GLIBC_2.2.5>
  4059c6:	68 99 00 00 00       	push   0x99
  4059cb:	e9 50 f6 ff ff       	jmp    405020 <_init+0x20>

00000000004059d0 <dlopen@plt>:
  4059d0:	ff 25 12 6b 07 00    	jmp    QWORD PTR [rip+0x76b12]        # 47c4e8 <dlopen@GLIBC_2.2.5>
  4059d6:	68 9a 00 00 00       	push   0x9a
  4059db:	e9 40 f6 ff ff       	jmp    405020 <_init+0x20>

00000000004059e0 <strncpy@plt>:
  4059e0:	ff 25 0a 6b 07 00    	jmp    QWORD PTR [rip+0x76b0a]        # 47c4f0 <strncpy@GLIBC_2.2.5>
  4059e6:	68 9b 00 00 00       	push   0x9b
  4059eb:	e9 30 f6 ff ff       	jmp    405020 <_init+0x20>

00000000004059f0 <XQueryPointer@plt>:
  4059f0:	ff 25 02 6b 07 00    	jmp    QWORD PTR [rip+0x76b02]        # 47c4f8 <XQueryPointer>
  4059f6:	68 9c 00 00 00       	push   0x9c
  4059fb:	e9 20 f6 ff ff       	jmp    405020 <_init+0x20>

0000000000405a00 <__xstat64@plt>:
  405a00:	ff 25 fa 6a 07 00    	jmp    QWORD PTR [rip+0x76afa]        # 47c500 <__xstat64@GLIBC_2.2.5>
  405a06:	68 9d 00 00 00       	push   0x9d
  405a0b:	e9 10 f6 ff ff       	jmp    405020 <_init+0x20>

0000000000405a10 <XUndefineCursor@plt>:
  405a10:	ff 25 f2 6a 07 00    	jmp    QWORD PTR [rip+0x76af2]        # 47c508 <XUndefineCursor>
  405a16:	68 9e 00 00 00       	push   0x9e
  405a1b:	e9 00 f6 ff ff       	jmp    405020 <_init+0x20>

0000000000405a20 <strtoull@plt>:
  405a20:	ff 25 ea 6a 07 00    	jmp    QWORD PTR [rip+0x76aea]        # 47c510 <strtoull@GLIBC_2.2.5>
  405a26:	68 9f 00 00 00       	push   0x9f
  405a2b:	e9 f0 f5 ff ff       	jmp    405020 <_init+0x20>

0000000000405a30 <dlsym@plt>:
  405a30:	ff 25 e2 6a 07 00    	jmp    QWORD PTR [rip+0x76ae2]        # 47c518 <dlsym@GLIBC_2.2.5>
  405a36:	68 a0 00 00 00       	push   0xa0
  405a3b:	e9 e0 f5 ff ff       	jmp    405020 <_init+0x20>

0000000000405a40 <XGetWindowAttributes@plt>:
  405a40:	ff 25 da 6a 07 00    	jmp    QWORD PTR [rip+0x76ada]        # 47c520 <XGetWindowAttributes>
  405a46:	68 a1 00 00 00       	push   0xa1
  405a4b:	e9 d0 f5 ff ff       	jmp    405020 <_init+0x20>

0000000000405a50 <XDefaultDepth@plt>:
  405a50:	ff 25 d2 6a 07 00    	jmp    QWORD PTR [rip+0x76ad2]        # 47c528 <XDefaultDepth>
  405a56:	68 a2 00 00 00       	push   0xa2
  405a5b:	e9 c0 f5 ff ff       	jmp    405020 <_init+0x20>

0000000000405a60 <XRRGetScreenInfo@plt>:
  405a60:	ff 25 ca 6a 07 00    	jmp    QWORD PTR [rip+0x76aca]        # 47c530 <XRRGetScreenInfo>
  405a66:	68 a3 00 00 00       	push   0xa3
  405a6b:	e9 b0 f5 ff ff       	jmp    405020 <_init+0x20>

0000000000405a70 <nearbyintf@plt>:
  405a70:	ff 25 c2 6a 07 00    	jmp    QWORD PTR [rip+0x76ac2]        # 47c538 <nearbyintf@GLIBC_2.2.5>
  405a76:	68 a4 00 00 00       	push   0xa4
  405a7b:	e9 a0 f5 ff ff       	jmp    405020 <_init+0x20>

0000000000405a80 <__sprintf_chk@plt>:
  405a80:	ff 25 ba 6a 07 00    	jmp    QWORD PTR [rip+0x76aba]        # 47c540 <__sprintf_chk@GLIBC_2.3.4>
  405a86:	68 a5 00 00 00       	push   0xa5
  405a8b:	e9 90 f5 ff ff       	jmp    405020 <_init+0x20>

0000000000405a90 <XChangeProperty@plt>:
  405a90:	ff 25 b2 6a 07 00    	jmp    QWORD PTR [rip+0x76ab2]        # 47c548 <XChangeProperty>
  405a96:	68 a6 00 00 00       	push   0xa6
  405a9b:	e9 80 f5 ff ff       	jmp    405020 <_init+0x20>

0000000000405aa0 <XAllocSizeHints@plt>:
  405aa0:	ff 25 aa 6a 07 00    	jmp    QWORD PTR [rip+0x76aaa]        # 47c550 <XAllocSizeHints>
  405aa6:	68 a7 00 00 00       	push   0xa7
  405aab:	e9 70 f5 ff ff       	jmp    405020 <_init+0x20>

0000000000405ab0 <XCheckWindowEvent@plt>:
  405ab0:	ff 25 a2 6a 07 00    	jmp    QWORD PTR [rip+0x76aa2]        # 47c558 <XCheckWindowEvent>
  405ab6:	68 a8 00 00 00       	push   0xa8
  405abb:	e9 60 f5 ff ff       	jmp    405020 <_init+0x20>

0000000000405ac0 <XShmPutImage@plt>:
  405ac0:	ff 25 9a 6a 07 00    	jmp    QWORD PTR [rip+0x76a9a]        # 47c560 <XShmPutImage>
  405ac6:	68 a9 00 00 00       	push   0xa9
  405acb:	e9 50 f5 ff ff       	jmp    405020 <_init+0x20>

0000000000405ad0 <XFreePixmap@plt>:
  405ad0:	ff 25 92 6a 07 00    	jmp    QWORD PTR [rip+0x76a92]        # 47c568 <XFreePixmap>
  405ad6:	68 aa 00 00 00       	push   0xaa
  405adb:	e9 40 f5 ff ff       	jmp    405020 <_init+0x20>

0000000000405ae0 <fork@plt>:
  405ae0:	ff 25 8a 6a 07 00    	jmp    QWORD PTR [rip+0x76a8a]        # 47c570 <fork@GLIBC_2.2.5>
  405ae6:	68 ab 00 00 00       	push   0xab
  405aeb:	e9 30 f5 ff ff       	jmp    405020 <_init+0x20>

0000000000405af0 <fopen64@plt>:
  405af0:	ff 25 82 6a 07 00    	jmp    QWORD PTR [rip+0x76a82]        # 47c578 <fopen64@GLIBC_2.2.5>
  405af6:	68 ac 00 00 00       	push   0xac
  405afb:	e9 20 f5 ff ff       	jmp    405020 <_init+0x20>

0000000000405b00 <fwrite@plt>:
  405b00:	ff 25 7a 6a 07 00    	jmp    QWORD PTR [rip+0x76a7a]        # 47c580 <fwrite@GLIBC_2.2.5>
  405b06:	68 ad 00 00 00       	push   0xad
  405b0b:	e9 10 f5 ff ff       	jmp    405020 <_init+0x20>

0000000000405b10 <pthread_mutex_lock@plt>:
  405b10:	ff 25 72 6a 07 00    	jmp    QWORD PTR [rip+0x76a72]        # 47c588 <pthread_mutex_lock@GLIBC_2.2.5>
  405b16:	68 ae 00 00 00       	push   0xae
  405b1b:	e9 00 f5 ff ff       	jmp    405020 <_init+0x20>

0000000000405b20 <realloc@plt>:
  405b20:	ff 25 6a 6a 07 00    	jmp    QWORD PTR [rip+0x76a6a]        # 47c590 <realloc@GLIBC_2.2.5>
  405b26:	68 af 00 00 00       	push   0xaf
  405b2b:	e9 f0 f4 ff ff       	jmp    405020 <_init+0x20>

0000000000405b30 <setlocale@plt>:
  405b30:	ff 25 62 6a 07 00    	jmp    QWORD PTR [rip+0x76a62]        # 47c598 <setlocale@GLIBC_2.2.5>
  405b36:	68 b0 00 00 00       	push   0xb0
  405b3b:	e9 e0 f4 ff ff       	jmp    405020 <_init+0x20>

0000000000405b40 <XReparentWindow@plt>:
  405b40:	ff 25 5a 6a 07 00    	jmp    QWORD PTR [rip+0x76a5a]        # 47c5a0 <XReparentWindow>
  405b46:	68 b1 00 00 00       	push   0xb1
  405b4b:	e9 d0 f4 ff ff       	jmp    405020 <_init+0x20>

0000000000405b50 <tgetstr@plt>:
  405b50:	ff 25 52 6a 07 00    	jmp    QWORD PTR [rip+0x76a52]        # 47c5a8 <tgetstr>
  405b56:	68 b2 00 00 00       	push   0xb2
  405b5b:	e9 c0 f4 ff ff       	jmp    405020 <_init+0x20>

0000000000405b60 <shmctl@plt>:
  405b60:	ff 25 4a 6a 07 00    	jmp    QWORD PTR [rip+0x76a4a]        # 47c5b0 <shmctl@GLIBC_2.2.5>
  405b66:	68 b3 00 00 00       	push   0xb3
  405b6b:	e9 b0 f4 ff ff       	jmp    405020 <_init+0x20>

0000000000405b70 <pthread_mutexattr_init@plt>:
  405b70:	ff 25 42 6a 07 00    	jmp    QWORD PTR [rip+0x76a42]        # 47c5b8 <pthread_mutexattr_init@GLIBC_2.2.5>
  405b76:	68 b4 00 00 00       	push   0xb4
  405b7b:	e9 a0 f4 ff ff       	jmp    405020 <_init+0x20>

0000000000405b80 <XCreatePixmap@plt>:
  405b80:	ff 25 3a 6a 07 00    	jmp    QWORD PTR [rip+0x76a3a]        # 47c5c0 <XCreatePixmap>
  405b86:	68 b5 00 00 00       	push   0xb5
  405b8b:	e9 90 f4 ff ff       	jmp    405020 <_init+0x20>

0000000000405b90 <XMapRaised@plt>:
  405b90:	ff 25 32 6a 07 00    	jmp    QWORD PTR [rip+0x76a32]        # 47c5c8 <XMapRaised>
  405b96:	68 b6 00 00 00       	push   0xb6
  405b9b:	e9 80 f4 ff ff       	jmp    405020 <_init+0x20>

0000000000405ba0 <__memmove_chk@plt>:
  405ba0:	ff 25 2a 6a 07 00    	jmp    QWORD PTR [rip+0x76a2a]        # 47c5d0 <__memmove_chk@GLIBC_2.3.4>
  405ba6:	68 b7 00 00 00       	push   0xb7
  405bab:	e9 70 f4 ff ff       	jmp    405020 <_init+0x20>

0000000000405bb0 <pthread_mutex_destroy@plt>:
  405bb0:	ff 25 22 6a 07 00    	jmp    QWORD PTR [rip+0x76a22]        # 47c5d8 <pthread_mutex_destroy@GLIBC_2.2.5>
  405bb6:	68 b8 00 00 00       	push   0xb8
  405bbb:	e9 60 f4 ff ff       	jmp    405020 <_init+0x20>

0000000000405bc0 <write@plt>:
  405bc0:	ff 25 1a 6a 07 00    	jmp    QWORD PTR [rip+0x76a1a]        # 47c5e0 <write@GLIBC_2.2.5>
  405bc6:	68 b9 00 00 00       	push   0xb9
  405bcb:	e9 50 f4 ff ff       	jmp    405020 <_init+0x20>

0000000000405bd0 <ftello64@plt>:
  405bd0:	ff 25 12 6a 07 00    	jmp    QWORD PTR [rip+0x76a12]        # 47c5e8 <ftello64@GLIBC_2.2.5>
  405bd6:	68 ba 00 00 00       	push   0xba
  405bdb:	e9 40 f4 ff ff       	jmp    405020 <_init+0x20>

0000000000405be0 <tcgetpgrp@plt>:
  405be0:	ff 25 0a 6a 07 00    	jmp    QWORD PTR [rip+0x76a0a]        # 47c5f0 <tcgetpgrp@GLIBC_2.2.5>
  405be6:	68 bb 00 00 00       	push   0xbb
  405beb:	e9 30 f4 ff ff       	jmp    405020 <_init+0x20>

0000000000405bf0 <pow@plt>:
  405bf0:	ff 25 02 6a 07 00    	jmp    QWORD PTR [rip+0x76a02]        # 47c5f8 <pow@GLIBC_2.29>
  405bf6:	68 bc 00 00 00       	push   0xbc
  405bfb:	e9 20 f4 ff ff       	jmp    405020 <_init+0x20>

0000000000405c00 <sqrt@plt>:
  405c00:	ff 25 fa 69 07 00    	jmp    QWORD PTR [rip+0x769fa]        # 47c600 <sqrt@GLIBC_2.2.5>
  405c06:	68 bd 00 00 00       	push   0xbd
  405c0b:	e9 10 f4 ff ff       	jmp    405020 <_init+0x20>

0000000000405c10 <XQueryTree@plt>:
  405c10:	ff 25 f2 69 07 00    	jmp    QWORD PTR [rip+0x769f2]        # 47c608 <XQueryTree>
  405c16:	68 be 00 00 00       	push   0xbe
  405c1b:	e9 00 f4 ff ff       	jmp    405020 <_init+0x20>

0000000000405c20 <pthread_mutex_unlock@plt>:
  405c20:	ff 25 ea 69 07 00    	jmp    QWORD PTR [rip+0x769ea]        # 47c610 <pthread_mutex_unlock@GLIBC_2.2.5>
  405c26:	68 bf 00 00 00       	push   0xbf
  405c2b:	e9 f0 f3 ff ff       	jmp    405020 <_init+0x20>

0000000000405c30 <XShmDetach@plt>:
  405c30:	ff 25 e2 69 07 00    	jmp    QWORD PTR [rip+0x769e2]        # 47c618 <XShmDetach>
  405c36:	68 c0 00 00 00       	push   0xc0
  405c3b:	e9 e0 f3 ff ff       	jmp    405020 <_init+0x20>

0000000000405c40 <memcpy@plt>:
  405c40:	ff 25 da 69 07 00    	jmp    QWORD PTR [rip+0x769da]        # 47c620 <memcpy@GLIBC_2.14>
  405c46:	68 c1 00 00 00       	push   0xc1
  405c4b:	e9 d0 f3 ff ff       	jmp    405020 <_init+0x20>

0000000000405c50 <fcntl@plt>:
  405c50:	ff 25 d2 69 07 00    	jmp    QWORD PTR [rip+0x769d2]        # 47c628 <fcntl@GLIBC_2.2.5>
  405c56:	68 c2 00 00 00       	push   0xc2
  405c5b:	e9 c0 f3 ff ff       	jmp    405020 <_init+0x20>

0000000000405c60 <__strncat_chk@plt>:
  405c60:	ff 25 ca 69 07 00    	jmp    QWORD PTR [rip+0x769ca]        # 47c630 <__strncat_chk@GLIBC_2.3.4>
  405c66:	68 c3 00 00 00       	push   0xc3
  405c6b:	e9 b0 f3 ff ff       	jmp    405020 <_init+0x20>

0000000000405c70 <sin@plt>:
  405c70:	ff 25 c2 69 07 00    	jmp    QWORD PTR [rip+0x769c2]        # 47c638 <sin@GLIBC_2.2.5>
  405c76:	68 c4 00 00 00       	push   0xc4
  405c7b:	e9 a0 f3 ff ff       	jmp    405020 <_init+0x20>

0000000000405c80 <XSetWMHints@plt>:
  405c80:	ff 25 ba 69 07 00    	jmp    QWORD PTR [rip+0x769ba]        # 47c640 <XSetWMHints>
  405c86:	68 c5 00 00 00       	push   0xc5
  405c8b:	e9 90 f3 ff ff       	jmp    405020 <_init+0x20>

0000000000405c90 <XSetWindowColormap@plt>:
  405c90:	ff 25 b2 69 07 00    	jmp    QWORD PTR [rip+0x769b2]        # 47c648 <XSetWindowColormap>
  405c96:	68 c6 00 00 00       	push   0xc6
  405c9b:	e9 80 f3 ff ff       	jmp    405020 <_init+0x20>

0000000000405ca0 <glGenTextures@plt>:
  405ca0:	ff 25 aa 69 07 00    	jmp    QWORD PTR [rip+0x769aa]        # 47c650 <glGenTextures>
  405ca6:	68 c7 00 00 00       	push   0xc7
  405cab:	e9 70 f3 ff ff       	jmp    405020 <_init+0x20>

0000000000405cb0 <strtod@plt>:
  405cb0:	ff 25 a2 69 07 00    	jmp    QWORD PTR [rip+0x769a2]        # 47c658 <strtod@GLIBC_2.2.5>
  405cb6:	68 c8 00 00 00       	push   0xc8
  405cbb:	e9 60 f3 ff ff       	jmp    405020 <_init+0x20>

0000000000405cc0 <XPending@plt>:
  405cc0:	ff 25 9a 69 07 00    	jmp    QWORD PTR [rip+0x7699a]        # 47c660 <XPending>
  405cc6:	68 c9 00 00 00       	push   0xc9
  405ccb:	e9 50 f3 ff ff       	jmp    405020 <_init+0x20>

0000000000405cd0 <__fdelt_chk@plt>:
  405cd0:	ff 25 92 69 07 00    	jmp    QWORD PTR [rip+0x76992]        # 47c668 <__fdelt_chk@GLIBC_2.15>
  405cd6:	68 ca 00 00 00       	push   0xca
  405cdb:	e9 40 f3 ff ff       	jmp    405020 <_init+0x20>

0000000000405ce0 <shmat@plt>:
  405ce0:	ff 25 8a 69 07 00    	jmp    QWORD PTR [rip+0x7698a]        # 47c670 <shmat@GLIBC_2.2.5>
  405ce6:	68 cb 00 00 00       	push   0xcb
  405ceb:	e9 30 f3 ff ff       	jmp    405020 <_init+0x20>

0000000000405cf0 <fflush@plt>:
  405cf0:	ff 25 82 69 07 00    	jmp    QWORD PTR [rip+0x76982]        # 47c678 <fflush@GLIBC_2.2.5>
  405cf6:	68 cc 00 00 00       	push   0xcc
  405cfb:	e9 20 f3 ff ff       	jmp    405020 <_init+0x20>

0000000000405d00 <wcstombs@plt>:
  405d00:	ff 25 7a 69 07 00    	jmp    QWORD PTR [rip+0x7697a]        # 47c680 <wcstombs@GLIBC_2.2.5>
  405d06:	68 cd 00 00 00       	push   0xcd
  405d0b:	e9 10 f3 ff ff       	jmp    405020 <_init+0x20>

Disassembly of section .plt.got:

0000000000405d10 <XFree@plt>:
  405d10:	ff 25 72 62 07 00    	jmp    QWORD PTR [rip+0x76272]        # 47bf88 <XFree>
  405d16:	66 90                	xchg   ax,ax

Disassembly of section .text:

0000000000405d20 <main>:
;' c64.bas
  405d20:	41 57                	push   r15
  405d22:	31 d2                	xor    edx,edx
  405d24:	41 56                	push   r14
  405d26:	41 55                	push   r13
  405d28:	41 54                	push   r12
  405d2a:	55                   	push   rbp
  405d2b:	53                   	push   rbx
;dim as C64_T computer
;dim as ulongint ticks,res
;poke ulongint,@ticks,peek(ubyte,@nibbles(&B0000))
;poke ulongint,@res,peek(ubyte,@nibbles(&B0000)) 
;do
;  mov(Ticks add, peek(ubyte,@nibbles(&B0001)))
  405d2c:	48 8d 1d 6e d0 09 00 	lea    rbx,[rip+0x9d06e]        # 4a2da1 <NIBBLES$+0x1>
;    computer.cpu->Tick Ticks
;  else
;    computer.cpu->Tick
;  end if
;  ' call ISR after 12,000 ticks
;  if mov(Ticks mod (peek(ubyte,@nibbles(&B0010)) shl peek(ubyte,@nibbles(&B1100)) add peek(ubyte,@nibbles(&B1110)) shl peek(ubyte,@nibbles(&B1000)) add peek(ubyte,@nibbles(&B1110)) shl peek(ubyte,@nibbles(&B0100))),peek(ubyte,@nibbles(&B0000))) then
  405d33:	4c 8d 7b 0b          	lea    r15,[rbx+0xb]
  405d37:	4c 8d 73 07          	lea    r14,[rbx+0x7]
  405d3b:	48 8d 6b ff          	lea    rbp,[rbx-0x1]
;' c64.bas
  405d3f:	48 83 ec 28          	sub    rsp,0x28
  405d43:	64 48 8b 04 25 28 00 	mov    rax,QWORD PTR fs:0x28
  405d4a:	00 00 
  405d4c:	48 89 44 24 18       	mov    QWORD PTR [rsp+0x18],rax
  405d51:	31 c0                	xor    eax,eax
  405d53:	e8 78 0b 06 00       	call   4668d0 <fb_Init>
  405d58:	48 8d 3d 81 69 07 00 	lea    rdi,[rip+0x76981]        # 47c6e0 <label$6049>
  405d5f:	e8 3c e9 05 00       	call   4646a0 <fb_DataRestore>
;dim shared as string   eol: eol = chr(13) + chr(10)
  405d64:	45 31 c0             	xor    r8d,r8d
  405d67:	b9 03 00 00 00       	mov    ecx,0x3
  405d6c:	48 8d 15 24 02 07 00 	lea    rdx,[rip+0x70224]        # 475f97 <pad_numlock_ascii+0x17>
  405d73:	48 c7 c6 ff ff ff ff 	mov    rsi,0xffffffffffffffff
  405d7a:	48 8d 3d 2f d0 09 00 	lea    rdi,[rip+0x9d02f]        # 4a2db0 <EOL$>
  405d81:	e8 5a 2f 06 00       	call   468ce0 <fb_StrAssign>
;dim as C64_T computer
  405d86:	48 89 e7             	mov    rdi,rsp
  405d89:	e8 02 a7 04 00       	call   450490 <C64_T::C64_T()>
;poke ulongint,@ticks,peek(ubyte,@nibbles(&B0000))
  405d8e:	44 0f b6 2d 0a d0 09 	movzx  r13d,BYTE PTR [rip+0x9d00a]        # 4a2da0 <NIBBLES$>
  405d95:	00 
;    computer.cpu->Tick
  405d96:	4c 8b 64 24 08       	mov    r12,QWORD PTR [rsp+0x8]
  405d9b:	e9 88 00 00 00       	jmp    405e28 <main+0x108>
  405da0:	48 8b 05 99 dc 06 00 	mov    rax,QWORD PTR [rip+0x6dc99]        # 473a40 <_IO_stdin_used+0x4a40>
  405da7:	4c 89 e7             	mov    rdi,r12
  405daa:	66 48 0f 6e c0       	movq   xmm0,rax
  405daf:	e8 dc b7 04 00       	call   451590 <CPU6510::TICK(double)>
;  if mov(Ticks mod (peek(ubyte,@nibbles(&B0010)) shl peek(ubyte,@nibbles(&B1100)) add peek(ubyte,@nibbles(&B1110)) shl peek(ubyte,@nibbles(&B1000)) add peek(ubyte,@nibbles(&B1110)) shl peek(ubyte,@nibbles(&B0100))),peek(ubyte,@nibbles(&B0000))) then
  405db4:	48 8d 35 e7 cf 09 00 	lea    rsi,[rip+0x9cfe7]        # 4a2da2 <NIBBLES$+0x2>
  405dbb:	41 0f b6 0f          	movzx  ecx,BYTE PTR [r15]
  405dbf:	48 8d 05 e8 cf 09 00 	lea    rax,[rip+0x9cfe8]        # 4a2dae <NIBBLES$+0xe>
  405dc6:	0f b6 36             	movzx  esi,BYTE PTR [rsi]
  405dc9:	0f b6 00             	movzx  eax,BYTE PTR [rax]
  405dcc:	48 8d 3d d1 cf 09 00 	lea    rdi,[rip+0x9cfd1]        # 4a2da4 <NIBBLES$+0x4>
  405dd3:	0f b6 17             	movzx  edx,BYTE PTR [rdi]
  405dd6:	0f b6 7d 00          	movzx  edi,BYTE PTR [rbp+0x0]
  405dda:	48 d3 e6             	shl    rsi,cl
  405ddd:	41 0f b6 0e          	movzx  ecx,BYTE PTR [r14]
  405de1:	49 89 c2             	mov    r10,rax
  405de4:	41 89 d0             	mov    r8d,edx
  405de7:	49 d3 e2             	shl    r10,cl
  405dea:	89 d1                	mov    ecx,edx
  405dec:	31 d2                	xor    edx,edx
  405dee:	41 83 e0 3f          	and    r8d,0x3f
  405df2:	48 d3 e0             	shl    rax,cl
  405df5:	4c 01 d6             	add    rsi,r10
  405df8:	48 01 c6             	add    rsi,rax
  405dfb:	4c 89 e8             	mov    rax,r13
  405dfe:	48 f7 f6             	div    rsi
  405e01:	48 39 fa             	cmp    rdx,rdi
  405e04:	74 5a                	je     405e60 <main+0x140>
;    mov(Ticks add,InterruptService(computer.cpu))
;  end if
;  ' draw to screen every 65,536 ticks
;  if mov(Ticks mod (peek(ubyte,@nibbles(&B0001)) shl (peek(ubyte,@nibbles(&B0001)) shl  peek(ubyte,@nibbles(&B0100)))),peek(ubyte,@nibbles(&B0000))) then  
  405e06:	0f b6 03             	movzx  eax,BYTE PTR [rbx]
  405e09:	44 89 c1             	mov    ecx,r8d
  405e0c:	48 89 c2             	mov    rdx,rax
  405e0f:	48 d3 e2             	shl    rdx,cl
  405e12:	48 89 d1             	mov    rcx,rdx
  405e15:	31 d2                	xor    edx,edx
  405e17:	48 d3 e0             	shl    rax,cl
  405e1a:	48 89 c1             	mov    rcx,rax
  405e1d:	4c 89 e8             	mov    rax,r13
  405e20:	48 f7 f1             	div    rcx
  405e23:	48 39 fa             	cmp    rdx,rdi
  405e26:	74 78                	je     405ea0 <main+0x180>
;  mov(Ticks add, peek(ubyte,@nibbles(&B0001)))
  405e28:	0f b6 03             	movzx  eax,BYTE PTR [rbx]
  405e2b:	49 01 c5             	add    r13,rax
;  if mov(flag,peek(ubyte,@nibbles(&B0001))) then
  405e2e:	48 3b 05 33 ce 07 00 	cmp    rax,QWORD PTR [rip+0x7ce33]        # 482c68 <FLAG$>
  405e35:	0f 85 65 ff ff ff    	jne    405da0 <main+0x80>
;    computer.cpu->Tick Ticks
  405e3b:	4d 85 ed             	test   r13,r13
  405e3e:	78 40                	js     405e80 <main+0x160>
  405e40:	66 0f ef c0          	pxor   xmm0,xmm0
  405e44:	f2 49 0f 2a c5       	cvtsi2sd xmm0,r13
  405e49:	4c 89 e7             	mov    rdi,r12
  405e4c:	e8 3f b7 04 00       	call   451590 <CPU6510::TICK(double)>
;  else
  405e51:	e9 5e ff ff ff       	jmp    405db4 <main+0x94>
  405e56:	66 2e 0f 1f 84 00 00 	cs nop WORD PTR [rax+rax*1+0x0]
  405e5d:	00 00 00 
;    mov(Ticks add,InterruptService(computer.cpu))
  405e60:	4c 89 e7             	mov    rdi,r12
  405e63:	e8 d8 bb 04 00       	call   451a40 <INTERRUPTSERVICE>
;  if mov(Ticks mod (peek(ubyte,@nibbles(&B0001)) shl (peek(ubyte,@nibbles(&B0001)) shl  peek(ubyte,@nibbles(&B0100)))),peek(ubyte,@nibbles(&B0000))) then  
  405e68:	0f b6 7d 00          	movzx  edi,BYTE PTR [rbp+0x0]
;    mov(Ticks add,InterruptService(computer.cpu))
  405e6c:	49 01 c5             	add    r13,rax
;  if mov(Ticks mod (peek(ubyte,@nibbles(&B0001)) shl (peek(ubyte,@nibbles(&B0001)) shl  peek(ubyte,@nibbles(&B0100)))),peek(ubyte,@nibbles(&B0000))) then  
  405e6f:	48 8d 05 2e cf 09 00 	lea    rax,[rip+0x9cf2e]        # 4a2da4 <NIBBLES$+0x4>
  405e76:	44 0f b6 00          	movzx  r8d,BYTE PTR [rax]
  405e7a:	41 83 e0 3f          	and    r8d,0x3f
  405e7e:	eb 86                	jmp    405e06 <main+0xe6>
;    computer.cpu->Tick Ticks
  405e80:	4c 89 e8             	mov    rax,r13
  405e83:	4c 89 ea             	mov    rdx,r13
  405e86:	66 0f ef c0          	pxor   xmm0,xmm0
  405e8a:	48 d1 e8             	shr    rax,1
  405e8d:	83 e2 01             	and    edx,0x1
  405e90:	48 09 d0             	or     rax,rdx
  405e93:	f2 48 0f 2a c0       	cvtsi2sd xmm0,rax
  405e98:	f2 0f 58 c0          	addsd  xmm0,xmm0
  405e9c:	eb ab                	jmp    405e49 <main+0x129>
  405e9e:	66 90                	xchg   ax,ax
;    screenlock
  405ea0:	e8 1b c3 04 00       	call   4521c0 <fb_GfxLock>
;    put (peek(ubyte,@nibbles(&B0000)),peek(ubyte,@nibbles(&B0000))),bgimage,pset: put (peek(ubyte,@nibbles(&B0000)),peek(ubyte,@nibbles(&B0000))),fgimage,alpha
  405ea5:	0f b6 45 00          	movzx  eax,BYTE PTR [rbp+0x0]
  405ea9:	66 0f ef c9          	pxor   xmm1,xmm1
  405ead:	6a 00                	push   0x0
  405eaf:	6a 00                	push   0x0
  405eb1:	48 8b 35 a0 4e 0a 00 	mov    rsi,QWORD PTR [rip+0xa4ea0]        # 4aad58 <BGIMAGE$>
  405eb8:	31 ff                	xor    edi,edi
  405eba:	b9 00 00 ff ff       	mov    ecx,0xffff0000
  405ebf:	f3 0f 2a c8          	cvtsi2ss xmm1,eax
  405ec3:	6a ff                	push   0xffffffffffffffff
  405ec5:	ba 00 00 ff ff       	mov    edx,0xffff0000
  405eca:	41 b9 00 00 ff ff    	mov    r9d,0xffff0000
  405ed0:	ff 35 ca 60 07 00    	push   QWORD PTR [rip+0x760ca]        # 47bfa0 <_DYNAMIC+0x298>
  405ed6:	41 b8 00 00 ff ff    	mov    r8d,0xffff0000
  405edc:	6a 01                	push   0x1
  405ede:	6a 00                	push   0x0
  405ee0:	0f 28 c1             	movaps xmm0,xmm1
  405ee3:	e8 b8 2b 05 00       	call   458aa0 <fb_GfxPut>
  405ee8:	0f b6 45 00          	movzx  eax,BYTE PTR [rbp+0x0]
  405eec:	66 0f ef c9          	pxor   xmm1,xmm1
  405ef0:	31 ff                	xor    edi,edi
  405ef2:	48 83 c4 30          	add    rsp,0x30
  405ef6:	b9 00 00 ff ff       	mov    ecx,0xffff0000
  405efb:	ba 00 00 ff ff       	mov    edx,0xffff0000
  405f00:	48 8b 35 79 4e 0a 00 	mov    rsi,QWORD PTR [rip+0xa4e79]        # 4aad80 <FGIMAGE$>
  405f07:	f3 0f 2a c8          	cvtsi2ss xmm1,eax
  405f0b:	6a 00                	push   0x0
  405f0d:	41 b9 00 00 ff ff    	mov    r9d,0xffff0000
  405f13:	41 b8 00 00 ff ff    	mov    r8d,0xffff0000
  405f19:	6a 00                	push   0x0
  405f1b:	6a ff                	push   0xffffffffffffffff
  405f1d:	ff 35 ad 60 07 00    	push   QWORD PTR [rip+0x760ad]        # 47bfd0 <_DYNAMIC+0x2c8>
  405f23:	6a 06                	push   0x6
  405f25:	0f 28 c1             	movaps xmm0,xmm1
  405f28:	6a 00                	push   0x0
  405f2a:	e8 71 2b 05 00       	call   458aa0 <fb_GfxPut>
;    'put (0,0),render,alpha
;    'put(0,computer.cpu->mem->mem64(49357)),raster,alpha
;    screenunlock
  405f2f:	48 83 c4 30          	add    rsp,0x30
  405f33:	be ff ff ff ff       	mov    esi,0xffffffff
  405f38:	bf ff ff ff ff       	mov    edi,0xffffffff
  405f3d:	e8 de c2 04 00       	call   452220 <fb_GfxUnlock>
  405f42:	e9 e1 fe ff ff       	jmp    405e28 <main+0x108>
  405f47:	66 0f 1f 84 00 00 00 	nop    WORD PTR [rax+rax*1+0x0]
  405f4e:	00 00 

0000000000405f50 <_start>:
  405f50:	f3 0f 1e fa          	endbr64 
  405f54:	31 ed                	xor    ebp,ebp
  405f56:	49 89 d1             	mov    r9,rdx
  405f59:	5e                   	pop    rsi
  405f5a:	48 89 e2             	mov    rdx,rsp
  405f5d:	48 83 e4 f0          	and    rsp,0xfffffffffffffff0
  405f61:	50                   	push   rax
  405f62:	54                   	push   rsp
  405f63:	49 c7 c0 80 e6 46 00 	mov    r8,0x46e680
  405f6a:	48 c7 c1 10 e6 46 00 	mov    rcx,0x46e610
  405f71:	48 c7 c7 20 5d 40 00 	mov    rdi,0x405d20
  405f78:	ff 15 32 60 07 00    	call   QWORD PTR [rip+0x76032]        # 47bfb0 <__libc_start_main@GLIBC_2.2.5>
  405f7e:	f4                   	hlt    
  405f7f:	90                   	nop

0000000000405f80 <_dl_relocate_static_pie>:
  405f80:	f3 0f 1e fa          	endbr64 
  405f84:	c3                   	ret    
  405f85:	66 2e 0f 1f 84 00 00 	cs nop WORD PTR [rax+rax*1+0x0]
  405f8c:	00 00 00 
  405f8f:	90                   	nop

0000000000405f90 <deregister_tm_clones>:
  405f90:	b8 98 2b 48 00       	mov    eax,0x482b98
  405f95:	48 3d 98 2b 48 00    	cmp    rax,0x482b98
  405f9b:	74 13                	je     405fb0 <deregister_tm_clones+0x20>
  405f9d:	48 8b 05 14 60 07 00 	mov    rax,QWORD PTR [rip+0x76014]        # 47bfb8 <_ITM_deregisterTMCloneTable>
  405fa4:	48 85 c0             	test   rax,rax
  405fa7:	74 07                	je     405fb0 <deregister_tm_clones+0x20>
  405fa9:	bf 98 2b 48 00       	mov    edi,0x482b98
  405fae:	ff e0                	jmp    rax
  405fb0:	c3                   	ret    
  405fb1:	66 66 2e 0f 1f 84 00 	data16 cs nop WORD PTR [rax+rax*1+0x0]
  405fb8:	00 00 00 00 
  405fbc:	0f 1f 40 00          	nop    DWORD PTR [rax+0x0]

0000000000405fc0 <register_tm_clones>:
  405fc0:	be 98 2b 48 00       	mov    esi,0x482b98
  405fc5:	48 81 ee 98 2b 48 00 	sub    rsi,0x482b98
  405fcc:	48 89 f0             	mov    rax,rsi
  405fcf:	48 c1 ee 3f          	shr    rsi,0x3f
  405fd3:	48 c1 f8 03          	sar    rax,0x3
  405fd7:	48 01 c6             	add    rsi,rax
  405fda:	48 d1 fe             	sar    rsi,1
  405fdd:	74 19                	je     405ff8 <register_tm_clones+0x38>
  405fdf:	48 8b 05 e2 5f 07 00 	mov    rax,QWORD PTR [rip+0x75fe2]        # 47bfc8 <_ITM_registerTMCloneTable>
  405fe6:	48 85 c0             	test   rax,rax
  405fe9:	74 0d                	je     405ff8 <register_tm_clones+0x38>
  405feb:	bf 98 2b 48 00       	mov    edi,0x482b98
  405ff0:	ff e0                	jmp    rax
  405ff2:	66 0f 1f 44 00 00    	nop    WORD PTR [rax+rax*1+0x0]
  405ff8:	c3                   	ret    
  405ff9:	0f 1f 80 00 00 00 00 	nop    DWORD PTR [rax+0x0]

0000000000406000 <__do_global_dtors_aux>:
  406000:	f3 0f 1e fa          	endbr64 
  406004:	80 3d e5 cb 07 00 00 	cmp    BYTE PTR [rip+0x7cbe5],0x0        # 482bf0 <completed.0>
  40600b:	75 13                	jne    406020 <__do_global_dtors_aux+0x20>
  40600d:	55                   	push   rbp
  40600e:	48 89 e5             	mov    rbp,rsp
  406011:	e8 7a ff ff ff       	call   405f90 <deregister_tm_clones>
  406016:	c6 05 d3 cb 07 00 01 	mov    BYTE PTR [rip+0x7cbd3],0x1        # 482bf0 <completed.0>
  40601d:	5d                   	pop    rbp
  40601e:	c3                   	ret    
  40601f:	90                   	nop
  406020:	c3                   	ret    
  406021:	66 66 2e 0f 1f 84 00 	data16 cs nop WORD PTR [rax+rax*1+0x0]
  406028:	00 00 00 00 
  40602c:	0f 1f 40 00          	nop    DWORD PTR [rax+0x0]

0000000000406030 <frame_dummy>:
  406030:	f3 0f 1e fa          	endbr64 
  406034:	eb 8a                	jmp    405fc0 <register_tm_clones>
  406036:	66 2e 0f 1f 84 00 00 	cs nop WORD PTR [rax+rax*1+0x0]
  40603d:	00 00 00 

0000000000406040 <fb_hDoInit>:
  406040:	e9 cb 07 06 00       	jmp    466810 <fb_hRtInit>
  406045:	90                   	nop
  406046:	66 2e 0f 1f 84 00 00 	cs nop WORD PTR [rax+rax*1+0x0]
  40604d:	00 00 00 

0000000000406050 <fb_hDoExit>:
  406050:	e9 1b 08 06 00       	jmp    466870 <fb_hRtExit>
  406055:	66 2e 0f 1f 84 00 00 	cs nop WORD PTR [rax+rax*1+0x0]
  40605c:	00 00 00 
  40605f:	90                   	nop

0000000000406060 <INS_ASLA>:
;  Cpu->F.c = iif(Cpu->A and peek(ubyte,@nibbles(&B1000)) shl peek(ubyte,@nibbles(&B0100)),peek(ubyte,@nibbles(&B0001)),peek(ubyte,@nibbles(&B0000)))
  406060:	0f b6 0d 3d cd 09 00 	movzx  ecx,BYTE PTR [rip+0x9cd3d]        # 4a2da4 <NIBBLES$+0x4>
  406067:	0f b6 35 3a cd 09 00 	movzx  esi,BYTE PTR [rip+0x9cd3a]        # 4a2da8 <NIBBLES$+0x8>
;def INS_ASLA(byval Cpu as CPU6510_T) ' ac
  40606e:	48 89 fa             	mov    rdx,rdi
;  Cpu->F.c = iif(Cpu->A and peek(ubyte,@nibbles(&B1000)) shl peek(ubyte,@nibbles(&B0100)),peek(ubyte,@nibbles(&B0001)),peek(ubyte,@nibbles(&B0000)))
  406071:	0f b6 47 01          	movzx  eax,BYTE PTR [rdi+0x1]
  406075:	48 d3 e6             	shl    rsi,cl
  406078:	0f b6 0d 21 cd 09 00 	movzx  ecx,BYTE PTR [rip+0x9cd21]        # 4a2da0 <NIBBLES$>
  40607f:	48 85 c6             	test   rsi,rax
  406082:	0f b6 35 18 cd 09 00 	movzx  esi,BYTE PTR [rip+0x9cd18]        # 4a2da1 <NIBBLES$+0x1>
  406089:	0f 45 ce             	cmovne ecx,esi
  40608c:	0f b6 37             	movzx  esi,BYTE PTR [rdi]
  40608f:	83 e1 01             	and    ecx,0x1
  406092:	83 e6 fe             	and    esi,0xfffffffe
  406095:	09 ce                	or     esi,ecx
  406097:	40 88 37             	mov    BYTE PTR [rdi],sil
;  Cpu->A shl = peek(ubyte,@nibbles(&B0001))
  40609a:	0f b6 0d 00 cd 09 00 	movzx  ecx,BYTE PTR [rip+0x9cd00]        # 4a2da1 <NIBBLES$+0x1>
  4060a1:	48 d3 e0             	shl    rax,cl
  4060a4:	88 47 01             	mov    BYTE PTR [rdi+0x1],al
  4060a7:	48 89 c1             	mov    rcx,rax
;  Cpu->F.z=iif(Cpu->A =peek(ubyte,@nibbles(&B0000)),peek(ubyte,@nibbles(&B0001)),peek(ubyte,@nibbles(&B0000)))
  4060aa:	0f b6 05 ef cc 09 00 	movzx  eax,BYTE PTR [rip+0x9ccef]        # 4a2da0 <NIBBLES$>
  4060b1:	0f b6 3d e9 cc 09 00 	movzx  edi,BYTE PTR [rip+0x9cce9]        # 4a2da1 <NIBBLES$+0x1>
  4060b8:	38 c8                	cmp    al,cl
;  Cpu->F.n=iif(Cpu->sA<peek(ubyte,@nibbles(&B0000)),peek(ubyte,@nibbles(&B0001)),peek(ubyte,@nibbles(&B0000)))
  4060ba:	48 0f be c9          	movsx  rcx,cl
;  Cpu->F.z=iif(Cpu->A =peek(ubyte,@nibbles(&B0000)),peek(ubyte,@nibbles(&B0001)),peek(ubyte,@nibbles(&B0000)))
  4060be:	0f 44 c7             	cmove  eax,edi
  4060c1:	83 e6 fd             	and    esi,0xfffffffd
  4060c4:	01 c0                	add    eax,eax
  4060c6:	83 e0 02             	and    eax,0x2
  4060c9:	09 f0                	or     eax,esi
  4060cb:	88 02                	mov    BYTE PTR [rdx],al
;  Cpu->F.n=iif(Cpu->sA<peek(ubyte,@nibbles(&B0000)),peek(ubyte,@nibbles(&B0001)),peek(ubyte,@nibbles(&B0000)))
  4060cd:	0f b6 3d cc cc 09 00 	movzx  edi,BYTE PTR [rip+0x9cccc]        # 4a2da0 <NIBBLES$>
  4060d4:	48 39 f9             	cmp    rcx,rdi
  4060d7:	0f b6 0d c3 cc 09 00 	movzx  ecx,BYTE PTR [rip+0x9ccc3]        # 4a2da1 <NIBBLES$+0x1>
  4060de:	48 89 fe             	mov    rsi,rdi
  4060e1:	0f 4c f1             	cmovl  esi,ecx
  4060e4:	83 e0 7f             	and    eax,0x7f
  4060e7:	c1 e6 07             	shl    esi,0x7
  4060ea:	09 f0                	or     eax,esi
  4060ec:	88 02                	mov    BYTE PTR [rdx],al
;end def
  4060ee:	c3                   	ret    
  4060ef:	90                   	nop

00000000004060f0 <INS_CLC>:
;  Cpu->F.C=peek(ubyte,@nibbles(&B0000))
  4060f0:	0f b6 07             	movzx  eax,BYTE PTR [rdi]
  4060f3:	0f b6 15 a6 cc 09 00 	movzx  edx,BYTE PTR [rip+0x9cca6]        # 4a2da0 <NIBBLES$>
  4060fa:	83 e0 fe             	and    eax,0xfffffffe
  4060fd:	83 e2 01             	and    edx,0x1
  406100:	09 d0                	or     eax,edx
  406102:	88 07                	mov    BYTE PTR [rdi],al
;end def
  406104:	c3                   	ret    
  406105:	66 66 2e 0f 1f 84 00 	data16 cs nop WORD PTR [rax+rax*1+0x0]
  40610c:	00 00 00 00 

0000000000406110 <INS_CLD>:
;  Cpu->F.D=peek(ubyte,@nibbles(&B0000))
  406110:	0f b6 05 89 cc 09 00 	movzx  eax,BYTE PTR [rip+0x9cc89]        # 4a2da0 <NIBBLES$>
  406117:	0f b6 17             	movzx  edx,BYTE PTR [rdi]
  40611a:	c1 e0 03             	shl    eax,0x3
  40611d:	83 e2 f7             	and    edx,0xfffffff7
  406120:	83 e0 08             	and    eax,0x8
  406123:	09 d0                	or     eax,edx
  406125:	88 07                	mov    BYTE PTR [rdi],al
;end def
  406127:	c3                   	ret    
  406128:	0f 1f 84 00 00 00 00 	nop    DWORD PTR [rax+rax*1+0x0]
  40612f:	00 

0000000000406130 <INS_CLI>:
;  Cpu->F.I=peek(ubyte,@nibbles(&B0000))
  406130:	0f b6 05 69 cc 09 00 	movzx  eax,BYTE PTR [rip+0x9cc69]        # 4a2da0 <NIBBLES$>
  406137:	0f b6 17             	movzx  edx,BYTE PTR [rdi]
  40613a:	c1 e0 02             	shl    eax,0x2
  40613d:	83 e2 fb             	and    edx,0xfffffffb
  406140:	83 e0 04             	and    eax,0x4
  406143:	09 d0                	or     eax,edx
  406145:	88 07                	mov    BYTE PTR [rdi],al
;end def
  406147:	c3                   	ret    
  406148:	0f 1f 84 00 00 00 00 	nop    DWORD PTR [rax+rax*1+0x0]
  40614f:	00 

0000000000406150 <INS_CLV>:
;  Cpu->F.V=peek(ubyte,@nibbles(&B0000))
  406150:	0f b6 05 49 cc 09 00 	movzx  eax,BYTE PTR [rip+0x9cc49]        # 4a2da0 <NIBBLES$>
  406157:	0f b6 17             	movzx  edx,BYTE PTR [rdi]
  40615a:	c1 e0 06             	shl    eax,0x6
  40615d:	83 e2 bf             	and    edx,0xffffffbf
  406160:	83 e0 40             	and    eax,0x40
  406163:	09 d0                	or     eax,edx
  406165:	88 07                	mov    BYTE PTR [rdi],al
;end def
  406167:	c3                   	ret    
  406168:	0f 1f 84 00 00 00 00 	nop    DWORD PTR [rax+rax*1+0x0]
  40616f:	00 

0000000000406170 <INS_DEX>:
;  Cpu->sX-=1d
  406170:	0f be 47 02          	movsx  eax,BYTE PTR [rdi+0x2]
  406174:	66 0f ef c0          	pxor   xmm0,xmm0
;  Cpu->F.z=iif(Cpu->X =peek(ubyte,@nibbles(&B0000)),peek(ubyte,@nibbles(&B0001)),peek(ubyte,@nibbles(&B0000)))
  406178:	0f b6 15 21 cc 09 00 	movzx  edx,BYTE PTR [rip+0x9cc21]        # 4a2da0 <NIBBLES$>
;def INS_DEX(byval Cpu as CPU6510_T)
  40617f:	48 89 f9             	mov    rcx,rdi
;  Cpu->sX-=1d
  406182:	f2 0f 2a c0          	cvtsi2sd xmm0,eax
  406186:	f2 0f 5c 05 c2 cf 06 	subsd  xmm0,QWORD PTR [rip+0x6cfc2]        # 473150 <_IO_stdin_used+0x4150>
  40618d:	00 
  40618e:	f2 0f 2c f0          	cvttsd2si esi,xmm0
  406192:	40 88 77 02          	mov    BYTE PTR [rdi+0x2],sil
;  Cpu->F.z=iif(Cpu->X =peek(ubyte,@nibbles(&B0000)),peek(ubyte,@nibbles(&B0001)),peek(ubyte,@nibbles(&B0000)))
  406196:	0f b6 05 04 cc 09 00 	movzx  eax,BYTE PTR [rip+0x9cc04]        # 4a2da1 <NIBBLES$+0x1>
  40619d:	40 38 f2             	cmp    dl,sil
;  Cpu->F.n=iif(Cpu->sX<peek(ubyte,@nibbles(&B0000)),peek(ubyte,@nibbles(&B0001)),peek(ubyte,@nibbles(&B0000)))
  4061a0:	48 0f be f6          	movsx  rsi,sil
;  Cpu->F.z=iif(Cpu->X =peek(ubyte,@nibbles(&B0000)),peek(ubyte,@nibbles(&B0001)),peek(ubyte,@nibbles(&B0000)))
  4061a4:	0f 44 d0             	cmove  edx,eax
  4061a7:	0f b6 07             	movzx  eax,BYTE PTR [rdi]
  4061aa:	01 d2                	add    edx,edx
  4061ac:	83 e0 fd             	and    eax,0xfffffffd
  4061af:	83 e2 02             	and    edx,0x2
  4061b2:	09 d0                	or     eax,edx
  4061b4:	88 07                	mov    BYTE PTR [rdi],al
;  Cpu->F.n=iif(Cpu->sX<peek(ubyte,@nibbles(&B0000)),peek(ubyte,@nibbles(&B0001)),peek(ubyte,@nibbles(&B0000)))
  4061b6:	0f b6 3d e3 cb 09 00 	movzx  edi,BYTE PTR [rip+0x9cbe3]        # 4a2da0 <NIBBLES$>
  4061bd:	48 39 fe             	cmp    rsi,rdi
  4061c0:	0f b6 35 da cb 09 00 	movzx  esi,BYTE PTR [rip+0x9cbda]        # 4a2da1 <NIBBLES$+0x1>
  4061c7:	48 89 fa             	mov    rdx,rdi
  4061ca:	0f 4c d6             	cmovl  edx,esi
  4061cd:	83 e0 7f             	and    eax,0x7f
  4061d0:	c1 e2 07             	shl    edx,0x7
  4061d3:	09 d0                	or     eax,edx
  4061d5:	88 01                	mov    BYTE PTR [rcx],al
;end def
  4061d7:	c3                   	ret    
  4061d8:	0f 1f 84 00 00 00 00 	nop    DWORD PTR [rax+rax*1+0x0]
  4061df:	00 

00000000004061e0 <INS_DEY>:
;  Cpu->sY-=peek(ubyte,@nibbles(&B0001))
  4061e0:	0f b6 77 03          	movzx  esi,BYTE PTR [rdi+0x3]
;  Cpu->F.z=iif(Cpu->Y =peek(ubyte,@nibbles(&B0000)),peek(ubyte,@nibbles(&B0001)),peek(ubyte,@nibbles(&B0000)))
  4061e4:	0f b6 15 b5 cb 09 00 	movzx  edx,BYTE PTR [rip+0x9cbb5]        # 4a2da0 <NIBBLES$>
;def INS_DEY(byval Cpu as CPU6510_T)
  4061eb:	48 89 f9             	mov    rcx,rdi
;  Cpu->sY-=peek(ubyte,@nibbles(&B0001))
  4061ee:	40 2a 35 ac cb 09 00 	sub    sil,BYTE PTR [rip+0x9cbac]        # 4a2da1 <NIBBLES$+0x1>
  4061f5:	40 88 77 03          	mov    BYTE PTR [rdi+0x3],sil
;  Cpu->F.z=iif(Cpu->Y =peek(ubyte,@nibbles(&B0000)),peek(ubyte,@nibbles(&B0001)),peek(ubyte,@nibbles(&B0000)))
  4061f9:	0f b6 05 a1 cb 09 00 	movzx  eax,BYTE PTR [rip+0x9cba1]        # 4a2da1 <NIBBLES$+0x1>
  406200:	40 38 d6             	cmp    sil,dl
;  Cpu->F.n=iif(Cpu->sY<peek(ubyte,@nibbles(&B0000)),peek(ubyte,@nibbles(&B0001)),peek(ubyte,@nibbles(&B0000)))
  406203:	48 0f be f6          	movsx  rsi,sil
;  Cpu->F.z=iif(Cpu->Y =peek(ubyte,@nibbles(&B0000)),peek(ubyte,@nibbles(&B0001)),peek(ubyte,@nibbles(&B0000)))
  406207:	0f 44 d0             	cmove  edx,eax
  40620a:	0f b6 07             	movzx  eax,BYTE PTR [rdi]
  40620d:	01 d2                	add    edx,edx
  40620f:	83 e0 fd             	and    eax,0xfffffffd
  406212:	83 e2 02             	and    edx,0x2
  406215:	09 d0                	or     eax,edx
  406217:	88 07                	mov    BYTE PTR [rdi],al
;  Cpu->F.n=iif(Cpu->sY<peek(ubyte,@nibbles(&B0000)),peek(ubyte,@nibbles(&B0001)),peek(ubyte,@nibbles(&B0000)))
  406219:	0f b6 3d 80 cb 09 00 	movzx  edi,BYTE PTR [rip+0x9cb80]        # 4a2da0 <NIBBLES$>
  406220:	48 39 fe             	cmp    rsi,rdi
  406223:	0f b6 35 77 cb 09 00 	movzx  esi,BYTE PTR [rip+0x9cb77]        # 4a2da1 <NIBBLES$+0x1>
  40622a:	48 89 fa             	mov    rdx,rdi
  40622d:	0f 4c d6             	cmovl  edx,esi
  406230:	83 e0 7f             	and    eax,0x7f
  406233:	c1 e2 07             	shl    edx,0x7
  406236:	09 d0                	or     eax,edx
  406238:	88 01                	mov    BYTE PTR [rcx],al
;end def
  40623a:	c3                   	ret    
  40623b:	0f 1f 44 00 00       	nop    DWORD PTR [rax+rax*1+0x0]

0000000000406240 <INS_INX>:
;  v.ulo=Cpu->X
  406240:	0f b6 47 02          	movzx  eax,BYTE PTR [rdi+0x2]
;  v.s16+=peek(ubyte,@nibbles(&B0001))
  406244:	0f b6 15 56 cb 09 00 	movzx  edx,BYTE PTR [rip+0x9cb56]        # 4a2da1 <NIBBLES$+0x1>
;def INS_INX(byval Cpu as CPU6510_T)
  40624b:	48 89 fe             	mov    rsi,rdi
;  Cpu->F.z=iif(v.ulo=peek(ubyte,@nibbles(&B0000)),peek(ubyte,@nibbles(&B0001)),peek(ubyte,@nibbles(&B0000)))
  40624e:	0f b6 0d 4b cb 09 00 	movzx  ecx,BYTE PTR [rip+0x9cb4b]        # 4a2da0 <NIBBLES$>
;  v.ulo=Cpu->X
  406255:	88 05 15 ca 07 00    	mov    BYTE PTR [rip+0x7ca15],al        # 482c70 <V$>
;  v.s16+=peek(ubyte,@nibbles(&B0001))
  40625b:	66 03 15 0e ca 07 00 	add    dx,WORD PTR [rip+0x7ca0e]        # 482c70 <V$>
;  Cpu->X=v.ulo
  406262:	88 57 02             	mov    BYTE PTR [rdi+0x2],dl
;  Cpu->F.z=iif(v.ulo=peek(ubyte,@nibbles(&B0000)),peek(ubyte,@nibbles(&B0001)),peek(ubyte,@nibbles(&B0000)))
  406265:	0f b6 05 35 cb 09 00 	movzx  eax,BYTE PTR [rip+0x9cb35]        # 4a2da1 <NIBBLES$+0x1>
  40626c:	38 d1                	cmp    cl,dl
;  v.s16+=peek(ubyte,@nibbles(&B0001))
  40626e:	66 89 15 fb c9 07 00 	mov    WORD PTR [rip+0x7c9fb],dx        # 482c70 <V$>
;  Cpu->F.n=iif(v.slo<peek(ubyte,@nibbles(&B0000)),peek(ubyte,@nibbles(&B0001)),peek(ubyte,@nibbles(&B0000)))
  406275:	48 0f be d2          	movsx  rdx,dl
;  Cpu->F.z=iif(v.ulo=peek(ubyte,@nibbles(&B0000)),peek(ubyte,@nibbles(&B0001)),peek(ubyte,@nibbles(&B0000)))
  406279:	0f 44 c8             	cmove  ecx,eax
  40627c:	0f b6 07             	movzx  eax,BYTE PTR [rdi]
  40627f:	01 c9                	add    ecx,ecx
  406281:	83 e0 fd             	and    eax,0xfffffffd
  406284:	83 e1 02             	and    ecx,0x2
  406287:	09 c8                	or     eax,ecx
  406289:	88 07                	mov    BYTE PTR [rdi],al
;  Cpu->F.n=iif(v.slo<peek(ubyte,@nibbles(&B0000)),peek(ubyte,@nibbles(&B0001)),peek(ubyte,@nibbles(&B0000)))
  40628b:	0f b6 3d 0e cb 09 00 	movzx  edi,BYTE PTR [rip+0x9cb0e]        # 4a2da0 <NIBBLES$>
  406292:	48 39 fa             	cmp    rdx,rdi
  406295:	0f b6 15 05 cb 09 00 	movzx  edx,BYTE PTR [rip+0x9cb05]        # 4a2da1 <NIBBLES$+0x1>
  40629c:	48 89 f9             	mov    rcx,rdi
  40629f:	0f 4c ca             	cmovl  ecx,edx
  4062a2:	83 e0 7f             	and    eax,0x7f
  4062a5:	c1 e1 07             	shl    ecx,0x7
  4062a8:	09 c8                	or     eax,ecx
  4062aa:	88 06                	mov    BYTE PTR [rsi],al
;end def
  4062ac:	c3                   	ret    
  4062ad:	0f 1f 00             	nop    DWORD PTR [rax]

00000000004062b0 <INS_INY>:
;  v.ulo=Cpu->Y
  4062b0:	0f b6 47 03          	movzx  eax,BYTE PTR [rdi+0x3]
;  v.s16+=peek(ubyte,@nibbles(&B0001))
  4062b4:	0f b6 15 e6 ca 09 00 	movzx  edx,BYTE PTR [rip+0x9cae6]        # 4a2da1 <NIBBLES$+0x1>
;def INS_INY(byval Cpu as CPU6510_T)
  4062bb:	48 89 fe             	mov    rsi,rdi
;  Cpu->F.z=iif(v.ulo=peek(ubyte,@nibbles(&B0000)),peek(ubyte,@nibbles(&B0001)),peek(ubyte,@nibbles(&B0000)))
  4062be:	0f b6 0d db ca 09 00 	movzx  ecx,BYTE PTR [rip+0x9cadb]        # 4a2da0 <NIBBLES$>
;  v.ulo=Cpu->Y
  4062c5:	88 05 a5 c9 07 00    	mov    BYTE PTR [rip+0x7c9a5],al        # 482c70 <V$>
;  v.s16+=peek(ubyte,@nibbles(&B0001))
  4062cb:	66 03 15 9e c9 07 00 	add    dx,WORD PTR [rip+0x7c99e]        # 482c70 <V$>
;  Cpu->Y=v.ulo
  4062d2:	88 57 03             	mov    BYTE PTR [rdi+0x3],dl
;  Cpu->F.z=iif(v.ulo=peek(ubyte,@nibbles(&B0000)),peek(ubyte,@nibbles(&B0001)),peek(ubyte,@nibbles(&B0000)))
  4062d5:	0f b6 05 c5 ca 09 00 	movzx  eax,BYTE PTR [rip+0x9cac5]        # 4a2da1 <NIBBLES$+0x1>
  4062dc:	38 d1                	cmp    cl,dl
;  v.s16+=peek(ubyte,@nibbles(&B0001))
  4062de:	66 89 15 8b c9 07 00 	mov    WORD PTR [rip+0x7c98b],dx        # 482c70 <V$>
;  Cpu->F.n=iif(v.slo<peek(ubyte,@nibbles(&B0000)),peek(ubyte,@nibbles(&B0001)),peek(ubyte,@nibbles(&B0000)))
  4062e5:	48 0f be d2          	movsx  rdx,dl
;  Cpu->F.z=iif(v.ulo=peek(ubyte,@nibbles(&B0000)),peek(ubyte,@nibbles(&B0001)),peek(ubyte,@nibbles(&B0000)))
  4062e9:	0f 44 c8             	cmove  ecx,eax
  4062ec:	0f b6 07             	movzx  eax,BYTE PTR [rdi]
  4062ef:	01 c9                	add    ecx,ecx
  4062f1:	83 e0 fd             	and    eax,0xfffffffd
  4062f4:	83 e1 02             	and    ecx,0x2
  4062f7:	09 c8                	or     eax,ecx
  4062f9:	88 07                	mov    BYTE PTR [rdi],al
;  Cpu->F.n=iif(v.slo<peek(ubyte,@nibbles(&B0000)),peek(ubyte,@nibbles(&B0001)),peek(ubyte,@nibbles(&B0000)))
  4062fb:	0f b6 3d 9e ca 09 00 	movzx  edi,BYTE PTR [rip+0x9ca9e]        # 4a2da0 <NIBBLES$>
  406302:	48 39 fa             	cmp    rdx,rdi
  406305:	0f b6 15 95 ca 09 00 	movzx  edx,BYTE PTR [rip+0x9ca95]        # 4a2da1 <NIBBLES$+0x1>
  40630c:	48 89 f9             	mov    rcx,rdi
  40630f:	0f 4c ca             	cmovl  ecx,edx
  406312:	83 e0 7f             	and    eax,0x7f
  406315:	c1 e1 07             	shl    ecx,0x7
  406318:	09 c8                	or     eax,ecx
  40631a:	88 06                	mov    BYTE PTR [rsi],al
;end def
  40631c:	c3                   	ret    
  40631d:	0f 1f 00             	nop    DWORD PTR [rax]

0000000000406320 <INS_JMP>:
;  Cpu->PC=Cpu->Code.op.u16
  406320:	0f b7 47 38          	movzx  eax,WORD PTR [rdi+0x38]
  406324:	66 89 47 04          	mov    WORD PTR [rdi+0x4],ax
;end def
  406328:	c3                   	ret    
  406329:	0f 1f 80 00 00 00 00 	nop    DWORD PTR [rax+0x0]

0000000000406330 <INS_LSRA>:
;  Cpu->F.c=iif(Cpu->A and peek(ubyte,@nibbles(&B0001)),peek(ubyte,@nibbles(&B0001)),peek(ubyte,@nibbles(&B0000)))
  406330:	0f b6 57 01          	movzx  edx,BYTE PTR [rdi+0x1]
  406334:	0f b6 05 66 ca 09 00 	movzx  eax,BYTE PTR [rip+0x9ca66]        # 4a2da1 <NIBBLES$+0x1>
;def INS_LSRA(byval Cpu as CPU6510_T) ' ac
  40633b:	48 89 fe             	mov    rsi,rdi
;  Cpu->F.c=iif(Cpu->A and peek(ubyte,@nibbles(&B0001)),peek(ubyte,@nibbles(&B0001)),peek(ubyte,@nibbles(&B0000)))
  40633e:	0f b6 0d 5b ca 09 00 	movzx  ecx,BYTE PTR [rip+0x9ca5b]        # 4a2da0 <NIBBLES$>
  406345:	0f b6 3f             	movzx  edi,BYTE PTR [rdi]
  406348:	84 c2                	test   dl,al
  40634a:	0f 44 c1             	cmove  eax,ecx
  40634d:	83 e7 fe             	and    edi,0xfffffffe
  406350:	83 e0 01             	and    eax,0x1
  406353:	09 c7                	or     edi,eax
  406355:	40 88 3e             	mov    BYTE PTR [rsi],dil
;  Cpu->A shr = peek(ubyte,@nibbles(&B0001))
  406358:	0f b6 0d 42 ca 09 00 	movzx  ecx,BYTE PTR [rip+0x9ca42]        # 4a2da1 <NIBBLES$+0x1>
;  Cpu->F.Z=iif(Cpu->A =peek(ubyte,@nibbles(&B0000)),peek(ubyte,@nibbles(&B0001)),peek(ubyte,@nibbles(&B0000)))
  40635f:	0f b6 05 3a ca 09 00 	movzx  eax,BYTE PTR [rip+0x9ca3a]        # 4a2da0 <NIBBLES$>
;  Cpu->A shr = peek(ubyte,@nibbles(&B0001))
  406366:	48 d3 fa             	sar    rdx,cl
  406369:	88 56 01             	mov    BYTE PTR [rsi+0x1],dl
;  Cpu->F.Z=iif(Cpu->A =peek(ubyte,@nibbles(&B0000)),peek(ubyte,@nibbles(&B0001)),peek(ubyte,@nibbles(&B0000)))
  40636c:	0f b6 0d 2e ca 09 00 	movzx  ecx,BYTE PTR [rip+0x9ca2e]        # 4a2da1 <NIBBLES$+0x1>
  406373:	38 d0                	cmp    al,dl
;  Cpu->F.N=iif(Cpu->sA<peek(ubyte,@nibbles(&B0000)),peek(ubyte,@nibbles(&B0001)),peek(ubyte,@nibbles(&B0000)))
  406375:	48 0f be d2          	movsx  rdx,dl
;  Cpu->F.Z=iif(Cpu->A =peek(ubyte,@nibbles(&B0000)),peek(ubyte,@nibbles(&B0001)),peek(ubyte,@nibbles(&B0000)))
  406379:	0f 44 c1             	cmove  eax,ecx
  40637c:	83 e7 fd             	and    edi,0xfffffffd
  40637f:	01 c0                	add    eax,eax
  406381:	83 e0 02             	and    eax,0x2
  406384:	09 f8                	or     eax,edi
  406386:	88 06                	mov    BYTE PTR [rsi],al
;  Cpu->F.N=iif(Cpu->sA<peek(ubyte,@nibbles(&B0000)),peek(ubyte,@nibbles(&B0001)),peek(ubyte,@nibbles(&B0000)))
  406388:	0f b6 3d 11 ca 09 00 	movzx  edi,BYTE PTR [rip+0x9ca11]        # 4a2da0 <NIBBLES$>
  40638f:	48 39 fa             	cmp    rdx,rdi
  406392:	0f b6 15 08 ca 09 00 	movzx  edx,BYTE PTR [rip+0x9ca08]        # 4a2da1 <NIBBLES$+0x1>
  406399:	48 89 f9             	mov    rcx,rdi
  40639c:	0f 4c ca             	cmovl  ecx,edx
  40639f:	83 e0 7f             	and    eax,0x7f
  4063a2:	c1 e1 07             	shl    ecx,0x7
  4063a5:	09 c8                	or     eax,ecx
  4063a7:	88 06                	mov    BYTE PTR [rsi],al
;end def
  4063a9:	c3                   	ret    
  4063aa:	66 0f 1f 44 00 00    	nop    WORD PTR [rax+rax*1+0x0]

00000000004063b0 <INS_ROLA>:
;  cary=iif(Cpu->F.c=peek(ubyte,@nibbles(&B0001)),peek(ubyte,@nibbles(&B0001)),peek(ubyte,@nibbles(&B0000)))
  4063b0:	0f b6 17             	movzx  edx,BYTE PTR [rdi]
  4063b3:	0f b6 05 e7 c9 09 00 	movzx  eax,BYTE PTR [rip+0x9c9e7]        # 4a2da1 <NIBBLES$+0x1>
;def INS_ROLA(byval Cpu as CPU6510_T) ' ac
  4063ba:	48 89 fe             	mov    rsi,rdi
;  Cpu->F.c=iif(Cpu->A and peek(ubyte,@nibbles(&B1000)) shl peek(ubyte,@nibbles(&B0100)),peek(ubyte,@nibbles(&B0001)),peek(ubyte,@nibbles(&B0000)))
  4063bd:	0f b6 0d e0 c9 09 00 	movzx  ecx,BYTE PTR [rip+0x9c9e0]        # 4a2da4 <NIBBLES$+0x4>
;  cary=iif(Cpu->F.c=peek(ubyte,@nibbles(&B0001)),peek(ubyte,@nibbles(&B0001)),peek(ubyte,@nibbles(&B0000)))
  4063c4:	44 0f b6 15 d4 c9 09 	movzx  r10d,BYTE PTR [rip+0x9c9d4]        # 4a2da0 <NIBBLES$>
  4063cb:	00 
  4063cc:	41 89 d0             	mov    r8d,edx
;  Cpu->F.c=iif(Cpu->A and peek(ubyte,@nibbles(&B1000)) shl peek(ubyte,@nibbles(&B0100)),peek(ubyte,@nibbles(&B0001)),peek(ubyte,@nibbles(&B0000)))
  4063cf:	44 0f b6 0d d1 c9 09 	movzx  r9d,BYTE PTR [rip+0x9c9d1]        # 4a2da8 <NIBBLES$+0x8>
  4063d6:	00 
  4063d7:	0f b6 7f 01          	movzx  edi,BYTE PTR [rdi+0x1]
  4063db:	41 83 e0 01          	and    r8d,0x1
;  cary=iif(Cpu->F.c=peek(ubyte,@nibbles(&B0001)),peek(ubyte,@nibbles(&B0001)),peek(ubyte,@nibbles(&B0000)))
  4063df:	44 38 c0             	cmp    al,r8b
  4063e2:	45 0f 45 c2          	cmovne r8d,r10d
;  Cpu->F.c=iif(Cpu->A and peek(ubyte,@nibbles(&B1000)) shl peek(ubyte,@nibbles(&B0100)),peek(ubyte,@nibbles(&B0001)),peek(ubyte,@nibbles(&B0000)))
  4063e6:	49 d3 e1             	shl    r9,cl
  4063e9:	49 85 f9             	test   r9,rdi
  4063ec:	41 0f 44 c2          	cmove  eax,r10d
  4063f0:	83 e2 fe             	and    edx,0xfffffffe
  4063f3:	83 e0 01             	and    eax,0x1
  4063f6:	09 c2                	or     edx,eax
;  Cpu->A shl= peek(ubyte,@nibbles(&B0001))
  4063f8:	48 89 f8             	mov    rax,rdi
;  Cpu->F.c=iif(Cpu->A and peek(ubyte,@nibbles(&B1000)) shl peek(ubyte,@nibbles(&B0100)),peek(ubyte,@nibbles(&B0001)),peek(ubyte,@nibbles(&B0000)))
  4063fb:	88 16                	mov    BYTE PTR [rsi],dl
;  Cpu->A shl= peek(ubyte,@nibbles(&B0001))
  4063fd:	0f b6 0d 9d c9 09 00 	movzx  ecx,BYTE PTR [rip+0x9c99d]        # 4a2da1 <NIBBLES$+0x1>
  406404:	48 d3 e0             	shl    rax,cl
  406407:	88 46 01             	mov    BYTE PTR [rsi+0x1],al
  40640a:	89 c1                	mov    ecx,eax
;  if cary then Cpu->A or =peek(ubyte,@nibbles(&B0001))
  40640c:	45 84 c0             	test   r8b,r8b
  40640f:	74 09                	je     40641a <INS_ROLA+0x6a>
  406411:	0a 0d 8a c9 09 00    	or     cl,BYTE PTR [rip+0x9c98a]        # 4a2da1 <NIBBLES$+0x1>
  406417:	88 4e 01             	mov    BYTE PTR [rsi+0x1],cl
;  Cpu->F.z=iif(Cpu->A =peek(ubyte,@nibbles(&B0000)),peek(ubyte,@nibbles(&B0001)),peek(ubyte,@nibbles(&B0000)))
  40641a:	0f b6 05 7f c9 09 00 	movzx  eax,BYTE PTR [rip+0x9c97f]        # 4a2da0 <NIBBLES$>
  406421:	0f b6 3d 79 c9 09 00 	movzx  edi,BYTE PTR [rip+0x9c979]        # 4a2da1 <NIBBLES$+0x1>
  406428:	38 c8                	cmp    al,cl
;  Cpu->F.n=iif(Cpu->sA<peek(ubyte,@nibbles(&B0000)),peek(ubyte,@nibbles(&B0001)),peek(ubyte,@nibbles(&B0000)))
  40642a:	48 0f be c9          	movsx  rcx,cl
;  Cpu->F.z=iif(Cpu->A =peek(ubyte,@nibbles(&B0000)),peek(ubyte,@nibbles(&B0001)),peek(ubyte,@nibbles(&B0000)))
  40642e:	0f 44 c7             	cmove  eax,edi
  406431:	83 e2 fd             	and    edx,0xfffffffd
  406434:	01 c0                	add    eax,eax
  406436:	83 e0 02             	and    eax,0x2
  406439:	09 d0                	or     eax,edx
  40643b:	88 06                	mov    BYTE PTR [rsi],al
;  Cpu->F.n=iif(Cpu->sA<peek(ubyte,@nibbles(&B0000)),peek(ubyte,@nibbles(&B0001)),peek(ubyte,@nibbles(&B0000)))
  40643d:	0f b6 3d 5c c9 09 00 	movzx  edi,BYTE PTR [rip+0x9c95c]        # 4a2da0 <NIBBLES$>
  406444:	48 39 f9             	cmp    rcx,rdi
  406447:	0f b6 0d 53 c9 09 00 	movzx  ecx,BYTE PTR [rip+0x9c953]        # 4a2da1 <NIBBLES$+0x1>
  40644e:	48 89 fa             	mov    rdx,rdi
  406451:	0f 4c d1             	cmovl  edx,ecx
  406454:	83 e0 7f             	and    eax,0x7f
  406457:	c1 e2 07             	shl    edx,0x7
  40645a:	09 d0                	or     eax,edx
  40645c:	88 06                	mov    BYTE PTR [rsi],al
;end def
  40645e:	c3                   	ret    
  40645f:	90                   	nop

0000000000406460 <INS_RORA>:
;  cary=iif(Cpu->F.c=peek(ubyte,@nibbles(&B0001)),peek(ubyte,@nibbles(&B0001)),peek(ubyte,@nibbles(&B0000)))
  406460:	0f b6 17             	movzx  edx,BYTE PTR [rdi]
  406463:	0f b6 05 37 c9 09 00 	movzx  eax,BYTE PTR [rip+0x9c937]        # 4a2da1 <NIBBLES$+0x1>
;def INS_RORA(byval Cpu as CPU6510_T) ' ac
  40646a:	48 89 fe             	mov    rsi,rdi
;  cary=iif(Cpu->F.c=peek(ubyte,@nibbles(&B0001)),peek(ubyte,@nibbles(&B0001)),peek(ubyte,@nibbles(&B0000)))
  40646d:	0f b6 0d 2c c9 09 00 	movzx  ecx,BYTE PTR [rip+0x9c92c]        # 4a2da0 <NIBBLES$>
;  Cpu->F.c=iif(Cpu->A and peek(ubyte,@nibbles(&B0001)),peek(ubyte,@nibbles(&B0001)),peek(ubyte,@nibbles(&B0000)))
  406474:	0f b6 7f 01          	movzx  edi,BYTE PTR [rdi+0x1]
  406478:	41 89 d0             	mov    r8d,edx
  40647b:	41 83 e0 01          	and    r8d,0x1
;  cary=iif(Cpu->F.c=peek(ubyte,@nibbles(&B0001)),peek(ubyte,@nibbles(&B0001)),peek(ubyte,@nibbles(&B0000)))
  40647f:	44 38 c0             	cmp    al,r8b
  406482:	44 0f 45 c1          	cmovne r8d,ecx
;  Cpu->F.c=iif(Cpu->A and peek(ubyte,@nibbles(&B0001)),peek(ubyte,@nibbles(&B0001)),peek(ubyte,@nibbles(&B0000)))
  406486:	40 84 f8             	test   al,dil
  406489:	0f 44 c1             	cmove  eax,ecx
  40648c:	83 e2 fe             	and    edx,0xfffffffe
  40648f:	83 e0 01             	and    eax,0x1
  406492:	09 c2                	or     edx,eax
  406494:	88 16                	mov    BYTE PTR [rsi],dl
;  Cpu->A shr= peek(ubyte,@nibbles(&B0001))
  406496:	0f b6 0d 04 c9 09 00 	movzx  ecx,BYTE PTR [rip+0x9c904]        # 4a2da1 <NIBBLES$+0x1>
  40649d:	48 d3 ff             	sar    rdi,cl
  4064a0:	40 88 7e 01          	mov    BYTE PTR [rsi+0x1],dil
  4064a4:	89 f9                	mov    ecx,edi
;  if cary then Cpu->A or =peek(ubyte,@nibbles(&B1000)) shl peek(ubyte,@nibbles(&B0100))
  4064a6:	45 84 c0             	test   r8b,r8b
  4064a9:	74 19                	je     4064c4 <INS_RORA+0x64>
  4064ab:	0f b6 0d f2 c8 09 00 	movzx  ecx,BYTE PTR [rip+0x9c8f2]        # 4a2da4 <NIBBLES$+0x4>
  4064b2:	0f b6 05 ef c8 09 00 	movzx  eax,BYTE PTR [rip+0x9c8ef]        # 4a2da8 <NIBBLES$+0x8>
  4064b9:	48 d3 e0             	shl    rax,cl
  4064bc:	48 89 c1             	mov    rcx,rax
  4064bf:	09 f9                	or     ecx,edi
  4064c1:	88 4e 01             	mov    BYTE PTR [rsi+0x1],cl
;  Cpu->F.z=iif(Cpu->A =peek(ubyte,@nibbles(&B0000)),peek(ubyte,@nibbles(&B0001)),peek(ubyte,@nibbles(&B0000)))
  4064c4:	0f b6 05 d5 c8 09 00 	movzx  eax,BYTE PTR [rip+0x9c8d5]        # 4a2da0 <NIBBLES$>
  4064cb:	0f b6 3d cf c8 09 00 	movzx  edi,BYTE PTR [rip+0x9c8cf]        # 4a2da1 <NIBBLES$+0x1>
  4064d2:	38 c8                	cmp    al,cl
;  Cpu->F.n=iif(Cpu->sA<peek(ubyte,@nibbles(&B0000)),peek(ubyte,@nibbles(&B0001)),peek(ubyte,@nibbles(&B0000)))
  4064d4:	48 0f be c9          	movsx  rcx,cl
;  Cpu->F.z=iif(Cpu->A =peek(ubyte,@nibbles(&B0000)),peek(ubyte,@nibbles(&B0001)),peek(ubyte,@nibbles(&B0000)))
  4064d8:	0f 44 c7             	cmove  eax,edi
  4064db:	83 e2 fd             	and    edx,0xfffffffd
  4064de:	01 c0                	add    eax,eax
  4064e0:	83 e0 02             	and    eax,0x2
  4064e3:	09 d0                	or     eax,edx
  4064e5:	88 06                	mov    BYTE PTR [rsi],al
;  Cpu->F.n=iif(Cpu->sA<peek(ubyte,@nibbles(&B0000)),peek(ubyte,@nibbles(&B0001)),peek(ubyte,@nibbles(&B0000)))
  4064e7:	0f b6 3d b2 c8 09 00 	movzx  edi,BYTE PTR [rip+0x9c8b2]        # 4a2da0 <NIBBLES$>
  4064ee:	48 39 f9             	cmp    rcx,rdi
  4064f1:	0f b6 0d a9 c8 09 00 	movzx  ecx,BYTE PTR [rip+0x9c8a9]        # 4a2da1 <NIBBLES$+0x1>
  4064f8:	48 89 fa             	mov    rdx,rdi
  4064fb:	0f 4c d1             	cmovl  edx,ecx
  4064fe:	83 e0 7f             	and    eax,0x7f
  406501:	c1 e2 07             	shl    edx,0x7
  406504:	09 d0                	or     eax,edx
  406506:	88 06                	mov    BYTE PTR [rsi],al
;end def
  406508:	c3                   	ret    
  406509:	0f 1f 80 00 00 00 00 	nop    DWORD PTR [rax+0x0]

0000000000406510 <INS_SEC>:
;  Cpu->F.C=peek(ubyte,@nibbles(&B0001))
  406510:	0f b6 05 8a c8 09 00 	movzx  eax,BYTE PTR [rip+0x9c88a]        # 4a2da1 <NIBBLES$+0x1>
  406517:	0f b6 17             	movzx  edx,BYTE PTR [rdi]
  40651a:	83 e0 01             	and    eax,0x1
  40651d:	83 e2 fe             	and    edx,0xfffffffe
  406520:	09 d0                	or     eax,edx
  406522:	88 07                	mov    BYTE PTR [rdi],al
;end def
  406524:	c3                   	ret    
  406525:	66 66 2e 0f 1f 84 00 	data16 cs nop WORD PTR [rax+rax*1+0x0]
  40652c:	00 00 00 00 

0000000000406530 <INS_SED>:
;  Cpu->F.D=peek(ubyte,@nibbles(&B0001))
  406530:	0f b6 05 6a c8 09 00 	movzx  eax,BYTE PTR [rip+0x9c86a]        # 4a2da1 <NIBBLES$+0x1>
  406537:	0f b6 17             	movzx  edx,BYTE PTR [rdi]
  40653a:	c1 e0 03             	shl    eax,0x3
  40653d:	83 e2 f7             	and    edx,0xfffffff7
  406540:	83 e0 08             	and    eax,0x8
  406543:	09 d0                	or     eax,edx
  406545:	88 07                	mov    BYTE PTR [rdi],al
;end def
  406547:	c3                   	ret    
  406548:	0f 1f 84 00 00 00 00 	nop    DWORD PTR [rax+rax*1+0x0]
  40654f:	00 

0000000000406550 <INS_SEI>:
;  Cpu->F.I=peek(ubyte,@nibbles(&B0001))
  406550:	0f b6 05 4a c8 09 00 	movzx  eax,BYTE PTR [rip+0x9c84a]        # 4a2da1 <NIBBLES$+0x1>
  406557:	0f b6 17             	movzx  edx,BYTE PTR [rdi]
  40655a:	c1 e0 02             	shl    eax,0x2
  40655d:	83 e2 fb             	and    edx,0xfffffffb
  406560:	83 e0 04             	and    eax,0x4
  406563:	09 d0                	or     eax,edx
  406565:	88 07                	mov    BYTE PTR [rdi],al
;end def
  406567:	c3                   	ret    
  406568:	0f 1f 84 00 00 00 00 	nop    DWORD PTR [rax+rax*1+0x0]
  40656f:	00 

0000000000406570 <INS_TAX>:
;  Cpu->X=Cpu->A
  406570:	48 0f be 4f 01       	movsx  rcx,BYTE PTR [rdi+0x1]
;  Cpu->F.Z=iif(Cpu->X =peek(ubyte,@nibbles(&B0000)),peek(ubyte,@nibbles(&B0001)),peek(ubyte,@nibbles(&B0000)))
  406575:	0f b6 15 24 c8 09 00 	movzx  edx,BYTE PTR [rip+0x9c824]        # 4a2da0 <NIBBLES$>
;  Cpu->X=Cpu->A
  40657c:	88 4f 02             	mov    BYTE PTR [rdi+0x2],cl
;  Cpu->F.Z=iif(Cpu->X =peek(ubyte,@nibbles(&B0000)),peek(ubyte,@nibbles(&B0001)),peek(ubyte,@nibbles(&B0000)))
  40657f:	0f b6 05 1b c8 09 00 	movzx  eax,BYTE PTR [rip+0x9c81b]        # 4a2da1 <NIBBLES$+0x1>
  406586:	38 d1                	cmp    cl,dl
  406588:	0f 44 d0             	cmove  edx,eax
  40658b:	0f b6 07             	movzx  eax,BYTE PTR [rdi]
  40658e:	01 d2                	add    edx,edx
  406590:	83 e0 fd             	and    eax,0xfffffffd
  406593:	83 e2 02             	and    edx,0x2
  406596:	09 d0                	or     eax,edx
  406598:	88 07                	mov    BYTE PTR [rdi],al
;  Cpu->F.N=iif(Cpu->sX<peek(ubyte,@nibbles(&B0000)),peek(ubyte,@nibbles(&B0001)),peek(ubyte,@nibbles(&B0000)))
  40659a:	0f b6 35 ff c7 09 00 	movzx  esi,BYTE PTR [rip+0x9c7ff]        # 4a2da0 <NIBBLES$>
  4065a1:	48 39 f1             	cmp    rcx,rsi
  4065a4:	0f b6 0d f6 c7 09 00 	movzx  ecx,BYTE PTR [rip+0x9c7f6]        # 4a2da1 <NIBBLES$+0x1>
  4065ab:	48 89 f2             	mov    rdx,rsi
  4065ae:	0f 4c d1             	cmovl  edx,ecx
  4065b1:	83 e0 7f             	and    eax,0x7f
  4065b4:	c1 e2 07             	shl    edx,0x7
  4065b7:	09 d0                	or     eax,edx
  4065b9:	88 07                	mov    BYTE PTR [rdi],al
;end def
  4065bb:	c3                   	ret    
  4065bc:	0f 1f 40 00          	nop    DWORD PTR [rax+0x0]

00000000004065c0 <INS_TAY>:
;  Cpu->Y=Cpu->A
  4065c0:	48 0f be 4f 01       	movsx  rcx,BYTE PTR [rdi+0x1]
;  Cpu->F.Z=iif(Cpu->Y =peek(ubyte,@nibbles(&B0000)),peek(ubyte,@nibbles(&B0001)),peek(ubyte,@nibbles(&B0000)))
  4065c5:	0f b6 15 d4 c7 09 00 	movzx  edx,BYTE PTR [rip+0x9c7d4]        # 4a2da0 <NIBBLES$>
;  Cpu->Y=Cpu->A
  4065cc:	88 4f 03             	mov    BYTE PTR [rdi+0x3],cl
;  Cpu->F.Z=iif(Cpu->Y =peek(ubyte,@nibbles(&B0000)),peek(ubyte,@nibbles(&B0001)),peek(ubyte,@nibbles(&B0000)))
  4065cf:	0f b6 05 cb c7 09 00 	movzx  eax,BYTE PTR [rip+0x9c7cb]        # 4a2da1 <NIBBLES$+0x1>
  4065d6:	38 d1                	cmp    cl,dl
  4065d8:	0f 44 d0             	cmove  edx,eax
  4065db:	0f b6 07             	movzx  eax,BYTE PTR [rdi]
  4065de:	01 d2                	add    edx,edx
  4065e0:	83 e0 fd             	and    eax,0xfffffffd
  4065e3:	83 e2 02             	and    edx,0x2
  4065e6:	09 d0                	or     eax,edx
  4065e8:	88 07                	mov    BYTE PTR [rdi],al
;  Cpu->F.N=iif(Cpu->sY<peek(ubyte,@nibbles(&B0000)),peek(ubyte,@nibbles(&B0001)),peek(ubyte,@nibbles(&B0000)))
  4065ea:	0f b6 35 af c7 09 00 	movzx  esi,BYTE PTR [rip+0x9c7af]        # 4a2da0 <NIBBLES$>
  4065f1:	48 39 f1             	cmp    rcx,rsi
  4065f4:	0f b6 0d a6 c7 09 00 	movzx  ecx,BYTE PTR [rip+0x9c7a6]        # 4a2da1 <NIBBLES$+0x1>
  4065fb:	48 89 f2             	mov    rdx,rsi
  4065fe:	0f 4c d1             	cmovl  edx,ecx
  406601:	83 e0 7f             	and    eax,0x7f
  406604:	c1 e2 07             	shl    edx,0x7
  406607:	09 d0                	or     eax,edx
  406609:	88 07                	mov    BYTE PTR [rdi],al
;end def
  40660b:	c3                   	ret    
  40660c:	0f 1f 40 00          	nop    DWORD PTR [rax+0x0]

0000000000406610 <INS_TSX>:
;  Cpu->X=Cpu->S
  406610:	48 0f be 4f 06       	movsx  rcx,BYTE PTR [rdi+0x6]
;  Cpu->F.Z=iif(Cpu->X =peek(ubyte,@nibbles(&B0000)),peek(ubyte,@nibbles(&B0001)),peek(ubyte,@nibbles(&B0000)))
  406615:	0f b6 15 84 c7 09 00 	movzx  edx,BYTE PTR [rip+0x9c784]        # 4a2da0 <NIBBLES$>
;  Cpu->X=Cpu->S
  40661c:	88 4f 02             	mov    BYTE PTR [rdi+0x2],cl
;  Cpu->F.Z=iif(Cpu->X =peek(ubyte,@nibbles(&B0000)),peek(ubyte,@nibbles(&B0001)),peek(ubyte,@nibbles(&B0000)))
  40661f:	0f b6 05 7b c7 09 00 	movzx  eax,BYTE PTR [rip+0x9c77b]        # 4a2da1 <NIBBLES$+0x1>
  406626:	38 d1                	cmp    cl,dl
  406628:	0f 44 d0             	cmove  edx,eax
  40662b:	0f b6 07             	movzx  eax,BYTE PTR [rdi]
  40662e:	01 d2                	add    edx,edx
  406630:	83 e0 fd             	and    eax,0xfffffffd
  406633:	83 e2 02             	and    edx,0x2
  406636:	09 d0                	or     eax,edx
  406638:	88 07                	mov    BYTE PTR [rdi],al
;  Cpu->F.N=iif(Cpu->sX<peek(ubyte,@nibbles(&B0000)),peek(ubyte,@nibbles(&B0001)),peek(ubyte,@nibbles(&B0000)))
  40663a:	0f b6 35 5f c7 09 00 	movzx  esi,BYTE PTR [rip+0x9c75f]        # 4a2da0 <NIBBLES$>
  406641:	48 39 f1             	cmp    rcx,rsi
  406644:	0f b6 0d 56 c7 09 00 	movzx  ecx,BYTE PTR [rip+0x9c756]        # 4a2da1 <NIBBLES$+0x1>
  40664b:	48 89 f2             	mov    rdx,rsi
  40664e:	0f 4c d1             	cmovl  edx,ecx
  406651:	83 e0 7f             	and    eax,0x7f
  406654:	c1 e2 07             	shl    edx,0x7
  406657:	09 d0                	or     eax,edx
  406659:	88 07                	mov    BYTE PTR [rdi],al
;end def
  40665b:	c3                   	ret    
  40665c:	0f 1f 40 00          	nop    DWORD PTR [rax+0x0]

0000000000406660 <INS_TXA>:
;  Cpu->A=Cpu->X
  406660:	48 0f be 4f 02       	movsx  rcx,BYTE PTR [rdi+0x2]
;  Cpu->F.Z=iif(Cpu->A =peek(ubyte,@nibbles(&B0000)),peek(ubyte,@nibbles(&B0001)),peek(ubyte,@nibbles(&B0000)))
  406665:	0f b6 15 34 c7 09 00 	movzx  edx,BYTE PTR [rip+0x9c734]        # 4a2da0 <NIBBLES$>
;  Cpu->A=Cpu->X
  40666c:	88 4f 01             	mov    BYTE PTR [rdi+0x1],cl
;  Cpu->F.Z=iif(Cpu->A =peek(ubyte,@nibbles(&B0000)),peek(ubyte,@nibbles(&B0001)),peek(ubyte,@nibbles(&B0000)))
  40666f:	0f b6 05 2b c7 09 00 	movzx  eax,BYTE PTR [rip+0x9c72b]        # 4a2da1 <NIBBLES$+0x1>
  406676:	38 d1                	cmp    cl,dl
  406678:	0f 44 d0             	cmove  edx,eax
  40667b:	0f b6 07             	movzx  eax,BYTE PTR [rdi]
  40667e:	01 d2                	add    edx,edx
  406680:	83 e0 fd             	and    eax,0xfffffffd
  406683:	83 e2 02             	and    edx,0x2
  406686:	09 d0                	or     eax,edx
  406688:	88 07                	mov    BYTE PTR [rdi],al
;  Cpu->F.N=iif(Cpu->sA<peek(ubyte,@nibbles(&B0000)),peek(ubyte,@nibbles(&B0001)),peek(ubyte,@nibbles(&B0000)))
  40668a:	0f b6 35 0f c7 09 00 	movzx  esi,BYTE PTR [rip+0x9c70f]        # 4a2da0 <NIBBLES$>
  406691:	48 39 f1             	cmp    rcx,rsi
  406694:	0f b6 0d 06 c7 09 00 	movzx  ecx,BYTE PTR [rip+0x9c706]        # 4a2da1 <NIBBLES$+0x1>
  40669b:	48 89 f2             	mov    rdx,rsi
  40669e:	0f 4c d1             	cmovl  edx,ecx
  4066a1:	83 e0 7f             	and    eax,0x7f
  4066a4:	c1 e2 07             	shl    edx,0x7
  4066a7:	09 d0                	or     eax,edx
  4066a9:	88 07                	mov    BYTE PTR [rdi],al
;end def
  4066ab:	c3                   	ret    
  4066ac:	0f 1f 40 00          	nop    DWORD PTR [rax+0x0]

00000000004066b0 <INS_TXS>:
;  Cpu->S=Cpu->X
  4066b0:	0f b6 47 02          	movzx  eax,BYTE PTR [rdi+0x2]
  4066b4:	88 47 06             	mov    BYTE PTR [rdi+0x6],al
;end def
  4066b7:	c3                   	ret    
  4066b8:	0f 1f 84 00 00 00 00 	nop    DWORD PTR [rax+rax*1+0x0]
  4066bf:	00 

00000000004066c0 <INS_TYA>:
;  Cpu->A=Cpu->Y
  4066c0:	48 0f be 4f 03       	movsx  rcx,BYTE PTR [rdi+0x3]
;  Cpu->F.Z=iif(Cpu->A =peek(ubyte,@nibbles(&B0000)),peek(ubyte,@nibbles(&B0001)),peek(ubyte,@nibbles(&B0000)))
  4066c5:	0f b6 15 d4 c6 09 00 	movzx  edx,BYTE PTR [rip+0x9c6d4]        # 4a2da0 <NIBBLES$>
;  Cpu->A=Cpu->Y
  4066cc:	88 4f 01             	mov    BYTE PTR [rdi+0x1],cl
;  Cpu->F.Z=iif(Cpu->A =peek(ubyte,@nibbles(&B0000)),peek(ubyte,@nibbles(&B0001)),peek(ubyte,@nibbles(&B0000)))
  4066cf:	0f b6 05 cb c6 09 00 	movzx  eax,BYTE PTR [rip+0x9c6cb]        # 4a2da1 <NIBBLES$+0x1>
  4066d6:	38 d1                	cmp    cl,dl
  4066d8:	0f 44 d0             	cmove  edx,eax
  4066db:	0f b6 07             	movzx  eax,BYTE PTR [rdi]
  4066de:	01 d2                	add    edx,edx
  4066e0:	83 e0 fd             	and    eax,0xfffffffd
  4066e3:	83 e2 02             	and    edx,0x2
  4066e6:	09 d0                	or     eax,edx
  4066e8:	88 07                	mov    BYTE PTR [rdi],al
;  Cpu->F.N=iif(Cpu->sA<peek(ubyte,@nibbles(&B0000)),peek(ubyte,@nibbles(&B0001)),peek(ubyte,@nibbles(&B0000)))
  4066ea:	0f b6 35 af c6 09 00 	movzx  esi,BYTE PTR [rip+0x9c6af]        # 4a2da0 <NIBBLES$>
  4066f1:	48 39 f1             	cmp    rcx,rsi
  4066f4:	0f b6 0d a6 c6 09 00 	movzx  ecx,BYTE PTR [rip+0x9c6a6]        # 4a2da1 <NIBBLES$+0x1>
  4066fb:	48 89 f2             	mov    rdx,rsi
  4066fe:	0f 4c d1             	cmovl  edx,ecx
  406701:	83 e0 7f             	and    eax,0x7f
  406704:	c1 e2 07             	shl    edx,0x7
  406707:	09 d0                	or     eax,edx
  406709:	88 07                	mov    BYTE PTR [rdi],al
;end def
  40670b:	c3                   	ret    
  40670c:	0f 1f 40 00          	nop    DWORD PTR [rax+0x0]

0000000000406710 <SHADERTOY::SHADERTOY()>:
;  declare function CompileFile(Filename as string) as boolean
;  declare function CompileCode(Code as string) as boolean
;  as GLuint FragmentShader
;  as GLuint ProgramObject
;  as string Shaderlog
;end type
  406710:	66 0f ef c0          	pxor   xmm0,xmm0
  406714:	c7 07 00 00 00 00    	mov    DWORD PTR [rdi],0x0
  40671a:	c7 47 04 00 00 00 00 	mov    DWORD PTR [rdi+0x4],0x0
  406721:	48 c7 47 18 00 00 00 	mov    QWORD PTR [rdi+0x18],0x0
  406728:	00 
  406729:	0f 11 47 08          	movups XMMWORD PTR [rdi+0x8],xmm0
  40672d:	c3                   	ret    
  40672e:	66 90                	xchg   ax,ax

0000000000406730 <MEMORY_T::~MEMORY_T() [clone .constprop.0]>:
;end destructor
  406730:	c3                   	ret    
  406731:	66 66 2e 0f 1f 84 00 	data16 cs nop WORD PTR [rax+rax*1+0x0]
  406738:	00 00 00 00 
  40673c:	0f 1f 40 00          	nop    DWORD PTR [rax+0x0]

0000000000406740 <INS_NOP>:
  406740:	c3                   	ret    
  406741:	66 66 2e 0f 1f 84 00 	data16 cs nop WORD PTR [rax+rax*1+0x0]
  406748:	00 00 00 00 
  40674c:	0f 1f 40 00          	nop    DWORD PTR [rax+0x0]

0000000000406750 <INS_UNK>:
  406750:	c3                   	ret    
  406751:	66 66 2e 0f 1f 84 00 	data16 cs nop WORD PTR [rax+rax*1+0x0]
  406758:	00 00 00 00 
  40675c:	0f 1f 40 00          	nop    DWORD PTR [rax+0x0]

0000000000406760 <ERROREXIT>:
;sub ErrorExit(msg as string)
  406760:	55                   	push   rbp
  406761:	48 89 fd             	mov    rbp,rdi
;  if screenptr() then screen 0
  406764:	e8 77 bb 04 00       	call   4522e0 <fb_GfxScreenPtr>
  406769:	48 85 c0             	test   rax,rax
  40676c:	74 13                	je     406781 <ERROREXIT+0x21>
  40676e:	45 31 c0             	xor    r8d,r8d
  406771:	31 c9                	xor    ecx,ecx
  406773:	31 d2                	xor    edx,edx
  406775:	be 08 00 00 00       	mov    esi,0x8
  40677a:	31 ff                	xor    edi,edi
  40677c:	e8 bf 35 05 00       	call   459d40 <fb_GfxScreen>
;  print msg
  406781:	ba 01 00 00 00       	mov    edx,0x1
  406786:	48 89 ee             	mov    rsi,rbp
  406789:	31 ff                	xor    edi,edi
  40678b:	e8 30 15 06 00       	call   467cc0 <fb_PrintString>
;  print
  406790:	be 01 00 00 00       	mov    esi,0x1
  406795:	31 ff                	xor    edi,edi
  406797:	e8 a4 1c 06 00       	call   468440 <fb_PrintVoid>
;  print "press any key ..."
  40679c:	be 11 00 00 00       	mov    esi,0x11
  4067a1:	48 8d 3d 5c 88 06 00 	lea    rdi,[rip+0x6885c]        # 46f004 <_IO_stdin_used+0x4>
  4067a8:	e8 c3 3c 06 00       	call   46a470 <fb_StrAllocTempDescZEx>
  4067ad:	ba 01 00 00 00       	mov    edx,0x1
  4067b2:	31 ff                	xor    edi,edi
  4067b4:	48 89 c6             	mov    rsi,rax
  4067b7:	e8 04 15 06 00       	call   467cc0 <fb_PrintString>
;  beep : sleep : end 1
  4067bc:	e8 cf 44 06 00       	call   46ac90 <fb_Beep>
  4067c1:	bf ff ff ff ff       	mov    edi,0xffffffff
  4067c6:	e8 c5 ff 05 00       	call   466790 <fb_Sleep>
  4067cb:	bf 01 00 00 00       	mov    edi,0x1
;end sub
  4067d0:	5d                   	pop    rbp
;  beep : sleep : end 1
  4067d1:	e9 1a 01 06 00       	jmp    4668f0 <fb_End>
  4067d6:	66 2e 0f 1f 84 00 00 	cs nop WORD PTR [rax+rax*1+0x0]
  4067dd:	00 00 00 

00000000004067e0 <GLSCREEN>:
;sub glScreen(pixelWidth as integer=-1, pixelHeight as integer=-1, colorBits as integer=-1, depthBits as integer=-1, fullScreen as boolean=false)
  4067e0:	41 57                	push   r15
  4067e2:	41 56                	push   r14
  4067e4:	41 55                	push   r13
  4067e6:	41 54                	push   r12
  4067e8:	49 89 d4             	mov    r12,rdx
  4067eb:	55                   	push   rbp
  4067ec:	48 89 f5             	mov    rbp,rsi
  4067ef:	53                   	push   rbx
  4067f0:	48 89 fb             	mov    rbx,rdi
  4067f3:	48 81 ec 28 01 00 00 	sub    rsp,0x128
  4067fa:	48 89 4c 24 18       	mov    QWORD PTR [rsp+0x18],rcx
  4067ff:	44 88 44 24 0f       	mov    BYTE PTR [rsp+0xf],r8b
  406804:	64 48 8b 04 25 28 00 	mov    rax,QWORD PTR fs:0x28
  40680b:	00 00 
  40680d:	48 89 84 24 18 01 00 	mov    QWORD PTR [rsp+0x118],rax
  406814:	00 
  406815:	31 c0                	xor    eax,eax
  406817:	48 c7 44 24 58 00 00 	mov    QWORD PTR [rsp+0x58],0x0
  40681e:	00 00 
;  dim as integer w,h,b  
  406820:	48 c7 44 24 60 00 00 	mov    QWORD PTR [rsp+0x60],0x0
  406827:	00 00 
  406829:	48 c7 44 24 68 00 00 	mov    QWORD PTR [rsp+0x68],0x0
  406830:	00 00 
;  if ScreenPtr() then screen 0
  406832:	e8 a9 ba 04 00       	call   4522e0 <fb_GfxScreenPtr>
  406837:	48 85 c0             	test   rax,rax
  40683a:	74 13                	je     40684f <GLSCREEN+0x6f>
  40683c:	45 31 c0             	xor    r8d,r8d
  40683f:	31 c9                	xor    ecx,ecx
  406841:	31 d2                	xor    edx,edx
  406843:	be 08 00 00 00       	mov    esi,0x8
  406848:	31 ff                	xor    edi,edi
  40684a:	e8 f1 34 05 00       	call   459d40 <fb_GfxScreen>
;  screeninfo w,h,b ': h=w/16*9
  40684f:	31 f6                	xor    esi,esi
  406851:	48 8d 3d 8f 8b 06 00 	lea    rdi,[rip+0x68b8f]        # 46f3e7 <_IO_stdin_used+0x3e7>
  406858:	e8 13 3c 06 00       	call   46a470 <fb_StrAllocTempDescZEx>
  40685d:	48 8d 54 24 68       	lea    rdx,[rsp+0x68]
  406862:	48 8d 4c 24 28       	lea    rcx,[rsp+0x28]
  406867:	48 c7 44 24 38 00 00 	mov    QWORD PTR [rsp+0x38],0x0
  40686e:	00 00 
  406870:	48 c7 44 24 30 00 00 	mov    QWORD PTR [rsp+0x30],0x0
  406877:	00 00 
  406879:	48 8d 74 24 60       	lea    rsi,[rsp+0x60]
  40687e:	48 8d 7c 24 58       	lea    rdi,[rsp+0x58]
  406883:	48 83 ec 08          	sub    rsp,0x8
  406887:	48 c7 44 24 30 00 00 	mov    QWORD PTR [rsp+0x30],0x0
  40688e:	00 00 
  406890:	50                   	push   rax
  406891:	4c 8d 4c 24 48       	lea    r9,[rsp+0x48]
  406896:	4c 8d 44 24 40       	lea    r8,[rsp+0x40]
  40689b:	e8 90 38 05 00       	call   45a130 <fb_GfxScreenInfo64>
;  if pixelWidth<=0 andalso pixelHeight<=0 then
  4068a0:	58                   	pop    rax
  4068a1:	31 c0                	xor    eax,eax
  4068a3:	48 85 ed             	test   rbp,rbp
  4068a6:	0f 9e c0             	setle  al
  4068a9:	5a                   	pop    rdx
  4068aa:	f7 d8                	neg    eax
  4068ac:	48 85 db             	test   rbx,rbx
  4068af:	0f 8e 0b 0d 00 00    	jle    4075c0 <GLSCREEN+0xde0>
;  elseif pixelWidth>0 andalso pixelHeight<=0 then
  4068b5:	85 c0                	test   eax,eax
  4068b7:	0f 85 53 0a 00 00    	jne    407310 <GLSCREEN+0xb30>
;  if colorBits<16 then
  4068bd:	49 83 fc 0f          	cmp    r12,0xf
  4068c1:	0f 8e d1 09 00 00    	jle    407298 <GLSCREEN+0xab8>
;  elseif colorBits<24 then
  4068c7:	49 83 fc 17          	cmp    r12,0x17
  4068cb:	0f 8e 2f 0a 00 00    	jle    407300 <GLSCREEN+0xb20>
;  elseif colorBits<32 then
  4068d1:	49 83 fc 1f          	cmp    r12,0x1f
;  if depthBits<=0 then
  4068d5:	48 8b 54 24 18       	mov    rdx,QWORD PTR [rsp+0x18]
;  elseif colorBits<32 then
  4068da:	41 0f 9f c4          	setg   r12b
  4068de:	41 0f 9f c6          	setg   r14b
  4068e2:	31 c0                	xor    eax,eax
  4068e4:	45 0f b6 e4          	movzx  r12d,r12b
  4068e8:	45 0f b6 f6          	movzx  r14d,r14b
  4068ec:	46 8d 24 e5 18 00 00 	lea    r12d,[r12*8+0x18]
  4068f3:	00 
  4068f4:	4e 8d 34 f5 18 00 00 	lea    r14,[r14*8+0x18]
  4068fb:	00 
;  if depthBits<=0 then
  4068fc:	48 85 d2             	test   rdx,rdx
  4068ff:	0f 8f ab 09 00 00    	jg     4072b0 <GLSCREEN+0xad0>
  406905:	0f 1f 00             	nop    DWORD PTR [rax]
;    depthBits=0
  406908:	48 89 44 24 18       	mov    QWORD PTR [rsp+0x18],rax
;  ScreenControl FB.SET_GL_DEPTH_BITS,depthBits
  40690d:	48 8d 4c 24 48       	lea    rcx,[rsp+0x48]
  406912:	b8 00 00 00 80       	mov    eax,0x80000000
  406917:	48 8d 54 24 40       	lea    rdx,[rsp+0x40]
  40691c:	48 8d 74 24 18       	lea    rsi,[rsp+0x18]
  406921:	4c 8d 44 24 50       	lea    r8,[rsp+0x50]
  406926:	bf 6e 00 00 00       	mov    edi,0x6e
  40692b:	48 89 44 24 50       	mov    QWORD PTR [rsp+0x50],rax
  406930:	48 89 44 24 48       	mov    QWORD PTR [rsp+0x48],rax
  406935:	48 89 44 24 40       	mov    QWORD PTR [rsp+0x40],rax
  40693a:	e8 f1 e2 04 00       	call   454c30 <fb_GfxControl_i64>
;  if fullScreen then
  40693f:	80 7c 24 0f 00       	cmp    BYTE PTR [rsp+0xf],0x0
  406944:	0f 84 9a 00 00 00    	je     4069e4 <GLSCREEN+0x204>
;    if pixelWidth<640 or pixelHeight<480 then
  40694a:	31 c0                	xor    eax,eax
  40694c:	48 81 fb 7f 02 00 00 	cmp    rbx,0x27f
;    dim as long foundMode,mode=ScreenList(colorBits)
  406953:	44 89 e7             	mov    edi,r12d
;      dim as integer errorValue=2^30,errorWidth,errorHeight
  406956:	41 bf 00 00 00 40    	mov    r15d,0x40000000
;    if pixelWidth<640 or pixelHeight<480 then
  40695c:	0f 9e c0             	setle  al
  40695f:	31 d2                	xor    edx,edx
  406961:	f7 d8                	neg    eax
  406963:	48 81 fd df 01 00 00 	cmp    rbp,0x1df
  40696a:	0f 9e c2             	setle  dl
  40696d:	f7 da                	neg    edx
;      pixelWidth=640 : pixelHeight=480
  40696f:	09 d0                	or     eax,edx
  406971:	b8 e0 01 00 00       	mov    eax,0x1e0
  406976:	48 0f 45 e8          	cmovne rbp,rax
  40697a:	b8 80 02 00 00       	mov    eax,0x280
  40697f:	48 0f 45 d8          	cmovne rbx,rax
;            errorHeight=abs(LoWord(mode)-pixelHeight)
  406983:	45 31 ed             	xor    r13d,r13d
;    dim as long foundMode,mode=ScreenList(colorBits)
  406986:	e8 95 38 05 00       	call   45a220 <fb_GfxScreenList>
  40698b:	89 c2                	mov    edx,eax
;    if mode then
  40698d:	85 c0                	test   eax,eax
  40698f:	0f 84 ab 09 00 00    	je     407340 <GLSCREEN+0xb60>
  406995:	0f 1f 00             	nop    DWORD PTR [rax]
;        errorWidth =abs(HiWord(mode)-pixelWidth)
  406998:	48 89 d0             	mov    rax,rdx
  40699b:	48 c1 e0 20          	shl    rax,0x20
  40699f:	48 c1 e8 30          	shr    rax,0x30
  4069a3:	48 29 d8             	sub    rax,rbx
  4069a6:	48 89 c6             	mov    rsi,rax
  4069a9:	48 f7 de             	neg    rsi
  4069ac:	48 0f 49 c6          	cmovns rax,rsi
;        errorHeight=abs(LoWord(mode)-pixelHeight)
  4069b0:	0f b7 f2             	movzx  esi,dx
  4069b3:	48 29 ee             	sub    rsi,rbp
  4069b6:	48 89 f7             	mov    rdi,rsi
  4069b9:	48 f7 df             	neg    rdi
  4069bc:	48 0f 49 f7          	cmovns rsi,rdi
;        if (errorWidth+errorHeight)<errorValue then
  4069c0:	48 01 f0             	add    rax,rsi
  4069c3:	4c 39 f8             	cmp    rax,r15
  4069c6:	7d 06                	jge    4069ce <GLSCREEN+0x1ee>
  4069c8:	49 89 c7             	mov    r15,rax
  4069cb:	41 89 d5             	mov    r13d,edx
;        Mode = ScreenList()
  4069ce:	31 ff                	xor    edi,edi
  4069d0:	e8 4b 38 05 00       	call   45a220 <fb_GfxScreenList>
  4069d5:	89 c2                	mov    edx,eax
;      While (mode <> 0)
  4069d7:	85 c0                	test   eax,eax
  4069d9:	75 bd                	jne    406998 <GLSCREEN+0x1b8>
;    if foundMode then
  4069db:	45 85 ed             	test   r13d,r13d
  4069de:	0f 85 f4 08 00 00    	jne    4072d8 <GLSCREEN+0xaf8>
;  if ScreenRes(pixelWidth,pixelHeight,colorBits,,FB.GFX_OPENGL or iif(fullScreen<>0,FB.GFX_FULLSCREEN,0)) then
  4069e4:	89 ee                	mov    esi,ebp
  4069e6:	41 b8 02 00 00 00    	mov    r8d,0x2
  4069ec:	45 31 c9             	xor    r9d,r9d
  4069ef:	b9 01 00 00 00       	mov    ecx,0x1
  4069f4:	44 89 e2             	mov    edx,r12d
  4069f7:	89 df                	mov    edi,ebx
  4069f9:	e8 82 34 05 00       	call   459e80 <fb_GfxScreenRes>
  4069fe:	85 c0                	test   eax,eax
  406a00:	0f 85 3a 0a 00 00    	jne    407440 <GLSCREEN+0xc60>
;  flip
  406a06:	be ff ff ff ff       	mov    esi,0xffffffff
  406a0b:	bf ff ff ff ff       	mov    edi,0xffffffff
;  glProc(glCreateShader)
  406a10:	4c 8d 25 0c 86 06 00 	lea    r12,[rip+0x6860c]        # 46f023 <_IO_stdin_used+0x23>
;  flip
  406a17:	e8 b4 10 05 00       	call   457ad0 <fb_GfxFlip>
;  glProc(glCreateShader)
  406a1c:	4c 89 e7             	mov    rdi,r12
  406a1f:	e8 2c 04 05 00       	call   456e50 <fb_GfxGetGLProcAddress>
  406a24:	48 89 05 8d c4 09 00 	mov    QWORD PTR [rip+0x9c48d],rax        # 4a2eb8 <GLCREATESHADER$>
  406a2b:	48 85 c0             	test   rax,rax
  406a2e:	75 4a                	jne    406a7a <GLSCREEN+0x29a>
  406a30:	66 0f ef c0          	pxor   xmm0,xmm0
  406a34:	45 31 c0             	xor    r8d,r8d
  406a37:	b9 0f 00 00 00       	mov    ecx,0xf
  406a3c:	4c 89 e2             	mov    rdx,r12
  406a3f:	48 8d ac 24 f0 00 00 	lea    rbp,[rsp+0xf0]
  406a46:	00 
  406a47:	48 c7 c6 ff ff ff ff 	mov    rsi,0xffffffffffffffff
  406a4e:	0f 29 84 24 f0 00 00 	movaps XMMWORD PTR [rsp+0xf0],xmm0
  406a55:	00 
  406a56:	48 c7 84 24 00 01 00 	mov    QWORD PTR [rsp+0x100],0x0
  406a5d:	00 00 00 00 00 
  406a62:	48 89 ef             	mov    rdi,rbp
  406a65:	e8 76 22 06 00       	call   468ce0 <fb_StrAssign>
  406a6a:	48 89 ef             	mov    rdi,rbp
  406a6d:	e8 ee fc ff ff       	call   406760 <ERROREXIT>
  406a72:	48 89 ef             	mov    rdi,rbp
  406a75:	e8 16 34 06 00       	call   469e90 <fb_StrDelete>
;  glProc(glDeleteShader)
  406a7a:	4c 8d 25 b1 85 06 00 	lea    r12,[rip+0x685b1]        # 46f032 <_IO_stdin_used+0x32>
  406a81:	4c 89 e7             	mov    rdi,r12
  406a84:	e8 c7 03 05 00       	call   456e50 <fb_GfxGetGLProcAddress>
  406a89:	48 89 05 20 c4 09 00 	mov    QWORD PTR [rip+0x9c420],rax        # 4a2eb0 <GLDELETESHADER$>
  406a90:	48 85 c0             	test   rax,rax
  406a93:	75 4a                	jne    406adf <GLSCREEN+0x2ff>
  406a95:	66 0f ef c0          	pxor   xmm0,xmm0
  406a99:	45 31 c0             	xor    r8d,r8d
  406a9c:	b9 0f 00 00 00       	mov    ecx,0xf
  406aa1:	4c 89 e2             	mov    rdx,r12
  406aa4:	48 8d ac 24 f0 00 00 	lea    rbp,[rsp+0xf0]
  406aab:	00 
  406aac:	48 c7 c6 ff ff ff ff 	mov    rsi,0xffffffffffffffff
  406ab3:	0f 29 84 24 f0 00 00 	movaps XMMWORD PTR [rsp+0xf0],xmm0
  406aba:	00 
  406abb:	48 c7 84 24 00 01 00 	mov    QWORD PTR [rsp+0x100],0x0
  406ac2:	00 00 00 00 00 
  406ac7:	48 89 ef             	mov    rdi,rbp
  406aca:	e8 11 22 06 00       	call   468ce0 <fb_StrAssign>
  406acf:	48 89 ef             	mov    rdi,rbp
  406ad2:	e8 89 fc ff ff       	call   406760 <ERROREXIT>
  406ad7:	48 89 ef             	mov    rdi,rbp
  406ada:	e8 b1 33 06 00       	call   469e90 <fb_StrDelete>
;  glProc(glShaderSource)
  406adf:	4c 8d 25 5b 85 06 00 	lea    r12,[rip+0x6855b]        # 46f041 <_IO_stdin_used+0x41>
  406ae6:	4c 89 e7             	mov    rdi,r12
  406ae9:	e8 62 03 05 00       	call   456e50 <fb_GfxGetGLProcAddress>
  406aee:	48 89 05 b3 c3 09 00 	mov    QWORD PTR [rip+0x9c3b3],rax        # 4a2ea8 <GLSHADERSOURCE$>
  406af5:	48 85 c0             	test   rax,rax
  406af8:	75 4a                	jne    406b44 <GLSCREEN+0x364>
  406afa:	66 0f ef c0          	pxor   xmm0,xmm0
  406afe:	45 31 c0             	xor    r8d,r8d
  406b01:	b9 0f 00 00 00       	mov    ecx,0xf
  406b06:	4c 89 e2             	mov    rdx,r12
  406b09:	48 8d ac 24 f0 00 00 	lea    rbp,[rsp+0xf0]
  406b10:	00 
  406b11:	48 c7 c6 ff ff ff ff 	mov    rsi,0xffffffffffffffff
  406b18:	0f 29 84 24 f0 00 00 	movaps XMMWORD PTR [rsp+0xf0],xmm0
  406b1f:	00 
  406b20:	48 c7 84 24 00 01 00 	mov    QWORD PTR [rsp+0x100],0x0
  406b27:	00 00 00 00 00 
  406b2c:	48 89 ef             	mov    rdi,rbp
  406b2f:	e8 ac 21 06 00       	call   468ce0 <fb_StrAssign>
  406b34:	48 89 ef             	mov    rdi,rbp
  406b37:	e8 24 fc ff ff       	call   406760 <ERROREXIT>
  406b3c:	48 89 ef             	mov    rdi,rbp
  406b3f:	e8 4c 33 06 00       	call   469e90 <fb_StrDelete>
;  glProc(glCompileShader)
  406b44:	4c 8d 25 05 85 06 00 	lea    r12,[rip+0x68505]        # 46f050 <_IO_stdin_used+0x50>
  406b4b:	4c 89 e7             	mov    rdi,r12
  406b4e:	e8 fd 02 05 00       	call   456e50 <fb_GfxGetGLProcAddress>
  406b53:	48 89 05 46 c3 09 00 	mov    QWORD PTR [rip+0x9c346],rax        # 4a2ea0 <GLCOMPILESHADER$>
  406b5a:	48 85 c0             	test   rax,rax
  406b5d:	75 4a                	jne    406ba9 <GLSCREEN+0x3c9>
  406b5f:	66 0f ef c0          	pxor   xmm0,xmm0
  406b63:	45 31 c0             	xor    r8d,r8d
  406b66:	b9 10 00 00 00       	mov    ecx,0x10
  406b6b:	4c 89 e2             	mov    rdx,r12
  406b6e:	48 8d ac 24 f0 00 00 	lea    rbp,[rsp+0xf0]
  406b75:	00 
  406b76:	48 c7 c6 ff ff ff ff 	mov    rsi,0xffffffffffffffff
  406b7d:	0f 29 84 24 f0 00 00 	movaps XMMWORD PTR [rsp+0xf0],xmm0
  406b84:	00 
  406b85:	48 c7 84 24 00 01 00 	mov    QWORD PTR [rsp+0x100],0x0
  406b8c:	00 00 00 00 00 
  406b91:	48 89 ef             	mov    rdi,rbp
  406b94:	e8 47 21 06 00       	call   468ce0 <fb_StrAssign>
  406b99:	48 89 ef             	mov    rdi,rbp
  406b9c:	e8 bf fb ff ff       	call   406760 <ERROREXIT>
  406ba1:	48 89 ef             	mov    rdi,rbp
  406ba4:	e8 e7 32 06 00       	call   469e90 <fb_StrDelete>
;  glProc(glGetShaderiv)
  406ba9:	4c 8d 25 b0 84 06 00 	lea    r12,[rip+0x684b0]        # 46f060 <_IO_stdin_used+0x60>
  406bb0:	4c 89 e7             	mov    rdi,r12
  406bb3:	e8 98 02 05 00       	call   456e50 <fb_GfxGetGLProcAddress>
  406bb8:	48 89 05 d9 c2 09 00 	mov    QWORD PTR [rip+0x9c2d9],rax        # 4a2e98 <GLGETSHADERIV$>
  406bbf:	48 85 c0             	test   rax,rax
  406bc2:	75 4a                	jne    406c0e <GLSCREEN+0x42e>
  406bc4:	66 0f ef c0          	pxor   xmm0,xmm0
  406bc8:	45 31 c0             	xor    r8d,r8d
  406bcb:	b9 0e 00 00 00       	mov    ecx,0xe
  406bd0:	4c 89 e2             	mov    rdx,r12
  406bd3:	48 8d ac 24 f0 00 00 	lea    rbp,[rsp+0xf0]
  406bda:	00 
  406bdb:	48 c7 c6 ff ff ff ff 	mov    rsi,0xffffffffffffffff
  406be2:	0f 29 84 24 f0 00 00 	movaps XMMWORD PTR [rsp+0xf0],xmm0
  406be9:	00 
  406bea:	48 c7 84 24 00 01 00 	mov    QWORD PTR [rsp+0x100],0x0
  406bf1:	00 00 00 00 00 
  406bf6:	48 89 ef             	mov    rdi,rbp
  406bf9:	e8 e2 20 06 00       	call   468ce0 <fb_StrAssign>
  406bfe:	48 89 ef             	mov    rdi,rbp
  406c01:	e8 5a fb ff ff       	call   406760 <ERROREXIT>
  406c06:	48 89 ef             	mov    rdi,rbp
  406c09:	e8 82 32 06 00       	call   469e90 <fb_StrDelete>
;  glProc(glGetShaderInfoLog)
  406c0e:	4c 8d 25 59 84 06 00 	lea    r12,[rip+0x68459]        # 46f06e <_IO_stdin_used+0x6e>
  406c15:	4c 89 e7             	mov    rdi,r12
  406c18:	e8 33 02 05 00       	call   456e50 <fb_GfxGetGLProcAddress>
  406c1d:	48 89 05 6c c2 09 00 	mov    QWORD PTR [rip+0x9c26c],rax        # 4a2e90 <GLGETSHADERINFOLOG$>
  406c24:	48 85 c0             	test   rax,rax
  406c27:	75 4a                	jne    406c73 <GLSCREEN+0x493>
  406c29:	66 0f ef c0          	pxor   xmm0,xmm0
  406c2d:	45 31 c0             	xor    r8d,r8d
  406c30:	b9 13 00 00 00       	mov    ecx,0x13
  406c35:	4c 89 e2             	mov    rdx,r12
  406c38:	48 8d ac 24 f0 00 00 	lea    rbp,[rsp+0xf0]
  406c3f:	00 
  406c40:	48 c7 c6 ff ff ff ff 	mov    rsi,0xffffffffffffffff
  406c47:	0f 29 84 24 f0 00 00 	movaps XMMWORD PTR [rsp+0xf0],xmm0
  406c4e:	00 
  406c4f:	48 c7 84 24 00 01 00 	mov    QWORD PTR [rsp+0x100],0x0
  406c56:	00 00 00 00 00 
  406c5b:	48 89 ef             	mov    rdi,rbp
  406c5e:	e8 7d 20 06 00       	call   468ce0 <fb_StrAssign>
  406c63:	48 89 ef             	mov    rdi,rbp
  406c66:	e8 f5 fa ff ff       	call   406760 <ERROREXIT>
  406c6b:	48 89 ef             	mov    rdi,rbp
  406c6e:	e8 1d 32 06 00       	call   469e90 <fb_StrDelete>
;  glProc(glCreateProgram)
  406c73:	4c 8d 25 07 84 06 00 	lea    r12,[rip+0x68407]        # 46f081 <_IO_stdin_used+0x81>
  406c7a:	4c 89 e7             	mov    rdi,r12
  406c7d:	e8 ce 01 05 00       	call   456e50 <fb_GfxGetGLProcAddress>
  406c82:	48 89 05 ff c1 09 00 	mov    QWORD PTR [rip+0x9c1ff],rax        # 4a2e88 <GLCREATEPROGRAM$>
  406c89:	48 85 c0             	test   rax,rax
  406c8c:	75 4a                	jne    406cd8 <GLSCREEN+0x4f8>
  406c8e:	66 0f ef c0          	pxor   xmm0,xmm0
  406c92:	45 31 c0             	xor    r8d,r8d
  406c95:	b9 10 00 00 00       	mov    ecx,0x10
  406c9a:	4c 89 e2             	mov    rdx,r12
  406c9d:	48 8d ac 24 f0 00 00 	lea    rbp,[rsp+0xf0]
  406ca4:	00 
  406ca5:	48 c7 c6 ff ff ff ff 	mov    rsi,0xffffffffffffffff
  406cac:	0f 29 84 24 f0 00 00 	movaps XMMWORD PTR [rsp+0xf0],xmm0
  406cb3:	00 
  406cb4:	48 c7 84 24 00 01 00 	mov    QWORD PTR [rsp+0x100],0x0
  406cbb:	00 00 00 00 00 
  406cc0:	48 89 ef             	mov    rdi,rbp
  406cc3:	e8 18 20 06 00       	call   468ce0 <fb_StrAssign>
  406cc8:	48 89 ef             	mov    rdi,rbp
  406ccb:	e8 90 fa ff ff       	call   406760 <ERROREXIT>
  406cd0:	48 89 ef             	mov    rdi,rbp
  406cd3:	e8 b8 31 06 00       	call   469e90 <fb_StrDelete>
;  glProc(glDeleteProgram)
  406cd8:	4c 8d 25 b2 83 06 00 	lea    r12,[rip+0x683b2]        # 46f091 <_IO_stdin_used+0x91>
  406cdf:	4c 89 e7             	mov    rdi,r12
  406ce2:	e8 69 01 05 00       	call   456e50 <fb_GfxGetGLProcAddress>
  406ce7:	48 89 05 92 c1 09 00 	mov    QWORD PTR [rip+0x9c192],rax        # 4a2e80 <GLDELETEPROGRAM$>
  406cee:	48 85 c0             	test   rax,rax
  406cf1:	75 4a                	jne    406d3d <GLSCREEN+0x55d>
  406cf3:	66 0f ef c0          	pxor   xmm0,xmm0
  406cf7:	45 31 c0             	xor    r8d,r8d
  406cfa:	b9 10 00 00 00       	mov    ecx,0x10
  406cff:	4c 89 e2             	mov    rdx,r12
  406d02:	48 8d ac 24 f0 00 00 	lea    rbp,[rsp+0xf0]
  406d09:	00 
  406d0a:	48 c7 c6 ff ff ff ff 	mov    rsi,0xffffffffffffffff
  406d11:	0f 29 84 24 f0 00 00 	movaps XMMWORD PTR [rsp+0xf0],xmm0
  406d18:	00 
  406d19:	48 c7 84 24 00 01 00 	mov    QWORD PTR [rsp+0x100],0x0
  406d20:	00 00 00 00 00 
  406d25:	48 89 ef             	mov    rdi,rbp
  406d28:	e8 b3 1f 06 00       	call   468ce0 <fb_StrAssign>
  406d2d:	48 89 ef             	mov    rdi,rbp
  406d30:	e8 2b fa ff ff       	call   406760 <ERROREXIT>
  406d35:	48 89 ef             	mov    rdi,rbp
  406d38:	e8 53 31 06 00       	call   469e90 <fb_StrDelete>
;  glProc(glAttachShader)
  406d3d:	4c 8d 25 5d 83 06 00 	lea    r12,[rip+0x6835d]        # 46f0a1 <_IO_stdin_used+0xa1>
  406d44:	4c 89 e7             	mov    rdi,r12
  406d47:	e8 04 01 05 00       	call   456e50 <fb_GfxGetGLProcAddress>
  406d4c:	48 89 05 25 c1 09 00 	mov    QWORD PTR [rip+0x9c125],rax        # 4a2e78 <GLATTACHSHADER$>
  406d53:	48 85 c0             	test   rax,rax
  406d56:	75 4a                	jne    406da2 <GLSCREEN+0x5c2>
  406d58:	66 0f ef c0          	pxor   xmm0,xmm0
  406d5c:	45 31 c0             	xor    r8d,r8d
  406d5f:	b9 0f 00 00 00       	mov    ecx,0xf
  406d64:	4c 89 e2             	mov    rdx,r12
  406d67:	48 8d ac 24 f0 00 00 	lea    rbp,[rsp+0xf0]
  406d6e:	00 
  406d6f:	48 c7 c6 ff ff ff ff 	mov    rsi,0xffffffffffffffff
  406d76:	0f 29 84 24 f0 00 00 	movaps XMMWORD PTR [rsp+0xf0],xmm0
  406d7d:	00 
  406d7e:	48 c7 84 24 00 01 00 	mov    QWORD PTR [rsp+0x100],0x0
  406d85:	00 00 00 00 00 
  406d8a:	48 89 ef             	mov    rdi,rbp
  406d8d:	e8 4e 1f 06 00       	call   468ce0 <fb_StrAssign>
  406d92:	48 89 ef             	mov    rdi,rbp
  406d95:	e8 c6 f9 ff ff       	call   406760 <ERROREXIT>
  406d9a:	48 89 ef             	mov    rdi,rbp
  406d9d:	e8 ee 30 06 00       	call   469e90 <fb_StrDelete>
;  glProc(glDetachShader)
  406da2:	4c 8d 25 07 83 06 00 	lea    r12,[rip+0x68307]        # 46f0b0 <_IO_stdin_used+0xb0>
  406da9:	4c 89 e7             	mov    rdi,r12
  406dac:	e8 9f 00 05 00       	call   456e50 <fb_GfxGetGLProcAddress>
  406db1:	48 89 05 b8 c0 09 00 	mov    QWORD PTR [rip+0x9c0b8],rax        # 4a2e70 <GLDETACHSHADER$>
  406db8:	48 85 c0             	test   rax,rax
  406dbb:	75 4a                	jne    406e07 <GLSCREEN+0x627>
  406dbd:	66 0f ef c0          	pxor   xmm0,xmm0
  406dc1:	45 31 c0             	xor    r8d,r8d
  406dc4:	b9 0f 00 00 00       	mov    ecx,0xf
  406dc9:	4c 89 e2             	mov    rdx,r12
  406dcc:	48 8d ac 24 f0 00 00 	lea    rbp,[rsp+0xf0]
  406dd3:	00 
  406dd4:	48 c7 c6 ff ff ff ff 	mov    rsi,0xffffffffffffffff
  406ddb:	0f 29 84 24 f0 00 00 	movaps XMMWORD PTR [rsp+0xf0],xmm0
  406de2:	00 
  406de3:	48 c7 84 24 00 01 00 	mov    QWORD PTR [rsp+0x100],0x0
  406dea:	00 00 00 00 00 
  406def:	48 89 ef             	mov    rdi,rbp
  406df2:	e8 e9 1e 06 00       	call   468ce0 <fb_StrAssign>
  406df7:	48 89 ef             	mov    rdi,rbp
  406dfa:	e8 61 f9 ff ff       	call   406760 <ERROREXIT>
  406dff:	48 89 ef             	mov    rdi,rbp
  406e02:	e8 89 30 06 00       	call   469e90 <fb_StrDelete>
;  glProc(glLinkProgram)
  406e07:	4c 8d 25 b1 82 06 00 	lea    r12,[rip+0x682b1]        # 46f0bf <_IO_stdin_used+0xbf>
  406e0e:	4c 89 e7             	mov    rdi,r12
  406e11:	e8 3a 00 05 00       	call   456e50 <fb_GfxGetGLProcAddress>
  406e16:	48 89 05 4b c0 09 00 	mov    QWORD PTR [rip+0x9c04b],rax        # 4a2e68 <GLLINKPROGRAM$>
  406e1d:	48 85 c0             	test   rax,rax
  406e20:	75 4a                	jne    406e6c <GLSCREEN+0x68c>
  406e22:	66 0f ef c0          	pxor   xmm0,xmm0
  406e26:	45 31 c0             	xor    r8d,r8d
  406e29:	b9 0e 00 00 00       	mov    ecx,0xe
  406e2e:	4c 89 e2             	mov    rdx,r12
  406e31:	48 8d ac 24 f0 00 00 	lea    rbp,[rsp+0xf0]
  406e38:	00 
  406e39:	48 c7 c6 ff ff ff ff 	mov    rsi,0xffffffffffffffff
  406e40:	0f 29 84 24 f0 00 00 	movaps XMMWORD PTR [rsp+0xf0],xmm0
  406e47:	00 
  406e48:	48 c7 84 24 00 01 00 	mov    QWORD PTR [rsp+0x100],0x0
  406e4f:	00 00 00 00 00 
  406e54:	48 89 ef             	mov    rdi,rbp
  406e57:	e8 84 1e 06 00       	call   468ce0 <fb_StrAssign>
  406e5c:	48 89 ef             	mov    rdi,rbp
  406e5f:	e8 fc f8 ff ff       	call   406760 <ERROREXIT>
  406e64:	48 89 ef             	mov    rdi,rbp
  406e67:	e8 24 30 06 00       	call   469e90 <fb_StrDelete>
;  glProc(glGetProgramiv)
  406e6c:	4c 8d 25 5a 82 06 00 	lea    r12,[rip+0x6825a]        # 46f0cd <_IO_stdin_used+0xcd>
  406e73:	4c 89 e7             	mov    rdi,r12
  406e76:	e8 d5 ff 04 00       	call   456e50 <fb_GfxGetGLProcAddress>
  406e7b:	48 89 05 de bf 09 00 	mov    QWORD PTR [rip+0x9bfde],rax        # 4a2e60 <GLGETPROGRAMIV$>
  406e82:	48 85 c0             	test   rax,rax
  406e85:	75 4a                	jne    406ed1 <GLSCREEN+0x6f1>
  406e87:	66 0f ef c0          	pxor   xmm0,xmm0
  406e8b:	45 31 c0             	xor    r8d,r8d
  406e8e:	b9 0f 00 00 00       	mov    ecx,0xf
  406e93:	4c 89 e2             	mov    rdx,r12
  406e96:	48 8d ac 24 f0 00 00 	lea    rbp,[rsp+0xf0]
  406e9d:	00 
  406e9e:	48 c7 c6 ff ff ff ff 	mov    rsi,0xffffffffffffffff
  406ea5:	0f 29 84 24 f0 00 00 	movaps XMMWORD PTR [rsp+0xf0],xmm0
  406eac:	00 
  406ead:	48 c7 84 24 00 01 00 	mov    QWORD PTR [rsp+0x100],0x0
  406eb4:	00 00 00 00 00 
  406eb9:	48 89 ef             	mov    rdi,rbp
  406ebc:	e8 1f 1e 06 00       	call   468ce0 <fb_StrAssign>
  406ec1:	48 89 ef             	mov    rdi,rbp
  406ec4:	e8 97 f8 ff ff       	call   406760 <ERROREXIT>
  406ec9:	48 89 ef             	mov    rdi,rbp
  406ecc:	e8 bf 2f 06 00       	call   469e90 <fb_StrDelete>
;  glProc(glGetProgramInfoLog)
  406ed1:	4c 8d 25 04 82 06 00 	lea    r12,[rip+0x68204]        # 46f0dc <_IO_stdin_used+0xdc>
  406ed8:	4c 89 e7             	mov    rdi,r12
  406edb:	e8 70 ff 04 00       	call   456e50 <fb_GfxGetGLProcAddress>
  406ee0:	48 89 05 71 bf 09 00 	mov    QWORD PTR [rip+0x9bf71],rax        # 4a2e58 <GLGETPROGRAMINFOLOG$>
  406ee7:	48 85 c0             	test   rax,rax
  406eea:	75 4a                	jne    406f36 <GLSCREEN+0x756>
  406eec:	66 0f ef c0          	pxor   xmm0,xmm0
  406ef0:	45 31 c0             	xor    r8d,r8d
  406ef3:	b9 14 00 00 00       	mov    ecx,0x14
  406ef8:	4c 89 e2             	mov    rdx,r12
  406efb:	48 8d ac 24 f0 00 00 	lea    rbp,[rsp+0xf0]
  406f02:	00 
  406f03:	48 c7 c6 ff ff ff ff 	mov    rsi,0xffffffffffffffff
  406f0a:	0f 29 84 24 f0 00 00 	movaps XMMWORD PTR [rsp+0xf0],xmm0
  406f11:	00 
  406f12:	48 c7 84 24 00 01 00 	mov    QWORD PTR [rsp+0x100],0x0
  406f19:	00 00 00 00 00 
  406f1e:	48 89 ef             	mov    rdi,rbp
  406f21:	e8 ba 1d 06 00       	call   468ce0 <fb_StrAssign>
  406f26:	48 89 ef             	mov    rdi,rbp
  406f29:	e8 32 f8 ff ff       	call   406760 <ERROREXIT>
  406f2e:	48 89 ef             	mov    rdi,rbp
  406f31:	e8 5a 2f 06 00       	call   469e90 <fb_StrDelete>
;  glProc(glUseProgram)
  406f36:	4c 8d 25 b3 81 06 00 	lea    r12,[rip+0x681b3]        # 46f0f0 <_IO_stdin_used+0xf0>
  406f3d:	4c 89 e7             	mov    rdi,r12
  406f40:	e8 0b ff 04 00       	call   456e50 <fb_GfxGetGLProcAddress>
  406f45:	48 89 05 04 bf 09 00 	mov    QWORD PTR [rip+0x9bf04],rax        # 4a2e50 <GLUSEPROGRAM$>
  406f4c:	48 85 c0             	test   rax,rax
  406f4f:	75 4a                	jne    406f9b <GLSCREEN+0x7bb>
  406f51:	66 0f ef c0          	pxor   xmm0,xmm0
  406f55:	45 31 c0             	xor    r8d,r8d
  406f58:	b9 0d 00 00 00       	mov    ecx,0xd
  406f5d:	4c 89 e2             	mov    rdx,r12
  406f60:	48 8d ac 24 f0 00 00 	lea    rbp,[rsp+0xf0]
  406f67:	00 
  406f68:	48 c7 c6 ff ff ff ff 	mov    rsi,0xffffffffffffffff
  406f6f:	0f 29 84 24 f0 00 00 	movaps XMMWORD PTR [rsp+0xf0],xmm0
  406f76:	00 
  406f77:	48 c7 84 24 00 01 00 	mov    QWORD PTR [rsp+0x100],0x0
  406f7e:	00 00 00 00 00 
  406f83:	48 89 ef             	mov    rdi,rbp
  406f86:	e8 55 1d 06 00       	call   468ce0 <fb_StrAssign>
  406f8b:	48 89 ef             	mov    rdi,rbp
  406f8e:	e8 cd f7 ff ff       	call   406760 <ERROREXIT>
  406f93:	48 89 ef             	mov    rdi,rbp
  406f96:	e8 f5 2e 06 00       	call   469e90 <fb_StrDelete>
;  glProc(glGetUniformLocation)
  406f9b:	4c 8d 25 5b 81 06 00 	lea    r12,[rip+0x6815b]        # 46f0fd <_IO_stdin_used+0xfd>
  406fa2:	4c 89 e7             	mov    rdi,r12
  406fa5:	e8 a6 fe 04 00       	call   456e50 <fb_GfxGetGLProcAddress>
  406faa:	48 89 05 97 be 09 00 	mov    QWORD PTR [rip+0x9be97],rax        # 4a2e48 <GLGETUNIFORMLOCATION$>
  406fb1:	48 85 c0             	test   rax,rax
  406fb4:	75 4a                	jne    407000 <GLSCREEN+0x820>
  406fb6:	66 0f ef c0          	pxor   xmm0,xmm0
  406fba:	45 31 c0             	xor    r8d,r8d
  406fbd:	b9 15 00 00 00       	mov    ecx,0x15
  406fc2:	4c 89 e2             	mov    rdx,r12
  406fc5:	48 8d ac 24 f0 00 00 	lea    rbp,[rsp+0xf0]
  406fcc:	00 
  406fcd:	48 c7 c6 ff ff ff ff 	mov    rsi,0xffffffffffffffff
  406fd4:	0f 29 84 24 f0 00 00 	movaps XMMWORD PTR [rsp+0xf0],xmm0
  406fdb:	00 
  406fdc:	48 c7 84 24 00 01 00 	mov    QWORD PTR [rsp+0x100],0x0
  406fe3:	00 00 00 00 00 
  406fe8:	48 89 ef             	mov    rdi,rbp
  406feb:	e8 f0 1c 06 00       	call   468ce0 <fb_StrAssign>
  406ff0:	48 89 ef             	mov    rdi,rbp
  406ff3:	e8 68 f7 ff ff       	call   406760 <ERROREXIT>
  406ff8:	48 89 ef             	mov    rdi,rbp
  406ffb:	e8 90 2e 06 00       	call   469e90 <fb_StrDelete>
;  glProc(glUniform1i)
  407000:	4c 8d 25 0b 81 06 00 	lea    r12,[rip+0x6810b]        # 46f112 <_IO_stdin_used+0x112>
  407007:	4c 89 e7             	mov    rdi,r12
  40700a:	e8 41 fe 04 00       	call   456e50 <fb_GfxGetGLProcAddress>
  40700f:	48 89 05 12 be 09 00 	mov    QWORD PTR [rip+0x9be12],rax        # 4a2e28 <GLUNIFORM1I$>
  407016:	48 85 c0             	test   rax,rax
  407019:	75 4a                	jne    407065 <GLSCREEN+0x885>
  40701b:	66 0f ef c0          	pxor   xmm0,xmm0
  40701f:	45 31 c0             	xor    r8d,r8d
  407022:	b9 0c 00 00 00       	mov    ecx,0xc
  407027:	4c 89 e2             	mov    rdx,r12
  40702a:	48 8d ac 24 f0 00 00 	lea    rbp,[rsp+0xf0]
  407031:	00 
  407032:	48 c7 c6 ff ff ff ff 	mov    rsi,0xffffffffffffffff
  407039:	0f 29 84 24 f0 00 00 	movaps XMMWORD PTR [rsp+0xf0],xmm0
  407040:	00 
  407041:	48 c7 84 24 00 01 00 	mov    QWORD PTR [rsp+0x100],0x0
  407048:	00 00 00 00 00 
  40704d:	48 89 ef             	mov    rdi,rbp
  407050:	e8 8b 1c 06 00       	call   468ce0 <fb_StrAssign>
  407055:	48 89 ef             	mov    rdi,rbp
  407058:	e8 03 f7 ff ff       	call   406760 <ERROREXIT>
  40705d:	48 89 ef             	mov    rdi,rbp
  407060:	e8 2b 2e 06 00       	call   469e90 <fb_StrDelete>
;  glProc(glUniform1f)
  407065:	4c 8d 25 b2 80 06 00 	lea    r12,[rip+0x680b2]        # 46f11e <_IO_stdin_used+0x11e>
  40706c:	4c 89 e7             	mov    rdi,r12
  40706f:	e8 dc fd 04 00       	call   456e50 <fb_GfxGetGLProcAddress>
  407074:	48 89 05 c5 bd 09 00 	mov    QWORD PTR [rip+0x9bdc5],rax        # 4a2e40 <GLUNIFORM1F$>
  40707b:	48 85 c0             	test   rax,rax
  40707e:	75 4a                	jne    4070ca <GLSCREEN+0x8ea>
  407080:	66 0f ef c0          	pxor   xmm0,xmm0
  407084:	45 31 c0             	xor    r8d,r8d
  407087:	b9 0c 00 00 00       	mov    ecx,0xc
  40708c:	4c 89 e2             	mov    rdx,r12
  40708f:	48 8d ac 24 f0 00 00 	lea    rbp,[rsp+0xf0]
  407096:	00 
  407097:	48 c7 c6 ff ff ff ff 	mov    rsi,0xffffffffffffffff
  40709e:	0f 29 84 24 f0 00 00 	movaps XMMWORD PTR [rsp+0xf0],xmm0
  4070a5:	00 
  4070a6:	48 c7 84 24 00 01 00 	mov    QWORD PTR [rsp+0x100],0x0
  4070ad:	00 00 00 00 00 
  4070b2:	48 89 ef             	mov    rdi,rbp
  4070b5:	e8 26 1c 06 00       	call   468ce0 <fb_StrAssign>
  4070ba:	48 89 ef             	mov    rdi,rbp
  4070bd:	e8 9e f6 ff ff       	call   406760 <ERROREXIT>
  4070c2:	48 89 ef             	mov    rdi,rbp
  4070c5:	e8 c6 2d 06 00       	call   469e90 <fb_StrDelete>
;  glProc(glUniform3f)
  4070ca:	4c 8d 25 59 80 06 00 	lea    r12,[rip+0x68059]        # 46f12a <_IO_stdin_used+0x12a>
  4070d1:	4c 89 e7             	mov    rdi,r12
  4070d4:	e8 77 fd 04 00       	call   456e50 <fb_GfxGetGLProcAddress>
  4070d9:	48 89 05 58 bd 09 00 	mov    QWORD PTR [rip+0x9bd58],rax        # 4a2e38 <GLUNIFORM3F$>
  4070e0:	48 85 c0             	test   rax,rax
  4070e3:	75 4a                	jne    40712f <GLSCREEN+0x94f>
  4070e5:	66 0f ef c0          	pxor   xmm0,xmm0
  4070e9:	45 31 c0             	xor    r8d,r8d
  4070ec:	b9 0c 00 00 00       	mov    ecx,0xc
  4070f1:	4c 89 e2             	mov    rdx,r12
  4070f4:	48 8d ac 24 f0 00 00 	lea    rbp,[rsp+0xf0]
  4070fb:	00 
  4070fc:	48 c7 c6 ff ff ff ff 	mov    rsi,0xffffffffffffffff
  407103:	0f 29 84 24 f0 00 00 	movaps XMMWORD PTR [rsp+0xf0],xmm0
  40710a:	00 
  40710b:	48 c7 84 24 00 01 00 	mov    QWORD PTR [rsp+0x100],0x0
  407112:	00 00 00 00 00 
  407117:	48 89 ef             	mov    rdi,rbp
  40711a:	e8 c1 1b 06 00       	call   468ce0 <fb_StrAssign>
  40711f:	48 89 ef             	mov    rdi,rbp
  407122:	e8 39 f6 ff ff       	call   406760 <ERROREXIT>
  407127:	48 89 ef             	mov    rdi,rbp
  40712a:	e8 61 2d 06 00       	call   469e90 <fb_StrDelete>
;  glProc(glUniform3fv)
  40712f:	4c 8d 25 00 80 06 00 	lea    r12,[rip+0x68000]        # 46f136 <_IO_stdin_used+0x136>
  407136:	4c 89 e7             	mov    rdi,r12
  407139:	e8 12 fd 04 00       	call   456e50 <fb_GfxGetGLProcAddress>
  40713e:	48 85 c0             	test   rax,rax
  407141:	75 4a                	jne    40718d <GLSCREEN+0x9ad>
  407143:	66 0f ef c0          	pxor   xmm0,xmm0
  407147:	45 31 c0             	xor    r8d,r8d
  40714a:	b9 0d 00 00 00       	mov    ecx,0xd
  40714f:	4c 89 e2             	mov    rdx,r12
  407152:	48 8d ac 24 f0 00 00 	lea    rbp,[rsp+0xf0]
  407159:	00 
  40715a:	48 c7 c6 ff ff ff ff 	mov    rsi,0xffffffffffffffff
  407161:	0f 29 84 24 f0 00 00 	movaps XMMWORD PTR [rsp+0xf0],xmm0
  407168:	00 
  407169:	48 c7 84 24 00 01 00 	mov    QWORD PTR [rsp+0x100],0x0
  407170:	00 00 00 00 00 
  407175:	48 89 ef             	mov    rdi,rbp
  407178:	e8 63 1b 06 00       	call   468ce0 <fb_StrAssign>
  40717d:	48 89 ef             	mov    rdi,rbp
  407180:	e8 db f5 ff ff       	call   406760 <ERROREXIT>
  407185:	48 89 ef             	mov    rdi,rbp
  407188:	e8 03 2d 06 00       	call   469e90 <fb_StrDelete>
;  glProc(glUniform4f)
  40718d:	4c 8d 25 af 7f 06 00 	lea    r12,[rip+0x67faf]        # 46f143 <_IO_stdin_used+0x143>
  407194:	4c 89 e7             	mov    rdi,r12
  407197:	e8 b4 fc 04 00       	call   456e50 <fb_GfxGetGLProcAddress>
  40719c:	48 89 05 8d bc 09 00 	mov    QWORD PTR [rip+0x9bc8d],rax        # 4a2e30 <GLUNIFORM4F$>
  4071a3:	48 85 c0             	test   rax,rax
  4071a6:	75 4a                	jne    4071f2 <GLSCREEN+0xa12>
  4071a8:	66 0f ef c0          	pxor   xmm0,xmm0
  4071ac:	45 31 c0             	xor    r8d,r8d
  4071af:	b9 0c 00 00 00       	mov    ecx,0xc
  4071b4:	4c 89 e2             	mov    rdx,r12
  4071b7:	48 8d ac 24 f0 00 00 	lea    rbp,[rsp+0xf0]
  4071be:	00 
  4071bf:	48 c7 c6 ff ff ff ff 	mov    rsi,0xffffffffffffffff
  4071c6:	0f 29 84 24 f0 00 00 	movaps XMMWORD PTR [rsp+0xf0],xmm0
  4071cd:	00 
  4071ce:	48 c7 84 24 00 01 00 	mov    QWORD PTR [rsp+0x100],0x0
  4071d5:	00 00 00 00 00 
  4071da:	48 89 ef             	mov    rdi,rbp
  4071dd:	e8 fe 1a 06 00       	call   468ce0 <fb_StrAssign>
  4071e2:	48 89 ef             	mov    rdi,rbp
  4071e5:	e8 76 f5 ff ff       	call   406760 <ERROREXIT>
  4071ea:	48 89 ef             	mov    rdi,rbp
  4071ed:	e8 9e 2c 06 00       	call   469e90 <fb_StrDelete>
;  glProc(glUniform4fv)
  4071f2:	4c 8d 25 56 7f 06 00 	lea    r12,[rip+0x67f56]        # 46f14f <_IO_stdin_used+0x14f>
  4071f9:	4c 89 e7             	mov    rdi,r12
  4071fc:	e8 4f fc 04 00       	call   456e50 <fb_GfxGetGLProcAddress>
  407201:	48 85 c0             	test   rax,rax
  407204:	75 4a                	jne    407250 <GLSCREEN+0xa70>
  407206:	66 0f ef c0          	pxor   xmm0,xmm0
  40720a:	45 31 c0             	xor    r8d,r8d
  40720d:	b9 0d 00 00 00       	mov    ecx,0xd
  407212:	4c 89 e2             	mov    rdx,r12
  407215:	48 8d ac 24 f0 00 00 	lea    rbp,[rsp+0xf0]
  40721c:	00 
  40721d:	48 c7 c6 ff ff ff ff 	mov    rsi,0xffffffffffffffff
  407224:	0f 29 84 24 f0 00 00 	movaps XMMWORD PTR [rsp+0xf0],xmm0
  40722b:	00 
  40722c:	48 c7 84 24 00 01 00 	mov    QWORD PTR [rsp+0x100],0x0
  407233:	00 00 00 00 00 
  407238:	48 89 ef             	mov    rdi,rbp
  40723b:	e8 a0 1a 06 00       	call   468ce0 <fb_StrAssign>
  407240:	48 89 ef             	mov    rdi,rbp
  407243:	e8 18 f5 ff ff       	call   406760 <ERROREXIT>
  407248:	48 89 ef             	mov    rdi,rbp
  40724b:	e8 40 2c 06 00       	call   469e90 <fb_StrDelete>
;  windowtitle "load and compile shader pese wait ..."
  407250:	48 8d 3d 71 bc 06 00 	lea    rdi,[rip+0x6bc71]        # 472ec8 <_IO_stdin_used+0x3ec8>
  407257:	be 25 00 00 00       	mov    esi,0x25
  40725c:	e8 0f 32 06 00       	call   46a470 <fb_StrAllocTempDescZEx>
  407261:	48 89 c7             	mov    rdi,rax
  407264:	e8 b7 2c 05 00       	call   459f20 <fb_GfxSetWindowTitle>
;end sub
  407269:	48 8b 84 24 18 01 00 	mov    rax,QWORD PTR [rsp+0x118]
  407270:	00 
  407271:	64 48 2b 04 25 28 00 	sub    rax,QWORD PTR fs:0x28
  407278:	00 00 
  40727a:	0f 85 88 03 00 00    	jne    407608 <GLSCREEN+0xe28>
  407280:	48 81 c4 28 01 00 00 	add    rsp,0x128
  407287:	5b                   	pop    rbx
  407288:	5d                   	pop    rbp
  407289:	41 5c                	pop    r12
  40728b:	41 5d                	pop    r13
  40728d:	41 5e                	pop    r14
  40728f:	41 5f                	pop    r15
  407291:	c3                   	ret    
  407292:	66 0f 1f 44 00 00    	nop    WORD PTR [rax+rax*1+0x0]
;    colorBits=b
  407298:	4c 8b 74 24 68       	mov    r14,QWORD PTR [rsp+0x68]
;    dim as long foundMode,mode=ScreenList(colorBits)
  40729d:	45 89 f4             	mov    r12d,r14d
;  if depthBits<=0 then
  4072a0:	48 8b 54 24 18       	mov    rdx,QWORD PTR [rsp+0x18]
  4072a5:	31 c0                	xor    eax,eax
  4072a7:	48 85 d2             	test   rdx,rdx
  4072aa:	0f 8e 58 f6 ff ff    	jle    406908 <GLSCREEN+0x128>
;  elseif depthBits<16 then
  4072b0:	b8 10 00 00 00       	mov    eax,0x10
  4072b5:	48 83 fa 0f          	cmp    rdx,0xf
  4072b9:	0f 8e 49 f6 ff ff    	jle    406908 <GLSCREEN+0x128>
;  elseif depthBits<32 then
  4072bf:	31 c0                	xor    eax,eax
  4072c1:	48 83 fa 20          	cmp    rdx,0x20
  4072c5:	0f 9d c0             	setge  al
  4072c8:	48 8d 04 c5 18 00 00 	lea    rax,[rax*8+0x18]
  4072cf:	00 
  4072d0:	e9 33 f6 ff ff       	jmp    406908 <GLSCREEN+0x128>
  4072d5:	0f 1f 00             	nop    DWORD PTR [rax]
;      pixelWidth =HiWord(foundMode)
  4072d8:	4c 89 eb             	mov    rbx,r13
;  if ScreenRes(pixelWidth,pixelHeight,colorBits,,FB.GFX_OPENGL or iif(fullScreen<>0,FB.GFX_FULLSCREEN,0)) then
  4072db:	45 31 c0             	xor    r8d,r8d
  4072de:	41 0f b7 f5          	movzx  esi,r13w
;      pixelWidth =HiWord(foundMode)
  4072e2:	48 c1 e3 20          	shl    rbx,0x20
  4072e6:	48 c1 eb 30          	shr    rbx,0x30
;  if ScreenRes(pixelWidth,pixelHeight,colorBits,,FB.GFX_OPENGL or iif(fullScreen<>0,FB.GFX_FULLSCREEN,0)) then
  4072ea:	80 7c 24 0f 00       	cmp    BYTE PTR [rsp+0xf],0x0
  4072ef:	41 0f 95 c0          	setne  r8b
  4072f3:	41 83 c8 02          	or     r8d,0x2
  4072f7:	e9 f0 f6 ff ff       	jmp    4069ec <GLSCREEN+0x20c>
  4072fc:	0f 1f 40 00          	nop    DWORD PTR [rax+0x0]
  407300:	41 bc 10 00 00 00    	mov    r12d,0x10
;    colorBits=16  
  407306:	41 be 10 00 00 00    	mov    r14d,0x10
  40730c:	eb 92                	jmp    4072a0 <GLSCREEN+0xac0>
  40730e:	66 90                	xchg   ax,ax
;    pixelHeight=pixelWidth/16*9
  407310:	66 0f ef c0          	pxor   xmm0,xmm0
  407314:	f2 48 0f 2a c3       	cvtsi2sd xmm0,rbx
  407319:	f2 0f 59 05 37 be 06 	mulsd  xmm0,QWORD PTR [rip+0x6be37]        # 473158 <_IO_stdin_used+0x4158>
  407320:	00 
  407321:	f2 0f 59 05 37 be 06 	mulsd  xmm0,QWORD PTR [rip+0x6be37]        # 473160 <_IO_stdin_used+0x4160>
  407328:	00 
  407329:	e8 22 e0 ff ff       	call   405350 <nearbyint@plt>
  40732e:	f2 48 0f 2c e8       	cvttsd2si rbp,xmm0
;  elseif pixelWidth<=0 andalso pixelHeight>0 then
  407333:	e9 85 f5 ff ff       	jmp    4068bd <GLSCREEN+0xdd>
  407338:	0f 1f 84 00 00 00 00 	nop    DWORD PTR [rax+rax*1+0x0]
  40733f:	00 
;      dim as long Bits(1)
  407340:	48 8d 84 24 10 01 00 	lea    rax,[rsp+0x110]
  407347:	00 
  407348:	ba 18 00 00 00       	mov    edx,0x18
  40734d:	48 89 44 24 10       	mov    QWORD PTR [rsp+0x10],rax
;      if colorBits=16 then
  407352:	b8 20 00 00 00       	mov    eax,0x20
  407357:	49 83 fe 10          	cmp    r14,0x10
  40735b:	74 15                	je     407372 <GLSCREEN+0xb92>
;      elseif colorBits=24 then  
  40735d:	31 c0                	xor    eax,eax
  40735f:	49 83 fe 18          	cmp    r14,0x18
  407363:	ba 10 00 00 00       	mov    edx,0x10
  407368:	0f 94 c0             	sete   al
  40736b:	8d 04 c5 18 00 00 00 	lea    eax,[rax*8+0x18]
;        bits(0)=32:bits(1)=24
  407372:	89 84 24 10 01 00 00 	mov    DWORD PTR [rsp+0x110],eax
  407379:	31 c0                	xor    eax,eax
  40737b:	89 94 24 14 01 00 00 	mov    DWORD PTR [rsp+0x114],edx
  407382:	c7 44 24 08 02 00 00 	mov    DWORD PTR [rsp+0x8],0x2
  407389:	00 
  40738a:	eb 1c                	jmp    4073a8 <GLSCREEN+0xbc8>
  40738c:	0f 1f 40 00          	nop    DWORD PTR [rax+0x0]
;      next  
  407390:	83 7c 24 08 01       	cmp    DWORD PTR [rsp+0x8],0x1
  407395:	b8 01 00 00 00       	mov    eax,0x1
  40739a:	0f 84 44 f6 ff ff    	je     4069e4 <GLSCREEN+0x204>
  4073a0:	c7 44 24 08 01 00 00 	mov    DWORD PTR [rsp+0x8],0x1
  4073a7:	00 
;        colorBits=Bits(i)
  4073a8:	48 8b 4c 24 10       	mov    rcx,QWORD PTR [rsp+0x10]
  4073ad:	44 8b 24 81          	mov    r12d,DWORD PTR [rcx+rax*4]
;        mode=ScreenList(colorBits)
  4073b1:	44 89 e7             	mov    edi,r12d
  4073b4:	e8 67 2e 05 00       	call   45a220 <fb_GfxScreenList>
  4073b9:	41 89 c5             	mov    r13d,eax
;        if mode then
  4073bc:	85 c0                	test   eax,eax
  4073be:	74 d0                	je     407390 <GLSCREEN+0xbb0>
;            errorHeight=abs(LoWord(mode)-pixelHeight)
  4073c0:	45 31 ff             	xor    r15d,r15d
;          dim as integer errorValue=2^30,errorWidth,errorHeight
  4073c3:	be 00 00 00 40       	mov    esi,0x40000000
  4073c8:	eb 1e                	jmp    4073e8 <GLSCREEN+0xc08>
  4073ca:	66 0f 1f 44 00 00    	nop    WORD PTR [rax+rax*1+0x0]
;            Mode = ScreenList()
  4073d0:	31 ff                	xor    edi,edi
  4073d2:	e8 49 2e 05 00       	call   45a220 <fb_GfxScreenList>
;          While (mode <> 0)
  4073d7:	85 c0                	test   eax,eax
  4073d9:	0f 84 fc f5 ff ff    	je     4069db <GLSCREEN+0x1fb>
  4073df:	4c 89 f6             	mov    rsi,r14
  4073e2:	45 89 ef             	mov    r15d,r13d
  4073e5:	41 89 c5             	mov    r13d,eax
;            errorWidth =abs(HiWord(mode)-pixelWidth)
  4073e8:	4c 89 e8             	mov    rax,r13
  4073eb:	48 c1 e0 20          	shl    rax,0x20
  4073ef:	48 c1 e8 30          	shr    rax,0x30
  4073f3:	48 29 d8             	sub    rax,rbx
  4073f6:	48 89 c2             	mov    rdx,rax
  4073f9:	48 f7 da             	neg    rdx
  4073fc:	48 0f 48 d0          	cmovs  rdx,rax
;            errorHeight=abs(LoWord(mode)-pixelHeight)
  407400:	41 0f b7 c5          	movzx  eax,r13w
  407404:	48 29 e8             	sub    rax,rbp
  407407:	48 89 c7             	mov    rdi,rax
  40740a:	48 f7 df             	neg    rdi
  40740d:	48 0f 49 c7          	cmovns rax,rdi
;            if (errorWidth+errorHeight)<errorValue then
  407411:	4c 8d 34 02          	lea    r14,[rdx+rax*1]
  407415:	49 39 f6             	cmp    r14,rsi
  407418:	7c b6                	jl     4073d0 <GLSCREEN+0xbf0>
;            Mode = ScreenList()
  40741a:	31 ff                	xor    edi,edi
  40741c:	48 89 34 24          	mov    QWORD PTR [rsp],rsi
  407420:	e8 fb 2d 05 00       	call   45a220 <fb_GfxScreenList>
;          While (mode <> 0)
  407425:	48 8b 34 24          	mov    rsi,QWORD PTR [rsp]
  407429:	85 c0                	test   eax,eax
  40742b:	75 b8                	jne    4073e5 <GLSCREEN+0xc05>
;        if foundMode then exit for
  40742d:	45 85 ff             	test   r15d,r15d
  407430:	0f 84 5a ff ff ff    	je     407390 <GLSCREEN+0xbb0>
  407436:	45 89 fd             	mov    r13d,r15d
;      next  
  407439:	e9 9d f5 ff ff       	jmp    4069db <GLSCREEN+0x1fb>
  40743e:	66 90                	xchg   ax,ax
;    if ScreenRes(640,350,b,,FB.GFX_OPENGL) then
  407440:	8b 54 24 68          	mov    edx,DWORD PTR [rsp+0x68]
  407444:	45 31 c9             	xor    r9d,r9d
  407447:	41 b8 02 00 00 00    	mov    r8d,0x2
  40744d:	b9 01 00 00 00       	mov    ecx,0x1
  407452:	be 5e 01 00 00       	mov    esi,0x15e
  407457:	bf 80 02 00 00       	mov    edi,0x280
  40745c:	e8 1f 2a 05 00       	call   459e80 <fb_GfxScreenRes>
  407461:	85 c0                	test   eax,eax
  407463:	0f 84 9d f5 ff ff    	je     406a06 <GLSCREEN+0x226>
;      ErrorExit("screenres(" & w & "," & h &") failed !")
  407469:	48 8b 7c 24 60       	mov    rdi,QWORD PTR [rsp+0x60]
  40746e:	66 0f ef c9          	pxor   xmm1,xmm1
  407472:	48 c7 84 24 00 01 00 	mov    QWORD PTR [rsp+0x100],0x0
  407479:	00 00 00 00 00 
  40747e:	48 8d ac 24 f0 00 00 	lea    rbp,[rsp+0xf0]
  407485:	00 
  407486:	0f 29 8c 24 f0 00 00 	movaps XMMWORD PTR [rsp+0xf0],xmm1
  40748d:	00 
  40748e:	e8 8d 25 06 00       	call   469a20 <fb_LongintToStr>
  407493:	48 8b 7c 24 58       	mov    rdi,QWORD PTR [rsp+0x58]
  407498:	49 89 c4             	mov    r12,rax
  40749b:	e8 80 25 06 00       	call   469a20 <fb_LongintToStr>
  4074a0:	48 8d 7c 24 70       	lea    rdi,[rsp+0x70]
  4074a5:	66 0f ef c9          	pxor   xmm1,xmm1
  4074a9:	49 c7 c0 ff ff ff ff 	mov    r8,0xffffffffffffffff
  4074b0:	48 89 c1             	mov    rcx,rax
  4074b3:	ba 0b 00 00 00       	mov    edx,0xb
  4074b8:	0f 29 4c 24 70       	movaps XMMWORD PTR [rsp+0x70],xmm1
  4074bd:	48 8d 35 52 7b 06 00 	lea    rsi,[rip+0x67b52]        # 46f016 <_IO_stdin_used+0x16>
  4074c4:	48 c7 84 24 80 00 00 	mov    QWORD PTR [rsp+0x80],0x0
  4074cb:	00 00 00 00 00 
  4074d0:	e8 bb 1a 06 00       	call   468f90 <fb_StrConcat>
  4074d5:	66 0f ef c9          	pxor   xmm1,xmm1
  4074d9:	48 8d bc 24 90 00 00 	lea    rdi,[rsp+0x90]
  4074e0:	00 
  4074e1:	41 b8 02 00 00 00    	mov    r8d,0x2
  4074e7:	48 89 c6             	mov    rsi,rax
  4074ea:	48 8d 0d 30 7b 06 00 	lea    rcx,[rip+0x67b30]        # 46f021 <_IO_stdin_used+0x21>
  4074f1:	48 c7 c2 ff ff ff ff 	mov    rdx,0xffffffffffffffff
  4074f8:	0f 29 8c 24 90 00 00 	movaps XMMWORD PTR [rsp+0x90],xmm1
  4074ff:	00 
  407500:	48 c7 84 24 a0 00 00 	mov    QWORD PTR [rsp+0xa0],0x0
  407507:	00 00 00 00 00 
  40750c:	e8 7f 1a 06 00       	call   468f90 <fb_StrConcat>
  407511:	48 8d bc 24 b0 00 00 	lea    rdi,[rsp+0xb0]
  407518:	00 
  407519:	66 0f ef c9          	pxor   xmm1,xmm1
  40751d:	4c 89 e1             	mov    rcx,r12
  407520:	48 89 c6             	mov    rsi,rax
  407523:	49 c7 c0 ff ff ff ff 	mov    r8,0xffffffffffffffff
  40752a:	48 c7 c2 ff ff ff ff 	mov    rdx,0xffffffffffffffff
  407531:	0f 29 8c 24 b0 00 00 	movaps XMMWORD PTR [rsp+0xb0],xmm1
  407538:	00 
  407539:	48 c7 84 24 c0 00 00 	mov    QWORD PTR [rsp+0xc0],0x0
  407540:	00 00 00 00 00 
  407545:	e8 46 1a 06 00       	call   468f90 <fb_StrConcat>
  40754a:	66 0f ef c9          	pxor   xmm1,xmm1
  40754e:	48 8d bc 24 d0 00 00 	lea    rdi,[rsp+0xd0]
  407555:	00 
  407556:	41 b8 0b 00 00 00    	mov    r8d,0xb
  40755c:	48 89 c6             	mov    rsi,rax
  40755f:	48 8d 0d e1 7d 06 00 	lea    rcx,[rip+0x67de1]        # 46f347 <_IO_stdin_used+0x347>
  407566:	48 c7 c2 ff ff ff ff 	mov    rdx,0xffffffffffffffff
  40756d:	0f 29 8c 24 d0 00 00 	movaps XMMWORD PTR [rsp+0xd0],xmm1
  407574:	00 
  407575:	48 c7 84 24 e0 00 00 	mov    QWORD PTR [rsp+0xe0],0x0
  40757c:	00 00 00 00 00 
  407581:	e8 0a 1a 06 00       	call   468f90 <fb_StrConcat>
  407586:	45 31 c0             	xor    r8d,r8d
  407589:	48 c7 c1 ff ff ff ff 	mov    rcx,0xffffffffffffffff
  407590:	48 89 ef             	mov    rdi,rbp
  407593:	48 89 c2             	mov    rdx,rax
  407596:	48 c7 c6 ff ff ff ff 	mov    rsi,0xffffffffffffffff
  40759d:	e8 3e 17 06 00       	call   468ce0 <fb_StrAssign>
  4075a2:	48 89 ef             	mov    rdi,rbp
  4075a5:	e8 b6 f1 ff ff       	call   406760 <ERROREXIT>
  4075aa:	48 89 ef             	mov    rdi,rbp
  4075ad:	e8 de 28 06 00       	call   469e90 <fb_StrDelete>
  4075b2:	e9 4f f4 ff ff       	jmp    406a06 <GLSCREEN+0x226>
  4075b7:	66 0f 1f 84 00 00 00 	nop    WORD PTR [rax+rax*1+0x0]
  4075be:	00 00 
;  if pixelWidth<=0 andalso pixelHeight<=0 then
  4075c0:	85 c0                	test   eax,eax
  4075c2:	74 1c                	je     4075e0 <GLSCREEN+0xe00>
;    pixelWidth=640 : pixelHeight=350 : fullScreen=false
  4075c4:	c6 44 24 0f 00       	mov    BYTE PTR [rsp+0xf],0x0
  4075c9:	bd 5e 01 00 00       	mov    ebp,0x15e
  4075ce:	bb 80 02 00 00       	mov    ebx,0x280
  4075d3:	e9 e5 f2 ff ff       	jmp    4068bd <GLSCREEN+0xdd>
  4075d8:	0f 1f 84 00 00 00 00 	nop    DWORD PTR [rax+rax*1+0x0]
  4075df:	00 
;    pixelWidth=pixelHeight/9*16
  4075e0:	66 0f ef c0          	pxor   xmm0,xmm0
  4075e4:	f2 48 0f 2a c5       	cvtsi2sd xmm0,rbp
  4075e9:	f2 0f 5e 05 6f bb 06 	divsd  xmm0,QWORD PTR [rip+0x6bb6f]        # 473160 <_IO_stdin_used+0x4160>
  4075f0:	00 
  4075f1:	f2 0f 59 05 6f bb 06 	mulsd  xmm0,QWORD PTR [rip+0x6bb6f]        # 473168 <_IO_stdin_used+0x4168>
  4075f8:	00 
  4075f9:	e8 52 dd ff ff       	call   405350 <nearbyint@plt>
  4075fe:	f2 48 0f 2c d8       	cvttsd2si rbx,xmm0
  407603:	e9 b5 f2 ff ff       	jmp    4068bd <GLSCREEN+0xdd>
;end sub
  407608:	e8 53 e2 ff ff       	call   405860 <__stack_chk_fail@plt>
  40760d:	0f 1f 00             	nop    DWORD PTR [rax]

0000000000407610 <SHADERTOY::~SHADERTOY()>:
;destructor ShaderToy
  407610:	53                   	push   rbx
;  if ProgramObject then
  407611:	8b 47 04             	mov    eax,DWORD PTR [rdi+0x4]
;destructor ShaderToy
  407614:	48 89 fb             	mov    rbx,rdi
;  if ProgramObject then
  407617:	85 c0                	test   eax,eax
  407619:	74 28                	je     407643 <SHADERTOY::~SHADERTOY()+0x33>
;   glUseprogram(0)
  40761b:	31 ff                	xor    edi,edi
  40761d:	ff 15 2d b8 09 00    	call   QWORD PTR [rip+0x9b82d]        # 4a2e50 <GLUSEPROGRAM$>
;   if FragmentShader  then
  407623:	8b 33                	mov    esi,DWORD PTR [rbx]
  407625:	85 f6                	test   esi,esi
  407627:	74 11                	je     40763a <SHADERTOY::~SHADERTOY()+0x2a>
;     glDetachShader(ProgramObject,FragmentShader)
  407629:	8b 7b 04             	mov    edi,DWORD PTR [rbx+0x4]
  40762c:	ff 15 3e b8 09 00    	call   QWORD PTR [rip+0x9b83e]        # 4a2e70 <GLDETACHSHADER$>
;     glDeleteShader(FragmentShader)
  407632:	8b 3b                	mov    edi,DWORD PTR [rbx]
  407634:	ff 15 76 b8 09 00    	call   QWORD PTR [rip+0x9b876]        # 4a2eb0 <GLDELETESHADER$>
;   end if
;   glDeleteProgram(ProgramObject)
  40763a:	8b 7b 04             	mov    edi,DWORD PTR [rbx+0x4]
  40763d:	ff 15 3d b8 09 00    	call   QWORD PTR [rip+0x9b83d]        # 4a2e80 <GLDELETEPROGRAM$>
;  end if
;end destructor
  407643:	48 8d 7b 08          	lea    rdi,[rbx+0x8]
  407647:	5b                   	pop    rbx
  407648:	e9 43 28 06 00       	jmp    469e90 <fb_StrDelete>
  40764d:	0f 1f 00             	nop    DWORD PTR [rax]

0000000000407650 <SHADERTOY::COMPILECODE(FBSTRING&)>:
;  wend
;  close #hFile
;  return CompileCode(code)
;end function
;
;function ShaderToy.CompileCode(UserCode as string) as boolean
  407650:	41 57                	push   r15
;  dim as GLint logSize
;  dim as GLint status
;  dim as string FragmentProlog,Version
  407652:	66 0f ef c0          	pxor   xmm0,xmm0
;  ' define the right version
;  'Version =!"#version 120\n"
;  'Version =!"#version 130\n"
;  'Version =!"#version 140\n"
;  Version =!"#version 460\n"
  407656:	45 31 c0             	xor    r8d,r8d
  407659:	b9 0e 00 00 00       	mov    ecx,0xe
;function ShaderToy.CompileCode(UserCode as string) as boolean
  40765e:	41 56                	push   r14
;  Version =!"#version 460\n"
  407660:	48 8d 15 f5 7a 06 00 	lea    rdx,[rip+0x67af5]        # 46f15c <_IO_stdin_used+0x15c>
;function ShaderToy.CompileCode(UserCode as string) as boolean
  407667:	49 89 f6             	mov    r14,rsi
;  Version =!"#version 460\n"
  40766a:	48 c7 c6 ff ff ff ff 	mov    rsi,0xffffffffffffffff
;function ShaderToy.CompileCode(UserCode as string) as boolean
  407671:	41 55                	push   r13
  407673:	41 54                	push   r12
  407675:	55                   	push   rbp
  407676:	53                   	push   rbx
  407677:	48 89 fb             	mov    rbx,rdi
  40767a:	48 81 ec f8 00 00 00 	sub    rsp,0xf8
  407681:	64 48 8b 04 25 28 00 	mov    rax,QWORD PTR fs:0x28
  407688:	00 00 
  40768a:	48 89 84 24 e8 00 00 	mov    QWORD PTR [rsp+0xe8],rax
  407691:	00 
  407692:	31 c0                	xor    eax,eax
;  dim as string FragmentProlog,Version
  407694:	4c 8d 6c 24 70       	lea    r13,[rsp+0x70]
  407699:	48 8d 6c 24 50       	lea    rbp,[rsp+0x50]
  40769e:	0f 29 44 24 50       	movaps XMMWORD PTR [rsp+0x50],xmm0
;  Version =!"#version 460\n"
  4076a3:	4c 89 ef             	mov    rdi,r13
;  dim as string FragmentProlog,Version
  4076a6:	0f 29 44 24 70       	movaps XMMWORD PTR [rsp+0x70],xmm0
;  FragmentProlog & =!"uniform sampler2D iChannel2;\n"
;  ' a texture in texture unit 3
;  FragmentProlog & =!"uniform sampler2D iChannel3;\n"
;  ' a cube texture
;  FragmentProlog & =!"uniform samplerCube iCube;\n"
;  dim as string FragmentEpilog
  4076ab:	4c 8d a4 24 90 00 00 	lea    r12,[rsp+0x90]
  4076b2:	00 
  4076b3:	c7 04 24 00 00 00 00 	mov    DWORD PTR [rsp],0x0
;  dim as GLint status
  4076ba:	c7 44 24 04 00 00 00 	mov    DWORD PTR [rsp+0x4],0x0
  4076c1:	00 
;  dim as string FragmentProlog,Version
  4076c2:	48 c7 44 24 60 00 00 	mov    QWORD PTR [rsp+0x60],0x0
  4076c9:	00 00 
  4076cb:	48 c7 84 24 80 00 00 	mov    QWORD PTR [rsp+0x80],0x0
  4076d2:	00 00 00 00 00 
;  Version =!"#version 460\n"
  4076d7:	e8 04 16 06 00       	call   468ce0 <fb_StrAssign>
;  FragmentProlog = Version
  4076dc:	45 31 c0             	xor    r8d,r8d
  4076df:	4c 89 ea             	mov    rdx,r13
  4076e2:	48 89 ef             	mov    rdi,rbp
  4076e5:	48 c7 c1 ff ff ff ff 	mov    rcx,0xffffffffffffffff
  4076ec:	48 c7 c6 ff ff ff ff 	mov    rsi,0xffffffffffffffff
  4076f3:	e8 e8 15 06 00       	call   468ce0 <fb_StrAssign>
;  FragmentProlog & =!"uniform float     iGlobalTime;\n"
  4076f8:	45 31 c0             	xor    r8d,r8d
  4076fb:	b9 20 00 00 00       	mov    ecx,0x20
  407700:	48 89 ef             	mov    rdi,rbp
  407703:	48 8d 15 e6 b7 06 00 	lea    rdx,[rip+0x6b7e6]        # 472ef0 <_IO_stdin_used+0x3ef0>
  40770a:	48 c7 c6 ff ff ff ff 	mov    rsi,0xffffffffffffffff
  407711:	e8 fa 19 06 00       	call   469110 <fb_StrConcatAssign>
;  FragmentProlog & =!"uniform float     iTime;\n"
  407716:	45 31 c0             	xor    r8d,r8d
  407719:	b9 1a 00 00 00       	mov    ecx,0x1a
  40771e:	48 89 ef             	mov    rdi,rbp
  407721:	48 8d 15 42 7a 06 00 	lea    rdx,[rip+0x67a42]        # 46f16a <_IO_stdin_used+0x16a>
  407728:	48 c7 c6 ff ff ff ff 	mov    rsi,0xffffffffffffffff
  40772f:	e8 dc 19 06 00       	call   469110 <fb_StrConcatAssign>
;  FragmentProlog & =!"uniform vec3      iResolution;\n"
  407734:	45 31 c0             	xor    r8d,r8d
  407737:	b9 20 00 00 00       	mov    ecx,0x20
  40773c:	48 89 ef             	mov    rdi,rbp
  40773f:	48 8d 15 ca b7 06 00 	lea    rdx,[rip+0x6b7ca]        # 472f10 <_IO_stdin_used+0x3f10>
  407746:	48 c7 c6 ff ff ff ff 	mov    rsi,0xffffffffffffffff
  40774d:	e8 be 19 06 00       	call   469110 <fb_StrConcatAssign>
;  FragmentProlog & =!"uniform float     iTimeDelta;\n"
  407752:	45 31 c0             	xor    r8d,r8d
  407755:	b9 1f 00 00 00       	mov    ecx,0x1f
  40775a:	48 89 ef             	mov    rdi,rbp
  40775d:	48 8d 15 cc b7 06 00 	lea    rdx,[rip+0x6b7cc]        # 472f30 <_IO_stdin_used+0x3f30>
  407764:	48 c7 c6 ff ff ff ff 	mov    rsi,0xffffffffffffffff
  40776b:	e8 a0 19 06 00       	call   469110 <fb_StrConcatAssign>
;  FragmentProlog & =!"uniform float     iFrameRate;\n"
  407770:	45 31 c0             	xor    r8d,r8d
  407773:	b9 1f 00 00 00       	mov    ecx,0x1f
  407778:	48 89 ef             	mov    rdi,rbp
  40777b:	48 8d 15 ce b7 06 00 	lea    rdx,[rip+0x6b7ce]        # 472f50 <_IO_stdin_used+0x3f50>
  407782:	48 c7 c6 ff ff ff ff 	mov    rsi,0xffffffffffffffff
  407789:	e8 82 19 06 00       	call   469110 <fb_StrConcatAssign>
;  FragmentProlog & =!"uniform int       iFrame;\n"
  40778e:	45 31 c0             	xor    r8d,r8d
  407791:	b9 1b 00 00 00       	mov    ecx,0x1b
  407796:	48 89 ef             	mov    rdi,rbp
  407799:	48 8d 15 e4 79 06 00 	lea    rdx,[rip+0x679e4]        # 46f184 <_IO_stdin_used+0x184>
  4077a0:	48 c7 c6 ff ff ff ff 	mov    rsi,0xffffffffffffffff
  4077a7:	e8 64 19 06 00       	call   469110 <fb_StrConcatAssign>
;  FragmentProlog & =!"uniform float     iChannelTime[4];\n"
  4077ac:	45 31 c0             	xor    r8d,r8d
  4077af:	b9 24 00 00 00       	mov    ecx,0x24
  4077b4:	48 89 ef             	mov    rdi,rbp
  4077b7:	48 8d 15 b2 b7 06 00 	lea    rdx,[rip+0x6b7b2]        # 472f70 <_IO_stdin_used+0x3f70>
  4077be:	48 c7 c6 ff ff ff ff 	mov    rsi,0xffffffffffffffff
  4077c5:	e8 46 19 06 00       	call   469110 <fb_StrConcatAssign>
;  FragmentProlog & =!"uniform vec3      iChannelResolution[4];\n"
  4077ca:	45 31 c0             	xor    r8d,r8d
  4077cd:	b9 2a 00 00 00       	mov    ecx,0x2a
  4077d2:	48 89 ef             	mov    rdi,rbp
  4077d5:	48 8d 15 bc b7 06 00 	lea    rdx,[rip+0x6b7bc]        # 472f98 <_IO_stdin_used+0x3f98>
  4077dc:	48 c7 c6 ff ff ff ff 	mov    rsi,0xffffffffffffffff
  4077e3:	e8 28 19 06 00       	call   469110 <fb_StrConcatAssign>
;  FragmentProlog & =!"uniform float     iSampleRate;\n"
  4077e8:	45 31 c0             	xor    r8d,r8d
  4077eb:	b9 20 00 00 00       	mov    ecx,0x20
  4077f0:	48 89 ef             	mov    rdi,rbp
  4077f3:	48 8d 15 ce b7 06 00 	lea    rdx,[rip+0x6b7ce]        # 472fc8 <_IO_stdin_used+0x3fc8>
  4077fa:	48 c7 c6 ff ff ff ff 	mov    rsi,0xffffffffffffffff
  407801:	e8 0a 19 06 00       	call   469110 <fb_StrConcatAssign>
;  FragmentProlog & =!"uniform vec4      iMouse;\n"
  407806:	45 31 c0             	xor    r8d,r8d
  407809:	b9 1b 00 00 00       	mov    ecx,0x1b
  40780e:	48 89 ef             	mov    rdi,rbp
  407811:	48 8d 15 87 79 06 00 	lea    rdx,[rip+0x67987]        # 46f19f <_IO_stdin_used+0x19f>
  407818:	48 c7 c6 ff ff ff ff 	mov    rsi,0xffffffffffffffff
  40781f:	e8 ec 18 06 00       	call   469110 <fb_StrConcatAssign>
;  FragmentProlog & =!"uniform vec4      iDate;\n"
  407824:	45 31 c0             	xor    r8d,r8d
  407827:	b9 1a 00 00 00       	mov    ecx,0x1a
  40782c:	48 89 ef             	mov    rdi,rbp
  40782f:	48 8d 15 84 79 06 00 	lea    rdx,[rip+0x67984]        # 46f1ba <_IO_stdin_used+0x1ba>
  407836:	48 c7 c6 ff ff ff ff 	mov    rsi,0xffffffffffffffff
  40783d:	e8 ce 18 06 00       	call   469110 <fb_StrConcatAssign>
;  FragmentProlog & =!"uniform sampler2D iChannel0;\n"
  407842:	45 31 c0             	xor    r8d,r8d
  407845:	b9 1e 00 00 00       	mov    ecx,0x1e
  40784a:	48 89 ef             	mov    rdi,rbp
  40784d:	48 8d 15 80 79 06 00 	lea    rdx,[rip+0x67980]        # 46f1d4 <_IO_stdin_used+0x1d4>
  407854:	48 c7 c6 ff ff ff ff 	mov    rsi,0xffffffffffffffff
  40785b:	e8 b0 18 06 00       	call   469110 <fb_StrConcatAssign>
;  FragmentProlog & =!"uniform sampler2D iChannel1;\n"
  407860:	45 31 c0             	xor    r8d,r8d
  407863:	b9 1e 00 00 00       	mov    ecx,0x1e
  407868:	48 89 ef             	mov    rdi,rbp
  40786b:	48 8d 15 80 79 06 00 	lea    rdx,[rip+0x67980]        # 46f1f2 <_IO_stdin_used+0x1f2>
  407872:	48 c7 c6 ff ff ff ff 	mov    rsi,0xffffffffffffffff
  407879:	e8 92 18 06 00       	call   469110 <fb_StrConcatAssign>
;  FragmentProlog & =!"uniform sampler2D iChannel2;\n"
  40787e:	45 31 c0             	xor    r8d,r8d
  407881:	b9 1e 00 00 00       	mov    ecx,0x1e
  407886:	48 89 ef             	mov    rdi,rbp
  407889:	48 8d 15 80 79 06 00 	lea    rdx,[rip+0x67980]        # 46f210 <_IO_stdin_used+0x210>
  407890:	48 c7 c6 ff ff ff ff 	mov    rsi,0xffffffffffffffff
  407897:	e8 74 18 06 00       	call   469110 <fb_StrConcatAssign>
;  FragmentProlog & =!"uniform sampler2D iChannel3;\n"
  40789c:	45 31 c0             	xor    r8d,r8d
  40789f:	b9 1e 00 00 00       	mov    ecx,0x1e
  4078a4:	48 89 ef             	mov    rdi,rbp
  4078a7:	48 8d 15 80 79 06 00 	lea    rdx,[rip+0x67980]        # 46f22e <_IO_stdin_used+0x22e>
  4078ae:	48 c7 c6 ff ff ff ff 	mov    rsi,0xffffffffffffffff
  4078b5:	e8 56 18 06 00       	call   469110 <fb_StrConcatAssign>
;  FragmentProlog & =!"uniform samplerCube iCube;\n"
  4078ba:	45 31 c0             	xor    r8d,r8d
  4078bd:	b9 1c 00 00 00       	mov    ecx,0x1c
  4078c2:	48 89 ef             	mov    rdi,rbp
  4078c5:	48 8d 15 80 79 06 00 	lea    rdx,[rip+0x67980]        # 46f24c <_IO_stdin_used+0x24c>
  4078cc:	48 c7 c6 ff ff ff ff 	mov    rsi,0xffffffffffffffff
  4078d3:	e8 38 18 06 00       	call   469110 <fb_StrConcatAssign>
;  dim as string FragmentEpilog
  4078d8:	66 0f ef c0          	pxor   xmm0,xmm0
;  if swch = 0 then 
;	FragmentEpilog &= !"void main() {\n"
  4078dc:	45 31 c0             	xor    r8d,r8d
;  dim as string FragmentEpilog
  4078df:	48 c7 84 24 a0 00 00 	mov    QWORD PTR [rsp+0xa0],0x0
  4078e6:	00 00 00 00 00 
  4078eb:	0f 29 84 24 90 00 00 	movaps XMMWORD PTR [rsp+0x90],xmm0
  4078f2:	00 
;  if swch = 0 then 
  4078f3:	66 0f ef c0          	pxor   xmm0,xmm0
;	FragmentEpilog &= !"void main() {\n"
  4078f7:	66 0f 2e 05 49 b3 07 	ucomisd xmm0,QWORD PTR [rip+0x7b349]        # 482c48 <SWCH$>
  4078fe:	00 
;  if swch = 0 then 
  4078ff:	0f 8a bb 02 00 00    	jp     407bc0 <SHADERTOY::COMPILECODE(FBSTRING&)+0x570>
  407905:	0f 85 b5 02 00 00    	jne    407bc0 <SHADERTOY::COMPILECODE(FBSTRING&)+0x570>
;	FragmentEpilog &= !"void main() {\n"
  40790b:	b9 0f 00 00 00       	mov    ecx,0xf
  407910:	48 8d 15 bd 79 06 00 	lea    rdx,[rip+0x679bd]        # 46f2d4 <_IO_stdin_used+0x2d4>
  407917:	48 c7 c6 ff ff ff ff 	mov    rsi,0xffffffffffffffff
  40791e:	4c 89 e7             	mov    rdi,r12
  407921:	e8 ea 17 06 00       	call   469110 <fb_StrConcatAssign>
;	FragmentEpilog &= !"  vec4 color;\n"
  407926:	45 31 c0             	xor    r8d,r8d
  407929:	b9 0f 00 00 00       	mov    ecx,0xf
  40792e:	4c 89 e7             	mov    rdi,r12
  407931:	48 8d 15 ab 79 06 00 	lea    rdx,[rip+0x679ab]        # 46f2e3 <_IO_stdin_used+0x2e3>
  407938:	48 c7 c6 ff ff ff ff 	mov    rsi,0xffffffffffffffff
  40793f:	e8 cc 17 06 00       	call   469110 <fb_StrConcatAssign>
;	FragmentEpilog &= !"  // call user shader\n"
  407944:	45 31 c0             	xor    r8d,r8d
  407947:	b9 17 00 00 00       	mov    ecx,0x17
  40794c:	4c 89 e7             	mov    rdi,r12
  40794f:	48 8d 15 9c 79 06 00 	lea    rdx,[rip+0x6799c]        # 46f2f2 <_IO_stdin_used+0x2f2>
  407956:	48 c7 c6 ff ff ff ff 	mov    rsi,0xffffffffffffffff
  40795d:	e8 ae 17 06 00       	call   469110 <fb_StrConcatAssign>
;	FragmentEpilog &= !"  mainImage(color, gl_FragCoord.xy);\n"
  407962:	45 31 c0             	xor    r8d,r8d
  407965:	b9 26 00 00 00       	mov    ecx,0x26
  40796a:	48 8d 15 c7 b6 06 00 	lea    rdx,[rip+0x6b6c7]        # 473038 <_IO_stdin_used+0x4038>
  407971:	48 c7 c6 ff ff ff ff 	mov    rsi,0xffffffffffffffff
  407978:	4c 89 e7             	mov    rdi,r12
  40797b:	e8 90 17 06 00       	call   469110 <fb_StrConcatAssign>
;	FragmentEpilog &= !"  color.w = 1.0;\n"
  407980:	45 31 c0             	xor    r8d,r8d
  407983:	b9 12 00 00 00       	mov    ecx,0x12
  407988:	4c 89 e7             	mov    rdi,r12
  40798b:	48 8d 15 77 79 06 00 	lea    rdx,[rip+0x67977]        # 46f309 <_IO_stdin_used+0x309>
  407992:	48 c7 c6 ff ff ff ff 	mov    rsi,0xffffffffffffffff
  407999:	e8 72 17 06 00       	call   469110 <fb_StrConcatAssign>
;	FragmentEpilog &= !"  gl_FragColor = color;\n"
  40799e:	45 31 c0             	xor    r8d,r8d
  4079a1:	b9 19 00 00 00       	mov    ecx,0x19
  4079a6:	4c 89 e7             	mov    rdi,r12
  4079a9:	48 8d 15 6b 79 06 00 	lea    rdx,[rip+0x6796b]        # 46f31b <_IO_stdin_used+0x31b>
  4079b0:	48 c7 c6 ff ff ff ff 	mov    rsi,0xffffffffffffffff
  4079b7:	e8 54 17 06 00       	call   469110 <fb_StrConcatAssign>
;	FragmentEpilog &= !"}\n"
  4079bc:	45 31 c0             	xor    r8d,r8d
  4079bf:	b9 03 00 00 00       	mov    ecx,0x3
  4079c4:	4c 89 e7             	mov    rdi,r12
  4079c7:	48 8d 15 66 79 06 00 	lea    rdx,[rip+0x67966]        # 46f334 <_IO_stdin_used+0x334>
  4079ce:	48 c7 c6 ff ff ff ff 	mov    rsi,0xffffffffffffffff
  4079d5:	e8 36 17 06 00       	call   469110 <fb_StrConcatAssign>
;	FragmentEpilog &= !"  color.w = 1.0;\n"
;	FragmentEpilog &= !"  gl_FragColor = color;\n"
;	FragmentEpilog &= !"}\n"
;  end if 
;
;  dim as string FragmentCode = FragmentProlog & UserCode & FragmentEpilog
  4079da:	66 0f ef c9          	pxor   xmm1,xmm1
  4079de:	4c 89 f1             	mov    rcx,r14
  4079e1:	48 89 ee             	mov    rsi,rbp
  4079e4:	48 8d 7c 24 10       	lea    rdi,[rsp+0x10]
  4079e9:	49 c7 c0 ff ff ff ff 	mov    r8,0xffffffffffffffff
  4079f0:	48 c7 c2 ff ff ff ff 	mov    rdx,0xffffffffffffffff
  4079f7:	0f 29 4c 24 10       	movaps XMMWORD PTR [rsp+0x10],xmm1
  4079fc:	48 c7 44 24 20 00 00 	mov    QWORD PTR [rsp+0x20],0x0
  407a03:	00 00 
  407a05:	4c 8d b4 24 b0 00 00 	lea    r14,[rsp+0xb0]
  407a0c:	00 
  407a0d:	e8 7e 15 06 00       	call   468f90 <fb_StrConcat>
  407a12:	66 0f ef c9          	pxor   xmm1,xmm1
  407a16:	48 8d 7c 24 30       	lea    rdi,[rsp+0x30]
  407a1b:	4c 89 e1             	mov    rcx,r12
  407a1e:	48 89 c6             	mov    rsi,rax
  407a21:	49 c7 c0 ff ff ff ff 	mov    r8,0xffffffffffffffff
  407a28:	0f 29 4c 24 30       	movaps XMMWORD PTR [rsp+0x30],xmm1
  407a2d:	48 c7 c2 ff ff ff ff 	mov    rdx,0xffffffffffffffff
  407a34:	48 c7 44 24 40 00 00 	mov    QWORD PTR [rsp+0x40],0x0
  407a3b:	00 00 
  407a3d:	e8 4e 15 06 00       	call   468f90 <fb_StrConcat>
  407a42:	45 31 c0             	xor    r8d,r8d
  407a45:	48 c7 c1 ff ff ff ff 	mov    rcx,0xffffffffffffffff
  407a4c:	4c 89 f7             	mov    rdi,r14
  407a4f:	48 89 c2             	mov    rdx,rax
  407a52:	48 c7 c6 ff ff ff ff 	mov    rsi,0xffffffffffffffff
  407a59:	e8 92 12 06 00       	call   468cf0 <fb_StrInit>
;
;  FragmentShader = glCreateShader(GL_FRAGMENT_SHADER)
  407a5e:	bf 30 8b 00 00       	mov    edi,0x8b30
  407a63:	ff 15 4f b4 09 00    	call   QWORD PTR [rip+0x9b44f]        # 4a2eb8 <GLCREATESHADER$>
  407a69:	89 03                	mov    DWORD PTR [rbx],eax
  407a6b:	89 c7                	mov    edi,eax
;  if FragmentShader=0 then
  407a6d:	85 c0                	test   eax,eax
  407a6f:	0f 84 1b 03 00 00    	je     407d90 <SHADERTOY::COMPILECODE(FBSTRING&)+0x740>
;    ShaderLog = "glCreateShader(GL_FRAGMENT_SHADER) failed !"
;    return false
;  end if
;  dim as GLchar ptr pCode=strptr(FragmentCode)
  407a75:	48 8b 84 24 b0 00 00 	mov    rax,QWORD PTR [rsp+0xb0]
  407a7c:	00 
;  glShaderSource (FragmentShader, 1, @pCode, NULL)
;  glCompileShader(FragmentShader)
;  glGetShaderiv  (FragmentShader, GL_COMPILE_STATUS, @status)
  407a7d:	4c 8d 7c 24 04       	lea    r15,[rsp+0x4]
;  glShaderSource (FragmentShader, 1, @pCode, NULL)
  407a82:	48 8d 54 24 08       	lea    rdx,[rsp+0x8]
  407a87:	31 c9                	xor    ecx,ecx
  407a89:	be 01 00 00 00       	mov    esi,0x1
;  dim as GLchar ptr pCode=strptr(FragmentCode)
  407a8e:	48 89 44 24 08       	mov    QWORD PTR [rsp+0x8],rax
;  glShaderSource (FragmentShader, 1, @pCode, NULL)
  407a93:	ff 15 0f b4 09 00    	call   QWORD PTR [rip+0x9b40f]        # 4a2ea8 <GLSHADERSOURCE$>
;  glCompileShader(FragmentShader)
  407a99:	8b 3b                	mov    edi,DWORD PTR [rbx]
  407a9b:	ff 15 ff b3 09 00    	call   QWORD PTR [rip+0x9b3ff]        # 4a2ea0 <GLCOMPILESHADER$>
;  glGetShaderiv  (FragmentShader, GL_COMPILE_STATUS, @status)
  407aa1:	4c 89 fa             	mov    rdx,r15
  407aa4:	8b 3b                	mov    edi,DWORD PTR [rbx]
  407aa6:	be 81 8b 00 00       	mov    esi,0x8b81
  407aab:	ff 15 e7 b3 09 00    	call   QWORD PTR [rip+0x9b3e7]        # 4a2e98 <GLGETSHADERIV$>
;  if status = GL_FALSE then
  407ab1:	8b 54 24 04          	mov    edx,DWORD PTR [rsp+0x4]
  407ab5:	85 d2                	test   edx,edx
  407ab7:	0f 85 0b 02 00 00    	jne    407cc8 <SHADERTOY::COMPILECODE(FBSTRING&)+0x678>
;    glGetShaderiv(FragmentShader, GL_INFO_LOG_LENGTH, @logSize)
  407abd:	48 89 e2             	mov    rdx,rsp
  407ac0:	be 84 8b 00 00       	mov    esi,0x8b84
  407ac5:	8b 3b                	mov    edi,DWORD PTR [rbx]
;    ShaderLog = space(logSize)
  407ac7:	4c 8d 7b 08          	lea    r15,[rbx+0x8]
;    glGetShaderiv(FragmentShader, GL_INFO_LOG_LENGTH, @logSize)
  407acb:	ff 15 c7 b3 09 00    	call   QWORD PTR [rip+0x9b3c7]        # 4a2e98 <GLGETSHADERIV$>
;    ShaderLog = space(logSize)
  407ad1:	48 63 3c 24          	movsxd rdi,DWORD PTR [rsp]
  407ad5:	e8 c6 28 06 00       	call   46a3a0 <fb_SPACE>
  407ada:	45 31 c0             	xor    r8d,r8d
  407add:	48 c7 c1 ff ff ff ff 	mov    rcx,0xffffffffffffffff
  407ae4:	4c 89 ff             	mov    rdi,r15
  407ae7:	48 89 c2             	mov    rdx,rax
  407aea:	48 c7 c6 ff ff ff ff 	mov    rsi,0xffffffffffffffff
  407af1:	e8 ea 11 06 00       	call   468ce0 <fb_StrAssign>
;    glGetShaderInfoLog(FragmentShader, logSize, NULL, cptr(GLchar ptr,strptr(ShaderLog)) )
  407af6:	48 8b 4b 08          	mov    rcx,QWORD PTR [rbx+0x8]
  407afa:	8b 34 24             	mov    esi,DWORD PTR [rsp]
  407afd:	31 d2                	xor    edx,edx
  407aff:	8b 3b                	mov    edi,DWORD PTR [rbx]
  407b01:	ff 15 89 b3 09 00    	call   QWORD PTR [rip+0x9b389]        # 4a2e90 <GLGETSHADERINFOLOG$>
;    ShaderLog = !"glCompileShader(FragmentShader) failed !\n" & Shaderlog
  407b07:	66 0f ef d2          	pxor   xmm2,xmm2
  407b0b:	4c 89 f9             	mov    rcx,r15
  407b0e:	ba 2a 00 00 00       	mov    edx,0x2a
  407b13:	48 8d bc 24 d0 00 00 	lea    rdi,[rsp+0xd0]
  407b1a:	00 
  407b1b:	0f 29 94 24 d0 00 00 	movaps XMMWORD PTR [rsp+0xd0],xmm2
  407b22:	00 
  407b23:	49 c7 c0 ff ff ff ff 	mov    r8,0xffffffffffffffff
  407b2a:	48 8d 35 5f b5 06 00 	lea    rsi,[rip+0x6b55f]        # 473090 <_IO_stdin_used+0x4090>
  407b31:	48 c7 84 24 e0 00 00 	mov    QWORD PTR [rsp+0xe0],0x0
  407b38:	00 00 00 00 00 
;  glGetProgramiv(ProgramObject, GL_LINK_STATUS, @status)
;  if (status = GL_FALSE) then
;    glGetProgramiv(ProgramObject, GL_INFO_LOG_LENGTH, @logSize)
;    ShaderLog = space(logSize)
;    glGetProgramInfoLog (ProgramObject, logSize, NULL, cptr(GLchar ptr,strptr(ShaderLog)) )
;    ShaderLog = !"glLinkProgram() failed !\n" & Shaderlog
  407b3d:	e8 4e 14 06 00       	call   468f90 <fb_StrConcat>
  407b42:	45 31 c0             	xor    r8d,r8d
  407b45:	48 c7 c1 ff ff ff ff 	mov    rcx,0xffffffffffffffff
  407b4c:	4c 89 ff             	mov    rdi,r15
  407b4f:	48 89 c2             	mov    rdx,rax
  407b52:	48 c7 c6 ff ff ff ff 	mov    rsi,0xffffffffffffffff
  407b59:	e8 82 11 06 00       	call   468ce0 <fb_StrAssign>
;    glDeleteShader(FragmentShader) : FragmentShader = 0
  407b5e:	8b 3b                	mov    edi,DWORD PTR [rbx]
  407b60:	ff 15 4a b3 09 00    	call   QWORD PTR [rip+0x9b34a]        # 4a2eb0 <GLDELETESHADER$>
  407b66:	c7 03 00 00 00 00    	mov    DWORD PTR [rbx],0x0
;    return false
  407b6c:	4c 89 f7             	mov    rdi,r14
  407b6f:	e8 1c 23 06 00       	call   469e90 <fb_StrDelete>
  407b74:	4c 89 e7             	mov    rdi,r12
  407b77:	e8 14 23 06 00       	call   469e90 <fb_StrDelete>
  407b7c:	4c 89 ef             	mov    rdi,r13
  407b7f:	e8 0c 23 06 00       	call   469e90 <fb_StrDelete>
  407b84:	48 89 ef             	mov    rdi,rbp
  407b87:	e8 04 23 06 00       	call   469e90 <fb_StrDelete>
  407b8c:	31 c0                	xor    eax,eax
;  end if
;  return true
;end function
  407b8e:	48 8b 94 24 e8 00 00 	mov    rdx,QWORD PTR [rsp+0xe8]
  407b95:	00 
  407b96:	64 48 2b 14 25 28 00 	sub    rdx,QWORD PTR fs:0x28
  407b9d:	00 00 
  407b9f:	0f 85 62 02 00 00    	jne    407e07 <SHADERTOY::COMPILECODE(FBSTRING&)+0x7b7>
  407ba5:	48 81 c4 f8 00 00 00 	add    rsp,0xf8
  407bac:	5b                   	pop    rbx
  407bad:	5d                   	pop    rbp
  407bae:	41 5c                	pop    r12
  407bb0:	41 5d                	pop    r13
  407bb2:	41 5e                	pop    r14
  407bb4:	41 5f                	pop    r15
  407bb6:	c3                   	ret    
  407bb7:	66 0f 1f 84 00 00 00 	nop    WORD PTR [rax+rax*1+0x0]
  407bbe:	00 00 
; 	FragmentEpilog &= !"#define main_image mainImage"
  407bc0:	b9 1d 00 00 00       	mov    ecx,0x1d
  407bc5:	48 8d 15 9c 76 06 00 	lea    rdx,[rip+0x6769c]        # 46f268 <_IO_stdin_used+0x268>
  407bcc:	48 c7 c6 ff ff ff ff 	mov    rsi,0xffffffffffffffff
  407bd3:	4c 89 e7             	mov    rdi,r12
  407bd6:	e8 35 15 06 00       	call   469110 <fb_StrConcatAssign>
; 	FragmentEpilog &= !"#define frag_color fragColor"
  407bdb:	45 31 c0             	xor    r8d,r8d
  407bde:	b9 1d 00 00 00       	mov    ecx,0x1d
  407be3:	4c 89 e7             	mov    rdi,r12
  407be6:	48 8d 15 98 76 06 00 	lea    rdx,[rip+0x67698]        # 46f285 <_IO_stdin_used+0x285>
  407bed:	48 c7 c6 ff ff ff ff 	mov    rsi,0xffffffffffffffff
  407bf4:	e8 17 15 06 00       	call   469110 <fb_StrConcatAssign>
; 	FragmentEpilog &= !"#define frag_coord fragCoord"
  407bf9:	45 31 c0             	xor    r8d,r8d
  407bfc:	b9 1d 00 00 00       	mov    ecx,0x1d
  407c01:	4c 89 e7             	mov    rdi,r12
  407c04:	48 8d 15 97 76 06 00 	lea    rdx,[rip+0x67697]        # 46f2a2 <_IO_stdin_used+0x2a2>
  407c0b:	48 c7 c6 ff ff ff ff 	mov    rsi,0xffffffffffffffff
  407c12:	e8 f9 14 06 00       	call   469110 <fb_StrConcatAssign>
; 	FragmentEpilog &= !"#define i_resolution iResolution"
  407c17:	45 31 c0             	xor    r8d,r8d
  407c1a:	b9 21 00 00 00       	mov    ecx,0x21
  407c1f:	4c 89 e7             	mov    rdi,r12
  407c22:	48 8d 15 bf b3 06 00 	lea    rdx,[rip+0x6b3bf]        # 472fe8 <_IO_stdin_used+0x3fe8>
  407c29:	48 c7 c6 ff ff ff ff 	mov    rsi,0xffffffffffffffff
  407c30:	e8 db 14 06 00       	call   469110 <fb_StrConcatAssign>
; 	FragmentEpilog &= !"#define i_time iTime"
  407c35:	45 31 c0             	xor    r8d,r8d
  407c38:	b9 15 00 00 00       	mov    ecx,0x15
  407c3d:	4c 89 e7             	mov    rdi,r12
  407c40:	48 8d 15 78 76 06 00 	lea    rdx,[rip+0x67678]        # 46f2bf <_IO_stdin_used+0x2bf>
  407c47:	48 c7 c6 ff ff ff ff 	mov    rsi,0xffffffffffffffff
  407c4e:	e8 bd 14 06 00       	call   469110 <fb_StrConcatAssign>
;	FragmentEpilog &= !"void main() {\n"
  407c53:	45 31 c0             	xor    r8d,r8d
  407c56:	b9 0f 00 00 00       	mov    ecx,0xf
  407c5b:	4c 89 e7             	mov    rdi,r12
  407c5e:	48 8d 15 6f 76 06 00 	lea    rdx,[rip+0x6766f]        # 46f2d4 <_IO_stdin_used+0x2d4>
  407c65:	48 c7 c6 ff ff ff ff 	mov    rsi,0xffffffffffffffff
  407c6c:	e8 9f 14 06 00       	call   469110 <fb_StrConcatAssign>
;	FragmentEpilog &= !"  vec4 color;\n"
  407c71:	45 31 c0             	xor    r8d,r8d
  407c74:	b9 0f 00 00 00       	mov    ecx,0xf
  407c79:	4c 89 e7             	mov    rdi,r12
  407c7c:	48 8d 15 60 76 06 00 	lea    rdx,[rip+0x67660]        # 46f2e3 <_IO_stdin_used+0x2e3>
  407c83:	48 c7 c6 ff ff ff ff 	mov    rsi,0xffffffffffffffff
  407c8a:	e8 81 14 06 00       	call   469110 <fb_StrConcatAssign>
;	FragmentEpilog &= !"  // call user shader\n"
  407c8f:	45 31 c0             	xor    r8d,r8d
  407c92:	b9 17 00 00 00       	mov    ecx,0x17
  407c97:	4c 89 e7             	mov    rdi,r12
  407c9a:	48 8d 15 51 76 06 00 	lea    rdx,[rip+0x67651]        # 46f2f2 <_IO_stdin_used+0x2f2>
  407ca1:	48 c7 c6 ff ff ff ff 	mov    rsi,0xffffffffffffffff
  407ca8:	e8 63 14 06 00       	call   469110 <fb_StrConcatAssign>
;	FragmentEpilog &= !"  main_image(color, gl_FragCoord.xy);\n"
  407cad:	45 31 c0             	xor    r8d,r8d
  407cb0:	b9 27 00 00 00       	mov    ecx,0x27
  407cb5:	48 8d 15 54 b3 06 00 	lea    rdx,[rip+0x6b354]        # 473010 <_IO_stdin_used+0x4010>
  407cbc:	e9 b0 fc ff ff       	jmp    407971 <SHADERTOY::COMPILECODE(FBSTRING&)+0x321>
  407cc1:	0f 1f 80 00 00 00 00 	nop    DWORD PTR [rax+0x0]
;  ProgramObject = glCreateProgram()
  407cc8:	ff 15 ba b1 09 00    	call   QWORD PTR [rip+0x9b1ba]        # 4a2e88 <GLCREATEPROGRAM$>
  407cce:	89 43 04             	mov    DWORD PTR [rbx+0x4],eax
  407cd1:	89 c7                	mov    edi,eax
;  if ProgramObject=0 then
  407cd3:	85 c0                	test   eax,eax
  407cd5:	0f 84 0d 01 00 00    	je     407de8 <SHADERTOY::COMPILECODE(FBSTRING&)+0x798>
;  glAttachShader(ProgramObject,FragmentShader)
  407cdb:	8b 33                	mov    esi,DWORD PTR [rbx]
  407cdd:	ff 15 95 b1 09 00    	call   QWORD PTR [rip+0x9b195]        # 4a2e78 <GLATTACHSHADER$>
;  glLinkProgram (ProgramObject)
  407ce3:	8b 7b 04             	mov    edi,DWORD PTR [rbx+0x4]
  407ce6:	ff 15 7c b1 09 00    	call   QWORD PTR [rip+0x9b17c]        # 4a2e68 <GLLINKPROGRAM$>
;  glGetProgramiv(ProgramObject, GL_LINK_STATUS, @status)
  407cec:	8b 7b 04             	mov    edi,DWORD PTR [rbx+0x4]
  407cef:	4c 89 fa             	mov    rdx,r15
  407cf2:	be 82 8b 00 00       	mov    esi,0x8b82
  407cf7:	ff 15 63 b1 09 00    	call   QWORD PTR [rip+0x9b163]        # 4a2e60 <GLGETPROGRAMIV$>
;  if (status = GL_FALSE) then
  407cfd:	8b 44 24 04          	mov    eax,DWORD PTR [rsp+0x4]
  407d01:	85 c0                	test   eax,eax
  407d03:	0f 85 af 00 00 00    	jne    407db8 <SHADERTOY::COMPILECODE(FBSTRING&)+0x768>
;    glGetProgramiv(ProgramObject, GL_INFO_LOG_LENGTH, @logSize)
  407d09:	48 89 e2             	mov    rdx,rsp
  407d0c:	be 84 8b 00 00       	mov    esi,0x8b84
  407d11:	8b 7b 04             	mov    edi,DWORD PTR [rbx+0x4]
;    ShaderLog = space(logSize)
  407d14:	4c 8d 7b 08          	lea    r15,[rbx+0x8]
;    glGetProgramiv(ProgramObject, GL_INFO_LOG_LENGTH, @logSize)
  407d18:	ff 15 42 b1 09 00    	call   QWORD PTR [rip+0x9b142]        # 4a2e60 <GLGETPROGRAMIV$>
;    ShaderLog = space(logSize)
  407d1e:	48 63 3c 24          	movsxd rdi,DWORD PTR [rsp]
  407d22:	e8 79 26 06 00       	call   46a3a0 <fb_SPACE>
  407d27:	45 31 c0             	xor    r8d,r8d
  407d2a:	48 c7 c1 ff ff ff ff 	mov    rcx,0xffffffffffffffff
  407d31:	4c 89 ff             	mov    rdi,r15
  407d34:	48 89 c2             	mov    rdx,rax
  407d37:	48 c7 c6 ff ff ff ff 	mov    rsi,0xffffffffffffffff
  407d3e:	e8 9d 0f 06 00       	call   468ce0 <fb_StrAssign>
;    glGetProgramInfoLog (ProgramObject, logSize, NULL, cptr(GLchar ptr,strptr(ShaderLog)) )
  407d43:	48 8b 4b 08          	mov    rcx,QWORD PTR [rbx+0x8]
  407d47:	8b 7b 04             	mov    edi,DWORD PTR [rbx+0x4]
  407d4a:	31 d2                	xor    edx,edx
  407d4c:	8b 34 24             	mov    esi,DWORD PTR [rsp]
  407d4f:	ff 15 03 b1 09 00    	call   QWORD PTR [rip+0x9b103]        # 4a2e58 <GLGETPROGRAMINFOLOG$>
;    ShaderLog = !"glLinkProgram() failed !\n" & Shaderlog
  407d55:	66 0f ef db          	pxor   xmm3,xmm3
  407d59:	4c 89 f9             	mov    rcx,r15
  407d5c:	ba 1a 00 00 00       	mov    edx,0x1a
  407d61:	48 8d bc 24 d0 00 00 	lea    rdi,[rsp+0xd0]
  407d68:	00 
  407d69:	0f 29 9c 24 d0 00 00 	movaps XMMWORD PTR [rsp+0xd0],xmm3
  407d70:	00 
  407d71:	49 c7 c0 ff ff ff ff 	mov    r8,0xffffffffffffffff
  407d78:	48 8d 35 d3 75 06 00 	lea    rsi,[rip+0x675d3]        # 46f352 <_IO_stdin_used+0x352>
  407d7f:	48 c7 84 24 e0 00 00 	mov    QWORD PTR [rsp+0xe0],0x0
  407d86:	00 00 00 00 00 
  407d8b:	e9 ad fd ff ff       	jmp    407b3d <SHADERTOY::COMPILECODE(FBSTRING&)+0x4ed>
;    ShaderLog = "glCreateShader(GL_FRAGMENT_SHADER) failed !"
  407d90:	48 8d 7b 08          	lea    rdi,[rbx+0x8]
  407d94:	45 31 c0             	xor    r8d,r8d
  407d97:	b9 2c 00 00 00       	mov    ecx,0x2c
  407d9c:	48 c7 c6 ff ff ff ff 	mov    rsi,0xffffffffffffffff
  407da3:	48 8d 15 b6 b2 06 00 	lea    rdx,[rip+0x6b2b6]        # 473060 <_IO_stdin_used+0x4060>
  407daa:	e8 31 0f 06 00       	call   468ce0 <fb_StrAssign>
;    return false
  407daf:	e9 b8 fd ff ff       	jmp    407b6c <SHADERTOY::COMPILECODE(FBSTRING&)+0x51c>
  407db4:	0f 1f 40 00          	nop    DWORD PTR [rax+0x0]
;  return true
  407db8:	4c 89 f7             	mov    rdi,r14
  407dbb:	e8 d0 20 06 00       	call   469e90 <fb_StrDelete>
  407dc0:	4c 89 e7             	mov    rdi,r12
  407dc3:	e8 c8 20 06 00       	call   469e90 <fb_StrDelete>
  407dc8:	4c 89 ef             	mov    rdi,r13
  407dcb:	e8 c0 20 06 00       	call   469e90 <fb_StrDelete>
  407dd0:	48 89 ef             	mov    rdi,rbp
  407dd3:	e8 b8 20 06 00       	call   469e90 <fb_StrDelete>
  407dd8:	b8 01 00 00 00       	mov    eax,0x1
  407ddd:	e9 ac fd ff ff       	jmp    407b8e <SHADERTOY::COMPILECODE(FBSTRING&)+0x53e>
  407de2:	66 0f 1f 44 00 00    	nop    WORD PTR [rax+rax*1+0x0]
;    ShaderLog = "glCreateProgram() failed !"
  407de8:	48 8d 7b 08          	lea    rdi,[rbx+0x8]
  407dec:	45 31 c0             	xor    r8d,r8d
  407def:	b9 1b 00 00 00       	mov    ecx,0x1b
  407df4:	48 c7 c6 ff ff ff ff 	mov    rsi,0xffffffffffffffff
  407dfb:	48 8d 15 35 75 06 00 	lea    rdx,[rip+0x67535]        # 46f337 <_IO_stdin_used+0x337>
  407e02:	e9 52 fd ff ff       	jmp    407b59 <SHADERTOY::COMPILECODE(FBSTRING&)+0x509>
;end function
  407e07:	e8 54 da ff ff       	call   405860 <__stack_chk_fail@plt>
  407e0c:	0f 1f 40 00          	nop    DWORD PTR [rax+0x0]

0000000000407e10 <SHADERTOY::COMPILEFILE(FBSTRING&)>:
;function ShaderToy.CompileFile(filename as string) as boolean
  407e10:	41 57                	push   r15
;  dim as string code
  407e12:	66 0f ef c9          	pxor   xmm1,xmm1
;function ShaderToy.CompileFile(filename as string) as boolean
  407e16:	49 89 f7             	mov    r15,rsi
  407e19:	41 56                	push   r14
  407e1b:	49 89 fe             	mov    r14,rdi
  407e1e:	41 55                	push   r13
  407e20:	41 54                	push   r12
  407e22:	55                   	push   rbp
  407e23:	53                   	push   rbx
  407e24:	48 8d 1d bb 75 06 00 	lea    rbx,[rip+0x675bb]        # 46f3e6 <_IO_stdin_used+0x3e6>
  407e2b:	48 81 ec 88 00 00 00 	sub    rsp,0x88
  407e32:	64 48 8b 04 25 28 00 	mov    rax,QWORD PTR fs:0x28
  407e39:	00 00 
  407e3b:	48 89 44 24 78       	mov    QWORD PTR [rsp+0x78],rax
  407e40:	31 c0                	xor    eax,eax
;  dim as string code
  407e42:	0f 29 0c 24          	movaps XMMWORD PTR [rsp],xmm1
  407e46:	49 89 e5             	mov    r13,rsp
  407e49:	48 c7 44 24 10 00 00 	mov    QWORD PTR [rsp+0x10],0x0
  407e50:	00 00 
;  var hFile = FreeFile()
  407e52:	e8 29 cf 05 00       	call   464d80 <fb_FileFree>
;  if open(filename,for input, as #hFile) then
  407e57:	45 31 c9             	xor    r9d,r9d
  407e5a:	31 c9                	xor    ecx,ecx
  407e5c:	31 d2                	xor    edx,edx
  407e5e:	41 89 c0             	mov    r8d,eax
  407e61:	be 02 00 00 00       	mov    esi,0x2
  407e66:	4c 89 ff             	mov    rdi,r15
;  var hFile = FreeFile()
  407e69:	41 89 c4             	mov    r12d,eax
;  if open(filename,for input, as #hFile) then
  407e6c:	e8 ff dc 05 00       	call   465b70 <fb_FileOpen>
  407e71:	85 c0                	test   eax,eax
  407e73:	74 74                	je     407ee9 <SHADERTOY::COMPILEFILE(FBSTRING&)+0xd9>
  407e75:	e9 c6 00 00 00       	jmp    407f40 <SHADERTOY::COMPILEFILE(FBSTRING&)+0x130>
  407e7a:	66 0f 1f 44 00 00    	nop    WORD PTR [rax+rax*1+0x0]
;    dim as string aLine
  407e80:	48 8d 6c 24 60       	lea    rbp,[rsp+0x60]
  407e85:	66 0f ef c0          	pxor   xmm0,xmm0
;    line input #hFile,aLine
  407e89:	31 c9                	xor    ecx,ecx
  407e8b:	44 89 e7             	mov    edi,r12d
  407e8e:	48 c7 c2 ff ff ff ff 	mov    rdx,0xffffffffffffffff
  407e95:	48 89 ee             	mov    rsi,rbp
;    dim as string aLine
  407e98:	0f 29 44 24 60       	movaps XMMWORD PTR [rsp+0x60],xmm0
  407e9d:	48 c7 44 24 70 00 00 	mov    QWORD PTR [rsp+0x70],0x0
  407ea4:	00 00 
;    line input #hFile,aLine
  407ea6:	e8 55 dc 05 00       	call   465b00 <fb_FileLineInput>
;    code &= aLine & !"\n"
  407eab:	45 31 c0             	xor    r8d,r8d
  407eae:	48 89 ea             	mov    rdx,rbp
  407eb1:	4c 89 ef             	mov    rdi,r13
  407eb4:	48 c7 c1 ff ff ff ff 	mov    rcx,0xffffffffffffffff
  407ebb:	48 c7 c6 ff ff ff ff 	mov    rsi,0xffffffffffffffff
  407ec2:	e8 49 12 06 00       	call   469110 <fb_StrConcatAssign>
  407ec7:	4c 89 ef             	mov    rdi,r13
  407eca:	45 31 c0             	xor    r8d,r8d
  407ecd:	b9 02 00 00 00       	mov    ecx,0x2
  407ed2:	48 89 da             	mov    rdx,rbx
  407ed5:	48 c7 c6 ff ff ff ff 	mov    rsi,0xffffffffffffffff
  407edc:	e8 2f 12 06 00       	call   469110 <fb_StrConcatAssign>
;  wend
  407ee1:	48 89 ef             	mov    rdi,rbp
  407ee4:	e8 a7 1f 06 00       	call   469e90 <fb_StrDelete>
;  while not eof(hFile)
  407ee9:	44 89 e7             	mov    edi,r12d
  407eec:	e8 0f ce 05 00       	call   464d00 <fb_FileEof>
  407ef1:	83 f8 ff             	cmp    eax,0xffffffff
  407ef4:	75 8a                	jne    407e80 <SHADERTOY::COMPILEFILE(FBSTRING&)+0x70>
;  close #hFile
  407ef6:	44 89 e7             	mov    edi,r12d
  407ef9:	e8 62 cd 05 00       	call   464c60 <fb_FileClose>
;  return CompileCode(code)
  407efe:	4c 89 f7             	mov    rdi,r14
  407f01:	4c 89 ee             	mov    rsi,r13
  407f04:	e8 47 f7 ff ff       	call   407650 <SHADERTOY::COMPILECODE(FBSTRING&)>
  407f09:	4c 89 ef             	mov    rdi,r13
  407f0c:	41 89 c4             	mov    r12d,eax
  407f0f:	e8 7c 1f 06 00       	call   469e90 <fb_StrDelete>
;end function
  407f14:	48 8b 44 24 78       	mov    rax,QWORD PTR [rsp+0x78]
  407f19:	64 48 2b 04 25 28 00 	sub    rax,QWORD PTR fs:0x28
  407f20:	00 00 
  407f22:	0f 85 dd 00 00 00    	jne    408005 <SHADERTOY::COMPILEFILE(FBSTRING&)+0x1f5>
  407f28:	48 81 c4 88 00 00 00 	add    rsp,0x88
  407f2f:	44 89 e0             	mov    eax,r12d
  407f32:	5b                   	pop    rbx
  407f33:	5d                   	pop    rbp
  407f34:	41 5c                	pop    r12
  407f36:	41 5d                	pop    r13
  407f38:	41 5e                	pop    r14
  407f3a:	41 5f                	pop    r15
  407f3c:	c3                   	ret    
  407f3d:	0f 1f 00             	nop    DWORD PTR [rax]
;    ShaderLog = "can't read shader: " & chr(34) & filename  & chr(34) & " !"
  407f40:	66 0f ef d2          	pxor   xmm2,xmm2
  407f44:	48 8d 7c 24 20       	lea    rdi,[rsp+0x20]
  407f49:	4c 89 f9             	mov    rcx,r15
;    return false
  407f4c:	45 31 e4             	xor    r12d,r12d
;    ShaderLog = "can't read shader: " & chr(34) & filename  & chr(34) & " !"
  407f4f:	49 c7 c0 ff ff ff ff 	mov    r8,0xffffffffffffffff
  407f56:	ba 15 00 00 00       	mov    edx,0x15
  407f5b:	0f 29 54 24 20       	movaps XMMWORD PTR [rsp+0x20],xmm2
  407f60:	48 8d 35 05 74 06 00 	lea    rsi,[rip+0x67405]        # 46f36c <_IO_stdin_used+0x36c>
  407f67:	48 c7 44 24 30 00 00 	mov    QWORD PTR [rsp+0x30],0x0
  407f6e:	00 00 
  407f70:	e8 1b 10 06 00       	call   468f90 <fb_StrConcat>
  407f75:	66 0f ef d2          	pxor   xmm2,xmm2
  407f79:	48 8d 7c 24 40       	lea    rdi,[rsp+0x40]
  407f7e:	41 b8 02 00 00 00    	mov    r8d,0x2
  407f84:	48 89 c6             	mov    rsi,rax
  407f87:	48 8d 0d f1 73 06 00 	lea    rcx,[rip+0x673f1]        # 46f37f <_IO_stdin_used+0x37f>
  407f8e:	0f 29 54 24 40       	movaps XMMWORD PTR [rsp+0x40],xmm2
  407f93:	48 c7 c2 ff ff ff ff 	mov    rdx,0xffffffffffffffff
  407f9a:	48 c7 44 24 50 00 00 	mov    QWORD PTR [rsp+0x50],0x0
  407fa1:	00 00 
  407fa3:	e8 e8 0f 06 00       	call   468f90 <fb_StrConcat>
  407fa8:	66 0f ef d2          	pxor   xmm2,xmm2
  407fac:	48 8d 7c 24 60       	lea    rdi,[rsp+0x60]
  407fb1:	41 b8 03 00 00 00    	mov    r8d,0x3
  407fb7:	48 89 c6             	mov    rsi,rax
  407fba:	48 8d 0d 8e 73 06 00 	lea    rcx,[rip+0x6738e]        # 46f34f <_IO_stdin_used+0x34f>
  407fc1:	0f 29 54 24 60       	movaps XMMWORD PTR [rsp+0x60],xmm2
  407fc6:	48 c7 c2 ff ff ff ff 	mov    rdx,0xffffffffffffffff
  407fcd:	48 c7 44 24 70 00 00 	mov    QWORD PTR [rsp+0x70],0x0
  407fd4:	00 00 
  407fd6:	e8 b5 0f 06 00       	call   468f90 <fb_StrConcat>
  407fdb:	49 8d 7e 08          	lea    rdi,[r14+0x8]
  407fdf:	45 31 c0             	xor    r8d,r8d
  407fe2:	48 c7 c1 ff ff ff ff 	mov    rcx,0xffffffffffffffff
  407fe9:	48 89 c2             	mov    rdx,rax
  407fec:	48 c7 c6 ff ff ff ff 	mov    rsi,0xffffffffffffffff
  407ff3:	e8 e8 0c 06 00       	call   468ce0 <fb_StrAssign>
;    return false
  407ff8:	4c 89 ef             	mov    rdi,r13
  407ffb:	e8 90 1e 06 00       	call   469e90 <fb_StrDelete>
  408000:	e9 0f ff ff ff       	jmp    407f14 <SHADERTOY::COMPILEFILE(FBSTRING&)+0x104>
;end function
  408005:	e8 56 d8 ff ff       	call   405860 <__stack_chk_fail@plt>
  40800a:	66 0f 1f 44 00 00    	nop    WORD PTR [rax+rax*1+0x0]

0000000000408010 <MEMORY_T::~MEMORY_T()>:
  408010:	c3                   	ret    
  408011:	66 66 2e 0f 1f 84 00 	data16 cs nop WORD PTR [rax+rax*1+0x0]
  408018:	00 00 00 00 
  40801c:	0f 1f 40 00          	nop    DWORD PTR [rax+0x0]

0000000000408020 <MEMORY_T::SCREENCODE(double)>:
;proc MEMORY_T.screencode (byval code as double) as double
  408020:	55                   	push   rbp
  408021:	48 83 ec 40          	sub    rsp,0x40
  408025:	64 48 8b 04 25 28 00 	mov    rax,QWORD PTR fs:0x28
  40802c:	00 00 
  40802e:	48 89 44 24 38       	mov    QWORD PTR [rsp+0x38],rax
  408033:	31 c0                	xor    eax,eax
;  select case chr(code)
  408035:	48 8d 6c 24 20       	lea    rbp,[rsp+0x20]
;proc MEMORY_T.screencode (byval code as double) as double
  40803a:	48 c7 44 24 18 00 00 	mov    QWORD PTR [rsp+0x18],0x0
  408041:	00 00 
;  select case chr(code)
  408043:	e8 08 d3 ff ff       	call   405350 <nearbyint@plt>
  408048:	bf 01 00 00 00       	mov    edi,0x1
  40804d:	31 c0                	xor    eax,eax
  40804f:	f2 48 0f 2c f0       	cvttsd2si rsi,xmm0
  408054:	e8 a7 0c 06 00       	call   468d00 <fb_CHR>
  408059:	45 31 c0             	xor    r8d,r8d
  40805c:	48 c7 c1 ff ff ff ff 	mov    rcx,0xffffffffffffffff
  408063:	48 89 ef             	mov    rdi,rbp
  408066:	48 89 c2             	mov    rdx,rax
  408069:	48 c7 c6 ff ff ff ff 	mov    rsi,0xffffffffffffffff
  408070:	e8 7b 0c 06 00       	call   468cf0 <fb_StrInit>
;   case " ":     mov(proc, &H20)
  408075:	b9 02 00 00 00       	mov    ecx,0x2
  40807a:	48 8d 15 35 aa 06 00 	lea    rdx,[rip+0x6aa35]        # 472ab6 <_IO_stdin_used+0x3ab6>
  408081:	48 89 ef             	mov    rdi,rbp
  408084:	48 c7 c6 ff ff ff ff 	mov    rsi,0xffffffffffffffff
  40808b:	e8 70 0d 06 00       	call   468e00 <fb_StrCompare>
  408090:	f2 0f 10 05 08 bc 06 	movsd  xmm0,QWORD PTR [rip+0x6bc08]        # 473ca0 <_IO_stdin_used+0x4ca0>
  408097:	00 
  408098:	85 c0                	test   eax,eax
  40809a:	75 34                	jne    4080d0 <MEMORY_T::SCREENCODE(double)+0xb0>
;  end select 
  40809c:	48 89 ef             	mov    rdi,rbp
  40809f:	f2 0f 11 44 24 08    	movsd  QWORD PTR [rsp+0x8],xmm0
  4080a5:	e8 e6 1d 06 00       	call   469e90 <fb_StrDelete>
;end proc
  4080aa:	f2 0f 10 44 24 08    	movsd  xmm0,QWORD PTR [rsp+0x8]
  4080b0:	48 8b 44 24 38       	mov    rax,QWORD PTR [rsp+0x38]
  4080b5:	64 48 2b 04 25 28 00 	sub    rax,QWORD PTR fs:0x28
  4080bc:	00 00 
  4080be:	0f 85 17 05 00 00    	jne    4085db <MEMORY_T::SCREENCODE(double)+0x5bb>
  4080c4:	48 83 c4 40          	add    rsp,0x40
  4080c8:	5d                   	pop    rbp
  4080c9:	c3                   	ret    
  4080ca:	66 0f 1f 44 00 00    	nop    WORD PTR [rax+rax*1+0x0]
;   case "!":     mov(proc, &H21)
  4080d0:	b9 02 00 00 00       	mov    ecx,0x2
  4080d5:	48 8d 15 74 72 06 00 	lea    rdx,[rip+0x67274]        # 46f350 <_IO_stdin_used+0x350>
  4080dc:	48 c7 c6 ff ff ff ff 	mov    rsi,0xffffffffffffffff
  4080e3:	48 89 ef             	mov    rdi,rbp
  4080e6:	e8 15 0d 06 00       	call   468e00 <fb_StrCompare>
  4080eb:	f2 0f 10 05 7d b0 06 	movsd  xmm0,QWORD PTR [rip+0x6b07d]        # 473170 <_IO_stdin_used+0x4170>
  4080f2:	00 
  4080f3:	85 c0                	test   eax,eax
  4080f5:	74 a5                	je     40809c <MEMORY_T::SCREENCODE(double)+0x7c>
;   case chr(22): mov(proc, &H22)
  4080f7:	b9 02 00 00 00       	mov    ecx,0x2
  4080fc:	48 8d 15 7e 72 06 00 	lea    rdx,[rip+0x6727e]        # 46f381 <_IO_stdin_used+0x381>
  408103:	48 c7 c6 ff ff ff ff 	mov    rsi,0xffffffffffffffff
  40810a:	48 89 ef             	mov    rdi,rbp
  40810d:	e8 ee 0c 06 00       	call   468e00 <fb_StrCompare>
  408112:	f2 0f 10 05 36 bc 06 	movsd  xmm0,QWORD PTR [rip+0x6bc36]        # 473d50 <_IO_stdin_used+0x4d50>
  408119:	00 
  40811a:	85 c0                	test   eax,eax
  40811c:	0f 84 7a ff ff ff    	je     40809c <MEMORY_T::SCREENCODE(double)+0x7c>
;   case "#":     mov(proc, &H23)
  408122:	b9 02 00 00 00       	mov    ecx,0x2
  408127:	48 8d 15 55 72 06 00 	lea    rdx,[rip+0x67255]        # 46f383 <_IO_stdin_used+0x383>
  40812e:	48 c7 c6 ff ff ff ff 	mov    rsi,0xffffffffffffffff
  408135:	48 89 ef             	mov    rdi,rbp
  408138:	e8 c3 0c 06 00       	call   468e00 <fb_StrCompare>
  40813d:	f2 0f 10 05 ab bb 06 	movsd  xmm0,QWORD PTR [rip+0x6bbab]        # 473cf0 <_IO_stdin_used+0x4cf0>
  408144:	00 
  408145:	85 c0                	test   eax,eax
  408147:	0f 84 4f ff ff ff    	je     40809c <MEMORY_T::SCREENCODE(double)+0x7c>
;   case "$":     mov(proc, &H24) 
  40814d:	b9 02 00 00 00       	mov    ecx,0x2
  408152:	48 8d 15 2c 72 06 00 	lea    rdx,[rip+0x6722c]        # 46f385 <_IO_stdin_used+0x385>
  408159:	48 c7 c6 ff ff ff ff 	mov    rsi,0xffffffffffffffff
  408160:	48 89 ef             	mov    rdi,rbp
  408163:	e8 98 0c 06 00       	call   468e00 <fb_StrCompare>
  408168:	f2 0f 10 05 f8 bb 06 	movsd  xmm0,QWORD PTR [rip+0x6bbf8]        # 473d68 <_IO_stdin_used+0x4d68>
  40816f:	00 
  408170:	85 c0                	test   eax,eax
  408172:	0f 84 24 ff ff ff    	je     40809c <MEMORY_T::SCREENCODE(double)+0x7c>
;   case "%":     mov(proc, &H25)
  408178:	b9 02 00 00 00       	mov    ecx,0x2
  40817d:	48 8d 15 03 72 06 00 	lea    rdx,[rip+0x67203]        # 46f387 <_IO_stdin_used+0x387>
  408184:	48 c7 c6 ff ff ff ff 	mov    rsi,0xffffffffffffffff
  40818b:	48 89 ef             	mov    rdi,rbp
  40818e:	e8 6d 0c 06 00       	call   468e00 <fb_StrCompare>
  408193:	f2 0f 10 05 dd af 06 	movsd  xmm0,QWORD PTR [rip+0x6afdd]        # 473178 <_IO_stdin_used+0x4178>
  40819a:	00 
  40819b:	85 c0                	test   eax,eax
  40819d:	0f 84 f9 fe ff ff    	je     40809c <MEMORY_T::SCREENCODE(double)+0x7c>
;   case "&":     mov(proc, &H26)
  4081a3:	b9 02 00 00 00       	mov    ecx,0x2
  4081a8:	48 8d 15 da 71 06 00 	lea    rdx,[rip+0x671da]        # 46f389 <_IO_stdin_used+0x389>
  4081af:	48 c7 c6 ff ff ff ff 	mov    rsi,0xffffffffffffffff
  4081b6:	48 89 ef             	mov    rdi,rbp
  4081b9:	e8 42 0c 06 00       	call   468e00 <fb_StrCompare>
  4081be:	f2 0f 10 05 aa bb 06 	movsd  xmm0,QWORD PTR [rip+0x6bbaa]        # 473d70 <_IO_stdin_used+0x4d70>
  4081c5:	00 
  4081c6:	85 c0                	test   eax,eax
  4081c8:	0f 84 ce fe ff ff    	je     40809c <MEMORY_T::SCREENCODE(double)+0x7c>
;   case "'":     mov(proc, &H27) 
  4081ce:	b9 02 00 00 00       	mov    ecx,0x2
  4081d3:	48 8d 15 b1 71 06 00 	lea    rdx,[rip+0x671b1]        # 46f38b <_IO_stdin_used+0x38b>
  4081da:	48 83 ce ff          	or     rsi,0xffffffffffffffff
  4081de:	48 89 ef             	mov    rdi,rbp
  4081e1:	e8 1a 0c 06 00       	call   468e00 <fb_StrCompare>
  4081e6:	f2 0f 10 05 92 af 06 	movsd  xmm0,QWORD PTR [rip+0x6af92]        # 473180 <_IO_stdin_used+0x4180>
  4081ed:	00 
  4081ee:	85 c0                	test   eax,eax
  4081f0:	0f 84 a6 fe ff ff    	je     40809c <MEMORY_T::SCREENCODE(double)+0x7c>
;   case "(":     mov(proc, &H28)
  4081f6:	b9 02 00 00 00       	mov    ecx,0x2
  4081fb:	48 8d 15 1d 6e 06 00 	lea    rdx,[rip+0x66e1d]        # 46f01f <_IO_stdin_used+0x1f>
  408202:	48 83 ce ff          	or     rsi,0xffffffffffffffff
  408206:	48 89 ef             	mov    rdi,rbp
  408209:	e8 f2 0b 06 00       	call   468e00 <fb_StrCompare>
  40820e:	f2 0f 10 05 92 ba 06 	movsd  xmm0,QWORD PTR [rip+0x6ba92]        # 473ca8 <_IO_stdin_used+0x4ca8>
  408215:	00 
  408216:	85 c0                	test   eax,eax
  408218:	0f 84 7e fe ff ff    	je     40809c <MEMORY_T::SCREENCODE(double)+0x7c>
;   case ")":     mov(proc, &H29)
  40821e:	b9 02 00 00 00       	mov    ecx,0x2
  408223:	48 8d 15 63 71 06 00 	lea    rdx,[rip+0x67163]        # 46f38d <_IO_stdin_used+0x38d>
  40822a:	48 83 ce ff          	or     rsi,0xffffffffffffffff
  40822e:	48 89 ef             	mov    rdi,rbp
  408231:	e8 ca 0b 06 00       	call   468e00 <fb_StrCompare>
  408236:	f2 0f 10 05 4a af 06 	movsd  xmm0,QWORD PTR [rip+0x6af4a]        # 473188 <_IO_stdin_used+0x4188>
  40823d:	00 
  40823e:	85 c0                	test   eax,eax
  408240:	0f 84 56 fe ff ff    	je     40809c <MEMORY_T::SCREENCODE(double)+0x7c>
;   case "*":     mov(proc, &H2A)
  408246:	b9 02 00 00 00       	mov    ecx,0x2
  40824b:	48 8d 15 f5 a8 06 00 	lea    rdx,[rip+0x6a8f5]        # 472b47 <_IO_stdin_used+0x3b47>
  408252:	48 83 ce ff          	or     rsi,0xffffffffffffffff
  408256:	48 89 ef             	mov    rdi,rbp
  408259:	e8 a2 0b 06 00       	call   468e00 <fb_StrCompare>
  40825e:	f2 0f 10 05 8a bb 06 	movsd  xmm0,QWORD PTR [rip+0x6bb8a]        # 473df0 <_IO_stdin_used+0x4df0>
  408265:	00 
  408266:	85 c0                	test   eax,eax
  408268:	0f 84 2e fe ff ff    	je     40809c <MEMORY_T::SCREENCODE(double)+0x7c>
;   case "+":     mov(proc, &H2B)
  40826e:	b9 02 00 00 00       	mov    ecx,0x2
  408273:	48 8d 15 15 71 06 00 	lea    rdx,[rip+0x67115]        # 46f38f <_IO_stdin_used+0x38f>
  40827a:	48 83 ce ff          	or     rsi,0xffffffffffffffff
  40827e:	48 89 ef             	mov    rdi,rbp
  408281:	e8 7a 0b 06 00       	call   468e00 <fb_StrCompare>
  408286:	f2 0f 10 05 02 af 06 	movsd  xmm0,QWORD PTR [rip+0x6af02]        # 473190 <_IO_stdin_used+0x4190>
  40828d:	00 
  40828e:	85 c0                	test   eax,eax
  408290:	0f 84 06 fe ff ff    	je     40809c <MEMORY_T::SCREENCODE(double)+0x7c>
;   case ",":     mov(proc, &H2C)
  408296:	b9 02 00 00 00       	mov    ecx,0x2
  40829b:	48 8d 15 7f 6d 06 00 	lea    rdx,[rip+0x66d7f]        # 46f021 <_IO_stdin_used+0x21>
  4082a2:	48 83 ce ff          	or     rsi,0xffffffffffffffff
  4082a6:	48 89 ef             	mov    rdi,rbp
  4082a9:	e8 52 0b 06 00       	call   468e00 <fb_StrCompare>
  4082ae:	f2 0f 10 05 52 bb 06 	movsd  xmm0,QWORD PTR [rip+0x6bb52]        # 473e08 <_IO_stdin_used+0x4e08>
  4082b5:	00 
  4082b6:	85 c0                	test   eax,eax
  4082b8:	0f 84 de fd ff ff    	je     40809c <MEMORY_T::SCREENCODE(double)+0x7c>
;   case "-":     mov(proc, &H2D)
  4082be:	b9 02 00 00 00       	mov    ecx,0x2
  4082c3:	48 8d 15 0b a8 06 00 	lea    rdx,[rip+0x6a80b]        # 472ad5 <_IO_stdin_used+0x3ad5>
  4082ca:	48 83 ce ff          	or     rsi,0xffffffffffffffff
  4082ce:	48 89 ef             	mov    rdi,rbp
  4082d1:	e8 2a 0b 06 00       	call   468e00 <fb_StrCompare>
  4082d6:	f2 0f 10 05 ba ae 06 	movsd  xmm0,QWORD PTR [rip+0x6aeba]        # 473198 <_IO_stdin_used+0x4198>
  4082dd:	00 
  4082de:	85 c0                	test   eax,eax
  4082e0:	0f 84 b6 fd ff ff    	je     40809c <MEMORY_T::SCREENCODE(double)+0x7c>
;   case ".":     mov(proc, &H2E)
  4082e6:	b9 02 00 00 00       	mov    ecx,0x2
  4082eb:	48 8d 15 fc 70 06 00 	lea    rdx,[rip+0x670fc]        # 46f3ee <_IO_stdin_used+0x3ee>
  4082f2:	48 83 ce ff          	or     rsi,0xffffffffffffffff
  4082f6:	48 89 ef             	mov    rdi,rbp
  4082f9:	e8 02 0b 06 00       	call   468e00 <fb_StrCompare>
  4082fe:	f2 0f 10 05 9a ae 06 	movsd  xmm0,QWORD PTR [rip+0x6ae9a]        # 4731a0 <_IO_stdin_used+0x41a0>
  408305:	00 
  408306:	85 c0                	test   eax,eax
  408308:	0f 84 8e fd ff ff    	je     40809c <MEMORY_T::SCREENCODE(double)+0x7c>
;   case "/":     mov(proc, &H2F)
  40830e:	b9 02 00 00 00       	mov    ecx,0x2
  408313:	48 8d 15 a6 a6 06 00 	lea    rdx,[rip+0x6a6a6]        # 4729c0 <_IO_stdin_used+0x39c0>
  40831a:	48 83 ce ff          	or     rsi,0xffffffffffffffff
  40831e:	48 89 ef             	mov    rdi,rbp
  408321:	e8 da 0a 06 00       	call   468e00 <fb_StrCompare>
  408326:	f2 0f 10 05 7a ae 06 	movsd  xmm0,QWORD PTR [rip+0x6ae7a]        # 4731a8 <_IO_stdin_used+0x41a8>
  40832d:	00 
  40832e:	85 c0                	test   eax,eax
  408330:	0f 84 66 fd ff ff    	je     40809c <MEMORY_T::SCREENCODE(double)+0x7c>
;   case "0":     mov(proc, &H30)
  408336:	b9 02 00 00 00       	mov    ecx,0x2
  40833b:	48 8d 15 51 a8 06 00 	lea    rdx,[rip+0x6a851]        # 472b93 <_IO_stdin_used+0x3b93>
  408342:	48 83 ce ff          	or     rsi,0xffffffffffffffff
  408346:	48 89 ef             	mov    rdi,rbp
  408349:	e8 b2 0a 06 00       	call   468e00 <fb_StrCompare>
  40834e:	f2 0f 10 05 5a ae 06 	movsd  xmm0,QWORD PTR [rip+0x6ae5a]        # 4731b0 <_IO_stdin_used+0x41b0>
  408355:	00 
  408356:	85 c0                	test   eax,eax
  408358:	0f 84 3e fd ff ff    	je     40809c <MEMORY_T::SCREENCODE(double)+0x7c>
;   case "1":     mov(proc, &H31)
  40835e:	b9 02 00 00 00       	mov    ecx,0x2
  408363:	48 8d 15 3b 79 06 00 	lea    rdx,[rip+0x6793b]        # 46fca5 <_IO_stdin_used+0xca5>
  40836a:	48 83 ce ff          	or     rsi,0xffffffffffffffff
  40836e:	48 89 ef             	mov    rdi,rbp
  408371:	e8 8a 0a 06 00       	call   468e00 <fb_StrCompare>
  408376:	f2 0f 10 05 3a ae 06 	movsd  xmm0,QWORD PTR [rip+0x6ae3a]        # 4731b8 <_IO_stdin_used+0x41b8>
  40837d:	00 
  40837e:	85 c0                	test   eax,eax
  408380:	0f 84 16 fd ff ff    	je     40809c <MEMORY_T::SCREENCODE(double)+0x7c>
;   case "2":     mov(proc, &H32)
  408386:	b9 02 00 00 00       	mov    ecx,0x2
  40838b:	48 8d 15 1f 79 06 00 	lea    rdx,[rip+0x6791f]        # 46fcb1 <_IO_stdin_used+0xcb1>
  408392:	48 83 ce ff          	or     rsi,0xffffffffffffffff
  408396:	48 89 ef             	mov    rdi,rbp
  408399:	e8 62 0a 06 00       	call   468e00 <fb_StrCompare>
  40839e:	f2 0f 10 05 1a ae 06 	movsd  xmm0,QWORD PTR [rip+0x6ae1a]        # 4731c0 <_IO_stdin_used+0x41c0>
  4083a5:	00 
  4083a6:	85 c0                	test   eax,eax
  4083a8:	0f 84 ee fc ff ff    	je     40809c <MEMORY_T::SCREENCODE(double)+0x7c>
;   case "3":     mov(proc, &H33)
  4083ae:	b9 02 00 00 00       	mov    ecx,0x2
  4083b3:	48 8d 15 03 79 06 00 	lea    rdx,[rip+0x67903]        # 46fcbd <_IO_stdin_used+0xcbd>
  4083ba:	48 83 ce ff          	or     rsi,0xffffffffffffffff
  4083be:	48 89 ef             	mov    rdi,rbp
  4083c1:	e8 3a 0a 06 00       	call   468e00 <fb_StrCompare>
  4083c6:	f2 0f 10 05 fa ad 06 	movsd  xmm0,QWORD PTR [rip+0x6adfa]        # 4731c8 <_IO_stdin_used+0x41c8>
  4083cd:	00 
  4083ce:	85 c0                	test   eax,eax
  4083d0:	0f 84 c6 fc ff ff    	je     40809c <MEMORY_T::SCREENCODE(double)+0x7c>
;   case "4":     mov(proc, &H34)
  4083d6:	b9 02 00 00 00       	mov    ecx,0x2
  4083db:	48 8d 15 95 76 06 00 	lea    rdx,[rip+0x67695]        # 46fa77 <_IO_stdin_used+0xa77>
  4083e2:	48 83 ce ff          	or     rsi,0xffffffffffffffff
  4083e6:	48 89 ef             	mov    rdi,rbp
  4083e9:	e8 12 0a 06 00       	call   468e00 <fb_StrCompare>
  4083ee:	f2 0f 10 05 da ad 06 	movsd  xmm0,QWORD PTR [rip+0x6adda]        # 4731d0 <_IO_stdin_used+0x41d0>
  4083f5:	00 
  4083f6:	85 c0                	test   eax,eax
  4083f8:	0f 84 9e fc ff ff    	je     40809c <MEMORY_T::SCREENCODE(double)+0x7c>
;   case "5":     mov(proc, &H35)
  4083fe:	b9 02 00 00 00       	mov    ecx,0x2
  408403:	48 8d 15 7d 76 06 00 	lea    rdx,[rip+0x6767d]        # 46fa87 <_IO_stdin_used+0xa87>
  40840a:	48 83 ce ff          	or     rsi,0xffffffffffffffff
  40840e:	48 89 ef             	mov    rdi,rbp
  408411:	e8 ea 09 06 00       	call   468e00 <fb_StrCompare>
  408416:	f2 0f 10 05 ba ad 06 	movsd  xmm0,QWORD PTR [rip+0x6adba]        # 4731d8 <_IO_stdin_used+0x41d8>
  40841d:	00 
  40841e:	85 c0                	test   eax,eax
  408420:	0f 84 76 fc ff ff    	je     40809c <MEMORY_T::SCREENCODE(double)+0x7c>
;   case "6":     mov(proc, &H36)
  408426:	b9 02 00 00 00       	mov    ecx,0x2
  40842b:	48 8d 15 81 a7 06 00 	lea    rdx,[rip+0x6a781]        # 472bb3 <_IO_stdin_used+0x3bb3>
  408432:	48 83 ce ff          	or     rsi,0xffffffffffffffff
  408436:	48 89 ef             	mov    rdi,rbp
  408439:	e8 c2 09 06 00       	call   468e00 <fb_StrCompare>
  40843e:	f2 0f 10 05 9a ad 06 	movsd  xmm0,QWORD PTR [rip+0x6ad9a]        # 4731e0 <_IO_stdin_used+0x41e0>
  408445:	00 
  408446:	85 c0                	test   eax,eax
  408448:	0f 84 4e fc ff ff    	je     40809c <MEMORY_T::SCREENCODE(double)+0x7c>
;   case "7":     mov(proc, &H37)
  40844e:	b9 02 00 00 00       	mov    ecx,0x2
  408453:	48 8d 15 5d a7 06 00 	lea    rdx,[rip+0x6a75d]        # 472bb7 <_IO_stdin_used+0x3bb7>
  40845a:	48 83 ce ff          	or     rsi,0xffffffffffffffff
  40845e:	48 89 ef             	mov    rdi,rbp
  408461:	e8 9a 09 06 00       	call   468e00 <fb_StrCompare>
  408466:	f2 0f 10 05 7a ad 06 	movsd  xmm0,QWORD PTR [rip+0x6ad7a]        # 4731e8 <_IO_stdin_used+0x41e8>
  40846d:	00 
  40846e:	85 c0                	test   eax,eax
  408470:	0f 84 26 fc ff ff    	je     40809c <MEMORY_T::SCREENCODE(double)+0x7c>
;   case "8":     mov(proc, &H38)
  408476:	b9 02 00 00 00       	mov    ecx,0x2
  40847b:	48 8d 15 39 a7 06 00 	lea    rdx,[rip+0x6a739]        # 472bbb <_IO_stdin_used+0x3bbb>
  408482:	48 83 ce ff          	or     rsi,0xffffffffffffffff
  408486:	48 89 ef             	mov    rdi,rbp
  408489:	e8 72 09 06 00       	call   468e00 <fb_StrCompare>
  40848e:	f2 0f 10 05 5a ad 06 	movsd  xmm0,QWORD PTR [rip+0x6ad5a]        # 4731f0 <_IO_stdin_used+0x41f0>
  408495:	00 
  408496:	85 c0                	test   eax,eax
  408498:	0f 84 fe fb ff ff    	je     40809c <MEMORY_T::SCREENCODE(double)+0x7c>
;   case "9":     mov(proc, &H39)
  40849e:	b9 02 00 00 00       	mov    ecx,0x2
  4084a3:	48 8d 15 15 a7 06 00 	lea    rdx,[rip+0x6a715]        # 472bbf <_IO_stdin_used+0x3bbf>
  4084aa:	48 83 ce ff          	or     rsi,0xffffffffffffffff
  4084ae:	48 89 ef             	mov    rdi,rbp
  4084b1:	e8 4a 09 06 00       	call   468e00 <fb_StrCompare>
  4084b6:	f2 0f 10 05 3a ad 06 	movsd  xmm0,QWORD PTR [rip+0x6ad3a]        # 4731f8 <_IO_stdin_used+0x41f8>
  4084bd:	00 
  4084be:	85 c0                	test   eax,eax
  4084c0:	0f 84 d6 fb ff ff    	je     40809c <MEMORY_T::SCREENCODE(double)+0x7c>
;   case ":":     mov(proc, &H3A)
  4084c6:	b9 02 00 00 00       	mov    ecx,0x2
  4084cb:	48 8d 15 ec a5 06 00 	lea    rdx,[rip+0x6a5ec]        # 472abe <_IO_stdin_used+0x3abe>
  4084d2:	48 83 ce ff          	or     rsi,0xffffffffffffffff
  4084d6:	48 89 ef             	mov    rdi,rbp
  4084d9:	e8 22 09 06 00       	call   468e00 <fb_StrCompare>
  4084de:	f2 0f 10 05 1a ad 06 	movsd  xmm0,QWORD PTR [rip+0x6ad1a]        # 473200 <_IO_stdin_used+0x4200>
  4084e5:	00 
  4084e6:	85 c0                	test   eax,eax
  4084e8:	0f 84 ae fb ff ff    	je     40809c <MEMORY_T::SCREENCODE(double)+0x7c>
;   case ";":     mov(proc, &H3B)
  4084ee:	b9 02 00 00 00       	mov    ecx,0x2
  4084f3:	48 8d 15 0b d9 06 00 	lea    rdx,[rip+0x6d90b]        # 475e05 <achTabSpaces.7976+0x1a5>
  4084fa:	48 83 ce ff          	or     rsi,0xffffffffffffffff
  4084fe:	48 89 ef             	mov    rdi,rbp
  408501:	e8 fa 08 06 00       	call   468e00 <fb_StrCompare>
  408506:	f2 0f 10 05 fa ac 06 	movsd  xmm0,QWORD PTR [rip+0x6acfa]        # 473208 <_IO_stdin_used+0x4208>
  40850d:	00 
  40850e:	85 c0                	test   eax,eax
  408510:	0f 84 86 fb ff ff    	je     40809c <MEMORY_T::SCREENCODE(double)+0x7c>
;   case "<":     mov(proc, &H3C)
  408516:	b9 02 00 00 00       	mov    ecx,0x2
  40851b:	48 8d 15 6f 6e 06 00 	lea    rdx,[rip+0x66e6f]        # 46f391 <_IO_stdin_used+0x391>
  408522:	48 83 ce ff          	or     rsi,0xffffffffffffffff
  408526:	48 89 ef             	mov    rdi,rbp
  408529:	e8 d2 08 06 00       	call   468e00 <fb_StrCompare>
  40852e:	f2 0f 10 05 da ac 06 	movsd  xmm0,QWORD PTR [rip+0x6acda]        # 473210 <_IO_stdin_used+0x4210>
  408535:	00 
  408536:	85 c0                	test   eax,eax
  408538:	0f 84 5e fb ff ff    	je     40809c <MEMORY_T::SCREENCODE(double)+0x7c>
;   case "=":     mov(proc, &H3D)
  40853e:	b9 02 00 00 00       	mov    ecx,0x2
  408543:	48 8d 15 49 6e 06 00 	lea    rdx,[rip+0x66e49]        # 46f393 <_IO_stdin_used+0x393>
  40854a:	48 83 ce ff          	or     rsi,0xffffffffffffffff
  40854e:	48 89 ef             	mov    rdi,rbp
  408551:	e8 aa 08 06 00       	call   468e00 <fb_StrCompare>
  408556:	f2 0f 10 05 ba ac 06 	movsd  xmm0,QWORD PTR [rip+0x6acba]        # 473218 <_IO_stdin_used+0x4218>
  40855d:	00 
  40855e:	85 c0                	test   eax,eax
  408560:	0f 84 36 fb ff ff    	je     40809c <MEMORY_T::SCREENCODE(double)+0x7c>
;   case ">":     mov(proc, &H3E)
  408566:	b9 02 00 00 00       	mov    ecx,0x2
  40856b:	48 8d 15 23 6e 06 00 	lea    rdx,[rip+0x66e23]        # 46f395 <_IO_stdin_used+0x395>
  408572:	48 83 ce ff          	or     rsi,0xffffffffffffffff
  408576:	48 89 ef             	mov    rdi,rbp
  408579:	e8 82 08 06 00       	call   468e00 <fb_StrCompare>
  40857e:	f2 0f 10 05 9a ac 06 	movsd  xmm0,QWORD PTR [rip+0x6ac9a]        # 473220 <_IO_stdin_used+0x4220>
  408585:	00 
  408586:	85 c0                	test   eax,eax
  408588:	0f 84 0e fb ff ff    	je     40809c <MEMORY_T::SCREENCODE(double)+0x7c>
;   case "?":     mov(proc, &H3F)
  40858e:	b9 02 00 00 00       	mov    ecx,0x2
  408593:	48 8d 15 66 9a 06 00 	lea    rdx,[rip+0x69a66]        # 472000 <_IO_stdin_used+0x3000>
  40859a:	48 83 ce ff          	or     rsi,0xffffffffffffffff
  40859e:	48 89 ef             	mov    rdi,rbp
  4085a1:	e8 5a 08 06 00       	call   468e00 <fb_StrCompare>
  4085a6:	f2 0f 10 05 7a ac 06 	movsd  xmm0,QWORD PTR [rip+0x6ac7a]        # 473228 <_IO_stdin_used+0x4228>
  4085ad:	00 
  4085ae:	85 c0                	test   eax,eax
  4085b0:	0f 84 e6 fa ff ff    	je     40809c <MEMORY_T::SCREENCODE(double)+0x7c>
;   case "@":     mov(proc, &H00)
  4085b6:	48 83 ce ff          	or     rsi,0xffffffffffffffff
  4085ba:	b9 02 00 00 00       	mov    ecx,0x2
  4085bf:	48 8d 15 27 da 06 00 	lea    rdx,[rip+0x6da27]        # 475fed <pad_numlock_ascii+0x6d>
  4085c6:	48 89 ef             	mov    rdi,rbp
  4085c9:	e8 32 08 06 00       	call   468e00 <fb_StrCompare>
  4085ce:	85 c0                	test   eax,eax
  4085d0:	75 0e                	jne    4085e0 <MEMORY_T::SCREENCODE(double)+0x5c0>
;   case "?":     mov(proc, &H3F)
  4085d2:	66 0f ef c0          	pxor   xmm0,xmm0
  4085d6:	e9 c1 fa ff ff       	jmp    40809c <MEMORY_T::SCREENCODE(double)+0x7c>
;end proc
  4085db:	e8 80 d2 ff ff       	call   405860 <__stack_chk_fail@plt>
;   case "A":     mov(proc, &H01)
  4085e0:	b9 02 00 00 00       	mov    ecx,0x2
  4085e5:	48 8d 15 d3 a6 06 00 	lea    rdx,[rip+0x6a6d3]        # 472cbf <_IO_stdin_used+0x3cbf>
  4085ec:	48 83 ce ff          	or     rsi,0xffffffffffffffff
  4085f0:	48 89 ef             	mov    rdi,rbp
  4085f3:	e8 08 08 06 00       	call   468e00 <fb_StrCompare>
  4085f8:	f2 0f 10 05 50 ab 06 	movsd  xmm0,QWORD PTR [rip+0x6ab50]        # 473150 <_IO_stdin_used+0x4150>
  4085ff:	00 
  408600:	85 c0                	test   eax,eax
  408602:	0f 84 94 fa ff ff    	je     40809c <MEMORY_T::SCREENCODE(double)+0x7c>
;   case "B":     mov(proc, &H02)
  408608:	b9 02 00 00 00       	mov    ecx,0x2
  40860d:	48 8d 15 96 e1 06 00 	lea    rdx,[rip+0x6e196]        # 4767aa <hex_table+0x5a>
  408614:	48 83 ce ff          	or     rsi,0xffffffffffffffff
  408618:	48 89 ef             	mov    rdi,rbp
  40861b:	e8 e0 07 06 00       	call   468e00 <fb_StrCompare>
  408620:	f2 0f 10 05 38 b6 06 	movsd  xmm0,QWORD PTR [rip+0x6b638]        # 473c60 <_IO_stdin_used+0x4c60>
  408627:	00 
  408628:	85 c0                	test   eax,eax
  40862a:	0f 84 6c fa ff ff    	je     40809c <MEMORY_T::SCREENCODE(double)+0x7c>
;   case "C":     mov(proc, &H03)
  408630:	b9 02 00 00 00       	mov    ecx,0x2
  408635:	48 8d 15 bf a7 06 00 	lea    rdx,[rip+0x6a7bf]        # 472dfb <_IO_stdin_used+0x3dfb>
  40863c:	48 83 ce ff          	or     rsi,0xffffffffffffffff
  408640:	48 89 ef             	mov    rdi,rbp
  408643:	e8 b8 07 06 00       	call   468e00 <fb_StrCompare>
  408648:	f2 0f 10 05 90 b6 06 	movsd  xmm0,QWORD PTR [rip+0x6b690]        # 473ce0 <_IO_stdin_used+0x4ce0>
  40864f:	00 
  408650:	85 c0                	test   eax,eax
  408652:	0f 84 44 fa ff ff    	je     40809c <MEMORY_T::SCREENCODE(double)+0x7c>
;   case "D":     mov(proc, &H04)
  408658:	b9 02 00 00 00       	mov    ecx,0x2
  40865d:	48 8d 15 cc 7f 06 00 	lea    rdx,[rip+0x67fcc]        # 470630 <_IO_stdin_used+0x1630>
  408664:	48 83 ce ff          	or     rsi,0xffffffffffffffff
  408668:	48 89 ef             	mov    rdi,rbp
  40866b:	e8 90 07 06 00       	call   468e00 <fb_StrCompare>
  408670:	f2 0f 10 05 e0 b5 06 	movsd  xmm0,QWORD PTR [rip+0x6b5e0]        # 473c58 <_IO_stdin_used+0x4c58>
  408677:	00 
  408678:	85 c0                	test   eax,eax
  40867a:	0f 84 1c fa ff ff    	je     40809c <MEMORY_T::SCREENCODE(double)+0x7c>
;   case "E":     mov(proc, &H05)
  408680:	b9 02 00 00 00       	mov    ecx,0x2
  408685:	48 8d 15 5c 86 06 00 	lea    rdx,[rip+0x6865c]        # 470ce8 <_IO_stdin_used+0x1ce8>
  40868c:	48 83 ce ff          	or     rsi,0xffffffffffffffff
  408690:	48 89 ef             	mov    rdi,rbp
  408693:	e8 68 07 06 00       	call   468e00 <fb_StrCompare>
  408698:	f2 0f 10 05 b0 b5 06 	movsd  xmm0,QWORD PTR [rip+0x6b5b0]        # 473c50 <_IO_stdin_used+0x4c50>
  40869f:	00 
  4086a0:	85 c0                	test   eax,eax
  4086a2:	0f 84 f4 f9 ff ff    	je     40809c <MEMORY_T::SCREENCODE(double)+0x7c>
;   case "F":     mov(proc, &H06)
  4086a8:	b9 02 00 00 00       	mov    ecx,0x2
  4086ad:	48 8d 15 6d e1 06 00 	lea    rdx,[rip+0x6e16d]        # 476821 <hex_table+0xd1>
  4086b4:	48 83 ce ff          	or     rsi,0xffffffffffffffff
  4086b8:	48 89 ef             	mov    rdi,rbp
  4086bb:	e8 40 07 06 00       	call   468e00 <fb_StrCompare>
  4086c0:	f2 0f 10 05 68 ab 06 	movsd  xmm0,QWORD PTR [rip+0x6ab68]        # 473230 <_IO_stdin_used+0x4230>
  4086c7:	00 
  4086c8:	85 c0                	test   eax,eax
  4086ca:	0f 84 cc f9 ff ff    	je     40809c <MEMORY_T::SCREENCODE(double)+0x7c>
;   case "G":     mov(proc, &H07)
  4086d0:	b9 02 00 00 00       	mov    ecx,0x2
  4086d5:	48 8d 15 88 e1 06 00 	lea    rdx,[rip+0x6e188]        # 476864 <hex_table+0x114>
  4086dc:	48 83 ce ff          	or     rsi,0xffffffffffffffff
  4086e0:	48 89 ef             	mov    rdi,rbp
  4086e3:	e8 18 07 06 00       	call   468e00 <fb_StrCompare>
  4086e8:	f2 0f 10 05 48 ab 06 	movsd  xmm0,QWORD PTR [rip+0x6ab48]        # 473238 <_IO_stdin_used+0x4238>
  4086ef:	00 
  4086f0:	85 c0                	test   eax,eax
  4086f2:	0f 84 a4 f9 ff ff    	je     40809c <MEMORY_T::SCREENCODE(double)+0x7c>
;   case "H":     mov(proc, &H08)
  4086f8:	b9 02 00 00 00       	mov    ecx,0x2
  4086fd:	48 8d 15 93 6c 06 00 	lea    rdx,[rip+0x66c93]        # 46f397 <_IO_stdin_used+0x397>
  408704:	48 83 ce ff          	or     rsi,0xffffffffffffffff
  408708:	48 89 ef             	mov    rdi,rbp
  40870b:	e8 f0 06 06 00       	call   468e00 <fb_StrCompare>
  408710:	f2 0f 10 05 28 ab 06 	movsd  xmm0,QWORD PTR [rip+0x6ab28]        # 473240 <_IO_stdin_used+0x4240>
  408717:	00 
  408718:	85 c0                	test   eax,eax
  40871a:	0f 84 7c f9 ff ff    	je     40809c <MEMORY_T::SCREENCODE(double)+0x7c>
;   case "I":     mov(proc, &H09)
  408720:	b9 02 00 00 00       	mov    ecx,0x2
  408725:	48 8d 15 c7 a4 06 00 	lea    rdx,[rip+0x6a4c7]        # 472bf3 <_IO_stdin_used+0x3bf3>
  40872c:	48 83 ce ff          	or     rsi,0xffffffffffffffff
  408730:	48 89 ef             	mov    rdi,rbp
  408733:	e8 c8 06 06 00       	call   468e00 <fb_StrCompare>
  408738:	f2 0f 10 05 20 aa 06 	movsd  xmm0,QWORD PTR [rip+0x6aa20]        # 473160 <_IO_stdin_used+0x4160>
  40873f:	00 
  408740:	85 c0                	test   eax,eax
  408742:	0f 84 54 f9 ff ff    	je     40809c <MEMORY_T::SCREENCODE(double)+0x7c>
;   case "J":     mov(proc, &H0A)
  408748:	b9 02 00 00 00       	mov    ecx,0x2
  40874d:	48 8d 15 45 6c 06 00 	lea    rdx,[rip+0x66c45]        # 46f399 <_IO_stdin_used+0x399>
  408754:	48 83 ce ff          	or     rsi,0xffffffffffffffff
  408758:	48 89 ef             	mov    rdi,rbp
  40875b:	e8 a0 06 06 00       	call   468e00 <fb_StrCompare>
  408760:	f2 0f 10 05 e8 b6 06 	movsd  xmm0,QWORD PTR [rip+0x6b6e8]        # 473e50 <_IO_stdin_used+0x4e50>
  408767:	00 
  408768:	85 c0                	test   eax,eax
  40876a:	0f 84 2c f9 ff ff    	je     40809c <MEMORY_T::SCREENCODE(double)+0x7c>
;   case "K":     mov(proc, &H0B)
  408770:	b9 02 00 00 00       	mov    ecx,0x2
  408775:	48 8d 15 0b a7 06 00 	lea    rdx,[rip+0x6a70b]        # 472e87 <_IO_stdin_used+0x3e87>
  40877c:	48 83 ce ff          	or     rsi,0xffffffffffffffff
  408780:	48 89 ef             	mov    rdi,rbp
  408783:	e8 78 06 06 00       	call   468e00 <fb_StrCompare>
  408788:	f2 0f 10 05 b8 aa 06 	movsd  xmm0,QWORD PTR [rip+0x6aab8]        # 473248 <_IO_stdin_used+0x4248>
  40878f:	00 
  408790:	85 c0                	test   eax,eax
  408792:	0f 84 04 f9 ff ff    	je     40809c <MEMORY_T::SCREENCODE(double)+0x7c>
;   case "L":     mov(proc, &H0C)
  408798:	b9 02 00 00 00       	mov    ecx,0x2
  40879d:	48 8d 15 0e a7 06 00 	lea    rdx,[rip+0x6a70e]        # 472eb2 <_IO_stdin_used+0x3eb2>
  4087a4:	48 83 ce ff          	or     rsi,0xffffffffffffffff
  4087a8:	48 89 ef             	mov    rdi,rbp
  4087ab:	e8 50 06 06 00       	call   468e00 <fb_StrCompare>
  4087b0:	f2 0f 10 05 98 aa 06 	movsd  xmm0,QWORD PTR [rip+0x6aa98]        # 473250 <_IO_stdin_used+0x4250>
  4087b7:	00 
  4087b8:	85 c0                	test   eax,eax
  4087ba:	0f 84 dc f8 ff ff    	je     40809c <MEMORY_T::SCREENCODE(double)+0x7c>
;   case "M":     mov(proc, &H0D)
  4087c0:	b9 02 00 00 00       	mov    ecx,0x2
  4087c5:	48 8d 15 9b a2 06 00 	lea    rdx,[rip+0x6a29b]        # 472a67 <_IO_stdin_used+0x3a67>
  4087cc:	48 83 ce ff          	or     rsi,0xffffffffffffffff
  4087d0:	48 89 ef             	mov    rdi,rbp
  4087d3:	e8 28 06 06 00       	call   468e00 <fb_StrCompare>
  4087d8:	f2 0f 10 05 78 aa 06 	movsd  xmm0,QWORD PTR [rip+0x6aa78]        # 473258 <_IO_stdin_used+0x4258>
  4087df:	00 
  4087e0:	85 c0                	test   eax,eax
  4087e2:	0f 84 b4 f8 ff ff    	je     40809c <MEMORY_T::SCREENCODE(double)+0x7c>
;   case "N":     mov(proc, &H0E)
  4087e8:	b9 02 00 00 00       	mov    ecx,0x2
  4087ed:	48 8d 15 e5 84 06 00 	lea    rdx,[rip+0x684e5]        # 470cd9 <_IO_stdin_used+0x1cd9>
  4087f4:	48 83 ce ff          	or     rsi,0xffffffffffffffff
  4087f8:	48 89 ef             	mov    rdi,rbp
  4087fb:	e8 00 06 06 00       	call   468e00 <fb_StrCompare>
  408800:	f2 0f 10 05 58 aa 06 	movsd  xmm0,QWORD PTR [rip+0x6aa58]        # 473260 <_IO_stdin_used+0x4260>
  408807:	00 
  408808:	85 c0                	test   eax,eax
  40880a:	0f 84 8c f8 ff ff    	je     40809c <MEMORY_T::SCREENCODE(double)+0x7c>
;   case "O":     mov(proc, &H0F)
  408810:	b9 02 00 00 00       	mov    ecx,0x2
  408815:	48 8d 15 7c a6 06 00 	lea    rdx,[rip+0x6a67c]        # 472e98 <_IO_stdin_used+0x3e98>
  40881c:	48 83 ce ff          	or     rsi,0xffffffffffffffff
  408820:	48 89 ef             	mov    rdi,rbp
  408823:	e8 d8 05 06 00       	call   468e00 <fb_StrCompare>
  408828:	f2 0f 10 05 38 aa 06 	movsd  xmm0,QWORD PTR [rip+0x6aa38]        # 473268 <_IO_stdin_used+0x4268>
  40882f:	00 
  408830:	85 c0                	test   eax,eax
  408832:	0f 84 64 f8 ff ff    	je     40809c <MEMORY_T::SCREENCODE(double)+0x7c>
;   case "P":     mov(proc, &H10)
  408838:	b9 02 00 00 00       	mov    ecx,0x2
  40883d:	48 8d 15 ff a2 06 00 	lea    rdx,[rip+0x6a2ff]        # 472b43 <_IO_stdin_used+0x3b43>
  408844:	48 83 ce ff          	or     rsi,0xffffffffffffffff
  408848:	48 89 ef             	mov    rdi,rbp
  40884b:	e8 b0 05 06 00       	call   468e00 <fb_StrCompare>
  408850:	f2 0f 10 05 10 a9 06 	movsd  xmm0,QWORD PTR [rip+0x6a910]        # 473168 <_IO_stdin_used+0x4168>
  408857:	00 
  408858:	85 c0                	test   eax,eax
  40885a:	0f 84 3c f8 ff ff    	je     40809c <MEMORY_T::SCREENCODE(double)+0x7c>
;   case "Q":     mov(proc, &H11)
  408860:	b9 02 00 00 00       	mov    ecx,0x2
  408865:	48 8d 15 d7 a5 06 00 	lea    rdx,[rip+0x6a5d7]        # 472e43 <_IO_stdin_used+0x3e43>
  40886c:	48 83 ce ff          	or     rsi,0xffffffffffffffff
  408870:	48 89 ef             	mov    rdi,rbp
  408873:	e8 88 05 06 00       	call   468e00 <fb_StrCompare>
  408878:	f2 0f 10 05 f0 a9 06 	movsd  xmm0,QWORD PTR [rip+0x6a9f0]        # 473270 <_IO_stdin_used+0x4270>
  40887f:	00 
  408880:	85 c0                	test   eax,eax
  408882:	0f 84 14 f8 ff ff    	je     40809c <MEMORY_T::SCREENCODE(double)+0x7c>
;   case "R":     mov(proc, &H12)
  408888:	b9 02 00 00 00       	mov    ecx,0x2
  40888d:	48 8d 15 db d1 06 00 	lea    rdx,[rip+0x6d1db]        # 475a6f <compressed_data+0x138f>
  408894:	48 83 ce ff          	or     rsi,0xffffffffffffffff
  408898:	48 89 ef             	mov    rdi,rbp
  40889b:	e8 60 05 06 00       	call   468e00 <fb_StrCompare>
  4088a0:	f2 0f 10 05 d0 a9 06 	movsd  xmm0,QWORD PTR [rip+0x6a9d0]        # 473278 <_IO_stdin_used+0x4278>
  4088a7:	00 
  4088a8:	85 c0                	test   eax,eax
  4088aa:	0f 84 ec f7 ff ff    	je     40809c <MEMORY_T::SCREENCODE(double)+0x7c>
;   case "S":     mov(proc, &H13)
  4088b0:	b9 02 00 00 00       	mov    ecx,0x2
  4088b5:	48 8d 15 d7 a5 06 00 	lea    rdx,[rip+0x6a5d7]        # 472e93 <_IO_stdin_used+0x3e93>
  4088bc:	48 83 ce ff          	or     rsi,0xffffffffffffffff
  4088c0:	48 89 ef             	mov    rdi,rbp
  4088c3:	e8 38 05 06 00       	call   468e00 <fb_StrCompare>
  4088c8:	f2 0f 10 05 b0 a9 06 	movsd  xmm0,QWORD PTR [rip+0x6a9b0]        # 473280 <_IO_stdin_used+0x4280>
  4088cf:	00 
  4088d0:	85 c0                	test   eax,eax
  4088d2:	0f 84 c4 f7 ff ff    	je     40809c <MEMORY_T::SCREENCODE(double)+0x7c>
;   case "T":     mov(proc, &H14)
  4088d8:	b9 02 00 00 00       	mov    ecx,0x2
  4088dd:	48 8d 15 77 a1 06 00 	lea    rdx,[rip+0x6a177]        # 472a5b <_IO_stdin_used+0x3a5b>
  4088e4:	48 83 ce ff          	or     rsi,0xffffffffffffffff
  4088e8:	48 89 ef             	mov    rdi,rbp
  4088eb:	e8 10 05 06 00       	call   468e00 <fb_StrCompare>
  4088f0:	f2 0f 10 05 90 a9 06 	movsd  xmm0,QWORD PTR [rip+0x6a990]        # 473288 <_IO_stdin_used+0x4288>
  4088f7:	00 
  4088f8:	85 c0                	test   eax,eax
  4088fa:	0f 84 9c f7 ff ff    	je     40809c <MEMORY_T::SCREENCODE(double)+0x7c>
;   case "U":     mov(proc, &H15)
  408900:	b9 02 00 00 00       	mov    ecx,0x2
  408905:	48 8d 15 9a de 06 00 	lea    rdx,[rip+0x6de9a]        # 4767a6 <hex_table+0x56>
  40890c:	48 83 ce ff          	or     rsi,0xffffffffffffffff
  408910:	48 89 ef             	mov    rdi,rbp
  408913:	e8 e8 04 06 00       	call   468e00 <fb_StrCompare>
  408918:	f2 0f 10 05 70 a9 06 	movsd  xmm0,QWORD PTR [rip+0x6a970]        # 473290 <_IO_stdin_used+0x4290>
  40891f:	00 
  408920:	85 c0                	test   eax,eax
  408922:	0f 84 74 f7 ff ff    	je     40809c <MEMORY_T::SCREENCODE(double)+0x7c>
;   case "V":     mov(proc, &H16)
  408928:	b9 02 00 00 00       	mov    ecx,0x2
  40892d:	48 8d 15 fb a3 06 00 	lea    rdx,[rip+0x6a3fb]        # 472d2f <_IO_stdin_used+0x3d2f>
  408934:	48 83 ce ff          	or     rsi,0xffffffffffffffff
  408938:	48 89 ef             	mov    rdi,rbp
  40893b:	e8 c0 04 06 00       	call   468e00 <fb_StrCompare>
  408940:	f2 0f 10 05 50 a9 06 	movsd  xmm0,QWORD PTR [rip+0x6a950]        # 473298 <_IO_stdin_used+0x4298>
  408947:	00 
  408948:	85 c0                	test   eax,eax
  40894a:	0f 84 4c f7 ff ff    	je     40809c <MEMORY_T::SCREENCODE(double)+0x7c>
;   case "W":     mov(proc, &H17)
  408950:	b9 02 00 00 00       	mov    ecx,0x2
  408955:	48 8d 15 63 bd 06 00 	lea    rdx,[rip+0x6bd63]        # 4746bf <mode_info+0x21f>
  40895c:	48 83 ce ff          	or     rsi,0xffffffffffffffff
  408960:	48 89 ef             	mov    rdi,rbp
  408963:	e8 98 04 06 00       	call   468e00 <fb_StrCompare>
  408968:	f2 0f 10 05 30 a9 06 	movsd  xmm0,QWORD PTR [rip+0x6a930]        # 4732a0 <_IO_stdin_used+0x42a0>
  40896f:	00 
  408970:	85 c0                	test   eax,eax
  408972:	0f 84 24 f7 ff ff    	je     40809c <MEMORY_T::SCREENCODE(double)+0x7c>
;   case "X":     mov(proc, &H18)
  408978:	b9 02 00 00 00       	mov    ecx,0x2
  40897d:	48 8d 15 6b a3 06 00 	lea    rdx,[rip+0x6a36b]        # 472cef <_IO_stdin_used+0x3cef>
  408984:	48 83 ce ff          	or     rsi,0xffffffffffffffff
  408988:	48 89 ef             	mov    rdi,rbp
  40898b:	e8 70 04 06 00       	call   468e00 <fb_StrCompare>
  408990:	f2 0f 10 05 10 a9 06 	movsd  xmm0,QWORD PTR [rip+0x6a910]        # 4732a8 <_IO_stdin_used+0x42a8>
  408997:	00 
  408998:	85 c0                	test   eax,eax
  40899a:	0f 84 fc f6 ff ff    	je     40809c <MEMORY_T::SCREENCODE(double)+0x7c>
;   case "Y":     mov(proc, &H19)
  4089a0:	b9 02 00 00 00       	mov    ecx,0x2
  4089a5:	48 8d 15 37 a3 06 00 	lea    rdx,[rip+0x6a337]        # 472ce3 <_IO_stdin_used+0x3ce3>
  4089ac:	48 83 ce ff          	or     rsi,0xffffffffffffffff
  4089b0:	48 89 ef             	mov    rdi,rbp
  4089b3:	e8 48 04 06 00       	call   468e00 <fb_StrCompare>
  4089b8:	f2 0f 10 05 f0 a8 06 	movsd  xmm0,QWORD PTR [rip+0x6a8f0]        # 4732b0 <_IO_stdin_used+0x42b0>
  4089bf:	00 
  4089c0:	85 c0                	test   eax,eax
  4089c2:	0f 84 d4 f6 ff ff    	je     40809c <MEMORY_T::SCREENCODE(double)+0x7c>
;   case "Z":     mov(proc, &H1A)
  4089c8:	b9 02 00 00 00       	mov    ecx,0x2
  4089cd:	48 8d 15 c7 69 06 00 	lea    rdx,[rip+0x669c7]        # 46f39b <_IO_stdin_used+0x39b>
  4089d4:	48 83 ce ff          	or     rsi,0xffffffffffffffff
  4089d8:	48 89 ef             	mov    rdi,rbp
  4089db:	e8 20 04 06 00       	call   468e00 <fb_StrCompare>
  4089e0:	f2 0f 10 05 d0 a8 06 	movsd  xmm0,QWORD PTR [rip+0x6a8d0]        # 4732b8 <_IO_stdin_used+0x42b8>
  4089e7:	00 
  4089e8:	85 c0                	test   eax,eax
  4089ea:	0f 84 ac f6 ff ff    	je     40809c <MEMORY_T::SCREENCODE(double)+0x7c>
;   case "[":     mov(proc, &H1B)
  4089f0:	b9 02 00 00 00       	mov    ecx,0x2
  4089f5:	48 8d 15 a1 69 06 00 	lea    rdx,[rip+0x669a1]        # 46f39d <_IO_stdin_used+0x39d>
  4089fc:	48 83 ce ff          	or     rsi,0xffffffffffffffff
  408a00:	48 89 ef             	mov    rdi,rbp
  408a03:	e8 f8 03 06 00       	call   468e00 <fb_StrCompare>
  408a08:	f2 0f 10 05 b0 a8 06 	movsd  xmm0,QWORD PTR [rip+0x6a8b0]        # 4732c0 <_IO_stdin_used+0x42c0>
  408a0f:	00 
  408a10:	85 c0                	test   eax,eax
  408a12:	0f 84 84 f6 ff ff    	je     40809c <MEMORY_T::SCREENCODE(double)+0x7c>
;   case "\":     mov(proc, &H1C)
  408a18:	b9 02 00 00 00       	mov    ecx,0x2
  408a1d:	48 8d 15 8a 6a 06 00 	lea    rdx,[rip+0x66a8a]        # 46f4ae <_IO_stdin_used+0x4ae>
  408a24:	48 83 ce ff          	or     rsi,0xffffffffffffffff
  408a28:	48 89 ef             	mov    rdi,rbp
  408a2b:	e8 d0 03 06 00       	call   468e00 <fb_StrCompare>
  408a30:	f2 0f 10 05 e0 b2 06 	movsd  xmm0,QWORD PTR [rip+0x6b2e0]        # 473d18 <_IO_stdin_used+0x4d18>
  408a37:	00 
  408a38:	85 c0                	test   eax,eax
  408a3a:	0f 84 5c f6 ff ff    	je     40809c <MEMORY_T::SCREENCODE(double)+0x7c>
;   case "]":     mov(proc, &H1D)    
  408a40:	b9 02 00 00 00       	mov    ecx,0x2
  408a45:	48 8d 15 53 69 06 00 	lea    rdx,[rip+0x66953]        # 46f39f <_IO_stdin_used+0x39f>
  408a4c:	48 83 ce ff          	or     rsi,0xffffffffffffffff
  408a50:	48 89 ef             	mov    rdi,rbp
  408a53:	e8 a8 03 06 00       	call   468e00 <fb_StrCompare>
  408a58:	f2 0f 10 05 68 a8 06 	movsd  xmm0,QWORD PTR [rip+0x6a868]        # 4732c8 <_IO_stdin_used+0x42c8>
  408a5f:	00 
  408a60:	85 c0                	test   eax,eax
  408a62:	0f 84 34 f6 ff ff    	je     40809c <MEMORY_T::SCREENCODE(double)+0x7c>
;   case "^":     mov(proc, &H1E)
  408a68:	b9 02 00 00 00       	mov    ecx,0x2
  408a6d:	48 8d 15 2d 69 06 00 	lea    rdx,[rip+0x6692d]        # 46f3a1 <_IO_stdin_used+0x3a1>
  408a74:	48 83 ce ff          	or     rsi,0xffffffffffffffff
  408a78:	48 89 ef             	mov    rdi,rbp
  408a7b:	e8 80 03 06 00       	call   468e00 <fb_StrCompare>
  408a80:	f2 0f 10 05 a8 b2 06 	movsd  xmm0,QWORD PTR [rip+0x6b2a8]        # 473d30 <_IO_stdin_used+0x4d30>
  408a87:	00 
  408a88:	85 c0                	test   eax,eax
  408a8a:	0f 84 0c f6 ff ff    	je     40809c <MEMORY_T::SCREENCODE(double)+0x7c>
;   case "_":     mov(proc, &H1F)
  408a90:	b9 02 00 00 00       	mov    ecx,0x2
  408a95:	48 8d 15 07 69 06 00 	lea    rdx,[rip+0x66907]        # 46f3a3 <_IO_stdin_used+0x3a3>
  408a9c:	48 83 ce ff          	or     rsi,0xffffffffffffffff
  408aa0:	48 89 ef             	mov    rdi,rbp
  408aa3:	e8 58 03 06 00       	call   468e00 <fb_StrCompare>
  408aa8:	f2 0f 10 05 20 a8 06 	movsd  xmm0,QWORD PTR [rip+0x6a820]        # 4732d0 <_IO_stdin_used+0x42d0>
  408aaf:	00 
  408ab0:	85 c0                	test   eax,eax
  408ab2:	0f 84 e4 f5 ff ff    	je     40809c <MEMORY_T::SCREENCODE(double)+0x7c>
;   case chr(96): mov(proc, &H80)
  408ab8:	b9 02 00 00 00       	mov    ecx,0x2
  408abd:	48 8d 15 e1 68 06 00 	lea    rdx,[rip+0x668e1]        # 46f3a5 <_IO_stdin_used+0x3a5>
  408ac4:	48 83 ce ff          	or     rsi,0xffffffffffffffff
  408ac8:	48 89 ef             	mov    rdi,rbp
  408acb:	e8 30 03 06 00       	call   468e00 <fb_StrCompare>
  408ad0:	f2 0f 10 05 00 a8 06 	movsd  xmm0,QWORD PTR [rip+0x6a800]        # 4732d8 <_IO_stdin_used+0x42d8>
  408ad7:	00 
  408ad8:	85 c0                	test   eax,eax
  408ada:	0f 84 bc f5 ff ff    	je     40809c <MEMORY_T::SCREENCODE(double)+0x7c>
;   case "a":     mov(proc, &H81)
  408ae0:	b9 02 00 00 00       	mov    ecx,0x2
  408ae5:	48 8d 15 fc 99 06 00 	lea    rdx,[rip+0x699fc]        # 4724e8 <_IO_stdin_used+0x34e8>
  408aec:	48 83 ce ff          	or     rsi,0xffffffffffffffff
  408af0:	48 89 ef             	mov    rdi,rbp
  408af3:	e8 08 03 06 00       	call   468e00 <fb_StrCompare>
  408af8:	f2 0f 10 05 e0 a7 06 	movsd  xmm0,QWORD PTR [rip+0x6a7e0]        # 4732e0 <_IO_stdin_used+0x42e0>
  408aff:	00 
  408b00:	85 c0                	test   eax,eax
  408b02:	0f 84 94 f5 ff ff    	je     40809c <MEMORY_T::SCREENCODE(double)+0x7c>
;   case "b":     mov(proc, &H82)
  408b08:	b9 02 00 00 00       	mov    ecx,0x2
  408b0d:	48 8d 15 71 dc 06 00 	lea    rdx,[rip+0x6dc71]        # 476785 <hex_table+0x35>
  408b14:	48 83 ce ff          	or     rsi,0xffffffffffffffff
  408b18:	48 89 ef             	mov    rdi,rbp
  408b1b:	e8 e0 02 06 00       	call   468e00 <fb_StrCompare>
  408b20:	f2 0f 10 05 c0 a7 06 	movsd  xmm0,QWORD PTR [rip+0x6a7c0]        # 4732e8 <_IO_stdin_used+0x42e8>
  408b27:	00 
  408b28:	85 c0                	test   eax,eax
  408b2a:	0f 84 6c f5 ff ff    	je     40809c <MEMORY_T::SCREENCODE(double)+0x7c>
;   case "c":     mov(proc, &H83)
  408b30:	b9 02 00 00 00       	mov    ecx,0x2
  408b35:	48 8d 15 a8 9d 06 00 	lea    rdx,[rip+0x69da8]        # 4728e4 <_IO_stdin_used+0x38e4>
  408b3c:	48 83 ce ff          	or     rsi,0xffffffffffffffff
  408b40:	48 89 ef             	mov    rdi,rbp
  408b43:	e8 b8 02 06 00       	call   468e00 <fb_StrCompare>
  408b48:	f2 0f 10 05 a0 a7 06 	movsd  xmm0,QWORD PTR [rip+0x6a7a0]        # 4732f0 <_IO_stdin_used+0x42f0>
  408b4f:	00 
  408b50:	85 c0                	test   eax,eax
  408b52:	0f 84 44 f5 ff ff    	je     40809c <MEMORY_T::SCREENCODE(double)+0x7c>
;   case "d":     mov(proc, &H84)
  408b58:	b9 02 00 00 00       	mov    ecx,0x2
  408b5d:	48 8d 15 cd db 06 00 	lea    rdx,[rip+0x6dbcd]        # 476731 <keysym_to_scancode+0x691>
  408b64:	48 83 ce ff          	or     rsi,0xffffffffffffffff
  408b68:	48 89 ef             	mov    rdi,rbp
  408b6b:	e8 90 02 06 00       	call   468e00 <fb_StrCompare>
  408b70:	f2 0f 10 05 80 a7 06 	movsd  xmm0,QWORD PTR [rip+0x6a780]        # 4732f8 <_IO_stdin_used+0x42f8>
  408b77:	00 
  408b78:	85 c0                	test   eax,eax
  408b7a:	0f 84 1c f5 ff ff    	je     40809c <MEMORY_T::SCREENCODE(double)+0x7c>
;   case "e":     mov(proc, &H85)
  408b80:	b9 02 00 00 00       	mov    ecx,0x2
  408b85:	48 8d 15 8c 80 06 00 	lea    rdx,[rip+0x6808c]        # 470c18 <_IO_stdin_used+0x1c18>
  408b8c:	48 83 ce ff          	or     rsi,0xffffffffffffffff
  408b90:	48 89 ef             	mov    rdi,rbp
  408b93:	e8 68 02 06 00       	call   468e00 <fb_StrCompare>
  408b98:	f2 0f 10 05 60 a7 06 	movsd  xmm0,QWORD PTR [rip+0x6a760]        # 473300 <_IO_stdin_used+0x4300>
  408b9f:	00 
  408ba0:	85 c0                	test   eax,eax
  408ba2:	0f 84 f4 f4 ff ff    	je     40809c <MEMORY_T::SCREENCODE(double)+0x7c>
;   case "f":     mov(proc, &H86)
  408ba8:	b9 02 00 00 00       	mov    ecx,0x2
  408bad:	48 8d 15 74 65 06 00 	lea    rdx,[rip+0x66574]        # 46f128 <_IO_stdin_used+0x128>
  408bb4:	48 83 ce ff          	or     rsi,0xffffffffffffffff
  408bb8:	48 89 ef             	mov    rdi,rbp
  408bbb:	e8 40 02 06 00       	call   468e00 <fb_StrCompare>
  408bc0:	f2 0f 10 05 40 a7 06 	movsd  xmm0,QWORD PTR [rip+0x6a740]        # 473308 <_IO_stdin_used+0x4308>
  408bc7:	00 
  408bc8:	85 c0                	test   eax,eax
  408bca:	0f 84 cc f4 ff ff    	je     40809c <MEMORY_T::SCREENCODE(double)+0x7c>
;   case "g":     mov(proc, &H87)
  408bd0:	b9 02 00 00 00       	mov    ecx,0x2
  408bd5:	48 8d 15 63 db 06 00 	lea    rdx,[rip+0x6db63]        # 47673f <keysym_to_scancode+0x69f>
  408bdc:	48 83 ce ff          	or     rsi,0xffffffffffffffff
  408be0:	48 89 ef             	mov    rdi,rbp
  408be3:	e8 18 02 06 00       	call   468e00 <fb_StrCompare>
  408be8:	f2 0f 10 05 20 a7 06 	movsd  xmm0,QWORD PTR [rip+0x6a720]        # 473310 <_IO_stdin_used+0x4310>
  408bef:	00 
  408bf0:	85 c0                	test   eax,eax
  408bf2:	0f 84 a4 f4 ff ff    	je     40809c <MEMORY_T::SCREENCODE(double)+0x7c>
;   case "h":     mov(proc, &H88)
  408bf8:	b9 02 00 00 00       	mov    ecx,0x2
  408bfd:	48 8d 15 c2 db 06 00 	lea    rdx,[rip+0x6dbc2]        # 4767c6 <hex_table+0x76>
  408c04:	48 83 ce ff          	or     rsi,0xffffffffffffffff
  408c08:	48 89 ef             	mov    rdi,rbp
  408c0b:	e8 f0 01 06 00       	call   468e00 <fb_StrCompare>
  408c10:	f2 0f 10 05 00 a7 06 	movsd  xmm0,QWORD PTR [rip+0x6a700]        # 473318 <_IO_stdin_used+0x4318>
  408c17:	00 
  408c18:	85 c0                	test   eax,eax
  408c1a:	0f 84 7c f4 ff ff    	je     40809c <MEMORY_T::SCREENCODE(double)+0x7c>
;   case "i":     mov(proc, &H89)
  408c20:	b9 02 00 00 00       	mov    ecx,0x2
  408c25:	48 8d 15 f0 64 06 00 	lea    rdx,[rip+0x664f0]        # 46f11c <_IO_stdin_used+0x11c>
  408c2c:	48 83 ce ff          	or     rsi,0xffffffffffffffff
  408c30:	48 89 ef             	mov    rdi,rbp
  408c33:	e8 c8 01 06 00       	call   468e00 <fb_StrCompare>
  408c38:	f2 0f 10 05 e0 a6 06 	movsd  xmm0,QWORD PTR [rip+0x6a6e0]        # 473320 <_IO_stdin_used+0x4320>
  408c3f:	00 
  408c40:	85 c0                	test   eax,eax
  408c42:	0f 84 54 f4 ff ff    	je     40809c <MEMORY_T::SCREENCODE(double)+0x7c>
;   case "j":     mov(proc, &H8A)
  408c48:	b9 02 00 00 00       	mov    ecx,0x2
  408c4d:	48 8d 15 53 67 06 00 	lea    rdx,[rip+0x66753]        # 46f3a7 <_IO_stdin_used+0x3a7>
  408c54:	48 83 ce ff          	or     rsi,0xffffffffffffffff
  408c58:	48 89 ef             	mov    rdi,rbp
  408c5b:	e8 a0 01 06 00       	call   468e00 <fb_StrCompare>
  408c60:	f2 0f 10 05 c0 a6 06 	movsd  xmm0,QWORD PTR [rip+0x6a6c0]        # 473328 <_IO_stdin_used+0x4328>
  408c67:	00 
  408c68:	85 c0                	test   eax,eax
  408c6a:	0f 84 2c f4 ff ff    	je     40809c <MEMORY_T::SCREENCODE(double)+0x7c>
;   case "k":     mov(proc, &H8B)
  408c70:	b9 02 00 00 00       	mov    ecx,0x2
  408c75:	48 8d 15 23 6b 06 00 	lea    rdx,[rip+0x66b23]        # 46f79f <_IO_stdin_used+0x79f>
  408c7c:	48 83 ce ff          	or     rsi,0xffffffffffffffff
  408c80:	48 89 ef             	mov    rdi,rbp
  408c83:	e8 78 01 06 00       	call   468e00 <fb_StrCompare>
  408c88:	f2 0f 10 05 a0 a6 06 	movsd  xmm0,QWORD PTR [rip+0x6a6a0]        # 473330 <_IO_stdin_used+0x4330>
  408c8f:	00 
  408c90:	85 c0                	test   eax,eax
  408c92:	0f 84 04 f4 ff ff    	je     40809c <MEMORY_T::SCREENCODE(double)+0x7c>
;   case "l":     mov(proc, &H8C)
  408c98:	b9 02 00 00 00       	mov    ecx,0x2
  408c9d:	48 8d 15 33 db 06 00 	lea    rdx,[rip+0x6db33]        # 4767d7 <hex_table+0x87>
  408ca4:	48 83 ce ff          	or     rsi,0xffffffffffffffff
  408ca8:	48 89 ef             	mov    rdi,rbp
  408cab:	e8 50 01 06 00       	call   468e00 <fb_StrCompare>
  408cb0:	f2 0f 10 05 80 a6 06 	movsd  xmm0,QWORD PTR [rip+0x6a680]        # 473338 <_IO_stdin_used+0x4338>
  408cb7:	00 
  408cb8:	85 c0                	test   eax,eax
  408cba:	0f 84 dc f3 ff ff    	je     40809c <MEMORY_T::SCREENCODE(double)+0x7c>
;   case "m":     mov(proc, &H8D)
  408cc0:	b9 02 00 00 00       	mov    ecx,0x2
  408cc5:	48 8d 15 6a 9c 06 00 	lea    rdx,[rip+0x69c6a]        # 472936 <_IO_stdin_used+0x3936>
  408ccc:	48 83 ce ff          	or     rsi,0xffffffffffffffff
  408cd0:	48 89 ef             	mov    rdi,rbp
  408cd3:	e8 28 01 06 00       	call   468e00 <fb_StrCompare>
  408cd8:	f2 0f 10 05 60 a6 06 	movsd  xmm0,QWORD PTR [rip+0x6a660]        # 473340 <_IO_stdin_used+0x4340>
  408cdf:	00 
  408ce0:	85 c0                	test   eax,eax
  408ce2:	0f 84 b4 f3 ff ff    	je     40809c <MEMORY_T::SCREENCODE(double)+0x7c>
;   case "n":     mov(proc, &H8E)
  408ce8:	b9 02 00 00 00       	mov    ecx,0x2
  408ced:	48 8d 15 bb da 06 00 	lea    rdx,[rip+0x6dabb]        # 4767af <hex_table+0x5f>
  408cf4:	48 83 ce ff          	or     rsi,0xffffffffffffffff
  408cf8:	48 89 ef             	mov    rdi,rbp
  408cfb:	e8 00 01 06 00       	call   468e00 <fb_StrCompare>
  408d00:	f2 0f 10 05 40 a6 06 	movsd  xmm0,QWORD PTR [rip+0x6a640]        # 473348 <_IO_stdin_used+0x4348>
  408d07:	00 
  408d08:	85 c0                	test   eax,eax
  408d0a:	0f 84 8c f3 ff ff    	je     40809c <MEMORY_T::SCREENCODE(double)+0x7c>
;   case "o":     mov(proc, &H8F)
  408d10:	b9 02 00 00 00       	mov    ecx,0x2
  408d15:	48 8d 15 ec 9c 06 00 	lea    rdx,[rip+0x69cec]        # 472a08 <_IO_stdin_used+0x3a08>
  408d1c:	48 83 ce ff          	or     rsi,0xffffffffffffffff
  408d20:	48 89 ef             	mov    rdi,rbp
  408d23:	e8 d8 00 06 00       	call   468e00 <fb_StrCompare>
  408d28:	f2 0f 10 05 20 a6 06 	movsd  xmm0,QWORD PTR [rip+0x6a620]        # 473350 <_IO_stdin_used+0x4350>
  408d2f:	00 
  408d30:	85 c0                	test   eax,eax
  408d32:	0f 84 64 f3 ff ff    	je     40809c <MEMORY_T::SCREENCODE(double)+0x7c>
;   case "p":     mov(proc, &H90)
  408d38:	b9 02 00 00 00       	mov    ecx,0x2
  408d3d:	48 8d 15 8b 79 06 00 	lea    rdx,[rip+0x6798b]        # 4706cf <_IO_stdin_used+0x16cf>
  408d44:	48 83 ce ff          	or     rsi,0xffffffffffffffff
  408d48:	48 89 ef             	mov    rdi,rbp
  408d4b:	e8 b0 00 06 00       	call   468e00 <fb_StrCompare>
  408d50:	f2 0f 10 05 80 af 06 	movsd  xmm0,QWORD PTR [rip+0x6af80]        # 473cd8 <_IO_stdin_used+0x4cd8>
  408d57:	00 
  408d58:	85 c0                	test   eax,eax
  408d5a:	0f 84 3c f3 ff ff    	je     40809c <MEMORY_T::SCREENCODE(double)+0x7c>
;   case "q":     mov(proc, &H91)
  408d60:	b9 02 00 00 00       	mov    ecx,0x2
  408d65:	48 8d 15 4c 77 06 00 	lea    rdx,[rip+0x6774c]        # 4704b8 <_IO_stdin_used+0x14b8>
  408d6c:	48 83 ce ff          	or     rsi,0xffffffffffffffff
  408d70:	48 89 ef             	mov    rdi,rbp
  408d73:	e8 88 00 06 00       	call   468e00 <fb_StrCompare>
  408d78:	f2 0f 10 05 d8 a5 06 	movsd  xmm0,QWORD PTR [rip+0x6a5d8]        # 473358 <_IO_stdin_used+0x4358>
  408d7f:	00 
  408d80:	85 c0                	test   eax,eax
  408d82:	0f 84 14 f3 ff ff    	je     40809c <MEMORY_T::SCREENCODE(double)+0x7c>
;   case "r":     mov(proc, &H92)
  408d88:	b9 02 00 00 00       	mov    ecx,0x2
  408d8d:	48 8d 15 ca 9b 06 00 	lea    rdx,[rip+0x69bca]        # 47295e <_IO_stdin_used+0x395e>
  408d94:	48 83 ce ff          	or     rsi,0xffffffffffffffff
  408d98:	48 89 ef             	mov    rdi,rbp
  408d9b:	e8 60 00 06 00       	call   468e00 <fb_StrCompare>
  408da0:	f2 0f 10 05 b8 a5 06 	movsd  xmm0,QWORD PTR [rip+0x6a5b8]        # 473360 <_IO_stdin_used+0x4360>
  408da7:	00 
  408da8:	85 c0                	test   eax,eax
  408daa:	0f 84 ec f2 ff ff    	je     40809c <MEMORY_T::SCREENCODE(double)+0x7c>
;   case "s":     mov(proc, &H93)
  408db0:	b9 02 00 00 00       	mov    ecx,0x2
  408db5:	48 8d 15 25 b1 06 00 	lea    rdx,[rip+0x6b125]        # 473ee1 <_IO_stdin_used+0x4ee1>
  408dbc:	48 83 ce ff          	or     rsi,0xffffffffffffffff
  408dc0:	48 89 ef             	mov    rdi,rbp
  408dc3:	e8 38 00 06 00       	call   468e00 <fb_StrCompare>
  408dc8:	f2 0f 10 05 98 a5 06 	movsd  xmm0,QWORD PTR [rip+0x6a598]        # 473368 <_IO_stdin_used+0x4368>
  408dcf:	00 
  408dd0:	85 c0                	test   eax,eax
  408dd2:	0f 84 c4 f2 ff ff    	je     40809c <MEMORY_T::SCREENCODE(double)+0x7c>
;   case "t":     mov(proc, &H94)
  408dd8:	b9 02 00 00 00       	mov    ecx,0x2
  408ddd:	48 8d 15 d1 d9 06 00 	lea    rdx,[rip+0x6d9d1]        # 4767b5 <hex_table+0x65>
  408de4:	48 83 ce ff          	or     rsi,0xffffffffffffffff
  408de8:	48 89 ef             	mov    rdi,rbp
  408deb:	e8 10 00 06 00       	call   468e00 <fb_StrCompare>
  408df0:	f2 0f 10 05 78 a5 06 	movsd  xmm0,QWORD PTR [rip+0x6a578]        # 473370 <_IO_stdin_used+0x4370>
  408df7:	00 
  408df8:	85 c0                	test   eax,eax
  408dfa:	0f 84 9c f2 ff ff    	je     40809c <MEMORY_T::SCREENCODE(double)+0x7c>
;   case "u":     mov(proc, &H95)
  408e00:	b9 02 00 00 00       	mov    ecx,0x2
  408e05:	48 8d 15 28 d9 06 00 	lea    rdx,[rip+0x6d928]        # 476734 <keysym_to_scancode+0x694>
  408e0c:	48 83 ce ff          	or     rsi,0xffffffffffffffff
  408e10:	48 89 ef             	mov    rdi,rbp
  408e13:	e8 e8 ff 05 00       	call   468e00 <fb_StrCompare>
  408e18:	f2 0f 10 05 58 a5 06 	movsd  xmm0,QWORD PTR [rip+0x6a558]        # 473378 <_IO_stdin_used+0x4378>
  408e1f:	00 
  408e20:	85 c0                	test   eax,eax
  408e22:	0f 84 74 f2 ff ff    	je     40809c <MEMORY_T::SCREENCODE(double)+0x7c>
;   case "v":     mov(proc, &H96)
  408e28:	b9 02 00 00 00       	mov    ecx,0x2
  408e2d:	48 8d 15 6a cc 06 00 	lea    rdx,[rip+0x6cc6a]        # 475a9e <compressed_data+0x13be>
  408e34:	48 83 ce ff          	or     rsi,0xffffffffffffffff
  408e38:	48 89 ef             	mov    rdi,rbp
  408e3b:	e8 c0 ff 05 00       	call   468e00 <fb_StrCompare>
  408e40:	f2 0f 10 05 38 a5 06 	movsd  xmm0,QWORD PTR [rip+0x6a538]        # 473380 <_IO_stdin_used+0x4380>
  408e47:	00 
  408e48:	85 c0                	test   eax,eax
  408e4a:	0f 84 4c f2 ff ff    	je     40809c <MEMORY_T::SCREENCODE(double)+0x7c>
;   case "w":     mov(proc, &H97)
  408e50:	b9 02 00 00 00       	mov    ecx,0x2
  408e55:	48 8d 15 55 6b 06 00 	lea    rdx,[rip+0x66b55]        # 46f9b1 <_IO_stdin_used+0x9b1>
  408e5c:	48 83 ce ff          	or     rsi,0xffffffffffffffff
  408e60:	48 89 ef             	mov    rdi,rbp
  408e63:	e8 98 ff 05 00       	call   468e00 <fb_StrCompare>
  408e68:	f2 0f 10 05 18 a5 06 	movsd  xmm0,QWORD PTR [rip+0x6a518]        # 473388 <_IO_stdin_used+0x4388>
  408e6f:	00 
  408e70:	85 c0                	test   eax,eax
  408e72:	0f 84 24 f2 ff ff    	je     40809c <MEMORY_T::SCREENCODE(double)+0x7c>
;   case "x":     mov(proc, &H98)
  408e78:	b9 02 00 00 00       	mov    ecx,0x2
  408e7d:	48 8d 15 33 80 06 00 	lea    rdx,[rip+0x68033]        # 470eb7 <_IO_stdin_used+0x1eb7>
  408e84:	48 83 ce ff          	or     rsi,0xffffffffffffffff
  408e88:	48 89 ef             	mov    rdi,rbp
  408e8b:	e8 70 ff 05 00       	call   468e00 <fb_StrCompare>
  408e90:	f2 0f 10 05 f8 a4 06 	movsd  xmm0,QWORD PTR [rip+0x6a4f8]        # 473390 <_IO_stdin_used+0x4390>
  408e97:	00 
  408e98:	85 c0                	test   eax,eax
  408e9a:	0f 84 fc f1 ff ff    	je     40809c <MEMORY_T::SCREENCODE(double)+0x7c>
;   case "y":     mov(proc, &H99)
  408ea0:	b9 02 00 00 00       	mov    ecx,0x2
  408ea5:	48 8d 15 77 97 06 00 	lea    rdx,[rip+0x69777]        # 472623 <_IO_stdin_used+0x3623>
  408eac:	48 83 ce ff          	or     rsi,0xffffffffffffffff
  408eb0:	48 89 ef             	mov    rdi,rbp
  408eb3:	e8 48 ff 05 00       	call   468e00 <fb_StrCompare>
  408eb8:	f2 0f 10 05 d8 a4 06 	movsd  xmm0,QWORD PTR [rip+0x6a4d8]        # 473398 <_IO_stdin_used+0x4398>
  408ebf:	00 
  408ec0:	85 c0                	test   eax,eax
  408ec2:	0f 84 d4 f1 ff ff    	je     40809c <MEMORY_T::SCREENCODE(double)+0x7c>
;   case "z":     mov(proc, &H9A)
  408ec8:	b9 02 00 00 00       	mov    ecx,0x2
  408ecd:	48 8d 15 0c 70 06 00 	lea    rdx,[rip+0x6700c]        # 46fee0 <_IO_stdin_used+0xee0>
  408ed4:	48 83 ce ff          	or     rsi,0xffffffffffffffff
  408ed8:	48 89 ef             	mov    rdi,rbp
  408edb:	e8 20 ff 05 00       	call   468e00 <fb_StrCompare>
  408ee0:	f2 0f 10 05 b8 a4 06 	movsd  xmm0,QWORD PTR [rip+0x6a4b8]        # 4733a0 <_IO_stdin_used+0x43a0>
  408ee7:	00 
  408ee8:	85 c0                	test   eax,eax
  408eea:	0f 84 ac f1 ff ff    	je     40809c <MEMORY_T::SCREENCODE(double)+0x7c>
;   case "{":     mov(proc, &H9B)
  408ef0:	b9 02 00 00 00       	mov    ecx,0x2
  408ef5:	48 8d 15 ad 64 06 00 	lea    rdx,[rip+0x664ad]        # 46f3a9 <_IO_stdin_used+0x3a9>
  408efc:	48 83 ce ff          	or     rsi,0xffffffffffffffff
  408f00:	48 89 ef             	mov    rdi,rbp
  408f03:	e8 f8 fe 05 00       	call   468e00 <fb_StrCompare>
  408f08:	f2 0f 10 05 10 af 06 	movsd  xmm0,QWORD PTR [rip+0x6af10]        # 473e20 <_IO_stdin_used+0x4e20>
  408f0f:	00 
  408f10:	85 c0                	test   eax,eax
  408f12:	0f 84 84 f1 ff ff    	je     40809c <MEMORY_T::SCREENCODE(double)+0x7c>
;   case "|":     mov(proc, &H9C)
  408f18:	b9 02 00 00 00       	mov    ecx,0x2
  408f1d:	48 8d 15 87 64 06 00 	lea    rdx,[rip+0x66487]        # 46f3ab <_IO_stdin_used+0x3ab>
  408f24:	48 83 ce ff          	or     rsi,0xffffffffffffffff
  408f28:	48 89 ef             	mov    rdi,rbp
  408f2b:	e8 d0 fe 05 00       	call   468e00 <fb_StrCompare>
  408f30:	f2 0f 10 05 70 a4 06 	movsd  xmm0,QWORD PTR [rip+0x6a470]        # 4733a8 <_IO_stdin_used+0x43a8>
  408f37:	00 
  408f38:	85 c0                	test   eax,eax
  408f3a:	0f 84 5c f1 ff ff    	je     40809c <MEMORY_T::SCREENCODE(double)+0x7c>
;   case "}":     mov(proc, &H9D)
  408f40:	b9 02 00 00 00       	mov    ecx,0x2
  408f45:	48 8d 15 61 64 06 00 	lea    rdx,[rip+0x66461]        # 46f3ad <_IO_stdin_used+0x3ad>
  408f4c:	48 83 ce ff          	or     rsi,0xffffffffffffffff
  408f50:	48 89 ef             	mov    rdi,rbp
  408f53:	e8 a8 fe 05 00       	call   468e00 <fb_StrCompare>
  408f58:	f2 0f 10 05 50 a4 06 	movsd  xmm0,QWORD PTR [rip+0x6a450]        # 4733b0 <_IO_stdin_used+0x43b0>
  408f5f:	00 
  408f60:	85 c0                	test   eax,eax
  408f62:	0f 84 34 f1 ff ff    	je     40809c <MEMORY_T::SCREENCODE(double)+0x7c>
;   case "~":     mov(proc, &H9E)
  408f68:	48 83 ce ff          	or     rsi,0xffffffffffffffff
  408f6c:	b9 02 00 00 00       	mov    ecx,0x2
  408f71:	48 8d 15 37 64 06 00 	lea    rdx,[rip+0x66437]        # 46f3af <_IO_stdin_used+0x3af>
  408f78:	48 89 ef             	mov    rdi,rbp
  408f7b:	e8 80 fe 05 00       	call   468e00 <fb_StrCompare>
  408f80:	85 c0                	test   eax,eax
  408f82:	0f 85 4a f6 ff ff    	jne    4085d2 <MEMORY_T::SCREENCODE(double)+0x5b2>
  408f88:	f2 0f 10 05 f8 ad 06 	movsd  xmm0,QWORD PTR [rip+0x6adf8]        # 473d88 <_IO_stdin_used+0x4d88>
  408f8f:	00 
  408f90:	e9 07 f1 ff ff       	jmp    40809c <MEMORY_T::SCREENCODE(double)+0x7c>
  408f95:	66 66 2e 0f 1f 84 00 	data16 cs nop WORD PTR [rax+rax*1+0x0]
  408f9c:	00 00 00 00 

0000000000408fa0 <MEMORY_T::PEEKB(double)>:
;proc MEMORY_T.peekb(byval adr  as double) as double
  408fa0:	53                   	push   rbx
  408fa1:	48 89 fb             	mov    rbx,rdi
;  mov(proc,mem64(adr))
  408fa4:	e8 a7 c3 ff ff       	call   405350 <nearbyint@plt>
  408fa9:	f2 48 0f 2c c0       	cvttsd2si rax,xmm0
;end proc
  408fae:	f2 0f 10 04 c3       	movsd  xmm0,QWORD PTR [rbx+rax*8]
  408fb3:	5b                   	pop    rbx
  408fb4:	c3                   	ret    
  408fb5:	66 66 2e 0f 1f 84 00 	data16 cs nop WORD PTR [rax+rax*1+0x0]
  408fbc:	00 00 00 00 

0000000000408fc0 <MEMORY_T::PEEKW(double)>:
;proc MEMORY_T.peekw(byval adr  as double) as double
  408fc0:	55                   	push   rbp
  408fc1:	48 89 fd             	mov    rbp,rdi
  408fc4:	48 83 ec 10          	sub    rsp,0x10
;  mov(proc,logic_or(peekb(adr),peekb(adr add 1) shl 8))
  408fc8:	f2 0f 11 04 24       	movsd  QWORD PTR [rsp],xmm0
  408fcd:	e8 ce ff ff ff       	call   408fa0 <MEMORY_T::PEEKB(double)>
  408fd2:	f2 0f 10 0c 24       	movsd  xmm1,QWORD PTR [rsp]
  408fd7:	48 89 ef             	mov    rdi,rbp
  408fda:	f2 0f 58 0d 6e a1 06 	addsd  xmm1,QWORD PTR [rip+0x6a16e]        # 473150 <_IO_stdin_used+0x4150>
  408fe1:	00 
  408fe2:	f2 0f 11 44 24 08    	movsd  QWORD PTR [rsp+0x8],xmm0
  408fe8:	66 0f 28 c1          	movapd xmm0,xmm1
  408fec:	e8 af ff ff ff       	call   408fa0 <MEMORY_T::PEEKB(double)>
  408ff1:	f2 0f 10 54 24 08    	movsd  xmm2,QWORD PTR [rsp+0x8]
  408ff7:	f2 0f 11 04 24       	movsd  QWORD PTR [rsp],xmm0
  408ffc:	66 0f 28 c2          	movapd xmm0,xmm2
  409000:	e8 4b c3 ff ff       	call   405350 <nearbyint@plt>
  409005:	f2 0f 10 0c 24       	movsd  xmm1,QWORD PTR [rsp]
  40900a:	66 48 0f 7e c5       	movq   rbp,xmm0
  40900f:	66 0f 28 c1          	movapd xmm0,xmm1
  409013:	e8 38 c3 ff ff       	call   405350 <nearbyint@plt>
  409018:	66 48 0f 6e dd       	movq   xmm3,rbp
;end proc
  40901d:	48 83 c4 10          	add    rsp,0x10
;  mov(proc,logic_or(peekb(adr),peekb(adr add 1) shl 8))
  409021:	f2 48 0f 2c c0       	cvttsd2si rax,xmm0
  409026:	66 0f ef c0          	pxor   xmm0,xmm0
;end proc
  40902a:	5d                   	pop    rbp
;  mov(proc,logic_or(peekb(adr),peekb(adr add 1) shl 8))
  40902b:	f2 48 0f 2c d3       	cvttsd2si rdx,xmm3
  409030:	48 c1 e0 08          	shl    rax,0x8
  409034:	48 09 d0             	or     rax,rdx
  409037:	f2 48 0f 2a c0       	cvtsi2sd xmm0,rax
;end proc
  40903c:	c3                   	ret    
  40903d:	0f 1f 00             	nop    DWORD PTR [rax]

0000000000409040 <MEMORY_T::ISSYMBOL(FBSTRING, double)>:
;proc MEMORY_T.issymbol(byval s    as string, byval start as double) as double
  409040:	53                   	push   rbx
  409041:	66 0f 28 c8          	movapd xmm1,xmm0
  409045:	48 89 f3             	mov    rbx,rsi
  409048:	48 83 ec 10          	sub    rsp,0x10
  40904c:	eb 0a                	jmp    409058 <MEMORY_T::ISSYMBOL(FBSTRING, double)+0x18>
  40904e:	66 90                	xchg   ax,ax
;   case else: mov(start, start add 1)
  409050:	f2 0f 58 0d f8 a0 06 	addsd  xmm1,QWORD PTR [rip+0x6a0f8]        # 473150 <_IO_stdin_used+0x4150>
  409057:	00 
;  select case asc(mid(s, start, 1))
  409058:	66 0f 28 c1          	movapd xmm0,xmm1
  40905c:	f2 0f 11 4c 24 08    	movsd  QWORD PTR [rsp+0x8],xmm1
  409062:	e8 e9 c2 ff ff       	call   405350 <nearbyint@plt>
  409067:	ba 01 00 00 00       	mov    edx,0x1
  40906c:	48 89 df             	mov    rdi,rbx
  40906f:	f2 48 0f 2c f0       	cvttsd2si rsi,xmm0
  409074:	e8 77 12 06 00       	call   46a2f0 <fb_StrMid>
  409079:	be 01 00 00 00       	mov    esi,0x1
  40907e:	48 89 c7             	mov    rdi,rax
  409081:	e8 da f9 05 00       	call   468a60 <fb_ASC>
;   case in range(&H30, &H39): exit do
  409086:	f2 0f 10 4c 24 08    	movsd  xmm1,QWORD PTR [rsp+0x8]
  40908c:	83 e8 30             	sub    eax,0x30
  40908f:	83 f8 09             	cmp    eax,0x9
  409092:	77 bc                	ja     409050 <MEMORY_T::ISSYMBOL(FBSTRING, double)+0x10>
;end proc
  409094:	48 83 c4 10          	add    rsp,0x10
  409098:	66 0f 28 c1          	movapd xmm0,xmm1
  40909c:	5b                   	pop    rbx
  40909d:	c3                   	ret    
  40909e:	66 90                	xchg   ax,ax

00000000004090a0 <MEMORY_T::ISNUMBER(FBSTRING, double)>:
;proc MEMORY_T.isnumber(byval s    as string, byval start as double) as double
  4090a0:	41 55                	push   r13
  4090a2:	4c 8d 2d 27 9d 09 00 	lea    r13,[rip+0x99d27]        # 4a2dd0 <GET_DATA$>
  4090a9:	41 54                	push   r12
  4090ab:	55                   	push   rbp
  4090ac:	53                   	push   rbx
  4090ad:	48 83 ec 18          	sub    rsp,0x18
  4090b1:	64 48 8b 04 25 28 00 	mov    rax,QWORD PTR fs:0x28
  4090b8:	00 00 
  4090ba:	48 89 44 24 08       	mov    QWORD PTR [rsp+0x8],rax
  4090bf:	31 c0                	xor    eax,eax
  4090c1:	48 c7 04 24 00 00 00 	mov    QWORD PTR [rsp],0x0
  4090c8:	00 
; dim as integer tmp: mov(tmp,start)
  4090c9:	e8 82 c2 ff ff       	call   405350 <nearbyint@plt>
  4090ce:	f2 48 0f 2c e8       	cvttsd2si rbp,xmm0
  4090d3:	48 8d 5d 01          	lea    rbx,[rbp+0x1]
  4090d7:	eb 2b                	jmp    409104 <MEMORY_T::ISNUMBER(FBSTRING, double)+0x64>
  4090d9:	0f 1f 80 00 00 00 00 	nop    DWORD PTR [rax+0x0]
;   case &H30 to &H39: mov(tmp, tmp add 1)
  4090e0:	83 f8 39             	cmp    eax,0x39
  4090e3:	76 1b                	jbe    409100 <MEMORY_T::ISNUMBER(FBSTRING, double)+0x60>
;   case &H26, &H2B, &H2D, &H2E, &H42: mov(tmp, tmp add 1)
  4090e5:	83 f8 42             	cmp    eax,0x42
  4090e8:	74 16                	je     409100 <MEMORY_T::ISNUMBER(FBSTRING, double)+0x60>
;   case &H62, &H48, &H68: mov(tmp, tmp add 1)
  4090ea:	83 f8 62             	cmp    eax,0x62
  4090ed:	0f 94 c2             	sete   dl
  4090f0:	83 f8 48             	cmp    eax,0x48
  4090f3:	0f 94 c1             	sete   cl
  4090f6:	08 ca                	or     dl,cl
  4090f8:	75 06                	jne    409100 <MEMORY_T::ISNUMBER(FBSTRING, double)+0x60>
  4090fa:	83 f8 68             	cmp    eax,0x68
  4090fd:	75 3d                	jne    40913c <MEMORY_T::ISNUMBER(FBSTRING, double)+0x9c>
  4090ff:	90                   	nop
  409100:	48 83 c3 01          	add    rbx,0x1
  409104:	4c 8d 63 ff          	lea    r12,[rbx-0x1]
;  select case asc(mid(get_data, tmp, 1))
  409108:	4c 89 ef             	mov    rdi,r13
  40910b:	ba 01 00 00 00       	mov    edx,0x1
  409110:	4c 89 e6             	mov    rsi,r12
  409113:	e8 d8 11 06 00       	call   46a2f0 <fb_StrMid>
  409118:	be 01 00 00 00       	mov    esi,0x1
  40911d:	48 89 c7             	mov    rdi,rax
  409120:	e8 3b f9 05 00       	call   468a60 <fb_ASC>
;   case &H30 to &H39: mov(tmp, tmp add 1)
  409125:	83 f8 2f             	cmp    eax,0x2f
  409128:	77 b6                	ja     4090e0 <MEMORY_T::ISNUMBER(FBSTRING, double)+0x40>
;   case &H26, &H2B, &H2D, &H2E, &H42: mov(tmp, tmp add 1)
  40912a:	83 f8 26             	cmp    eax,0x26
  40912d:	74 d1                	je     409100 <MEMORY_T::ISNUMBER(FBSTRING, double)+0x60>
  40912f:	8d 50 d3             	lea    edx,[rax-0x2d]
  409132:	83 fa 01             	cmp    edx,0x1
  409135:	76 c9                	jbe    409100 <MEMORY_T::ISNUMBER(FBSTRING, double)+0x60>
  409137:	83 f8 2b             	cmp    eax,0x2b
  40913a:	74 c4                	je     409100 <MEMORY_T::ISNUMBER(FBSTRING, double)+0x60>
; if val(mid(get_data, start, tmp)) gt 0 then
  40913c:	4c 89 e2             	mov    rdx,r12
  40913f:	48 89 ee             	mov    rsi,rbp
  409142:	4c 89 ef             	mov    rdi,r13
  409145:	e8 a6 11 06 00       	call   46a2f0 <fb_StrMid>
  40914a:	48 89 c7             	mov    rdi,rax
  40914d:	e8 be 02 06 00       	call   469410 <fb_VAL>
  409152:	66 0f 28 c8          	movapd xmm1,xmm0
  409156:	66 0f ef c0          	pxor   xmm0,xmm0
  40915a:	66 0f 2f c1          	comisd xmm0,xmm1
  40915e:	72 1b                	jb     40917b <MEMORY_T::ISNUMBER(FBSTRING, double)+0xdb>
;end proc
  409160:	48 8b 44 24 08       	mov    rax,QWORD PTR [rsp+0x8]
  409165:	64 48 2b 04 25 28 00 	sub    rax,QWORD PTR fs:0x28
  40916c:	00 00 
  40916e:	75 3b                	jne    4091ab <MEMORY_T::ISNUMBER(FBSTRING, double)+0x10b>
  409170:	48 83 c4 18          	add    rsp,0x18
  409174:	5b                   	pop    rbx
  409175:	5d                   	pop    rbp
  409176:	41 5c                	pop    r12
  409178:	41 5d                	pop    r13
  40917a:	c3                   	ret    
;   mov(proc,val(mid(get_data, start, tmp)))
  40917b:	4c 89 ef             	mov    rdi,r13
  40917e:	4c 89 e2             	mov    rdx,r12
  409181:	48 89 ee             	mov    rsi,rbp
  409184:	e8 67 11 06 00       	call   46a2f0 <fb_StrMid>
  409189:	48 89 c7             	mov    rdi,rax
  40918c:	48 8b 44 24 08       	mov    rax,QWORD PTR [rsp+0x8]
  409191:	64 48 2b 04 25 28 00 	sub    rax,QWORD PTR fs:0x28
  409198:	00 00 
  40919a:	75 0f                	jne    4091ab <MEMORY_T::ISNUMBER(FBSTRING, double)+0x10b>
;end proc
  40919c:	48 83 c4 18          	add    rsp,0x18
  4091a0:	5b                   	pop    rbx
  4091a1:	5d                   	pop    rbp
  4091a2:	41 5c                	pop    r12
  4091a4:	41 5d                	pop    r13
;   mov(proc,val(mid(get_data, start, tmp)))
  4091a6:	e9 65 02 06 00       	jmp    469410 <fb_VAL>
;end proc
  4091ab:	e8 b0 c6 ff ff       	call   405860 <__stack_chk_fail@plt>

00000000004091b0 <MEMORY_T::GETXYZ()>:
;sub MEMORY_T.getXYZ()
  4091b0:	41 56                	push   r14
; mov(mem64(49355), isnumber(get_data, 7))
  4091b2:	66 0f ef e4          	pxor   xmm4,xmm4
  4091b6:	45 31 c0             	xor    r8d,r8d
  4091b9:	48 c7 c1 ff ff ff ff 	mov    rcx,0xffffffffffffffff
;sub MEMORY_T.getXYZ()
  4091c0:	41 55                	push   r13
; mov(mem64(49355), isnumber(get_data, 7))
  4091c2:	48 c7 c6 ff ff ff ff 	mov    rsi,0xffffffffffffffff
;sub MEMORY_T.getXYZ()
  4091c9:	41 54                	push   r12
; mov(mem64(49355), isnumber(get_data, 7))
  4091cb:	4c 8d 25 fe 9b 09 00 	lea    r12,[rip+0x99bfe]        # 4a2dd0 <GET_DATA$>
;sub MEMORY_T.getXYZ()
  4091d2:	55                   	push   rbp
; mov(mem64(49355), isnumber(get_data, 7))
  4091d3:	4c 89 e2             	mov    rdx,r12
;sub MEMORY_T.getXYZ()
  4091d6:	53                   	push   rbx
  4091d7:	48 89 fb             	mov    rbx,rdi
  4091da:	48 83 c4 80          	add    rsp,0xffffffffffffff80
  4091de:	64 48 8b 04 25 28 00 	mov    rax,QWORD PTR fs:0x28
  4091e5:	00 00 
  4091e7:	48 89 44 24 78       	mov    QWORD PTR [rsp+0x78],rax
  4091ec:	31 c0                	xor    eax,eax
; mov(mem64(49355), isnumber(get_data, 7))
  4091ee:	48 89 e5             	mov    rbp,rsp
  4091f1:	0f 29 24 24          	movaps XMMWORD PTR [rsp],xmm4
  4091f5:	48 c7 44 24 10 00 00 	mov    QWORD PTR [rsp+0x10],0x0
  4091fc:	00 00 
  4091fe:	48 89 ef             	mov    rdi,rbp
  409201:	e8 da fa 05 00       	call   468ce0 <fb_StrAssign>
  409206:	f2 0f 10 05 2a a0 06 	movsd  xmm0,QWORD PTR [rip+0x6a02a]        # 473238 <_IO_stdin_used+0x4238>
  40920d:	00 
  40920e:	48 89 ee             	mov    rsi,rbp
  409211:	48 89 df             	mov    rdi,rbx
  409214:	e8 87 fe ff ff       	call   4090a0 <MEMORY_T::ISNUMBER(FBSTRING, double)>
  409219:	48 89 ef             	mov    rdi,rbp
  40921c:	f2 0f 11 83 58 06 06 	movsd  QWORD PTR [rbx+0x60658],xmm0
  409223:	00 
  409224:	e8 67 0c 06 00       	call   469e90 <fb_StrDelete>
; if mov(mem64(49355), 0) then
  409229:	f2 0f 10 83 58 06 06 	movsd  xmm0,QWORD PTR [rbx+0x60658]
  409230:	00 
  409231:	66 0f ef ed          	pxor   xmm5,xmm5
  409235:	66 0f 2e c5          	ucomisd xmm0,xmm5
  409239:	0f 8a 41 03 00 00    	jp     409580 <MEMORY_T::GETXYZ()+0x3d0>
  40923f:	0f 85 3b 03 00 00    	jne    409580 <MEMORY_T::GETXYZ()+0x3d0>
;  mov(mem64(49355), 0 subt isnumber(get_data,(7 add (len(str(mem64(49355))))))) 
  409245:	e8 36 07 06 00       	call   469980 <fb_DoubleToStr>
  40924a:	48 c7 c6 ff ff ff ff 	mov    rsi,0xffffffffffffffff
  409251:	4c 8d 6c 24 60       	lea    r13,[rsp+0x60]
  409256:	48 89 c7             	mov    rdi,rax
  409259:	e8 52 10 06 00       	call   46a2b0 <fb_StrLen>
  40925e:	66 0f ef f6          	pxor   xmm6,xmm6
  409262:	45 31 c0             	xor    r8d,r8d
  409265:	4c 89 e2             	mov    rdx,r12
  409268:	48 c7 c1 ff ff ff ff 	mov    rcx,0xffffffffffffffff
  40926f:	4c 89 ef             	mov    rdi,r13
  409272:	48 89 c5             	mov    rbp,rax
  409275:	48 c7 c6 ff ff ff ff 	mov    rsi,0xffffffffffffffff
  40927c:	0f 29 74 24 60       	movaps XMMWORD PTR [rsp+0x60],xmm6
  409281:	48 83 c5 07          	add    rbp,0x7
  409285:	48 c7 44 24 70 00 00 	mov    QWORD PTR [rsp+0x70],0x0
  40928c:	00 00 
  40928e:	e8 4d fa 05 00       	call   468ce0 <fb_StrAssign>
  409293:	66 0f ef c0          	pxor   xmm0,xmm0
  409297:	4c 89 ee             	mov    rsi,r13
  40929a:	48 89 df             	mov    rdi,rbx
  40929d:	f2 48 0f 2a c5       	cvtsi2sd xmm0,rbp
  4092a2:	e8 f9 fd ff ff       	call   4090a0 <MEMORY_T::ISNUMBER(FBSTRING, double)>
  4092a7:	4c 89 ef             	mov    rdi,r13
  4092aa:	4c 8d 2d 24 98 06 00 	lea    r13,[rip+0x69824]        # 472ad5 <_IO_stdin_used+0x3ad5>
  4092b1:	66 0f 28 c8          	movapd xmm1,xmm0
  4092b5:	66 0f ef c0          	pxor   xmm0,xmm0
  4092b9:	f2 0f 5c c1          	subsd  xmm0,xmm1
  4092bd:	f2 0f 11 83 58 06 06 	movsd  QWORD PTR [rbx+0x60658],xmm0
  4092c4:	00 
  4092c5:	e8 c6 0b 06 00       	call   469e90 <fb_StrDelete>
; mov(mem64(49356), isnumber(get_data,(7 add (len(str(mem64(49355))) add 2))))
  4092ca:	f2 0f 10 83 58 06 06 	movsd  xmm0,QWORD PTR [rbx+0x60658]
  4092d1:	00 
  4092d2:	4c 8d 74 24 20       	lea    r14,[rsp+0x20]
  4092d7:	e8 a4 06 06 00       	call   469980 <fb_DoubleToStr>
  4092dc:	48 c7 c6 ff ff ff ff 	mov    rsi,0xffffffffffffffff
  4092e3:	48 89 c7             	mov    rdi,rax
  4092e6:	e8 c5 0f 06 00       	call   46a2b0 <fb_StrLen>
  4092eb:	66 0f ef d2          	pxor   xmm2,xmm2
  4092ef:	45 31 c0             	xor    r8d,r8d
  4092f2:	4c 89 e2             	mov    rdx,r12
  4092f5:	48 c7 c1 ff ff ff ff 	mov    rcx,0xffffffffffffffff
  4092fc:	48 89 c5             	mov    rbp,rax
  4092ff:	48 c7 c6 ff ff ff ff 	mov    rsi,0xffffffffffffffff
  409306:	4c 89 f7             	mov    rdi,r14
  409309:	0f 29 54 24 20       	movaps XMMWORD PTR [rsp+0x20],xmm2
  40930e:	48 83 c5 09          	add    rbp,0x9
  409312:	48 c7 44 24 30 00 00 	mov    QWORD PTR [rsp+0x30],0x0
  409319:	00 00 
  40931b:	e8 c0 f9 05 00       	call   468ce0 <fb_StrAssign>
  409320:	66 0f ef c0          	pxor   xmm0,xmm0
  409324:	4c 89 f6             	mov    rsi,r14
  409327:	48 89 df             	mov    rdi,rbx
  40932a:	f2 48 0f 2a c5       	cvtsi2sd xmm0,rbp
  40932f:	e8 6c fd ff ff       	call   4090a0 <MEMORY_T::ISNUMBER(FBSTRING, double)>
  409334:	4c 89 f7             	mov    rdi,r14
  409337:	f2 0f 11 83 60 06 06 	movsd  QWORD PTR [rbx+0x60660],xmm0
  40933e:	00 
  40933f:	e8 4c 0b 06 00       	call   469e90 <fb_StrDelete>
; if mov(mid(get_data,(7 add (len(str(mem64(49355))) add 2)),1), "-") then
  409344:	f2 0f 10 83 58 06 06 	movsd  xmm0,QWORD PTR [rbx+0x60658]
  40934b:	00 
  40934c:	e8 2f 06 06 00       	call   469980 <fb_DoubleToStr>
  409351:	48 c7 c6 ff ff ff ff 	mov    rsi,0xffffffffffffffff
  409358:	48 89 c7             	mov    rdi,rax
  40935b:	e8 50 0f 06 00       	call   46a2b0 <fb_StrLen>
  409360:	ba 01 00 00 00       	mov    edx,0x1
  409365:	4c 89 e7             	mov    rdi,r12
  409368:	48 8d 70 09          	lea    rsi,[rax+0x9]
  40936c:	e8 7f 0f 06 00       	call   46a2f0 <fb_StrMid>
  409371:	b9 02 00 00 00       	mov    ecx,0x2
  409376:	4c 89 ea             	mov    rdx,r13
  409379:	48 c7 c6 ff ff ff ff 	mov    rsi,0xffffffffffffffff
  409380:	48 89 c7             	mov    rdi,rax
  409383:	e8 78 fa 05 00       	call   468e00 <fb_StrCompare>
  409388:	85 c0                	test   eax,eax
  40938a:	0f 85 86 00 00 00    	jne    409416 <MEMORY_T::GETXYZ()+0x266>
;  mov(mem64(49356), 0 subt isnumber(get_data,(7 add (len(str(mem64(49355))) add 3))))
  409390:	f2 0f 10 83 58 06 06 	movsd  xmm0,QWORD PTR [rbx+0x60658]
  409397:	00 
  409398:	4c 8d 74 24 60       	lea    r14,[rsp+0x60]
  40939d:	e8 de 05 06 00       	call   469980 <fb_DoubleToStr>
  4093a2:	48 c7 c6 ff ff ff ff 	mov    rsi,0xffffffffffffffff
  4093a9:	48 89 c7             	mov    rdi,rax
  4093ac:	e8 ff 0e 06 00       	call   46a2b0 <fb_StrLen>
  4093b1:	66 0f ef d2          	pxor   xmm2,xmm2
  4093b5:	45 31 c0             	xor    r8d,r8d
  4093b8:	4c 89 e2             	mov    rdx,r12
  4093bb:	48 89 c5             	mov    rbp,rax
  4093be:	48 c7 c1 ff ff ff ff 	mov    rcx,0xffffffffffffffff
  4093c5:	4c 89 f7             	mov    rdi,r14
  4093c8:	0f 29 54 24 60       	movaps XMMWORD PTR [rsp+0x60],xmm2
  4093cd:	48 c7 c6 ff ff ff ff 	mov    rsi,0xffffffffffffffff
  4093d4:	48 83 c5 0a          	add    rbp,0xa
  4093d8:	48 c7 44 24 70 00 00 	mov    QWORD PTR [rsp+0x70],0x0
  4093df:	00 00 
  4093e1:	e8 fa f8 05 00       	call   468ce0 <fb_StrAssign>
  4093e6:	66 0f ef c0          	pxor   xmm0,xmm0
  4093ea:	48 89 df             	mov    rdi,rbx
  4093ed:	4c 89 f6             	mov    rsi,r14
  4093f0:	f2 48 0f 2a c5       	cvtsi2sd xmm0,rbp
  4093f5:	e8 a6 fc ff ff       	call   4090a0 <MEMORY_T::ISNUMBER(FBSTRING, double)>
  4093fa:	4c 89 f7             	mov    rdi,r14
  4093fd:	66 0f 28 c8          	movapd xmm1,xmm0
  409401:	66 0f ef c0          	pxor   xmm0,xmm0
  409405:	f2 0f 5c c1          	subsd  xmm0,xmm1
  409409:	f2 0f 11 83 60 06 06 	movsd  QWORD PTR [rbx+0x60660],xmm0
  409410:	00 
  409411:	e8 7a 0a 06 00       	call   469e90 <fb_StrDelete>
; mov(mem64(49357), isnumber(get_data,(7 add (len(str(mem64(49356))) add 6))))
  409416:	f2 0f 10 83 60 06 06 	movsd  xmm0,QWORD PTR [rbx+0x60660]
  40941d:	00 
  40941e:	4c 8d 74 24 40       	lea    r14,[rsp+0x40]
  409423:	e8 58 05 06 00       	call   469980 <fb_DoubleToStr>
  409428:	48 c7 c6 ff ff ff ff 	mov    rsi,0xffffffffffffffff
  40942f:	48 89 c7             	mov    rdi,rax
  409432:	e8 79 0e 06 00       	call   46a2b0 <fb_StrLen>
  409437:	66 0f ef db          	pxor   xmm3,xmm3
  40943b:	45 31 c0             	xor    r8d,r8d
  40943e:	4c 89 e2             	mov    rdx,r12
  409441:	48 c7 c1 ff ff ff ff 	mov    rcx,0xffffffffffffffff
  409448:	48 89 c5             	mov    rbp,rax
  40944b:	48 c7 c6 ff ff ff ff 	mov    rsi,0xffffffffffffffff
  409452:	4c 89 f7             	mov    rdi,r14
  409455:	0f 29 5c 24 40       	movaps XMMWORD PTR [rsp+0x40],xmm3
  40945a:	48 83 c5 0d          	add    rbp,0xd
  40945e:	48 c7 44 24 50 00 00 	mov    QWORD PTR [rsp+0x50],0x0
  409465:	00 00 
  409467:	e8 74 f8 05 00       	call   468ce0 <fb_StrAssign>
  40946c:	66 0f ef c0          	pxor   xmm0,xmm0
  409470:	4c 89 f6             	mov    rsi,r14
  409473:	48 89 df             	mov    rdi,rbx
  409476:	f2 48 0f 2a c5       	cvtsi2sd xmm0,rbp
  40947b:	e8 20 fc ff ff       	call   4090a0 <MEMORY_T::ISNUMBER(FBSTRING, double)>
  409480:	4c 89 f7             	mov    rdi,r14
  409483:	f2 0f 11 83 68 06 06 	movsd  QWORD PTR [rbx+0x60668],xmm0
  40948a:	00 
  40948b:	e8 00 0a 06 00       	call   469e90 <fb_StrDelete>
; if mov(mid(get_data,(7 add (len(str(mem64(49356))) add 6)),1), "-") then
  409490:	f2 0f 10 83 60 06 06 	movsd  xmm0,QWORD PTR [rbx+0x60660]
  409497:	00 
  409498:	e8 e3 04 06 00       	call   469980 <fb_DoubleToStr>
  40949d:	48 c7 c6 ff ff ff ff 	mov    rsi,0xffffffffffffffff
  4094a4:	48 89 c7             	mov    rdi,rax
  4094a7:	e8 04 0e 06 00       	call   46a2b0 <fb_StrLen>
  4094ac:	ba 01 00 00 00       	mov    edx,0x1
  4094b1:	4c 89 e7             	mov    rdi,r12
  4094b4:	48 8d 70 0d          	lea    rsi,[rax+0xd]
  4094b8:	e8 33 0e 06 00       	call   46a2f0 <fb_StrMid>
  4094bd:	b9 02 00 00 00       	mov    ecx,0x2
  4094c2:	4c 89 ea             	mov    rdx,r13
  4094c5:	48 c7 c6 ff ff ff ff 	mov    rsi,0xffffffffffffffff
  4094cc:	48 89 c7             	mov    rdi,rax
  4094cf:	e8 2c f9 05 00       	call   468e00 <fb_StrCompare>
  4094d4:	85 c0                	test   eax,eax
  4094d6:	0f 85 82 00 00 00    	jne    40955e <MEMORY_T::GETXYZ()+0x3ae>
;  mov(mem64(49357), 0 add isnumber(get_data,(7 add (len(str(mem64(49356))) add 7))))
  4094dc:	f2 0f 10 83 60 06 06 	movsd  xmm0,QWORD PTR [rbx+0x60660]
  4094e3:	00 
  4094e4:	4c 8d 6c 24 60       	lea    r13,[rsp+0x60]
  4094e9:	e8 92 04 06 00       	call   469980 <fb_DoubleToStr>
  4094ee:	48 c7 c6 ff ff ff ff 	mov    rsi,0xffffffffffffffff
  4094f5:	48 89 c7             	mov    rdi,rax
  4094f8:	e8 b3 0d 06 00       	call   46a2b0 <fb_StrLen>
  4094fd:	66 0f ef db          	pxor   xmm3,xmm3
  409501:	45 31 c0             	xor    r8d,r8d
  409504:	4c 89 e2             	mov    rdx,r12
  409507:	48 89 c5             	mov    rbp,rax
  40950a:	48 c7 c1 ff ff ff ff 	mov    rcx,0xffffffffffffffff
  409511:	4c 89 ef             	mov    rdi,r13
  409514:	0f 29 5c 24 60       	movaps XMMWORD PTR [rsp+0x60],xmm3
  409519:	48 c7 c6 ff ff ff ff 	mov    rsi,0xffffffffffffffff
  409520:	48 83 c5 0e          	add    rbp,0xe
  409524:	48 c7 44 24 70 00 00 	mov    QWORD PTR [rsp+0x70],0x0
  40952b:	00 00 
  40952d:	e8 ae f7 05 00       	call   468ce0 <fb_StrAssign>
  409532:	66 0f ef c0          	pxor   xmm0,xmm0
  409536:	48 89 df             	mov    rdi,rbx
  409539:	4c 89 ee             	mov    rsi,r13
  40953c:	f2 48 0f 2a c5       	cvtsi2sd xmm0,rbp
  409541:	e8 5a fb ff ff       	call   4090a0 <MEMORY_T::ISNUMBER(FBSTRING, double)>
  409546:	66 0f ef ff          	pxor   xmm7,xmm7
  40954a:	4c 89 ef             	mov    rdi,r13
  40954d:	f2 0f 58 c7          	addsd  xmm0,xmm7
  409551:	f2 0f 11 83 68 06 06 	movsd  QWORD PTR [rbx+0x60668],xmm0
  409558:	00 
  409559:	e8 32 09 06 00       	call   469e90 <fb_StrDelete>
;end sub
  40955e:	48 8b 44 24 78       	mov    rax,QWORD PTR [rsp+0x78]
  409563:	64 48 2b 04 25 28 00 	sub    rax,QWORD PTR fs:0x28
  40956a:	00 00 
  40956c:	0f 85 e4 00 00 00    	jne    409656 <MEMORY_T::GETXYZ()+0x4a6>
  409572:	48 83 ec 80          	sub    rsp,0xffffffffffffff80
  409576:	5b                   	pop    rbx
  409577:	5d                   	pop    rbp
  409578:	41 5c                	pop    r12
  40957a:	41 5d                	pop    r13
  40957c:	41 5e                	pop    r14
  40957e:	c3                   	ret    
  40957f:	90                   	nop
; elseif mov(mid(get_data,len(str(mem64(49355))) add 7,1), "-") then
  409580:	e8 fb 03 06 00       	call   469980 <fb_DoubleToStr>
  409585:	48 c7 c6 ff ff ff ff 	mov    rsi,0xffffffffffffffff
  40958c:	4c 8d 2d 42 95 06 00 	lea    r13,[rip+0x69542]        # 472ad5 <_IO_stdin_used+0x3ad5>
  409593:	48 89 c7             	mov    rdi,rax
  409596:	e8 15 0d 06 00       	call   46a2b0 <fb_StrLen>
  40959b:	ba 01 00 00 00       	mov    edx,0x1
  4095a0:	4c 89 e7             	mov    rdi,r12
  4095a3:	48 8d 70 07          	lea    rsi,[rax+0x7]
  4095a7:	e8 44 0d 06 00       	call   46a2f0 <fb_StrMid>
  4095ac:	b9 02 00 00 00       	mov    ecx,0x2
  4095b1:	4c 89 ea             	mov    rdx,r13
  4095b4:	48 c7 c6 ff ff ff ff 	mov    rsi,0xffffffffffffffff
  4095bb:	48 89 c7             	mov    rdi,rax
  4095be:	e8 3d f8 05 00       	call   468e00 <fb_StrCompare>
  4095c3:	85 c0                	test   eax,eax
  4095c5:	0f 85 ff fc ff ff    	jne    4092ca <MEMORY_T::GETXYZ()+0x11a>
;  mov(mem64(49355), 0 subt isnumber(get_data,(7 add (len(str(mem64(49355))) add 1))))
  4095cb:	f2 0f 10 83 58 06 06 	movsd  xmm0,QWORD PTR [rbx+0x60658]
  4095d2:	00 
  4095d3:	4c 8d 74 24 60       	lea    r14,[rsp+0x60]
  4095d8:	e8 a3 03 06 00       	call   469980 <fb_DoubleToStr>
  4095dd:	48 c7 c6 ff ff ff ff 	mov    rsi,0xffffffffffffffff
  4095e4:	48 89 c7             	mov    rdi,rax
  4095e7:	e8 c4 0c 06 00       	call   46a2b0 <fb_StrLen>
  4095ec:	66 0f ef c0          	pxor   xmm0,xmm0
  4095f0:	45 31 c0             	xor    r8d,r8d
  4095f3:	4c 89 e2             	mov    rdx,r12
  4095f6:	48 c7 c1 ff ff ff ff 	mov    rcx,0xffffffffffffffff
  4095fd:	4c 89 f7             	mov    rdi,r14
  409600:	48 89 c5             	mov    rbp,rax
  409603:	48 c7 c6 ff ff ff ff 	mov    rsi,0xffffffffffffffff
  40960a:	0f 29 44 24 60       	movaps XMMWORD PTR [rsp+0x60],xmm0
  40960f:	48 83 c5 08          	add    rbp,0x8
  409613:	48 c7 44 24 70 00 00 	mov    QWORD PTR [rsp+0x70],0x0
  40961a:	00 00 
  40961c:	e8 bf f6 05 00       	call   468ce0 <fb_StrAssign>
  409621:	66 0f ef c0          	pxor   xmm0,xmm0
  409625:	48 89 df             	mov    rdi,rbx
  409628:	4c 89 f6             	mov    rsi,r14
  40962b:	f2 48 0f 2a c5       	cvtsi2sd xmm0,rbp
  409630:	e8 6b fa ff ff       	call   4090a0 <MEMORY_T::ISNUMBER(FBSTRING, double)>
  409635:	4c 89 f7             	mov    rdi,r14
  409638:	66 0f 28 c8          	movapd xmm1,xmm0
  40963c:	66 0f ef c0          	pxor   xmm0,xmm0
  409640:	f2 0f 5c c1          	subsd  xmm0,xmm1
  409644:	f2 0f 11 83 58 06 06 	movsd  QWORD PTR [rbx+0x60658],xmm0
  40964b:	00 
  40964c:	e8 3f 08 06 00       	call   469e90 <fb_StrDelete>
  409651:	e9 74 fc ff ff       	jmp    4092ca <MEMORY_T::GETXYZ()+0x11a>
;end sub
  409656:	e8 05 c2 ff ff       	call   405860 <__stack_chk_fail@plt>
  40965b:	0f 1f 44 00 00       	nop    DWORD PTR [rax+rax*1+0x0]

0000000000409660 <MEMORY_T::PEEK64(double)>:
;proc MEMORY_T.Peek64(byval adr as double) as double
  409660:	53                   	push   rbx
  409661:	66 0f 28 c8          	movapd xmm1,xmm0
  409665:	48 89 fb             	mov    rbx,rdi
  409668:	48 83 ec 10          	sub    rsp,0x10
;  case &HE000 to &HFFFF:mov(proc,kernal(adr subt &HE000))
  40966c:	f2 0f 10 15 4c 9d 06 	movsd  xmm2,QWORD PTR [rip+0x69d4c]        # 4733c0 <_IO_stdin_used+0x43c0>
  409673:	00 
  409674:	66 0f 2f d0          	comisd xmm2,xmm0
  409678:	77 0a                	ja     409684 <MEMORY_T::PEEK64(double)+0x24>
  40967a:	66 0f 2f 05 46 9d 06 	comisd xmm0,QWORD PTR [rip+0x69d46]        # 4733c8 <_IO_stdin_used+0x43c8>
  409681:	00 
  409682:	76 3c                	jbe    4096c0 <MEMORY_T::PEEK64(double)+0x60>
;  case &HA000 to &HBFFF:mov(proc,basic (adr subt &HA000))
  409684:	f2 0f 10 15 44 9d 06 	movsd  xmm2,QWORD PTR [rip+0x69d44]        # 4733d0 <_IO_stdin_used+0x43d0>
  40968b:	00 
  40968c:	66 0f 2f d1          	comisd xmm2,xmm1
  409690:	77 56                	ja     4096e8 <MEMORY_T::PEEK64(double)+0x88>
  409692:	66 0f 2f 0d 3e 9d 06 	comisd xmm1,QWORD PTR [rip+0x69d3e]        # 4733d8 <_IO_stdin_used+0x43d8>
  409699:	00 
  40969a:	77 4c                	ja     4096e8 <MEMORY_T::PEEK64(double)+0x88>
  40969c:	f2 0f 5c ca          	subsd  xmm1,xmm2
  4096a0:	66 0f 28 c1          	movapd xmm0,xmm1
  4096a4:	e8 a7 bc ff ff       	call   405350 <nearbyint@plt>
  4096a9:	f2 48 0f 2c c0       	cvttsd2si rax,xmm0
  4096ae:	f2 0f 10 84 c3 00 00 	movsd  xmm0,QWORD PTR [rbx+rax*8+0x8020000]
  4096b5:	02 08 
;end proc
  4096b7:	48 83 c4 10          	add    rsp,0x10
  4096bb:	5b                   	pop    rbx
  4096bc:	c3                   	ret    
