  DW_CFA_advance_loc: 2 to 0000000000432d7d
  DW_CFA_def_cfa_offset: 32
  DW_CFA_advance_loc: 2 to 0000000000432d7f
  DW_CFA_def_cfa_offset: 24
  DW_CFA_advance_loc: 2 to 0000000000432d81
  DW_CFA_def_cfa_offset: 16
  DW_CFA_advance_loc: 2 to 0000000000432d83
  DW_CFA_def_cfa_offset: 8
  DW_CFA_advance_loc: 5 to 0000000000432d88
  DW_CFA_restore_state
  DW_CFA_advance_loc: 46 to 0000000000432db6
  DW_CFA_remember_state
  DW_CFA_def_cfa_offset: 56
  DW_CFA_advance_loc: 8 to 0000000000432dbe
  DW_CFA_def_cfa_offset: 48
  DW_CFA_advance_loc: 1 to 0000000000432dbf
  DW_CFA_def_cfa_offset: 40
  DW_CFA_advance_loc: 2 to 0000000000432dc1
  DW_CFA_def_cfa_offset: 32
  DW_CFA_advance_loc: 2 to 0000000000432dc3
  DW_CFA_def_cfa_offset: 24
  DW_CFA_advance_loc: 2 to 0000000000432dc5
  DW_CFA_def_cfa_offset: 16
  DW_CFA_advance_loc: 2 to 0000000000432dc7
  DW_CFA_def_cfa_offset: 8
  DW_CFA_advance_loc: 5 to 0000000000432dcc
  DW_CFA_restore_state
  DW_CFA_advance_loc: 46 to 0000000000432dfa
  DW_CFA_remember_state
  DW_CFA_def_cfa_offset: 56
  DW_CFA_advance_loc: 8 to 0000000000432e02
  DW_CFA_def_cfa_offset: 48
  DW_CFA_advance_loc: 1 to 0000000000432e03
  DW_CFA_def_cfa_offset: 40
  DW_CFA_advance_loc: 2 to 0000000000432e05
  DW_CFA_def_cfa_offset: 32
  DW_CFA_advance_loc: 2 to 0000000000432e07
  DW_CFA_def_cfa_offset: 24
  DW_CFA_advance_loc: 2 to 0000000000432e09
  DW_CFA_def_cfa_offset: 16
  DW_CFA_advance_loc: 2 to 0000000000432e0b
  DW_CFA_def_cfa_offset: 8
  DW_CFA_advance_loc: 5 to 0000000000432e10
  DW_CFA_restore_state
  DW_CFA_advance_loc1: 71 to 0000000000432e57
  DW_CFA_remember_state
  DW_CFA_def_cfa_offset: 56
  DW_CFA_advance_loc: 8 to 0000000000432e5f
  DW_CFA_def_cfa_offset: 48
  DW_CFA_advance_loc: 1 to 0000000000432e60
  DW_CFA_def_cfa_offset: 40
  DW_CFA_advance_loc: 2 to 0000000000432e62
  DW_CFA_def_cfa_offset: 32
  DW_CFA_advance_loc: 2 to 0000000000432e64
  DW_CFA_def_cfa_offset: 24
  DW_CFA_advance_loc: 2 to 0000000000432e66
  DW_CFA_def_cfa_offset: 16
  DW_CFA_advance_loc: 2 to 0000000000432e68
  DW_CFA_def_cfa_offset: 8
  DW_CFA_advance_loc: 5 to 0000000000432e6d
  DW_CFA_restore_state
  DW_CFA_advance_loc: 46 to 0000000000432e9b
  DW_CFA_remember_state
  DW_CFA_def_cfa_offset: 56
  DW_CFA_advance_loc: 8 to 0000000000432ea3
  DW_CFA_def_cfa_offset: 48
  DW_CFA_advance_loc: 1 to 0000000000432ea4
  DW_CFA_def_cfa_offset: 40
  DW_CFA_advance_loc: 2 to 0000000000432ea6
  DW_CFA_def_cfa_offset: 32
  DW_CFA_advance_loc: 2 to 0000000000432ea8
  DW_CFA_def_cfa_offset: 24
  DW_CFA_advance_loc: 2 to 0000000000432eaa
  DW_CFA_def_cfa_offset: 16
  DW_CFA_advance_loc: 2 to 0000000000432eac
  DW_CFA_def_cfa_offset: 8
  DW_CFA_advance_loc: 5 to 0000000000432eb1
  DW_CFA_restore_state
  DW_CFA_advance_loc: 56 to 0000000000432ee9
  DW_CFA_remember_state
  DW_CFA_def_cfa_offset: 56
  DW_CFA_advance_loc: 8 to 0000000000432ef1
  DW_CFA_def_cfa_offset: 48
  DW_CFA_advance_loc: 1 to 0000000000432ef2
  DW_CFA_def_cfa_offset: 40
  DW_CFA_advance_loc: 2 to 0000000000432ef4
  DW_CFA_def_cfa_offset: 32
  DW_CFA_advance_loc: 2 to 0000000000432ef6
  DW_CFA_def_cfa_offset: 24
  DW_CFA_advance_loc: 2 to 0000000000432ef8
  DW_CFA_def_cfa_offset: 16
  DW_CFA_advance_loc: 2 to 0000000000432efa
  DW_CFA_def_cfa_offset: 8
  DW_CFA_advance_loc: 5 to 0000000000432eff
  DW_CFA_restore_state
  DW_CFA_advance_loc: 46 to 0000000000432f2d
  DW_CFA_remember_state
  DW_CFA_def_cfa_offset: 56
  DW_CFA_advance_loc: 8 to 0000000000432f35
  DW_CFA_def_cfa_offset: 48
  DW_CFA_advance_loc: 1 to 0000000000432f36
  DW_CFA_def_cfa_offset: 40
  DW_CFA_advance_loc: 2 to 0000000000432f38
  DW_CFA_def_cfa_offset: 32
  DW_CFA_advance_loc: 2 to 0000000000432f3a
  DW_CFA_def_cfa_offset: 24
  DW_CFA_advance_loc: 2 to 0000000000432f3c
  DW_CFA_def_cfa_offset: 16
  DW_CFA_advance_loc: 2 to 0000000000432f3e
  DW_CFA_def_cfa_offset: 8
  DW_CFA_advance_loc: 5 to 0000000000432f43
  DW_CFA_restore_state
  DW_CFA_advance_loc: 56 to 0000000000432f7b
  DW_CFA_remember_state
  DW_CFA_def_cfa_offset: 56
  DW_CFA_advance_loc: 8 to 0000000000432f83
  DW_CFA_def_cfa_offset: 48
  DW_CFA_advance_loc: 1 to 0000000000432f84
  DW_CFA_def_cfa_offset: 40
  DW_CFA_advance_loc: 2 to 0000000000432f86
  DW_CFA_def_cfa_offset: 32
  DW_CFA_advance_loc: 2 to 0000000000432f88
  DW_CFA_def_cfa_offset: 24
  DW_CFA_advance_loc: 2 to 0000000000432f8a
  DW_CFA_def_cfa_offset: 16
  DW_CFA_advance_loc: 2 to 0000000000432f8c
  DW_CFA_def_cfa_offset: 8
  DW_CFA_advance_loc: 5 to 0000000000432f91
  DW_CFA_restore_state
  DW_CFA_advance_loc: 46 to 0000000000432fbf
  DW_CFA_remember_state
  DW_CFA_def_cfa_offset: 56
  DW_CFA_advance_loc: 8 to 0000000000432fc7
  DW_CFA_def_cfa_offset: 48
  DW_CFA_advance_loc: 1 to 0000000000432fc8
  DW_CFA_def_cfa_offset: 40
  DW_CFA_advance_loc: 2 to 0000000000432fca
  DW_CFA_def_cfa_offset: 32
  DW_CFA_advance_loc: 2 to 0000000000432fcc
  DW_CFA_def_cfa_offset: 24
  DW_CFA_advance_loc: 2 to 0000000000432fce
  DW_CFA_def_cfa_offset: 16
  DW_CFA_advance_loc: 2 to 0000000000432fd0
  DW_CFA_def_cfa_offset: 8
  DW_CFA_advance_loc: 5 to 0000000000432fd5
  DW_CFA_restore_state
  DW_CFA_advance_loc: 56 to 000000000043300d
  DW_CFA_remember_state
  DW_CFA_def_cfa_offset: 56
  DW_CFA_advance_loc: 8 to 0000000000433015
  DW_CFA_def_cfa_offset: 48
  DW_CFA_advance_loc: 1 to 0000000000433016
  DW_CFA_def_cfa_offset: 40
  DW_CFA_advance_loc: 2 to 0000000000433018
  DW_CFA_def_cfa_offset: 32
  DW_CFA_advance_loc: 2 to 000000000043301a
  DW_CFA_def_cfa_offset: 24
  DW_CFA_advance_loc: 2 to 000000000043301c
  DW_CFA_def_cfa_offset: 16
  DW_CFA_advance_loc: 2 to 000000000043301e
  DW_CFA_def_cfa_offset: 8
  DW_CFA_advance_loc: 5 to 0000000000433023
  DW_CFA_restore_state
  DW_CFA_advance_loc: 46 to 0000000000433051
  DW_CFA_remember_state
  DW_CFA_def_cfa_offset: 56
  DW_CFA_advance_loc: 8 to 0000000000433059
  DW_CFA_def_cfa_offset: 48
  DW_CFA_advance_loc: 1 to 000000000043305a
  DW_CFA_def_cfa_offset: 40
  DW_CFA_advance_loc: 2 to 000000000043305c
  DW_CFA_def_cfa_offset: 32
  DW_CFA_advance_loc: 2 to 000000000043305e
  DW_CFA_def_cfa_offset: 24
  DW_CFA_advance_loc: 2 to 0000000000433060
  DW_CFA_def_cfa_offset: 16
  DW_CFA_advance_loc: 2 to 0000000000433062
  DW_CFA_def_cfa_offset: 8
  DW_CFA_advance_loc: 5 to 0000000000433067
  DW_CFA_restore_state
  DW_CFA_advance_loc: 56 to 000000000043309f
  DW_CFA_remember_state
  DW_CFA_def_cfa_offset: 56
  DW_CFA_advance_loc: 8 to 00000000004330a7
  DW_CFA_def_cfa_offset: 48
  DW_CFA_advance_loc: 1 to 00000000004330a8
  DW_CFA_def_cfa_offset: 40
  DW_CFA_advance_loc: 2 to 00000000004330aa
  DW_CFA_def_cfa_offset: 32
  DW_CFA_advance_loc: 2 to 00000000004330ac
  DW_CFA_def_cfa_offset: 24
  DW_CFA_advance_loc: 2 to 00000000004330ae
  DW_CFA_def_cfa_offset: 16
  DW_CFA_advance_loc: 2 to 00000000004330b0
  DW_CFA_def_cfa_offset: 8
  DW_CFA_advance_loc: 5 to 00000000004330b5
  DW_CFA_restore_state
  DW_CFA_advance_loc: 46 to 00000000004330e3
  DW_CFA_remember_state
  DW_CFA_def_cfa_offset: 56
  DW_CFA_advance_loc: 8 to 00000000004330eb
  DW_CFA_def_cfa_offset: 48
  DW_CFA_advance_loc: 1 to 00000000004330ec
  DW_CFA_def_cfa_offset: 40
  DW_CFA_advance_loc: 2 to 00000000004330ee
  DW_CFA_def_cfa_offset: 32
  DW_CFA_advance_loc: 2 to 00000000004330f0
  DW_CFA_def_cfa_offset: 24
  DW_CFA_advance_loc: 2 to 00000000004330f2
  DW_CFA_def_cfa_offset: 16
  DW_CFA_advance_loc: 2 to 00000000004330f4
  DW_CFA_def_cfa_offset: 8
  DW_CFA_advance_loc: 5 to 00000000004330f9
  DW_CFA_restore_state
  DW_CFA_advance_loc: 56 to 0000000000433131
  DW_CFA_remember_state
  DW_CFA_def_cfa_offset: 56
  DW_CFA_advance_loc: 8 to 0000000000433139
  DW_CFA_def_cfa_offset: 48
  DW_CFA_advance_loc: 1 to 000000000043313a
  DW_CFA_def_cfa_offset: 40
  DW_CFA_advance_loc: 2 to 000000000043313c
  DW_CFA_def_cfa_offset: 32
  DW_CFA_advance_loc: 2 to 000000000043313e
  DW_CFA_def_cfa_offset: 24
  DW_CFA_advance_loc: 2 to 0000000000433140
  DW_CFA_def_cfa_offset: 16
  DW_CFA_advance_loc: 2 to 0000000000433142
  DW_CFA_def_cfa_offset: 8
  DW_CFA_advance_loc: 5 to 0000000000433147
  DW_CFA_restore_state
  DW_CFA_advance_loc: 46 to 0000000000433175
  DW_CFA_remember_state
  DW_CFA_def_cfa_offset: 56
  DW_CFA_advance_loc: 8 to 000000000043317d
  DW_CFA_def_cfa_offset: 48
  DW_CFA_advance_loc: 1 to 000000000043317e
  DW_CFA_def_cfa_offset: 40
  DW_CFA_advance_loc: 2 to 0000000000433180
  DW_CFA_def_cfa_offset: 32
  DW_CFA_advance_loc: 2 to 0000000000433182
  DW_CFA_def_cfa_offset: 24
  DW_CFA_advance_loc: 2 to 0000000000433184
  DW_CFA_def_cfa_offset: 16
  DW_CFA_advance_loc: 2 to 0000000000433186
  DW_CFA_def_cfa_offset: 8
  DW_CFA_advance_loc: 5 to 000000000043318b
  DW_CFA_restore_state
  DW_CFA_advance_loc: 56 to 00000000004331c3
  DW_CFA_remember_state
  DW_CFA_def_cfa_offset: 56
  DW_CFA_advance_loc: 8 to 00000000004331cb
  DW_CFA_def_cfa_offset: 48
  DW_CFA_advance_loc: 1 to 00000000004331cc
  DW_CFA_def_cfa_offset: 40
  DW_CFA_advance_loc: 2 to 00000000004331ce
  DW_CFA_def_cfa_offset: 32
  DW_CFA_advance_loc: 2 to 00000000004331d0
  DW_CFA_def_cfa_offset: 24
  DW_CFA_advance_loc: 2 to 00000000004331d2
  DW_CFA_def_cfa_offset: 16
  DW_CFA_advance_loc: 2 to 00000000004331d4
  DW_CFA_def_cfa_offset: 8
  DW_CFA_advance_loc: 5 to 00000000004331d9
  DW_CFA_restore_state
  DW_CFA_advance_loc: 46 to 0000000000433207
  DW_CFA_remember_state
  DW_CFA_def_cfa_offset: 56
  DW_CFA_advance_loc: 8 to 000000000043320f
  DW_CFA_def_cfa_offset: 48
  DW_CFA_advance_loc: 1 to 0000000000433210
  DW_CFA_def_cfa_offset: 40
  DW_CFA_advance_loc: 2 to 0000000000433212
  DW_CFA_def_cfa_offset: 32
  DW_CFA_advance_loc: 2 to 0000000000433214
  DW_CFA_def_cfa_offset: 24
  DW_CFA_advance_loc: 2 to 0000000000433216
  DW_CFA_def_cfa_offset: 16
  DW_CFA_advance_loc: 2 to 0000000000433218
  DW_CFA_def_cfa_offset: 8
  DW_CFA_advance_loc: 5 to 000000000043321d
  DW_CFA_restore_state
  DW_CFA_advance_loc: 56 to 0000000000433255
  DW_CFA_remember_state
  DW_CFA_def_cfa_offset: 56
  DW_CFA_advance_loc: 8 to 000000000043325d
  DW_CFA_def_cfa_offset: 48
  DW_CFA_advance_loc: 1 to 000000000043325e
  DW_CFA_def_cfa_offset: 40
  DW_CFA_advance_loc: 2 to 0000000000433260
  DW_CFA_def_cfa_offset: 32
  DW_CFA_advance_loc: 2 to 0000000000433262
  DW_CFA_def_cfa_offset: 24
  DW_CFA_advance_loc: 2 to 0000000000433264
  DW_CFA_def_cfa_offset: 16
  DW_CFA_advance_loc: 2 to 0000000000433266
  DW_CFA_def_cfa_offset: 8
  DW_CFA_advance_loc: 5 to 000000000043326b
  DW_CFA_restore_state
  DW_CFA_advance_loc: 46 to 0000000000433299
  DW_CFA_remember_state
  DW_CFA_def_cfa_offset: 56
  DW_CFA_advance_loc: 8 to 00000000004332a1
  DW_CFA_def_cfa_offset: 48
  DW_CFA_advance_loc: 1 to 00000000004332a2
  DW_CFA_def_cfa_offset: 40
  DW_CFA_advance_loc: 2 to 00000000004332a4
  DW_CFA_def_cfa_offset: 32
  DW_CFA_advance_loc: 2 to 00000000004332a6
  DW_CFA_def_cfa_offset: 24
  DW_CFA_advance_loc: 2 to 00000000004332a8
  DW_CFA_def_cfa_offset: 16
  DW_CFA_advance_loc: 2 to 00000000004332aa
  DW_CFA_def_cfa_offset: 8
  DW_CFA_advance_loc: 5 to 00000000004332af
  DW_CFA_restore_state
  DW_CFA_advance_loc: 56 to 00000000004332e7
  DW_CFA_remember_state
  DW_CFA_def_cfa_offset: 56
  DW_CFA_advance_loc: 8 to 00000000004332ef
  DW_CFA_def_cfa_offset: 48
  DW_CFA_advance_loc: 1 to 00000000004332f0
  DW_CFA_def_cfa_offset: 40
  DW_CFA_advance_loc: 2 to 00000000004332f2
  DW_CFA_def_cfa_offset: 32
  DW_CFA_advance_loc: 2 to 00000000004332f4
  DW_CFA_def_cfa_offset: 24
  DW_CFA_advance_loc: 2 to 00000000004332f6
  DW_CFA_def_cfa_offset: 16
  DW_CFA_advance_loc: 2 to 00000000004332f8
  DW_CFA_def_cfa_offset: 8
  DW_CFA_advance_loc: 5 to 00000000004332fd
  DW_CFA_restore_state
  DW_CFA_advance_loc: 46 to 000000000043332b
  DW_CFA_remember_state
  DW_CFA_def_cfa_offset: 56
  DW_CFA_advance_loc: 8 to 0000000000433333
  DW_CFA_def_cfa_offset: 48
  DW_CFA_advance_loc: 1 to 0000000000433334
  DW_CFA_def_cfa_offset: 40
  DW_CFA_advance_loc: 2 to 0000000000433336
  DW_CFA_def_cfa_offset: 32
  DW_CFA_advance_loc: 2 to 0000000000433338
  DW_CFA_def_cfa_offset: 24
  DW_CFA_advance_loc: 2 to 000000000043333a
  DW_CFA_def_cfa_offset: 16
  DW_CFA_advance_loc: 2 to 000000000043333c
  DW_CFA_def_cfa_offset: 8
  DW_CFA_advance_loc: 5 to 0000000000433341
  DW_CFA_restore_state
  DW_CFA_advance_loc: 56 to 0000000000433379
  DW_CFA_remember_state
  DW_CFA_def_cfa_offset: 56
  DW_CFA_advance_loc: 8 to 0000000000433381
  DW_CFA_def_cfa_offset: 48
  DW_CFA_advance_loc: 1 to 0000000000433382
  DW_CFA_def_cfa_offset: 40
  DW_CFA_advance_loc: 2 to 0000000000433384
  DW_CFA_def_cfa_offset: 32
  DW_CFA_advance_loc: 2 to 0000000000433386
  DW_CFA_def_cfa_offset: 24
  DW_CFA_advance_loc: 2 to 0000000000433388
  DW_CFA_def_cfa_offset: 16
  DW_CFA_advance_loc: 2 to 000000000043338a
  DW_CFA_def_cfa_offset: 8
  DW_CFA_advance_loc: 5 to 000000000043338f
  DW_CFA_restore_state
  DW_CFA_advance_loc: 46 to 00000000004333bd
  DW_CFA_remember_state
  DW_CFA_def_cfa_offset: 56
  DW_CFA_advance_loc: 8 to 00000000004333c5
  DW_CFA_def_cfa_offset: 48
  DW_CFA_advance_loc: 1 to 00000000004333c6
  DW_CFA_def_cfa_offset: 40
  DW_CFA_advance_loc: 2 to 00000000004333c8
  DW_CFA_def_cfa_offset: 32
  DW_CFA_advance_loc: 2 to 00000000004333ca
  DW_CFA_def_cfa_offset: 24
  DW_CFA_advance_loc: 2 to 00000000004333cc
  DW_CFA_def_cfa_offset: 16
  DW_CFA_advance_loc: 2 to 00000000004333ce
  DW_CFA_def_cfa_offset: 8
  DW_CFA_advance_loc: 5 to 00000000004333d3
  DW_CFA_restore_state
  DW_CFA_advance_loc: 56 to 000000000043340b
  DW_CFA_remember_state
  DW_CFA_def_cfa_offset: 56
  DW_CFA_advance_loc: 8 to 0000000000433413
  DW_CFA_def_cfa_offset: 48
  DW_CFA_advance_loc: 1 to 0000000000433414
  DW_CFA_def_cfa_offset: 40
  DW_CFA_advance_loc: 2 to 0000000000433416
  DW_CFA_def_cfa_offset: 32
  DW_CFA_advance_loc: 2 to 0000000000433418
  DW_CFA_def_cfa_offset: 24
  DW_CFA_advance_loc: 2 to 000000000043341a
  DW_CFA_def_cfa_offset: 16
  DW_CFA_advance_loc: 2 to 000000000043341c
  DW_CFA_def_cfa_offset: 8
  DW_CFA_advance_loc: 5 to 0000000000433421
  DW_CFA_restore_state
  DW_CFA_advance_loc: 46 to 000000000043344f
  DW_CFA_remember_state
  DW_CFA_def_cfa_offset: 56
  DW_CFA_advance_loc: 8 to 0000000000433457
  DW_CFA_def_cfa_offset: 48
  DW_CFA_advance_loc: 1 to 0000000000433458
  DW_CFA_def_cfa_offset: 40
  DW_CFA_advance_loc: 2 to 000000000043345a
  DW_CFA_def_cfa_offset: 32
  DW_CFA_advance_loc: 2 to 000000000043345c
  DW_CFA_def_cfa_offset: 24
  DW_CFA_advance_loc: 2 to 000000000043345e
  DW_CFA_def_cfa_offset: 16
  DW_CFA_advance_loc: 2 to 0000000000433460
  DW_CFA_def_cfa_offset: 8
  DW_CFA_advance_loc: 5 to 0000000000433465
  DW_CFA_restore_state
  DW_CFA_advance_loc: 56 to 000000000043349d
  DW_CFA_remember_state
  DW_CFA_def_cfa_offset: 56
  DW_CFA_advance_loc: 8 to 00000000004334a5
  DW_CFA_def_cfa_offset: 48
  DW_CFA_advance_loc: 1 to 00000000004334a6
  DW_CFA_def_cfa_offset: 40
  DW_CFA_advance_loc: 2 to 00000000004334a8
  DW_CFA_def_cfa_offset: 32
  DW_CFA_advance_loc: 2 to 00000000004334aa
  DW_CFA_def_cfa_offset: 24
  DW_CFA_advance_loc: 2 to 00000000004334ac
  DW_CFA_def_cfa_offset: 16
  DW_CFA_advance_loc: 2 to 00000000004334ae
  DW_CFA_def_cfa_offset: 8
  DW_CFA_advance_loc: 5 to 00000000004334b3
  DW_CFA_restore_state
  DW_CFA_advance_loc: 46 to 00000000004334e1
  DW_CFA_remember_state
  DW_CFA_def_cfa_offset: 56
  DW_CFA_advance_loc: 8 to 00000000004334e9
  DW_CFA_def_cfa_offset: 48
  DW_CFA_advance_loc: 1 to 00000000004334ea
  DW_CFA_def_cfa_offset: 40
  DW_CFA_advance_loc: 2 to 00000000004334ec
  DW_CFA_def_cfa_offset: 32
  DW_CFA_advance_loc: 2 to 00000000004334ee
  DW_CFA_def_cfa_offset: 24
  DW_CFA_advance_loc: 2 to 00000000004334f0
  DW_CFA_def_cfa_offset: 16
  DW_CFA_advance_loc: 2 to 00000000004334f2
  DW_CFA_def_cfa_offset: 8
  DW_CFA_advance_loc: 5 to 00000000004334f7
  DW_CFA_restore_state
  DW_CFA_advance_loc: 56 to 000000000043352f
  DW_CFA_remember_state
  DW_CFA_def_cfa_offset: 56
  DW_CFA_advance_loc: 8 to 0000000000433537
  DW_CFA_def_cfa_offset: 48
  DW_CFA_advance_loc: 1 to 0000000000433538
  DW_CFA_def_cfa_offset: 40
  DW_CFA_advance_loc: 2 to 000000000043353a
  DW_CFA_def_cfa_offset: 32
  DW_CFA_advance_loc: 2 to 000000000043353c
  DW_CFA_def_cfa_offset: 24
  DW_CFA_advance_loc: 2 to 000000000043353e
  DW_CFA_def_cfa_offset: 16
  DW_CFA_advance_loc: 2 to 0000000000433540
  DW_CFA_def_cfa_offset: 8
  DW_CFA_advance_loc: 5 to 0000000000433545
  DW_CFA_restore_state
  DW_CFA_advance_loc: 46 to 0000000000433573
  DW_CFA_remember_state
  DW_CFA_def_cfa_offset: 56
  DW_CFA_advance_loc: 8 to 000000000043357b
  DW_CFA_def_cfa_offset: 48
  DW_CFA_advance_loc: 1 to 000000000043357c
  DW_CFA_def_cfa_offset: 40
  DW_CFA_advance_loc: 2 to 000000000043357e
  DW_CFA_def_cfa_offset: 32
  DW_CFA_advance_loc: 2 to 0000000000433580
  DW_CFA_def_cfa_offset: 24
  DW_CFA_advance_loc: 2 to 0000000000433582
  DW_CFA_def_cfa_offset: 16
  DW_CFA_advance_loc: 2 to 0000000000433584
  DW_CFA_def_cfa_offset: 8
  DW_CFA_advance_loc: 5 to 0000000000433589
  DW_CFA_restore_state
  DW_CFA_advance_loc: 56 to 00000000004335c1
  DW_CFA_remember_state
  DW_CFA_def_cfa_offset: 56
  DW_CFA_advance_loc: 8 to 00000000004335c9
  DW_CFA_def_cfa_offset: 48
  DW_CFA_advance_loc: 1 to 00000000004335ca
  DW_CFA_def_cfa_offset: 40
  DW_CFA_advance_loc: 2 to 00000000004335cc
  DW_CFA_def_cfa_offset: 32
  DW_CFA_advance_loc: 2 to 00000000004335ce
  DW_CFA_def_cfa_offset: 24
  DW_CFA_advance_loc: 2 to 00000000004335d0
  DW_CFA_def_cfa_offset: 16
  DW_CFA_advance_loc: 2 to 00000000004335d2
  DW_CFA_def_cfa_offset: 8
  DW_CFA_advance_loc: 5 to 00000000004335d7
  DW_CFA_restore_state
  DW_CFA_advance_loc: 46 to 0000000000433605
  DW_CFA_remember_state
  DW_CFA_def_cfa_offset: 56
  DW_CFA_advance_loc: 8 to 000000000043360d
  DW_CFA_def_cfa_offset: 48
  DW_CFA_advance_loc: 1 to 000000000043360e
  DW_CFA_def_cfa_offset: 40
  DW_CFA_advance_loc: 2 to 0000000000433610
  DW_CFA_def_cfa_offset: 32
  DW_CFA_advance_loc: 2 to 0000000000433612
  DW_CFA_def_cfa_offset: 24
  DW_CFA_advance_loc: 2 to 0000000000433614
  DW_CFA_def_cfa_offset: 16
  DW_CFA_advance_loc: 2 to 0000000000433616
  DW_CFA_def_cfa_offset: 8
  DW_CFA_advance_loc: 5 to 000000000043361b
  DW_CFA_restore_state
  DW_CFA_advance_loc: 56 to 0000000000433653
  DW_CFA_remember_state
  DW_CFA_def_cfa_offset: 56
  DW_CFA_advance_loc: 8 to 000000000043365b
  DW_CFA_def_cfa_offset: 48
  DW_CFA_advance_loc: 1 to 000000000043365c
  DW_CFA_def_cfa_offset: 40
  DW_CFA_advance_loc: 2 to 000000000043365e
  DW_CFA_def_cfa_offset: 32
  DW_CFA_advance_loc: 2 to 0000000000433660
  DW_CFA_def_cfa_offset: 24
  DW_CFA_advance_loc: 2 to 0000000000433662
  DW_CFA_def_cfa_offset: 16
  DW_CFA_advance_loc: 2 to 0000000000433664
  DW_CFA_def_cfa_offset: 8
  DW_CFA_advance_loc: 5 to 0000000000433669
  DW_CFA_restore_state
  DW_CFA_advance_loc: 46 to 0000000000433697
  DW_CFA_remember_state
  DW_CFA_def_cfa_offset: 56
  DW_CFA_advance_loc: 8 to 000000000043369f
  DW_CFA_def_cfa_offset: 48
  DW_CFA_advance_loc: 1 to 00000000004336a0
  DW_CFA_def_cfa_offset: 40
  DW_CFA_advance_loc: 2 to 00000000004336a2
  DW_CFA_def_cfa_offset: 32
  DW_CFA_advance_loc: 2 to 00000000004336a4
  DW_CFA_def_cfa_offset: 24
  DW_CFA_advance_loc: 2 to 00000000004336a6
  DW_CFA_def_cfa_offset: 16
  DW_CFA_advance_loc: 2 to 00000000004336a8
  DW_CFA_def_cfa_offset: 8
  DW_CFA_advance_loc: 5 to 00000000004336ad
  DW_CFA_restore_state
  DW_CFA_advance_loc: 56 to 00000000004336e5
  DW_CFA_remember_state
  DW_CFA_def_cfa_offset: 56
  DW_CFA_advance_loc: 8 to 00000000004336ed
  DW_CFA_def_cfa_offset: 48
  DW_CFA_advance_loc: 1 to 00000000004336ee
  DW_CFA_def_cfa_offset: 40
  DW_CFA_advance_loc: 2 to 00000000004336f0
  DW_CFA_def_cfa_offset: 32
  DW_CFA_advance_loc: 2 to 00000000004336f2
  DW_CFA_def_cfa_offset: 24
  DW_CFA_advance_loc: 2 to 00000000004336f4
  DW_CFA_def_cfa_offset: 16
  DW_CFA_advance_loc: 2 to 00000000004336f6
  DW_CFA_def_cfa_offset: 8
  DW_CFA_advance_loc: 5 to 00000000004336fb
  DW_CFA_restore_state
  DW_CFA_advance_loc: 46 to 0000000000433729
  DW_CFA_remember_state
  DW_CFA_def_cfa_offset: 56
  DW_CFA_advance_loc: 8 to 0000000000433731
  DW_CFA_def_cfa_offset: 48
  DW_CFA_advance_loc: 1 to 0000000000433732
  DW_CFA_def_cfa_offset: 40
  DW_CFA_advance_loc: 2 to 0000000000433734
  DW_CFA_def_cfa_offset: 32
  DW_CFA_advance_loc: 2 to 0000000000433736
  DW_CFA_def_cfa_offset: 24
  DW_CFA_advance_loc: 2 to 0000000000433738
  DW_CFA_def_cfa_offset: 16
  DW_CFA_advance_loc: 2 to 000000000043373a
  DW_CFA_def_cfa_offset: 8
  DW_CFA_advance_loc: 5 to 000000000043373f
  DW_CFA_restore_state
  DW_CFA_advance_loc: 56 to 0000000000433777
  DW_CFA_remember_state
  DW_CFA_def_cfa_offset: 56
  DW_CFA_advance_loc: 8 to 000000000043377f
  DW_CFA_def_cfa_offset: 48
  DW_CFA_advance_loc: 1 to 0000000000433780
  DW_CFA_def_cfa_offset: 40
  DW_CFA_advance_loc: 2 to 0000000000433782
  DW_CFA_def_cfa_offset: 32
  DW_CFA_advance_loc: 2 to 0000000000433784
  DW_CFA_def_cfa_offset: 24
  DW_CFA_advance_loc: 2 to 0000000000433786
  DW_CFA_def_cfa_offset: 16
  DW_CFA_advance_loc: 2 to 0000000000433788
  DW_CFA_def_cfa_offset: 8
  DW_CFA_advance_loc: 5 to 000000000043378d
  DW_CFA_restore_state
  DW_CFA_advance_loc: 46 to 00000000004337bb
  DW_CFA_remember_state
  DW_CFA_def_cfa_offset: 56
  DW_CFA_advance_loc: 8 to 00000000004337c3
  DW_CFA_def_cfa_offset: 48
  DW_CFA_advance_loc: 1 to 00000000004337c4
  DW_CFA_def_cfa_offset: 40
  DW_CFA_advance_loc: 2 to 00000000004337c6
  DW_CFA_def_cfa_offset: 32
  DW_CFA_advance_loc: 2 to 00000000004337c8
  DW_CFA_def_cfa_offset: 24
  DW_CFA_advance_loc: 2 to 00000000004337ca
  DW_CFA_def_cfa_offset: 16
  DW_CFA_advance_loc: 2 to 00000000004337cc
  DW_CFA_def_cfa_offset: 8
  DW_CFA_advance_loc: 5 to 00000000004337d1
  DW_CFA_restore_state
  DW_CFA_advance_loc: 56 to 0000000000433809
  DW_CFA_remember_state
  DW_CFA_def_cfa_offset: 56
  DW_CFA_advance_loc: 8 to 0000000000433811
  DW_CFA_def_cfa_offset: 48
  DW_CFA_advance_loc: 1 to 0000000000433812
  DW_CFA_def_cfa_offset: 40
  DW_CFA_advance_loc: 2 to 0000000000433814
  DW_CFA_def_cfa_offset: 32
  DW_CFA_advance_loc: 2 to 0000000000433816
  DW_CFA_def_cfa_offset: 24
  DW_CFA_advance_loc: 2 to 0000000000433818
  DW_CFA_def_cfa_offset: 16
  DW_CFA_advance_loc: 2 to 000000000043381a
  DW_CFA_def_cfa_offset: 8
  DW_CFA_advance_loc: 5 to 000000000043381f
  DW_CFA_restore_state
  DW_CFA_advance_loc: 46 to 000000000043384d
  DW_CFA_remember_state
  DW_CFA_def_cfa_offset: 56
  DW_CFA_advance_loc: 8 to 0000000000433855
  DW_CFA_def_cfa_offset: 48
  DW_CFA_advance_loc: 1 to 0000000000433856
  DW_CFA_def_cfa_offset: 40
  DW_CFA_advance_loc: 2 to 0000000000433858
  DW_CFA_def_cfa_offset: 32
  DW_CFA_advance_loc: 2 to 000000000043385a
  DW_CFA_def_cfa_offset: 24
  DW_CFA_advance_loc: 2 to 000000000043385c
  DW_CFA_def_cfa_offset: 16
  DW_CFA_advance_loc: 2 to 000000000043385e
  DW_CFA_def_cfa_offset: 8
  DW_CFA_advance_loc: 5 to 0000000000433863
  DW_CFA_restore_state
  DW_CFA_advance_loc: 56 to 000000000043389b
  DW_CFA_remember_state
  DW_CFA_def_cfa_offset: 56
  DW_CFA_advance_loc: 8 to 00000000004338a3
  DW_CFA_def_cfa_offset: 48
  DW_CFA_advance_loc: 1 to 00000000004338a4
  DW_CFA_def_cfa_offset: 40
  DW_CFA_advance_loc: 2 to 00000000004338a6
  DW_CFA_def_cfa_offset: 32
  DW_CFA_advance_loc: 2 to 00000000004338a8
  DW_CFA_def_cfa_offset: 24
  DW_CFA_advance_loc: 2 to 00000000004338aa
  DW_CFA_def_cfa_offset: 16
  DW_CFA_advance_loc: 2 to 00000000004338ac
  DW_CFA_def_cfa_offset: 8
  DW_CFA_advance_loc: 5 to 00000000004338b1
  DW_CFA_restore_state
  DW_CFA_advance_loc: 46 to 00000000004338df
  DW_CFA_remember_state
  DW_CFA_def_cfa_offset: 56
  DW_CFA_advance_loc: 8 to 00000000004338e7
  DW_CFA_def_cfa_offset: 48
  DW_CFA_advance_loc: 1 to 00000000004338e8
  DW_CFA_def_cfa_offset: 40
  DW_CFA_advance_loc: 2 to 00000000004338ea
  DW_CFA_def_cfa_offset: 32
  DW_CFA_advance_loc: 2 to 00000000004338ec
  DW_CFA_def_cfa_offset: 24
  DW_CFA_advance_loc: 2 to 00000000004338ee
  DW_CFA_def_cfa_offset: 16
  DW_CFA_advance_loc: 2 to 00000000004338f0
  DW_CFA_def_cfa_offset: 8
  DW_CFA_advance_loc: 5 to 00000000004338f5
  DW_CFA_restore_state
  DW_CFA_advance_loc: 56 to 000000000043392d
  DW_CFA_remember_state
  DW_CFA_def_cfa_offset: 56
  DW_CFA_advance_loc: 8 to 0000000000433935
  DW_CFA_def_cfa_offset: 48
  DW_CFA_advance_loc: 1 to 0000000000433936
  DW_CFA_def_cfa_offset: 40
  DW_CFA_advance_loc: 2 to 0000000000433938
  DW_CFA_def_cfa_offset: 32
  DW_CFA_advance_loc: 2 to 000000000043393a
  DW_CFA_def_cfa_offset: 24
  DW_CFA_advance_loc: 2 to 000000000043393c
  DW_CFA_def_cfa_offset: 16
  DW_CFA_advance_loc: 2 to 000000000043393e
  DW_CFA_def_cfa_offset: 8
  DW_CFA_advance_loc: 5 to 0000000000433943
  DW_CFA_restore_state
  DW_CFA_advance_loc: 46 to 0000000000433971
  DW_CFA_remember_state
  DW_CFA_def_cfa_offset: 56
  DW_CFA_advance_loc: 8 to 0000000000433979
  DW_CFA_def_cfa_offset: 48
  DW_CFA_advance_loc: 1 to 000000000043397a
  DW_CFA_def_cfa_offset: 40
  DW_CFA_advance_loc: 2 to 000000000043397c
  DW_CFA_def_cfa_offset: 32
  DW_CFA_advance_loc: 2 to 000000000043397e
  DW_CFA_def_cfa_offset: 24
  DW_CFA_advance_loc: 2 to 0000000000433980
  DW_CFA_def_cfa_offset: 16
  DW_CFA_advance_loc: 2 to 0000000000433982
  DW_CFA_def_cfa_offset: 8
  DW_CFA_advance_loc: 5 to 0000000000433987
  DW_CFA_restore_state
  DW_CFA_advance_loc: 56 to 00000000004339bf
  DW_CFA_remember_state
  DW_CFA_def_cfa_offset: 56
  DW_CFA_advance_loc: 8 to 00000000004339c7
  DW_CFA_def_cfa_offset: 48
  DW_CFA_advance_loc: 1 to 00000000004339c8
  DW_CFA_def_cfa_offset: 40
  DW_CFA_advance_loc: 2 to 00000000004339ca
  DW_CFA_def_cfa_offset: 32
  DW_CFA_advance_loc: 2 to 00000000004339cc
  DW_CFA_def_cfa_offset: 24
  DW_CFA_advance_loc: 2 to 00000000004339ce
  DW_CFA_def_cfa_offset: 16
  DW_CFA_advance_loc: 2 to 00000000004339d0
  DW_CFA_def_cfa_offset: 8
  DW_CFA_advance_loc: 5 to 00000000004339d5
  DW_CFA_restore_state
  DW_CFA_advance_loc: 46 to 0000000000433a03
  DW_CFA_remember_state
  DW_CFA_def_cfa_offset: 56
  DW_CFA_advance_loc: 8 to 0000000000433a0b
  DW_CFA_def_cfa_offset: 48
  DW_CFA_advance_loc: 1 to 0000000000433a0c
  DW_CFA_def_cfa_offset: 40
  DW_CFA_advance_loc: 2 to 0000000000433a0e
  DW_CFA_def_cfa_offset: 32
  DW_CFA_advance_loc: 2 to 0000000000433a10
  DW_CFA_def_cfa_offset: 24
  DW_CFA_advance_loc: 2 to 0000000000433a12
  DW_CFA_def_cfa_offset: 16
  DW_CFA_advance_loc: 2 to 0000000000433a14
  DW_CFA_def_cfa_offset: 8
  DW_CFA_advance_loc: 5 to 0000000000433a19
  DW_CFA_restore_state
  DW_CFA_advance_loc: 56 to 0000000000433a51
  DW_CFA_remember_state
  DW_CFA_def_cfa_offset: 56
  DW_CFA_advance_loc: 8 to 0000000000433a59
  DW_CFA_def_cfa_offset: 48
  DW_CFA_advance_loc: 1 to 0000000000433a5a
  DW_CFA_def_cfa_offset: 40
  DW_CFA_advance_loc: 2 to 0000000000433a5c
  DW_CFA_def_cfa_offset: 32
  DW_CFA_advance_loc: 2 to 0000000000433a5e
  DW_CFA_def_cfa_offset: 24
  DW_CFA_advance_loc: 2 to 0000000000433a60
  DW_CFA_def_cfa_offset: 16
  DW_CFA_advance_loc: 2 to 0000000000433a62
  DW_CFA_def_cfa_offset: 8
  DW_CFA_advance_loc: 5 to 0000000000433a67
  DW_CFA_restore_state
  DW_CFA_advance_loc: 46 to 0000000000433a95
  DW_CFA_remember_state
  DW_CFA_def_cfa_offset: 56
  DW_CFA_advance_loc: 8 to 0000000000433a9d
  DW_CFA_def_cfa_offset: 48
  DW_CFA_advance_loc: 1 to 0000000000433a9e
  DW_CFA_def_cfa_offset: 40
  DW_CFA_advance_loc: 2 to 0000000000433aa0
  DW_CFA_def_cfa_offset: 32
  DW_CFA_advance_loc: 2 to 0000000000433aa2
  DW_CFA_def_cfa_offset: 24
  DW_CFA_advance_loc: 2 to 0000000000433aa4
  DW_CFA_def_cfa_offset: 16
  DW_CFA_advance_loc: 2 to 0000000000433aa6
  DW_CFA_def_cfa_offset: 8
  DW_CFA_advance_loc: 5 to 0000000000433aab
  DW_CFA_restore_state
  DW_CFA_advance_loc: 56 to 0000000000433ae3
  DW_CFA_remember_state
  DW_CFA_def_cfa_offset: 56
  DW_CFA_advance_loc: 8 to 0000000000433aeb
  DW_CFA_def_cfa_offset: 48
  DW_CFA_advance_loc: 1 to 0000000000433aec
  DW_CFA_def_cfa_offset: 40
  DW_CFA_advance_loc: 2 to 0000000000433aee
  DW_CFA_def_cfa_offset: 32
  DW_CFA_advance_loc: 2 to 0000000000433af0
  DW_CFA_def_cfa_offset: 24
  DW_CFA_advance_loc: 2 to 0000000000433af2
  DW_CFA_def_cfa_offset: 16
  DW_CFA_advance_loc: 2 to 0000000000433af4
  DW_CFA_def_cfa_offset: 8
  DW_CFA_advance_loc: 5 to 0000000000433af9
  DW_CFA_restore_state
  DW_CFA_advance_loc: 46 to 0000000000433b27
  DW_CFA_remember_state
  DW_CFA_def_cfa_offset: 56
  DW_CFA_advance_loc: 8 to 0000000000433b2f
  DW_CFA_def_cfa_offset: 48
  DW_CFA_advance_loc: 1 to 0000000000433b30
  DW_CFA_def_cfa_offset: 40
  DW_CFA_advance_loc: 2 to 0000000000433b32
  DW_CFA_def_cfa_offset: 32
  DW_CFA_advance_loc: 2 to 0000000000433b34
  DW_CFA_def_cfa_offset: 24
  DW_CFA_advance_loc: 2 to 0000000000433b36
  DW_CFA_def_cfa_offset: 16
  DW_CFA_advance_loc: 2 to 0000000000433b38
  DW_CFA_def_cfa_offset: 8
  DW_CFA_advance_loc: 5 to 0000000000433b3d
  DW_CFA_restore_state
  DW_CFA_advance_loc: 56 to 0000000000433b75
  DW_CFA_remember_state
  DW_CFA_def_cfa_offset: 56
  DW_CFA_advance_loc: 8 to 0000000000433b7d
  DW_CFA_def_cfa_offset: 48
  DW_CFA_advance_loc: 1 to 0000000000433b7e
  DW_CFA_def_cfa_offset: 40
  DW_CFA_advance_loc: 2 to 0000000000433b80
  DW_CFA_def_cfa_offset: 32
  DW_CFA_advance_loc: 2 to 0000000000433b82
  DW_CFA_def_cfa_offset: 24
  DW_CFA_advance_loc: 2 to 0000000000433b84
  DW_CFA_def_cfa_offset: 16
  DW_CFA_advance_loc: 2 to 0000000000433b86
  DW_CFA_def_cfa_offset: 8
  DW_CFA_advance_loc: 5 to 0000000000433b8b
  DW_CFA_restore_state
  DW_CFA_advance_loc: 46 to 0000000000433bb9
  DW_CFA_remember_state
  DW_CFA_def_cfa_offset: 56
  DW_CFA_advance_loc: 8 to 0000000000433bc1
  DW_CFA_def_cfa_offset: 48
  DW_CFA_advance_loc: 1 to 0000000000433bc2
  DW_CFA_def_cfa_offset: 40
  DW_CFA_advance_loc: 2 to 0000000000433bc4
  DW_CFA_def_cfa_offset: 32
  DW_CFA_advance_loc: 2 to 0000000000433bc6
  DW_CFA_def_cfa_offset: 24
  DW_CFA_advance_loc: 2 to 0000000000433bc8
  DW_CFA_def_cfa_offset: 16
  DW_CFA_advance_loc: 2 to 0000000000433bca
  DW_CFA_def_cfa_offset: 8
  DW_CFA_advance_loc: 5 to 0000000000433bcf
  DW_CFA_restore_state
  DW_CFA_advance_loc: 56 to 0000000000433c07
  DW_CFA_remember_state
  DW_CFA_def_cfa_offset: 56
  DW_CFA_advance_loc: 8 to 0000000000433c0f
  DW_CFA_def_cfa_offset: 48
  DW_CFA_advance_loc: 1 to 0000000000433c10
  DW_CFA_def_cfa_offset: 40
  DW_CFA_advance_loc: 2 to 0000000000433c12
  DW_CFA_def_cfa_offset: 32
  DW_CFA_advance_loc: 2 to 0000000000433c14
  DW_CFA_def_cfa_offset: 24
  DW_CFA_advance_loc: 2 to 0000000000433c16
  DW_CFA_def_cfa_offset: 16
  DW_CFA_advance_loc: 2 to 0000000000433c18
  DW_CFA_def_cfa_offset: 8
  DW_CFA_advance_loc: 5 to 0000000000433c1d
  DW_CFA_restore_state
  DW_CFA_advance_loc: 46 to 0000000000433c4b
  DW_CFA_remember_state
  DW_CFA_def_cfa_offset: 56
  DW_CFA_advance_loc: 8 to 0000000000433c53
  DW_CFA_def_cfa_offset: 48
  DW_CFA_advance_loc: 1 to 0000000000433c54
  DW_CFA_def_cfa_offset: 40
  DW_CFA_advance_loc: 2 to 0000000000433c56
  DW_CFA_def_cfa_offset: 32
  DW_CFA_advance_loc: 2 to 0000000000433c58
  DW_CFA_def_cfa_offset: 24
  DW_CFA_advance_loc: 2 to 0000000000433c5a
  DW_CFA_def_cfa_offset: 16
  DW_CFA_advance_loc: 2 to 0000000000433c5c
  DW_CFA_def_cfa_offset: 8
  DW_CFA_advance_loc: 5 to 0000000000433c61
  DW_CFA_restore_state
  DW_CFA_advance_loc: 56 to 0000000000433c99
  DW_CFA_remember_state
  DW_CFA_def_cfa_offset: 56
  DW_CFA_advance_loc: 8 to 0000000000433ca1
  DW_CFA_def_cfa_offset: 48
  DW_CFA_advance_loc: 1 to 0000000000433ca2
  DW_CFA_def_cfa_offset: 40
  DW_CFA_advance_loc: 2 to 0000000000433ca4
  DW_CFA_def_cfa_offset: 32
  DW_CFA_advance_loc: 2 to 0000000000433ca6
  DW_CFA_def_cfa_offset: 24
  DW_CFA_advance_loc: 2 to 0000000000433ca8
  DW_CFA_def_cfa_offset: 16
  DW_CFA_advance_loc: 2 to 0000000000433caa
  DW_CFA_def_cfa_offset: 8
  DW_CFA_advance_loc: 5 to 0000000000433caf
  DW_CFA_restore_state
  DW_CFA_advance_loc: 46 to 0000000000433cdd
  DW_CFA_remember_state
  DW_CFA_def_cfa_offset: 56
  DW_CFA_advance_loc: 8 to 0000000000433ce5
  DW_CFA_def_cfa_offset: 48
  DW_CFA_advance_loc: 1 to 0000000000433ce6
  DW_CFA_def_cfa_offset: 40
  DW_CFA_advance_loc: 2 to 0000000000433ce8
  DW_CFA_def_cfa_offset: 32
  DW_CFA_advance_loc: 2 to 0000000000433cea
  DW_CFA_def_cfa_offset: 24
  DW_CFA_advance_loc: 2 to 0000000000433cec
  DW_CFA_def_cfa_offset: 16
  DW_CFA_advance_loc: 2 to 0000000000433cee
  DW_CFA_def_cfa_offset: 8
  DW_CFA_advance_loc: 5 to 0000000000433cf3
  DW_CFA_restore_state
  DW_CFA_advance_loc: 56 to 0000000000433d2b
  DW_CFA_remember_state
  DW_CFA_def_cfa_offset: 56
  DW_CFA_advance_loc: 8 to 0000000000433d33
  DW_CFA_def_cfa_offset: 48
  DW_CFA_advance_loc: 1 to 0000000000433d34
  DW_CFA_def_cfa_offset: 40
  DW_CFA_advance_loc: 2 to 0000000000433d36
  DW_CFA_def_cfa_offset: 32
  DW_CFA_advance_loc: 2 to 0000000000433d38
  DW_CFA_def_cfa_offset: 24
  DW_CFA_advance_loc: 2 to 0000000000433d3a
  DW_CFA_def_cfa_offset: 16
  DW_CFA_advance_loc: 2 to 0000000000433d3c
  DW_CFA_def_cfa_offset: 8
  DW_CFA_advance_loc: 5 to 0000000000433d41
  DW_CFA_restore_state
  DW_CFA_advance_loc: 46 to 0000000000433d6f
  DW_CFA_remember_state
  DW_CFA_def_cfa_offset: 56
  DW_CFA_advance_loc: 8 to 0000000000433d77
  DW_CFA_def_cfa_offset: 48
  DW_CFA_advance_loc: 1 to 0000000000433d78
  DW_CFA_def_cfa_offset: 40
  DW_CFA_advance_loc: 2 to 0000000000433d7a
  DW_CFA_def_cfa_offset: 32
  DW_CFA_advance_loc: 2 to 0000000000433d7c
  DW_CFA_def_cfa_offset: 24
  DW_CFA_advance_loc: 2 to 0000000000433d7e
  DW_CFA_def_cfa_offset: 16
  DW_CFA_advance_loc: 2 to 0000000000433d80
  DW_CFA_def_cfa_offset: 8
  DW_CFA_advance_loc: 5 to 0000000000433d85
  DW_CFA_restore_state
  DW_CFA_advance_loc: 56 to 0000000000433dbd
  DW_CFA_remember_state
  DW_CFA_def_cfa_offset: 56
  DW_CFA_advance_loc: 8 to 0000000000433dc5
  DW_CFA_def_cfa_offset: 48
  DW_CFA_advance_loc: 1 to 0000000000433dc6
  DW_CFA_def_cfa_offset: 40
  DW_CFA_advance_loc: 2 to 0000000000433dc8
  DW_CFA_def_cfa_offset: 32
  DW_CFA_advance_loc: 2 to 0000000000433dca
  DW_CFA_def_cfa_offset: 24
  DW_CFA_advance_loc: 2 to 0000000000433dcc
  DW_CFA_def_cfa_offset: 16
  DW_CFA_advance_loc: 2 to 0000000000433dce
  DW_CFA_def_cfa_offset: 8
  DW_CFA_advance_loc: 5 to 0000000000433dd3
  DW_CFA_restore_state
  DW_CFA_advance_loc: 46 to 0000000000433e01
  DW_CFA_remember_state
  DW_CFA_def_cfa_offset: 56
  DW_CFA_advance_loc: 8 to 0000000000433e09
  DW_CFA_def_cfa_offset: 48
  DW_CFA_advance_loc: 1 to 0000000000433e0a
  DW_CFA_def_cfa_offset: 40
  DW_CFA_advance_loc: 2 to 0000000000433e0c
  DW_CFA_def_cfa_offset: 32
  DW_CFA_advance_loc: 2 to 0000000000433e0e
  DW_CFA_def_cfa_offset: 24
  DW_CFA_advance_loc: 2 to 0000000000433e10
  DW_CFA_def_cfa_offset: 16
  DW_CFA_advance_loc: 2 to 0000000000433e12
  DW_CFA_def_cfa_offset: 8
  DW_CFA_advance_loc: 5 to 0000000000433e17
  DW_CFA_restore_state
  DW_CFA_advance_loc: 56 to 0000000000433e4f
  DW_CFA_remember_state
  DW_CFA_def_cfa_offset: 56
  DW_CFA_advance_loc: 8 to 0000000000433e57
  DW_CFA_def_cfa_offset: 48
  DW_CFA_advance_loc: 1 to 0000000000433e58
  DW_CFA_def_cfa_offset: 40
  DW_CFA_advance_loc: 2 to 0000000000433e5a
  DW_CFA_def_cfa_offset: 32
  DW_CFA_advance_loc: 2 to 0000000000433e5c
  DW_CFA_def_cfa_offset: 24
  DW_CFA_advance_loc: 2 to 0000000000433e5e
  DW_CFA_def_cfa_offset: 16
  DW_CFA_advance_loc: 2 to 0000000000433e60
  DW_CFA_def_cfa_offset: 8
  DW_CFA_advance_loc: 5 to 0000000000433e65
  DW_CFA_restore_state
  DW_CFA_advance_loc: 46 to 0000000000433e93
  DW_CFA_remember_state
  DW_CFA_def_cfa_offset: 56
  DW_CFA_advance_loc: 8 to 0000000000433e9b
  DW_CFA_def_cfa_offset: 48
  DW_CFA_advance_loc: 1 to 0000000000433e9c
  DW_CFA_def_cfa_offset: 40
  DW_CFA_advance_loc: 2 to 0000000000433e9e
  DW_CFA_def_cfa_offset: 32
  DW_CFA_advance_loc: 2 to 0000000000433ea0
  DW_CFA_def_cfa_offset: 24
  DW_CFA_advance_loc: 2 to 0000000000433ea2
  DW_CFA_def_cfa_offset: 16
  DW_CFA_advance_loc: 2 to 0000000000433ea4
  DW_CFA_def_cfa_offset: 8
  DW_CFA_advance_loc: 5 to 0000000000433ea9
  DW_CFA_restore_state
  DW_CFA_advance_loc: 56 to 0000000000433ee1
  DW_CFA_remember_state
  DW_CFA_def_cfa_offset: 56
  DW_CFA_advance_loc: 8 to 0000000000433ee9
  DW_CFA_def_cfa_offset: 48
  DW_CFA_advance_loc: 1 to 0000000000433eea
  DW_CFA_def_cfa_offset: 40
  DW_CFA_advance_loc: 2 to 0000000000433eec
  DW_CFA_def_cfa_offset: 32
  DW_CFA_advance_loc: 2 to 0000000000433eee
  DW_CFA_def_cfa_offset: 24
  DW_CFA_advance_loc: 2 to 0000000000433ef0
  DW_CFA_def_cfa_offset: 16
  DW_CFA_advance_loc: 2 to 0000000000433ef2
  DW_CFA_def_cfa_offset: 8
  DW_CFA_advance_loc: 5 to 0000000000433ef7
  DW_CFA_restore_state
  DW_CFA_advance_loc: 46 to 0000000000433f25
  DW_CFA_remember_state
  DW_CFA_def_cfa_offset: 56
  DW_CFA_advance_loc: 8 to 0000000000433f2d
  DW_CFA_def_cfa_offset: 48
  DW_CFA_advance_loc: 1 to 0000000000433f2e
  DW_CFA_def_cfa_offset: 40
  DW_CFA_advance_loc: 2 to 0000000000433f30
  DW_CFA_def_cfa_offset: 32
  DW_CFA_advance_loc: 2 to 0000000000433f32
  DW_CFA_def_cfa_offset: 24
  DW_CFA_advance_loc: 2 to 0000000000433f34
  DW_CFA_def_cfa_offset: 16
  DW_CFA_advance_loc: 2 to 0000000000433f36
  DW_CFA_def_cfa_offset: 8
  DW_CFA_advance_loc: 5 to 0000000000433f3b
  DW_CFA_restore_state
  DW_CFA_advance_loc: 56 to 0000000000433f73
  DW_CFA_remember_state
  DW_CFA_def_cfa_offset: 56
  DW_CFA_advance_loc: 8 to 0000000000433f7b
  DW_CFA_def_cfa_offset: 48
  DW_CFA_advance_loc: 1 to 0000000000433f7c
  DW_CFA_def_cfa_offset: 40
  DW_CFA_advance_loc: 2 to 0000000000433f7e
  DW_CFA_def_cfa_offset: 32
  DW_CFA_advance_loc: 2 to 0000000000433f80
  DW_CFA_def_cfa_offset: 24
  DW_CFA_advance_loc: 2 to 0000000000433f82
  DW_CFA_def_cfa_offset: 16
  DW_CFA_advance_loc: 2 to 0000000000433f84
  DW_CFA_def_cfa_offset: 8
  DW_CFA_advance_loc: 5 to 0000000000433f89
  DW_CFA_restore_state
  DW_CFA_advance_loc: 46 to 0000000000433fb7
  DW_CFA_remember_state
  DW_CFA_def_cfa_offset: 56
  DW_CFA_advance_loc: 8 to 0000000000433fbf
  DW_CFA_def_cfa_offset: 48
  DW_CFA_advance_loc: 1 to 0000000000433fc0
  DW_CFA_def_cfa_offset: 40
  DW_CFA_advance_loc: 2 to 0000000000433fc2
  DW_CFA_def_cfa_offset: 32
  DW_CFA_advance_loc: 2 to 0000000000433fc4
  DW_CFA_def_cfa_offset: 24
  DW_CFA_advance_loc: 2 to 0000000000433fc6
  DW_CFA_def_cfa_offset: 16
  DW_CFA_advance_loc: 2 to 0000000000433fc8
  DW_CFA_def_cfa_offset: 8
  DW_CFA_advance_loc: 5 to 0000000000433fcd
  DW_CFA_restore_state
  DW_CFA_advance_loc: 56 to 0000000000434005
  DW_CFA_remember_state
  DW_CFA_def_cfa_offset: 56
  DW_CFA_advance_loc: 8 to 000000000043400d
  DW_CFA_def_cfa_offset: 48
  DW_CFA_advance_loc: 1 to 000000000043400e
  DW_CFA_def_cfa_offset: 40
  DW_CFA_advance_loc: 2 to 0000000000434010
  DW_CFA_def_cfa_offset: 32
  DW_CFA_advance_loc: 2 to 0000000000434012
  DW_CFA_def_cfa_offset: 24
  DW_CFA_advance_loc: 2 to 0000000000434014
  DW_CFA_def_cfa_offset: 16
  DW_CFA_advance_loc: 2 to 0000000000434016
  DW_CFA_def_cfa_offset: 8
  DW_CFA_advance_loc: 5 to 000000000043401b
  DW_CFA_restore_state
  DW_CFA_advance_loc: 46 to 0000000000434049
  DW_CFA_remember_state
  DW_CFA_def_cfa_offset: 56
  DW_CFA_advance_loc: 8 to 0000000000434051
  DW_CFA_def_cfa_offset: 48
  DW_CFA_advance_loc: 1 to 0000000000434052
  DW_CFA_def_cfa_offset: 40
  DW_CFA_advance_loc: 2 to 0000000000434054
  DW_CFA_def_cfa_offset: 32
  DW_CFA_advance_loc: 2 to 0000000000434056
  DW_CFA_def_cfa_offset: 24
  DW_CFA_advance_loc: 2 to 0000000000434058
  DW_CFA_def_cfa_offset: 16
  DW_CFA_advance_loc: 2 to 000000000043405a
  DW_CFA_def_cfa_offset: 8
  DW_CFA_advance_loc: 5 to 000000000043405f
  DW_CFA_restore_state
  DW_CFA_advance_loc: 56 to 0000000000434097
  DW_CFA_remember_state
  DW_CFA_def_cfa_offset: 56
  DW_CFA_advance_loc: 8 to 000000000043409f
  DW_CFA_def_cfa_offset: 48
  DW_CFA_advance_loc: 1 to 00000000004340a0
  DW_CFA_def_cfa_offset: 40
  DW_CFA_advance_loc: 2 to 00000000004340a2
  DW_CFA_def_cfa_offset: 32
  DW_CFA_advance_loc: 2 to 00000000004340a4
  DW_CFA_def_cfa_offset: 24
  DW_CFA_advance_loc: 2 to 00000000004340a6
  DW_CFA_def_cfa_offset: 16
  DW_CFA_advance_loc: 2 to 00000000004340a8
  DW_CFA_def_cfa_offset: 8
  DW_CFA_advance_loc: 5 to 00000000004340ad
  DW_CFA_restore_state
  DW_CFA_advance_loc: 46 to 00000000004340db
  DW_CFA_remember_state
  DW_CFA_def_cfa_offset: 56
  DW_CFA_advance_loc: 8 to 00000000004340e3
  DW_CFA_def_cfa_offset: 48
  DW_CFA_advance_loc: 1 to 00000000004340e4
  DW_CFA_def_cfa_offset: 40
  DW_CFA_advance_loc: 2 to 00000000004340e6
  DW_CFA_def_cfa_offset: 32
  DW_CFA_advance_loc: 2 to 00000000004340e8
  DW_CFA_def_cfa_offset: 24
  DW_CFA_advance_loc: 2 to 00000000004340ea
  DW_CFA_def_cfa_offset: 16
  DW_CFA_advance_loc: 2 to 00000000004340ec
  DW_CFA_def_cfa_offset: 8
  DW_CFA_advance_loc: 5 to 00000000004340f1
  DW_CFA_restore_state
  DW_CFA_advance_loc: 56 to 0000000000434129
  DW_CFA_remember_state
  DW_CFA_def_cfa_offset: 56
  DW_CFA_advance_loc: 8 to 0000000000434131
  DW_CFA_def_cfa_offset: 48
  DW_CFA_advance_loc: 1 to 0000000000434132
  DW_CFA_def_cfa_offset: 40
  DW_CFA_advance_loc: 2 to 0000000000434134
  DW_CFA_def_cfa_offset: 32
  DW_CFA_advance_loc: 2 to 0000000000434136
  DW_CFA_def_cfa_offset: 24
  DW_CFA_advance_loc: 2 to 0000000000434138
  DW_CFA_def_cfa_offset: 16
  DW_CFA_advance_loc: 2 to 000000000043413a
  DW_CFA_def_cfa_offset: 8
  DW_CFA_advance_loc: 5 to 000000000043413f
  DW_CFA_restore_state
  DW_CFA_advance_loc: 46 to 000000000043416d
  DW_CFA_remember_state
  DW_CFA_def_cfa_offset: 56
  DW_CFA_advance_loc: 8 to 0000000000434175
  DW_CFA_def_cfa_offset: 48
  DW_CFA_advance_loc: 1 to 0000000000434176
  DW_CFA_def_cfa_offset: 40
  DW_CFA_advance_loc: 2 to 0000000000434178
  DW_CFA_def_cfa_offset: 32
  DW_CFA_advance_loc: 2 to 000000000043417a
  DW_CFA_def_cfa_offset: 24
  DW_CFA_advance_loc: 2 to 000000000043417c
  DW_CFA_def_cfa_offset: 16
  DW_CFA_advance_loc: 2 to 000000000043417e
  DW_CFA_def_cfa_offset: 8
  DW_CFA_advance_loc: 5 to 0000000000434183
  DW_CFA_restore_state
  DW_CFA_advance_loc: 56 to 00000000004341bb
  DW_CFA_remember_state
  DW_CFA_def_cfa_offset: 56
  DW_CFA_advance_loc: 8 to 00000000004341c3
  DW_CFA_def_cfa_offset: 48
  DW_CFA_advance_loc: 1 to 00000000004341c4
  DW_CFA_def_cfa_offset: 40
  DW_CFA_advance_loc: 2 to 00000000004341c6
  DW_CFA_def_cfa_offset: 32
  DW_CFA_advance_loc: 2 to 00000000004341c8
  DW_CFA_def_cfa_offset: 24
  DW_CFA_advance_loc: 2 to 00000000004341ca
  DW_CFA_def_cfa_offset: 16
  DW_CFA_advance_loc: 2 to 00000000004341cc
  DW_CFA_def_cfa_offset: 8
  DW_CFA_advance_loc: 5 to 00000000004341d1
  DW_CFA_restore_state
  DW_CFA_advance_loc: 46 to 00000000004341ff
  DW_CFA_remember_state
  DW_CFA_def_cfa_offset: 56
  DW_CFA_advance_loc: 8 to 0000000000434207
  DW_CFA_def_cfa_offset: 48
  DW_CFA_advance_loc: 1 to 0000000000434208
  DW_CFA_def_cfa_offset: 40
  DW_CFA_advance_loc: 2 to 000000000043420a
  DW_CFA_def_cfa_offset: 32
  DW_CFA_advance_loc: 2 to 000000000043420c
  DW_CFA_def_cfa_offset: 24
  DW_CFA_advance_loc: 2 to 000000000043420e
  DW_CFA_def_cfa_offset: 16
  DW_CFA_advance_loc: 2 to 0000000000434210
  DW_CFA_def_cfa_offset: 8
  DW_CFA_advance_loc: 5 to 0000000000434215
  DW_CFA_restore_state
  DW_CFA_advance_loc: 56 to 000000000043424d
  DW_CFA_remember_state
  DW_CFA_def_cfa_offset: 56
  DW_CFA_advance_loc: 8 to 0000000000434255
  DW_CFA_def_cfa_offset: 48
  DW_CFA_advance_loc: 1 to 0000000000434256
  DW_CFA_def_cfa_offset: 40
  DW_CFA_advance_loc: 2 to 0000000000434258
  DW_CFA_def_cfa_offset: 32
  DW_CFA_advance_loc: 2 to 000000000043425a
  DW_CFA_def_cfa_offset: 24
  DW_CFA_advance_loc: 2 to 000000000043425c
  DW_CFA_def_cfa_offset: 16
  DW_CFA_advance_loc: 2 to 000000000043425e
  DW_CFA_def_cfa_offset: 8
  DW_CFA_advance_loc: 5 to 0000000000434263
  DW_CFA_restore_state
  DW_CFA_advance_loc: 46 to 0000000000434291
  DW_CFA_remember_state
  DW_CFA_def_cfa_offset: 56
  DW_CFA_advance_loc: 8 to 0000000000434299
  DW_CFA_def_cfa_offset: 48
  DW_CFA_advance_loc: 1 to 000000000043429a
  DW_CFA_def_cfa_offset: 40
  DW_CFA_advance_loc: 2 to 000000000043429c
  DW_CFA_def_cfa_offset: 32
  DW_CFA_advance_loc: 2 to 000000000043429e
  DW_CFA_def_cfa_offset: 24
  DW_CFA_advance_loc: 2 to 00000000004342a0
  DW_CFA_def_cfa_offset: 16
  DW_CFA_advance_loc: 2 to 00000000004342a2
  DW_CFA_def_cfa_offset: 8
  DW_CFA_advance_loc: 5 to 00000000004342a7
  DW_CFA_restore_state
  DW_CFA_advance_loc: 56 to 00000000004342df
  DW_CFA_remember_state
  DW_CFA_def_cfa_offset: 56
  DW_CFA_advance_loc: 8 to 00000000004342e7
  DW_CFA_def_cfa_offset: 48
  DW_CFA_advance_loc: 1 to 00000000004342e8
  DW_CFA_def_cfa_offset: 40
  DW_CFA_advance_loc: 2 to 00000000004342ea
  DW_CFA_def_cfa_offset: 32
  DW_CFA_advance_loc: 2 to 00000000004342ec
  DW_CFA_def_cfa_offset: 24
  DW_CFA_advance_loc: 2 to 00000000004342ee
  DW_CFA_def_cfa_offset: 16
  DW_CFA_advance_loc: 2 to 00000000004342f0
  DW_CFA_def_cfa_offset: 8
  DW_CFA_advance_loc: 5 to 00000000004342f5
  DW_CFA_restore_state
  DW_CFA_advance_loc: 46 to 0000000000434323
  DW_CFA_remember_state
  DW_CFA_def_cfa_offset: 56
  DW_CFA_advance_loc: 8 to 000000000043432b
  DW_CFA_def_cfa_offset: 48
  DW_CFA_advance_loc: 1 to 000000000043432c
  DW_CFA_def_cfa_offset: 40
  DW_CFA_advance_loc: 2 to 000000000043432e
  DW_CFA_def_cfa_offset: 32
  DW_CFA_advance_loc: 2 to 0000000000434330
  DW_CFA_def_cfa_offset: 24
  DW_CFA_advance_loc: 2 to 0000000000434332
  DW_CFA_def_cfa_offset: 16
  DW_CFA_advance_loc: 2 to 0000000000434334
  DW_CFA_def_cfa_offset: 8
  DW_CFA_advance_loc: 5 to 0000000000434339
  DW_CFA_restore_state
  DW_CFA_advance_loc: 56 to 0000000000434371
  DW_CFA_remember_state
  DW_CFA_def_cfa_offset: 56
  DW_CFA_advance_loc: 8 to 0000000000434379
  DW_CFA_def_cfa_offset: 48
  DW_CFA_advance_loc: 1 to 000000000043437a
  DW_CFA_def_cfa_offset: 40
  DW_CFA_advance_loc: 2 to 000000000043437c
  DW_CFA_def_cfa_offset: 32
  DW_CFA_advance_loc: 2 to 000000000043437e
  DW_CFA_def_cfa_offset: 24
  DW_CFA_advance_loc: 2 to 0000000000434380
  DW_CFA_def_cfa_offset: 16
  DW_CFA_advance_loc: 2 to 0000000000434382
  DW_CFA_def_cfa_offset: 8
  DW_CFA_advance_loc: 5 to 0000000000434387
  DW_CFA_restore_state
  DW_CFA_advance_loc: 46 to 00000000004343b5
  DW_CFA_remember_state
  DW_CFA_def_cfa_offset: 56
  DW_CFA_advance_loc: 8 to 00000000004343bd
  DW_CFA_def_cfa_offset: 48
  DW_CFA_advance_loc: 1 to 00000000004343be
  DW_CFA_def_cfa_offset: 40
  DW_CFA_advance_loc: 2 to 00000000004343c0
  DW_CFA_def_cfa_offset: 32
  DW_CFA_advance_loc: 2 to 00000000004343c2
  DW_CFA_def_cfa_offset: 24
  DW_CFA_advance_loc: 2 to 00000000004343c4
  DW_CFA_def_cfa_offset: 16
  DW_CFA_advance_loc: 2 to 00000000004343c6
  DW_CFA_def_cfa_offset: 8
  DW_CFA_advance_loc: 5 to 00000000004343cb
  DW_CFA_restore_state
  DW_CFA_advance_loc: 56 to 0000000000434403
  DW_CFA_remember_state
  DW_CFA_def_cfa_offset: 56
  DW_CFA_advance_loc: 8 to 000000000043440b
  DW_CFA_def_cfa_offset: 48
  DW_CFA_advance_loc: 1 to 000000000043440c
  DW_CFA_def_cfa_offset: 40
  DW_CFA_advance_loc: 2 to 000000000043440e
  DW_CFA_def_cfa_offset: 32
  DW_CFA_advance_loc: 2 to 0000000000434410
  DW_CFA_def_cfa_offset: 24
  DW_CFA_advance_loc: 2 to 0000000000434412
  DW_CFA_def_cfa_offset: 16
  DW_CFA_advance_loc: 2 to 0000000000434414
  DW_CFA_def_cfa_offset: 8
  DW_CFA_advance_loc: 5 to 0000000000434419
  DW_CFA_restore_state
  DW_CFA_advance_loc: 46 to 0000000000434447
  DW_CFA_remember_state
  DW_CFA_def_cfa_offset: 56
  DW_CFA_advance_loc: 8 to 000000000043444f
  DW_CFA_def_cfa_offset: 48
  DW_CFA_advance_loc: 1 to 0000000000434450
  DW_CFA_def_cfa_offset: 40
  DW_CFA_advance_loc: 2 to 0000000000434452
  DW_CFA_def_cfa_offset: 32
  DW_CFA_advance_loc: 2 to 0000000000434454
  DW_CFA_def_cfa_offset: 24
  DW_CFA_advance_loc: 2 to 0000000000434456
  DW_CFA_def_cfa_offset: 16
  DW_CFA_advance_loc: 2 to 0000000000434458
  DW_CFA_def_cfa_offset: 8
  DW_CFA_advance_loc: 5 to 000000000043445d
  DW_CFA_restore_state
  DW_CFA_advance_loc: 56 to 0000000000434495
  DW_CFA_remember_state
  DW_CFA_def_cfa_offset: 56
  DW_CFA_advance_loc: 8 to 000000000043449d
  DW_CFA_def_cfa_offset: 48
  DW_CFA_advance_loc: 1 to 000000000043449e
  DW_CFA_def_cfa_offset: 40
  DW_CFA_advance_loc: 2 to 00000000004344a0
  DW_CFA_def_cfa_offset: 32
  DW_CFA_advance_loc: 2 to 00000000004344a2
  DW_CFA_def_cfa_offset: 24
  DW_CFA_advance_loc: 2 to 00000000004344a4
  DW_CFA_def_cfa_offset: 16
  DW_CFA_advance_loc: 2 to 00000000004344a6
  DW_CFA_def_cfa_offset: 8
  DW_CFA_advance_loc: 5 to 00000000004344ab
  DW_CFA_restore_state
  DW_CFA_advance_loc: 46 to 00000000004344d9
  DW_CFA_remember_state
  DW_CFA_def_cfa_offset: 56
  DW_CFA_advance_loc: 8 to 00000000004344e1
  DW_CFA_def_cfa_offset: 48
  DW_CFA_advance_loc: 1 to 00000000004344e2
  DW_CFA_def_cfa_offset: 40
  DW_CFA_advance_loc: 2 to 00000000004344e4
  DW_CFA_def_cfa_offset: 32
  DW_CFA_advance_loc: 2 to 00000000004344e6
  DW_CFA_def_cfa_offset: 24
  DW_CFA_advance_loc: 2 to 00000000004344e8
  DW_CFA_def_cfa_offset: 16
  DW_CFA_advance_loc: 2 to 00000000004344ea
  DW_CFA_def_cfa_offset: 8
  DW_CFA_advance_loc: 5 to 00000000004344ef
  DW_CFA_restore_state
  DW_CFA_advance_loc: 56 to 0000000000434527
  DW_CFA_remember_state
  DW_CFA_def_cfa_offset: 56
  DW_CFA_advance_loc: 8 to 000000000043452f
  DW_CFA_def_cfa_offset: 48
  DW_CFA_advance_loc: 1 to 0000000000434530
  DW_CFA_def_cfa_offset: 40
  DW_CFA_advance_loc: 2 to 0000000000434532
  DW_CFA_def_cfa_offset: 32
  DW_CFA_advance_loc: 2 to 0000000000434534
  DW_CFA_def_cfa_offset: 24
  DW_CFA_advance_loc: 2 to 0000000000434536
  DW_CFA_def_cfa_offset: 16
  DW_CFA_advance_loc: 2 to 0000000000434538
  DW_CFA_def_cfa_offset: 8
  DW_CFA_advance_loc: 5 to 000000000043453d
  DW_CFA_restore_state
  DW_CFA_advance_loc: 46 to 000000000043456b
  DW_CFA_remember_state
  DW_CFA_def_cfa_offset: 56
  DW_CFA_advance_loc: 8 to 0000000000434573
  DW_CFA_def_cfa_offset: 48
  DW_CFA_advance_loc: 1 to 0000000000434574
  DW_CFA_def_cfa_offset: 40
  DW_CFA_advance_loc: 2 to 0000000000434576
  DW_CFA_def_cfa_offset: 32
  DW_CFA_advance_loc: 2 to 0000000000434578
  DW_CFA_def_cfa_offset: 24
  DW_CFA_advance_loc: 2 to 000000000043457a
  DW_CFA_def_cfa_offset: 16
  DW_CFA_advance_loc: 2 to 000000000043457c
  DW_CFA_def_cfa_offset: 8
  DW_CFA_advance_loc: 5 to 0000000000434581
  DW_CFA_restore_state
  DW_CFA_advance_loc: 56 to 00000000004345b9
  DW_CFA_remember_state
  DW_CFA_def_cfa_offset: 56
  DW_CFA_advance_loc: 8 to 00000000004345c1
  DW_CFA_def_cfa_offset: 48
  DW_CFA_advance_loc: 1 to 00000000004345c2
  DW_CFA_def_cfa_offset: 40
  DW_CFA_advance_loc: 2 to 00000000004345c4
  DW_CFA_def_cfa_offset: 32
  DW_CFA_advance_loc: 2 to 00000000004345c6
  DW_CFA_def_cfa_offset: 24
  DW_CFA_advance_loc: 2 to 00000000004345c8
  DW_CFA_def_cfa_offset: 16
  DW_CFA_advance_loc: 2 to 00000000004345ca
  DW_CFA_def_cfa_offset: 8
  DW_CFA_advance_loc: 5 to 00000000004345cf
  DW_CFA_restore_state
  DW_CFA_advance_loc: 46 to 00000000004345fd
  DW_CFA_remember_state
  DW_CFA_def_cfa_offset: 56
  DW_CFA_advance_loc: 8 to 0000000000434605
  DW_CFA_def_cfa_offset: 48
  DW_CFA_advance_loc: 1 to 0000000000434606
  DW_CFA_def_cfa_offset: 40
  DW_CFA_advance_loc: 2 to 0000000000434608
  DW_CFA_def_cfa_offset: 32
  DW_CFA_advance_loc: 2 to 000000000043460a
  DW_CFA_def_cfa_offset: 24
  DW_CFA_advance_loc: 2 to 000000000043460c
  DW_CFA_def_cfa_offset: 16
  DW_CFA_advance_loc: 2 to 000000000043460e
  DW_CFA_def_cfa_offset: 8
  DW_CFA_advance_loc: 5 to 0000000000434613
  DW_CFA_restore_state
  DW_CFA_advance_loc: 56 to 000000000043464b
  DW_CFA_remember_state
  DW_CFA_def_cfa_offset: 56
  DW_CFA_advance_loc: 8 to 0000000000434653
  DW_CFA_def_cfa_offset: 48
  DW_CFA_advance_loc: 1 to 0000000000434654
  DW_CFA_def_cfa_offset: 40
  DW_CFA_advance_loc: 2 to 0000000000434656
  DW_CFA_def_cfa_offset: 32
  DW_CFA_advance_loc: 2 to 0000000000434658
  DW_CFA_def_cfa_offset: 24
  DW_CFA_advance_loc: 2 to 000000000043465a
  DW_CFA_def_cfa_offset: 16
  DW_CFA_advance_loc: 2 to 000000000043465c
  DW_CFA_def_cfa_offset: 8
  DW_CFA_advance_loc: 5 to 0000000000434661
  DW_CFA_restore_state
  DW_CFA_advance_loc: 46 to 000000000043468f
  DW_CFA_remember_state
  DW_CFA_def_cfa_offset: 56
  DW_CFA_advance_loc: 8 to 0000000000434697
  DW_CFA_def_cfa_offset: 48
  DW_CFA_advance_loc: 1 to 0000000000434698
  DW_CFA_def_cfa_offset: 40
  DW_CFA_advance_loc: 2 to 000000000043469a
  DW_CFA_def_cfa_offset: 32
  DW_CFA_advance_loc: 2 to 000000000043469c
  DW_CFA_def_cfa_offset: 24
  DW_CFA_advance_loc: 2 to 000000000043469e
  DW_CFA_def_cfa_offset: 16
  DW_CFA_advance_loc: 2 to 00000000004346a0
  DW_CFA_def_cfa_offset: 8
  DW_CFA_advance_loc: 5 to 00000000004346a5
  DW_CFA_restore_state
  DW_CFA_advance_loc: 56 to 00000000004346dd
  DW_CFA_remember_state
  DW_CFA_def_cfa_offset: 56
  DW_CFA_advance_loc: 8 to 00000000004346e5
  DW_CFA_def_cfa_offset: 48
  DW_CFA_advance_loc: 1 to 00000000004346e6
  DW_CFA_def_cfa_offset: 40
  DW_CFA_advance_loc: 2 to 00000000004346e8
  DW_CFA_def_cfa_offset: 32
  DW_CFA_advance_loc: 2 to 00000000004346ea
  DW_CFA_def_cfa_offset: 24
  DW_CFA_advance_loc: 2 to 00000000004346ec
  DW_CFA_def_cfa_offset: 16
  DW_CFA_advance_loc: 2 to 00000000004346ee
  DW_CFA_def_cfa_offset: 8
  DW_CFA_advance_loc: 5 to 00000000004346f3
  DW_CFA_restore_state
  DW_CFA_advance_loc: 46 to 0000000000434721
  DW_CFA_remember_state
  DW_CFA_def_cfa_offset: 56
  DW_CFA_advance_loc: 8 to 0000000000434729
  DW_CFA_def_cfa_offset: 48
  DW_CFA_advance_loc: 1 to 000000000043472a
  DW_CFA_def_cfa_offset: 40
  DW_CFA_advance_loc: 2 to 000000000043472c
  DW_CFA_def_cfa_offset: 32
  DW_CFA_advance_loc: 2 to 000000000043472e
  DW_CFA_def_cfa_offset: 24
  DW_CFA_advance_loc: 2 to 0000000000434730
  DW_CFA_def_cfa_offset: 16
  DW_CFA_advance_loc: 2 to 0000000000434732
  DW_CFA_def_cfa_offset: 8
  DW_CFA_advance_loc: 5 to 0000000000434737
  DW_CFA_restore_state
  DW_CFA_advance_loc: 56 to 000000000043476f
  DW_CFA_remember_state
  DW_CFA_def_cfa_offset: 56
  DW_CFA_advance_loc: 8 to 0000000000434777
  DW_CFA_def_cfa_offset: 48
  DW_CFA_advance_loc: 1 to 0000000000434778
  DW_CFA_def_cfa_offset: 40
  DW_CFA_advance_loc: 2 to 000000000043477a
  DW_CFA_def_cfa_offset: 32
  DW_CFA_advance_loc: 2 to 000000000043477c
  DW_CFA_def_cfa_offset: 24
  DW_CFA_advance_loc: 2 to 000000000043477e
  DW_CFA_def_cfa_offset: 16
  DW_CFA_advance_loc: 2 to 0000000000434780
  DW_CFA_def_cfa_offset: 8
  DW_CFA_advance_loc: 5 to 0000000000434785
  DW_CFA_restore_state
  DW_CFA_advance_loc: 46 to 00000000004347b3
  DW_CFA_remember_state
  DW_CFA_def_cfa_offset: 56
  DW_CFA_advance_loc: 8 to 00000000004347bb
  DW_CFA_def_cfa_offset: 48
  DW_CFA_advance_loc: 1 to 00000000004347bc
  DW_CFA_def_cfa_offset: 40
  DW_CFA_advance_loc: 2 to 00000000004347be
  DW_CFA_def_cfa_offset: 32
  DW_CFA_advance_loc: 2 to 00000000004347c0
  DW_CFA_def_cfa_offset: 24
  DW_CFA_advance_loc: 2 to 00000000004347c2
  DW_CFA_def_cfa_offset: 16
  DW_CFA_advance_loc: 2 to 00000000004347c4
  DW_CFA_def_cfa_offset: 8
  DW_CFA_advance_loc: 5 to 00000000004347c9
  DW_CFA_restore_state
  DW_CFA_advance_loc: 56 to 0000000000434801
  DW_CFA_remember_state
  DW_CFA_def_cfa_offset: 56
  DW_CFA_advance_loc: 8 to 0000000000434809
  DW_CFA_def_cfa_offset: 48
  DW_CFA_advance_loc: 1 to 000000000043480a
  DW_CFA_def_cfa_offset: 40
  DW_CFA_advance_loc: 2 to 000000000043480c
  DW_CFA_def_cfa_offset: 32
  DW_CFA_advance_loc: 2 to 000000000043480e
  DW_CFA_def_cfa_offset: 24
  DW_CFA_advance_loc: 2 to 0000000000434810
  DW_CFA_def_cfa_offset: 16
  DW_CFA_advance_loc: 2 to 0000000000434812
  DW_CFA_def_cfa_offset: 8
  DW_CFA_advance_loc: 5 to 0000000000434817
  DW_CFA_restore_state
  DW_CFA_advance_loc: 46 to 0000000000434845
  DW_CFA_remember_state
  DW_CFA_def_cfa_offset: 56
  DW_CFA_advance_loc: 8 to 000000000043484d
  DW_CFA_def_cfa_offset: 48
  DW_CFA_advance_loc: 1 to 000000000043484e
  DW_CFA_def_cfa_offset: 40
  DW_CFA_advance_loc: 2 to 0000000000434850
  DW_CFA_def_cfa_offset: 32
  DW_CFA_advance_loc: 2 to 0000000000434852
  DW_CFA_def_cfa_offset: 24
  DW_CFA_advance_loc: 2 to 0000000000434854
  DW_CFA_def_cfa_offset: 16
  DW_CFA_advance_loc: 2 to 0000000000434856
  DW_CFA_def_cfa_offset: 8
  DW_CFA_advance_loc: 5 to 000000000043485b
  DW_CFA_restore_state
  DW_CFA_advance_loc: 56 to 0000000000434893
  DW_CFA_remember_state
  DW_CFA_def_cfa_offset: 56
  DW_CFA_advance_loc: 8 to 000000000043489b
  DW_CFA_def_cfa_offset: 48
  DW_CFA_advance_loc: 1 to 000000000043489c
  DW_CFA_def_cfa_offset: 40
  DW_CFA_advance_loc: 2 to 000000000043489e
  DW_CFA_def_cfa_offset: 32
  DW_CFA_advance_loc: 2 to 00000000004348a0
  DW_CFA_def_cfa_offset: 24
  DW_CFA_advance_loc: 2 to 00000000004348a2
  DW_CFA_def_cfa_offset: 16
  DW_CFA_advance_loc: 2 to 00000000004348a4
  DW_CFA_def_cfa_offset: 8
  DW_CFA_advance_loc: 5 to 00000000004348a9
  DW_CFA_restore_state
  DW_CFA_advance_loc: 46 to 00000000004348d7
  DW_CFA_remember_state
  DW_CFA_def_cfa_offset: 56
  DW_CFA_advance_loc: 8 to 00000000004348df
  DW_CFA_def_cfa_offset: 48
  DW_CFA_advance_loc: 1 to 00000000004348e0
  DW_CFA_def_cfa_offset: 40
  DW_CFA_advance_loc: 2 to 00000000004348e2
  DW_CFA_def_cfa_offset: 32
  DW_CFA_advance_loc: 2 to 00000000004348e4
  DW_CFA_def_cfa_offset: 24
  DW_CFA_advance_loc: 2 to 00000000004348e6
  DW_CFA_def_cfa_offset: 16
  DW_CFA_advance_loc: 2 to 00000000004348e8
  DW_CFA_def_cfa_offset: 8
  DW_CFA_advance_loc: 5 to 00000000004348ed
  DW_CFA_restore_state
  DW_CFA_advance_loc: 56 to 0000000000434925
  DW_CFA_remember_state
  DW_CFA_def_cfa_offset: 56
  DW_CFA_advance_loc: 8 to 000000000043492d
  DW_CFA_def_cfa_offset: 48
  DW_CFA_advance_loc: 1 to 000000000043492e
  DW_CFA_def_cfa_offset: 40
  DW_CFA_advance_loc: 2 to 0000000000434930
  DW_CFA_def_cfa_offset: 32
  DW_CFA_advance_loc: 2 to 0000000000434932
  DW_CFA_def_cfa_offset: 24
  DW_CFA_advance_loc: 2 to 0000000000434934
  DW_CFA_def_cfa_offset: 16
  DW_CFA_advance_loc: 2 to 0000000000434936
  DW_CFA_def_cfa_offset: 8
  DW_CFA_advance_loc: 5 to 000000000043493b
  DW_CFA_restore_state
  DW_CFA_advance_loc: 46 to 0000000000434969
  DW_CFA_remember_state
  DW_CFA_def_cfa_offset: 56
  DW_CFA_advance_loc: 8 to 0000000000434971
  DW_CFA_def_cfa_offset: 48
  DW_CFA_advance_loc: 1 to 0000000000434972
  DW_CFA_def_cfa_offset: 40
  DW_CFA_advance_loc: 2 to 0000000000434974
  DW_CFA_def_cfa_offset: 32
  DW_CFA_advance_loc: 2 to 0000000000434976
  DW_CFA_def_cfa_offset: 24
  DW_CFA_advance_loc: 2 to 0000000000434978
  DW_CFA_def_cfa_offset: 16
  DW_CFA_advance_loc: 2 to 000000000043497a
  DW_CFA_def_cfa_offset: 8
  DW_CFA_advance_loc: 5 to 000000000043497f
  DW_CFA_restore_state
  DW_CFA_advance_loc: 56 to 00000000004349b7
  DW_CFA_remember_state
  DW_CFA_def_cfa_offset: 56
  DW_CFA_advance_loc: 8 to 00000000004349bf
  DW_CFA_def_cfa_offset: 48
  DW_CFA_advance_loc: 1 to 00000000004349c0
  DW_CFA_def_cfa_offset: 40
  DW_CFA_advance_loc: 2 to 00000000004349c2
  DW_CFA_def_cfa_offset: 32
  DW_CFA_advance_loc: 2 to 00000000004349c4
  DW_CFA_def_cfa_offset: 24
  DW_CFA_advance_loc: 2 to 00000000004349c6
  DW_CFA_def_cfa_offset: 16
  DW_CFA_advance_loc: 2 to 00000000004349c8
  DW_CFA_def_cfa_offset: 8
  DW_CFA_advance_loc: 5 to 00000000004349cd
  DW_CFA_restore_state
  DW_CFA_advance_loc: 46 to 00000000004349fb
  DW_CFA_remember_state
  DW_CFA_def_cfa_offset: 56
  DW_CFA_advance_loc: 8 to 0000000000434a03
  DW_CFA_def_cfa_offset: 48
  DW_CFA_advance_loc: 1 to 0000000000434a04
  DW_CFA_def_cfa_offset: 40
  DW_CFA_advance_loc: 2 to 0000000000434a06
  DW_CFA_def_cfa_offset: 32
  DW_CFA_advance_loc: 2 to 0000000000434a08
  DW_CFA_def_cfa_offset: 24
  DW_CFA_advance_loc: 2 to 0000000000434a0a
  DW_CFA_def_cfa_offset: 16
  DW_CFA_advance_loc: 2 to 0000000000434a0c
  DW_CFA_def_cfa_offset: 8
  DW_CFA_advance_loc: 5 to 0000000000434a11
  DW_CFA_restore_state
  DW_CFA_advance_loc: 56 to 0000000000434a49
  DW_CFA_remember_state
  DW_CFA_def_cfa_offset: 56
  DW_CFA_advance_loc: 8 to 0000000000434a51
  DW_CFA_def_cfa_offset: 48
  DW_CFA_advance_loc: 1 to 0000000000434a52
  DW_CFA_def_cfa_offset: 40
  DW_CFA_advance_loc: 2 to 0000000000434a54
  DW_CFA_def_cfa_offset: 32
  DW_CFA_advance_loc: 2 to 0000000000434a56
  DW_CFA_def_cfa_offset: 24
  DW_CFA_advance_loc: 2 to 0000000000434a58
  DW_CFA_def_cfa_offset: 16
  DW_CFA_advance_loc: 2 to 0000000000434a5a
  DW_CFA_def_cfa_offset: 8
  DW_CFA_advance_loc: 5 to 0000000000434a5f
  DW_CFA_restore_state
  DW_CFA_advance_loc: 46 to 0000000000434a8d
  DW_CFA_remember_state
  DW_CFA_def_cfa_offset: 56
  DW_CFA_advance_loc: 8 to 0000000000434a95
  DW_CFA_def_cfa_offset: 48
  DW_CFA_advance_loc: 1 to 0000000000434a96
  DW_CFA_def_cfa_offset: 40
  DW_CFA_advance_loc: 2 to 0000000000434a98
  DW_CFA_def_cfa_offset: 32
  DW_CFA_advance_loc: 2 to 0000000000434a9a
  DW_CFA_def_cfa_offset: 24
  DW_CFA_advance_loc: 2 to 0000000000434a9c
  DW_CFA_def_cfa_offset: 16
  DW_CFA_advance_loc: 2 to 0000000000434a9e
  DW_CFA_def_cfa_offset: 8
  DW_CFA_advance_loc: 5 to 0000000000434aa3
  DW_CFA_restore_state
  DW_CFA_advance_loc: 56 to 0000000000434adb
  DW_CFA_remember_state
  DW_CFA_def_cfa_offset: 56
  DW_CFA_advance_loc: 8 to 0000000000434ae3
  DW_CFA_def_cfa_offset: 48
  DW_CFA_advance_loc: 1 to 0000000000434ae4
  DW_CFA_def_cfa_offset: 40
  DW_CFA_advance_loc: 2 to 0000000000434ae6
  DW_CFA_def_cfa_offset: 32
  DW_CFA_advance_loc: 2 to 0000000000434ae8
  DW_CFA_def_cfa_offset: 24
  DW_CFA_advance_loc: 2 to 0000000000434aea
  DW_CFA_def_cfa_offset: 16
  DW_CFA_advance_loc: 2 to 0000000000434aec
  DW_CFA_def_cfa_offset: 8
  DW_CFA_advance_loc: 5 to 0000000000434af1
  DW_CFA_restore_state
  DW_CFA_advance_loc: 46 to 0000000000434b1f
  DW_CFA_remember_state
  DW_CFA_def_cfa_offset: 56
  DW_CFA_advance_loc: 8 to 0000000000434b27
  DW_CFA_def_cfa_offset: 48
  DW_CFA_advance_loc: 1 to 0000000000434b28
  DW_CFA_def_cfa_offset: 40
  DW_CFA_advance_loc: 2 to 0000000000434b2a
  DW_CFA_def_cfa_offset: 32
  DW_CFA_advance_loc: 2 to 0000000000434b2c
  DW_CFA_def_cfa_offset: 24
  DW_CFA_advance_loc: 2 to 0000000000434b2e
  DW_CFA_def_cfa_offset: 16
  DW_CFA_advance_loc: 2 to 0000000000434b30
  DW_CFA_def_cfa_offset: 8
  DW_CFA_advance_loc: 5 to 0000000000434b35
  DW_CFA_restore_state
  DW_CFA_advance_loc: 56 to 0000000000434b6d
  DW_CFA_remember_state
  DW_CFA_def_cfa_offset: 56
  DW_CFA_advance_loc: 8 to 0000000000434b75
  DW_CFA_def_cfa_offset: 48
  DW_CFA_advance_loc: 1 to 0000000000434b76
  DW_CFA_def_cfa_offset: 40
  DW_CFA_advance_loc: 2 to 0000000000434b78
  DW_CFA_def_cfa_offset: 32
  DW_CFA_advance_loc: 2 to 0000000000434b7a
  DW_CFA_def_cfa_offset: 24
  DW_CFA_advance_loc: 2 to 0000000000434b7c
  DW_CFA_def_cfa_offset: 16
  DW_CFA_advance_loc: 2 to 0000000000434b7e
  DW_CFA_def_cfa_offset: 8
  DW_CFA_advance_loc: 5 to 0000000000434b83
  DW_CFA_restore_state
  DW_CFA_advance_loc: 46 to 0000000000434bb1
  DW_CFA_remember_state
  DW_CFA_def_cfa_offset: 56
  DW_CFA_advance_loc: 8 to 0000000000434bb9
  DW_CFA_def_cfa_offset: 48
  DW_CFA_advance_loc: 1 to 0000000000434bba
  DW_CFA_def_cfa_offset: 40
  DW_CFA_advance_loc: 2 to 0000000000434bbc
  DW_CFA_def_cfa_offset: 32
  DW_CFA_advance_loc: 2 to 0000000000434bbe
  DW_CFA_def_cfa_offset: 24
  DW_CFA_advance_loc: 2 to 0000000000434bc0
  DW_CFA_def_cfa_offset: 16
  DW_CFA_advance_loc: 2 to 0000000000434bc2
  DW_CFA_def_cfa_offset: 8
  DW_CFA_advance_loc: 5 to 0000000000434bc7
  DW_CFA_restore_state
  DW_CFA_advance_loc: 56 to 0000000000434bff
  DW_CFA_remember_state
  DW_CFA_def_cfa_offset: 56
  DW_CFA_advance_loc: 8 to 0000000000434c07
  DW_CFA_def_cfa_offset: 48
  DW_CFA_advance_loc: 1 to 0000000000434c08
  DW_CFA_def_cfa_offset: 40
  DW_CFA_advance_loc: 2 to 0000000000434c0a
  DW_CFA_def_cfa_offset: 32
  DW_CFA_advance_loc: 2 to 0000000000434c0c
  DW_CFA_def_cfa_offset: 24
  DW_CFA_advance_loc: 2 to 0000000000434c0e
  DW_CFA_def_cfa_offset: 16
  DW_CFA_advance_loc: 2 to 0000000000434c10
  DW_CFA_def_cfa_offset: 8
  DW_CFA_advance_loc: 5 to 0000000000434c15
  DW_CFA_restore_state
  DW_CFA_advance_loc: 46 to 0000000000434c43
  DW_CFA_remember_state
  DW_CFA_def_cfa_offset: 56
  DW_CFA_advance_loc: 8 to 0000000000434c4b
  DW_CFA_def_cfa_offset: 48
  DW_CFA_advance_loc: 1 to 0000000000434c4c
  DW_CFA_def_cfa_offset: 40
  DW_CFA_advance_loc: 2 to 0000000000434c4e
  DW_CFA_def_cfa_offset: 32
  DW_CFA_advance_loc: 2 to 0000000000434c50
  DW_CFA_def_cfa_offset: 24
  DW_CFA_advance_loc: 2 to 0000000000434c52
  DW_CFA_def_cfa_offset: 16
  DW_CFA_advance_loc: 2 to 0000000000434c54
  DW_CFA_def_cfa_offset: 8
  DW_CFA_advance_loc: 5 to 0000000000434c59
  DW_CFA_restore_state
  DW_CFA_advance_loc: 56 to 0000000000434c91
  DW_CFA_remember_state
  DW_CFA_def_cfa_offset: 56
  DW_CFA_advance_loc: 8 to 0000000000434c99
  DW_CFA_def_cfa_offset: 48
  DW_CFA_advance_loc: 1 to 0000000000434c9a
  DW_CFA_def_cfa_offset: 40
  DW_CFA_advance_loc: 2 to 0000000000434c9c
  DW_CFA_def_cfa_offset: 32
  DW_CFA_advance_loc: 2 to 0000000000434c9e
  DW_CFA_def_cfa_offset: 24
  DW_CFA_advance_loc: 2 to 0000000000434ca0
  DW_CFA_def_cfa_offset: 16
  DW_CFA_advance_loc: 2 to 0000000000434ca2
  DW_CFA_def_cfa_offset: 8
  DW_CFA_advance_loc: 5 to 0000000000434ca7
  DW_CFA_restore_state
  DW_CFA_advance_loc: 46 to 0000000000434cd5
  DW_CFA_remember_state
  DW_CFA_def_cfa_offset: 56
  DW_CFA_advance_loc: 8 to 0000000000434cdd
  DW_CFA_def_cfa_offset: 48
  DW_CFA_advance_loc: 1 to 0000000000434cde
  DW_CFA_def_cfa_offset: 40
  DW_CFA_advance_loc: 2 to 0000000000434ce0
  DW_CFA_def_cfa_offset: 32
  DW_CFA_advance_loc: 2 to 0000000000434ce2
  DW_CFA_def_cfa_offset: 24
  DW_CFA_advance_loc: 2 to 0000000000434ce4
  DW_CFA_def_cfa_offset: 16
  DW_CFA_advance_loc: 2 to 0000000000434ce6
  DW_CFA_def_cfa_offset: 8
  DW_CFA_advance_loc: 5 to 0000000000434ceb
  DW_CFA_restore_state
  DW_CFA_advance_loc: 56 to 0000000000434d23
  DW_CFA_remember_state
  DW_CFA_def_cfa_offset: 56
  DW_CFA_advance_loc: 8 to 0000000000434d2b
  DW_CFA_def_cfa_offset: 48
  DW_CFA_advance_loc: 1 to 0000000000434d2c
  DW_CFA_def_cfa_offset: 40
  DW_CFA_advance_loc: 2 to 0000000000434d2e
  DW_CFA_def_cfa_offset: 32
  DW_CFA_advance_loc: 2 to 0000000000434d30
  DW_CFA_def_cfa_offset: 24
  DW_CFA_advance_loc: 2 to 0000000000434d32
  DW_CFA_def_cfa_offset: 16
  DW_CFA_advance_loc: 2 to 0000000000434d34
  DW_CFA_def_cfa_offset: 8
  DW_CFA_advance_loc: 5 to 0000000000434d39
  DW_CFA_restore_state
  DW_CFA_advance_loc: 46 to 0000000000434d67
  DW_CFA_remember_state
  DW_CFA_def_cfa_offset: 56
  DW_CFA_advance_loc: 8 to 0000000000434d6f
  DW_CFA_def_cfa_offset: 48
  DW_CFA_advance_loc: 1 to 0000000000434d70
  DW_CFA_def_cfa_offset: 40
  DW_CFA_advance_loc: 2 to 0000000000434d72
  DW_CFA_def_cfa_offset: 32
  DW_CFA_advance_loc: 2 to 0000000000434d74
  DW_CFA_def_cfa_offset: 24
  DW_CFA_advance_loc: 2 to 0000000000434d76
  DW_CFA_def_cfa_offset: 16
  DW_CFA_advance_loc: 2 to 0000000000434d78
  DW_CFA_def_cfa_offset: 8
  DW_CFA_advance_loc: 5 to 0000000000434d7d
  DW_CFA_restore_state
  DW_CFA_advance_loc: 56 to 0000000000434db5
  DW_CFA_remember_state
  DW_CFA_def_cfa_offset: 56
  DW_CFA_advance_loc: 8 to 0000000000434dbd
  DW_CFA_def_cfa_offset: 48
  DW_CFA_advance_loc: 1 to 0000000000434dbe
  DW_CFA_def_cfa_offset: 40
  DW_CFA_advance_loc: 2 to 0000000000434dc0
  DW_CFA_def_cfa_offset: 32
  DW_CFA_advance_loc: 2 to 0000000000434dc2
  DW_CFA_def_cfa_offset: 24
  DW_CFA_advance_loc: 2 to 0000000000434dc4
  DW_CFA_def_cfa_offset: 16
  DW_CFA_advance_loc: 2 to 0000000000434dc6
  DW_CFA_def_cfa_offset: 8
  DW_CFA_advance_loc: 5 to 0000000000434dcb
  DW_CFA_restore_state
  DW_CFA_advance_loc: 46 to 0000000000434df9
  DW_CFA_remember_state
  DW_CFA_def_cfa_offset: 56
  DW_CFA_advance_loc: 8 to 0000000000434e01
  DW_CFA_def_cfa_offset: 48
  DW_CFA_advance_loc: 1 to 0000000000434e02
  DW_CFA_def_cfa_offset: 40
  DW_CFA_advance_loc: 2 to 0000000000434e04
  DW_CFA_def_cfa_offset: 32
  DW_CFA_advance_loc: 2 to 0000000000434e06
  DW_CFA_def_cfa_offset: 24
  DW_CFA_advance_loc: 2 to 0000000000434e08
  DW_CFA_def_cfa_offset: 16
  DW_CFA_advance_loc: 2 to 0000000000434e0a
  DW_CFA_def_cfa_offset: 8
  DW_CFA_advance_loc: 5 to 0000000000434e0f
  DW_CFA_restore_state
  DW_CFA_advance_loc: 56 to 0000000000434e47
  DW_CFA_remember_state
  DW_CFA_def_cfa_offset: 56
  DW_CFA_advance_loc: 8 to 0000000000434e4f
  DW_CFA_def_cfa_offset: 48
  DW_CFA_advance_loc: 1 to 0000000000434e50
  DW_CFA_def_cfa_offset: 40
  DW_CFA_advance_loc: 2 to 0000000000434e52
  DW_CFA_def_cfa_offset: 32
  DW_CFA_advance_loc: 2 to 0000000000434e54
  DW_CFA_def_cfa_offset: 24
  DW_CFA_advance_loc: 2 to 0000000000434e56
  DW_CFA_def_cfa_offset: 16
  DW_CFA_advance_loc: 2 to 0000000000434e58
  DW_CFA_def_cfa_offset: 8
  DW_CFA_advance_loc: 5 to 0000000000434e5d
  DW_CFA_restore_state
  DW_CFA_advance_loc: 46 to 0000000000434e8b
  DW_CFA_remember_state
  DW_CFA_def_cfa_offset: 56
  DW_CFA_advance_loc: 8 to 0000000000434e93
  DW_CFA_def_cfa_offset: 48
  DW_CFA_advance_loc: 1 to 0000000000434e94
  DW_CFA_def_cfa_offset: 40
  DW_CFA_advance_loc: 2 to 0000000000434e96
  DW_CFA_def_cfa_offset: 32
  DW_CFA_advance_loc: 2 to 0000000000434e98
  DW_CFA_def_cfa_offset: 24
  DW_CFA_advance_loc: 2 to 0000000000434e9a
  DW_CFA_def_cfa_offset: 16
  DW_CFA_advance_loc: 2 to 0000000000434e9c
  DW_CFA_def_cfa_offset: 8
  DW_CFA_advance_loc: 5 to 0000000000434ea1
  DW_CFA_restore_state
  DW_CFA_advance_loc: 56 to 0000000000434ed9
  DW_CFA_remember_state
  DW_CFA_def_cfa_offset: 56
  DW_CFA_advance_loc: 8 to 0000000000434ee1
  DW_CFA_def_cfa_offset: 48
  DW_CFA_advance_loc: 1 to 0000000000434ee2
  DW_CFA_def_cfa_offset: 40
  DW_CFA_advance_loc: 2 to 0000000000434ee4
  DW_CFA_def_cfa_offset: 32
  DW_CFA_advance_loc: 2 to 0000000000434ee6
  DW_CFA_def_cfa_offset: 24
  DW_CFA_advance_loc: 2 to 0000000000434ee8
  DW_CFA_def_cfa_offset: 16
  DW_CFA_advance_loc: 2 to 0000000000434eea
  DW_CFA_def_cfa_offset: 8
  DW_CFA_advance_loc: 5 to 0000000000434eef
  DW_CFA_restore_state
  DW_CFA_advance_loc: 46 to 0000000000434f1d
  DW_CFA_remember_state
  DW_CFA_def_cfa_offset: 56
  DW_CFA_advance_loc: 8 to 0000000000434f25
  DW_CFA_def_cfa_offset: 48
  DW_CFA_advance_loc: 1 to 0000000000434f26
  DW_CFA_def_cfa_offset: 40
  DW_CFA_advance_loc: 2 to 0000000000434f28
  DW_CFA_def_cfa_offset: 32
  DW_CFA_advance_loc: 2 to 0000000000434f2a
  DW_CFA_def_cfa_offset: 24
  DW_CFA_advance_loc: 2 to 0000000000434f2c
  DW_CFA_def_cfa_offset: 16
  DW_CFA_advance_loc: 2 to 0000000000434f2e
  DW_CFA_def_cfa_offset: 8
  DW_CFA_advance_loc: 5 to 0000000000434f33
  DW_CFA_restore_state
  DW_CFA_advance_loc: 56 to 0000000000434f6b
  DW_CFA_remember_state
  DW_CFA_def_cfa_offset: 56
  DW_CFA_advance_loc: 8 to 0000000000434f73
  DW_CFA_def_cfa_offset: 48
  DW_CFA_advance_loc: 1 to 0000000000434f74
  DW_CFA_def_cfa_offset: 40
  DW_CFA_advance_loc: 2 to 0000000000434f76
  DW_CFA_def_cfa_offset: 32
  DW_CFA_advance_loc: 2 to 0000000000434f78
  DW_CFA_def_cfa_offset: 24
  DW_CFA_advance_loc: 2 to 0000000000434f7a
  DW_CFA_def_cfa_offset: 16
  DW_CFA_advance_loc: 2 to 0000000000434f7c
  DW_CFA_def_cfa_offset: 8
  DW_CFA_advance_loc: 5 to 0000000000434f81
  DW_CFA_restore_state
  DW_CFA_advance_loc: 46 to 0000000000434faf
  DW_CFA_remember_state
  DW_CFA_def_cfa_offset: 56
  DW_CFA_advance_loc: 8 to 0000000000434fb7
  DW_CFA_def_cfa_offset: 48
  DW_CFA_advance_loc: 1 to 0000000000434fb8
  DW_CFA_def_cfa_offset: 40
  DW_CFA_advance_loc: 2 to 0000000000434fba
  DW_CFA_def_cfa_offset: 32
  DW_CFA_advance_loc: 2 to 0000000000434fbc
  DW_CFA_def_cfa_offset: 24
  DW_CFA_advance_loc: 2 to 0000000000434fbe
  DW_CFA_def_cfa_offset: 16
  DW_CFA_advance_loc: 2 to 0000000000434fc0
  DW_CFA_def_cfa_offset: 8
  DW_CFA_advance_loc: 5 to 0000000000434fc5
  DW_CFA_restore_state
  DW_CFA_advance_loc: 56 to 0000000000434ffd
  DW_CFA_remember_state
  DW_CFA_def_cfa_offset: 56
  DW_CFA_advance_loc: 8 to 0000000000435005
  DW_CFA_def_cfa_offset: 48
  DW_CFA_advance_loc: 1 to 0000000000435006
  DW_CFA_def_cfa_offset: 40
  DW_CFA_advance_loc: 2 to 0000000000435008
  DW_CFA_def_cfa_offset: 32
  DW_CFA_advance_loc: 2 to 000000000043500a
  DW_CFA_def_cfa_offset: 24
  DW_CFA_advance_loc: 2 to 000000000043500c
  DW_CFA_def_cfa_offset: 16
  DW_CFA_advance_loc: 2 to 000000000043500e
  DW_CFA_def_cfa_offset: 8
  DW_CFA_advance_loc: 5 to 0000000000435013
  DW_CFA_restore_state
  DW_CFA_advance_loc: 46 to 0000000000435041
  DW_CFA_remember_state
  DW_CFA_def_cfa_offset: 56
  DW_CFA_advance_loc: 8 to 0000000000435049
  DW_CFA_def_cfa_offset: 48
  DW_CFA_advance_loc: 1 to 000000000043504a
  DW_CFA_def_cfa_offset: 40
  DW_CFA_advance_loc: 2 to 000000000043504c
  DW_CFA_def_cfa_offset: 32
  DW_CFA_advance_loc: 2 to 000000000043504e
  DW_CFA_def_cfa_offset: 24
  DW_CFA_advance_loc: 2 to 0000000000435050
  DW_CFA_def_cfa_offset: 16
  DW_CFA_advance_loc: 2 to 0000000000435052
  DW_CFA_def_cfa_offset: 8
  DW_CFA_advance_loc: 5 to 0000000000435057
  DW_CFA_restore_state
  DW_CFA_advance_loc: 56 to 000000000043508f
  DW_CFA_remember_state
  DW_CFA_def_cfa_offset: 56
  DW_CFA_advance_loc: 8 to 0000000000435097
  DW_CFA_def_cfa_offset: 48
  DW_CFA_advance_loc: 1 to 0000000000435098
  DW_CFA_def_cfa_offset: 40
  DW_CFA_advance_loc: 2 to 000000000043509a
  DW_CFA_def_cfa_offset: 32
  DW_CFA_advance_loc: 2 to 000000000043509c
  DW_CFA_def_cfa_offset: 24
  DW_CFA_advance_loc: 2 to 000000000043509e
  DW_CFA_def_cfa_offset: 16
  DW_CFA_advance_loc: 2 to 00000000004350a0
  DW_CFA_def_cfa_offset: 8
  DW_CFA_advance_loc: 5 to 00000000004350a5
  DW_CFA_restore_state
  DW_CFA_advance_loc: 46 to 00000000004350d3
  DW_CFA_remember_state
  DW_CFA_def_cfa_offset: 56
  DW_CFA_advance_loc: 8 to 00000000004350db
  DW_CFA_def_cfa_offset: 48
  DW_CFA_advance_loc: 1 to 00000000004350dc
  DW_CFA_def_cfa_offset: 40
  DW_CFA_advance_loc: 2 to 00000000004350de
  DW_CFA_def_cfa_offset: 32
  DW_CFA_advance_loc: 2 to 00000000004350e0
  DW_CFA_def_cfa_offset: 24
  DW_CFA_advance_loc: 2 to 00000000004350e2
  DW_CFA_def_cfa_offset: 16
  DW_CFA_advance_loc: 2 to 00000000004350e4
  DW_CFA_def_cfa_offset: 8
  DW_CFA_advance_loc: 5 to 00000000004350e9
  DW_CFA_restore_state
  DW_CFA_advance_loc: 56 to 0000000000435121
  DW_CFA_remember_state
  DW_CFA_def_cfa_offset: 56
  DW_CFA_advance_loc: 8 to 0000000000435129
  DW_CFA_def_cfa_offset: 48
  DW_CFA_advance_loc: 1 to 000000000043512a
  DW_CFA_def_cfa_offset: 40
  DW_CFA_advance_loc: 2 to 000000000043512c
  DW_CFA_def_cfa_offset: 32
  DW_CFA_advance_loc: 2 to 000000000043512e
  DW_CFA_def_cfa_offset: 24
  DW_CFA_advance_loc: 2 to 0000000000435130
  DW_CFA_def_cfa_offset: 16
  DW_CFA_advance_loc: 2 to 0000000000435132
  DW_CFA_def_cfa_offset: 8
  DW_CFA_advance_loc: 5 to 0000000000435137
  DW_CFA_restore_state
  DW_CFA_advance_loc: 46 to 0000000000435165
  DW_CFA_remember_state
  DW_CFA_def_cfa_offset: 56
  DW_CFA_advance_loc: 8 to 000000000043516d
  DW_CFA_def_cfa_offset: 48
  DW_CFA_advance_loc: 1 to 000000000043516e
  DW_CFA_def_cfa_offset: 40
  DW_CFA_advance_loc: 2 to 0000000000435170
  DW_CFA_def_cfa_offset: 32
  DW_CFA_advance_loc: 2 to 0000000000435172
  DW_CFA_def_cfa_offset: 24
  DW_CFA_advance_loc: 2 to 0000000000435174
  DW_CFA_def_cfa_offset: 16
  DW_CFA_advance_loc: 2 to 0000000000435176
  DW_CFA_def_cfa_offset: 8
  DW_CFA_advance_loc: 5 to 000000000043517b
  DW_CFA_restore_state
  DW_CFA_advance_loc: 56 to 00000000004351b3
  DW_CFA_remember_state
  DW_CFA_def_cfa_offset: 56
  DW_CFA_advance_loc: 8 to 00000000004351bb
  DW_CFA_def_cfa_offset: 48
  DW_CFA_advance_loc: 1 to 00000000004351bc
  DW_CFA_def_cfa_offset: 40
  DW_CFA_advance_loc: 2 to 00000000004351be
  DW_CFA_def_cfa_offset: 32
  DW_CFA_advance_loc: 2 to 00000000004351c0
  DW_CFA_def_cfa_offset: 24
  DW_CFA_advance_loc: 2 to 00000000004351c2
  DW_CFA_def_cfa_offset: 16
  DW_CFA_advance_loc: 2 to 00000000004351c4
  DW_CFA_def_cfa_offset: 8
  DW_CFA_advance_loc: 5 to 00000000004351c9
  DW_CFA_restore_state
  DW_CFA_advance_loc: 46 to 00000000004351f7
  DW_CFA_remember_state
  DW_CFA_def_cfa_offset: 56
  DW_CFA_advance_loc: 8 to 00000000004351ff
  DW_CFA_def_cfa_offset: 48
  DW_CFA_advance_loc: 1 to 0000000000435200
  DW_CFA_def_cfa_offset: 40
  DW_CFA_advance_loc: 2 to 0000000000435202
  DW_CFA_def_cfa_offset: 32
  DW_CFA_advance_loc: 2 to 0000000000435204
  DW_CFA_def_cfa_offset: 24
  DW_CFA_advance_loc: 2 to 0000000000435206
  DW_CFA_def_cfa_offset: 16
  DW_CFA_advance_loc: 2 to 0000000000435208
  DW_CFA_def_cfa_offset: 8
  DW_CFA_advance_loc: 5 to 000000000043520d
  DW_CFA_restore_state
  DW_CFA_advance_loc: 56 to 0000000000435245
  DW_CFA_remember_state
  DW_CFA_def_cfa_offset: 56
  DW_CFA_advance_loc: 8 to 000000000043524d
  DW_CFA_def_cfa_offset: 48
  DW_CFA_advance_loc: 1 to 000000000043524e
  DW_CFA_def_cfa_offset: 40
  DW_CFA_advance_loc: 2 to 0000000000435250
  DW_CFA_def_cfa_offset: 32
  DW_CFA_advance_loc: 2 to 0000000000435252
  DW_CFA_def_cfa_offset: 24
  DW_CFA_advance_loc: 2 to 0000000000435254
  DW_CFA_def_cfa_offset: 16
  DW_CFA_advance_loc: 2 to 0000000000435256
  DW_CFA_def_cfa_offset: 8
  DW_CFA_advance_loc: 5 to 000000000043525b
  DW_CFA_restore_state
  DW_CFA_advance_loc: 46 to 0000000000435289
  DW_CFA_remember_state
  DW_CFA_def_cfa_offset: 56
  DW_CFA_advance_loc: 8 to 0000000000435291
  DW_CFA_def_cfa_offset: 48
  DW_CFA_advance_loc: 1 to 0000000000435292
  DW_CFA_def_cfa_offset: 40
  DW_CFA_advance_loc: 2 to 0000000000435294
  DW_CFA_def_cfa_offset: 32
  DW_CFA_advance_loc: 2 to 0000000000435296
  DW_CFA_def_cfa_offset: 24
  DW_CFA_advance_loc: 2 to 0000000000435298
  DW_CFA_def_cfa_offset: 16
  DW_CFA_advance_loc: 2 to 000000000043529a
  DW_CFA_def_cfa_offset: 8
  DW_CFA_advance_loc: 5 to 000000000043529f
  DW_CFA_restore_state
  DW_CFA_advance_loc: 56 to 00000000004352d7
  DW_CFA_remember_state
  DW_CFA_def_cfa_offset: 56
  DW_CFA_advance_loc: 8 to 00000000004352df
  DW_CFA_def_cfa_offset: 48
  DW_CFA_advance_loc: 1 to 00000000004352e0
  DW_CFA_def_cfa_offset: 40
  DW_CFA_advance_loc: 2 to 00000000004352e2
  DW_CFA_def_cfa_offset: 32
  DW_CFA_advance_loc: 2 to 00000000004352e4
  DW_CFA_def_cfa_offset: 24
  DW_CFA_advance_loc: 2 to 00000000004352e6
  DW_CFA_def_cfa_offset: 16
  DW_CFA_advance_loc: 2 to 00000000004352e8
  DW_CFA_def_cfa_offset: 8
  DW_CFA_advance_loc: 5 to 00000000004352ed
  DW_CFA_restore_state
  DW_CFA_advance_loc: 46 to 000000000043531b
  DW_CFA_remember_state
  DW_CFA_def_cfa_offset: 56
  DW_CFA_advance_loc: 8 to 0000000000435323
  DW_CFA_def_cfa_offset: 48
  DW_CFA_advance_loc: 1 to 0000000000435324
  DW_CFA_def_cfa_offset: 40
  DW_CFA_advance_loc: 2 to 0000000000435326
  DW_CFA_def_cfa_offset: 32
  DW_CFA_advance_loc: 2 to 0000000000435328
  DW_CFA_def_cfa_offset: 24
  DW_CFA_advance_loc: 2 to 000000000043532a
  DW_CFA_def_cfa_offset: 16
  DW_CFA_advance_loc: 2 to 000000000043532c
  DW_CFA_def_cfa_offset: 8
  DW_CFA_advance_loc: 5 to 0000000000435331
  DW_CFA_restore_state
  DW_CFA_advance_loc: 56 to 0000000000435369
  DW_CFA_remember_state
  DW_CFA_def_cfa_offset: 56
  DW_CFA_advance_loc: 8 to 0000000000435371
  DW_CFA_def_cfa_offset: 48
  DW_CFA_advance_loc: 1 to 0000000000435372
  DW_CFA_def_cfa_offset: 40
  DW_CFA_advance_loc: 2 to 0000000000435374
  DW_CFA_def_cfa_offset: 32
  DW_CFA_advance_loc: 2 to 0000000000435376
  DW_CFA_def_cfa_offset: 24
  DW_CFA_advance_loc: 2 to 0000000000435378
  DW_CFA_def_cfa_offset: 16
  DW_CFA_advance_loc: 2 to 000000000043537a
  DW_CFA_def_cfa_offset: 8
  DW_CFA_advance_loc: 5 to 000000000043537f
  DW_CFA_restore_state
  DW_CFA_advance_loc: 46 to 00000000004353ad
  DW_CFA_remember_state
  DW_CFA_def_cfa_offset: 56
  DW_CFA_advance_loc: 8 to 00000000004353b5
  DW_CFA_def_cfa_offset: 48
  DW_CFA_advance_loc: 1 to 00000000004353b6
  DW_CFA_def_cfa_offset: 40
  DW_CFA_advance_loc: 2 to 00000000004353b8
  DW_CFA_def_cfa_offset: 32
  DW_CFA_advance_loc: 2 to 00000000004353ba
  DW_CFA_def_cfa_offset: 24
  DW_CFA_advance_loc: 2 to 00000000004353bc
  DW_CFA_def_cfa_offset: 16
  DW_CFA_advance_loc: 2 to 00000000004353be
  DW_CFA_def_cfa_offset: 8
  DW_CFA_advance_loc: 5 to 00000000004353c3
  DW_CFA_restore_state
  DW_CFA_advance_loc: 56 to 00000000004353fb
  DW_CFA_remember_state
  DW_CFA_def_cfa_offset: 56
  DW_CFA_advance_loc: 8 to 0000000000435403
  DW_CFA_def_cfa_offset: 48
  DW_CFA_advance_loc: 1 to 0000000000435404
  DW_CFA_def_cfa_offset: 40
  DW_CFA_advance_loc: 2 to 0000000000435406
  DW_CFA_def_cfa_offset: 32
  DW_CFA_advance_loc: 2 to 0000000000435408
  DW_CFA_def_cfa_offset: 24
  DW_CFA_advance_loc: 2 to 000000000043540a
  DW_CFA_def_cfa_offset: 16
  DW_CFA_advance_loc: 2 to 000000000043540c
  DW_CFA_def_cfa_offset: 8
  DW_CFA_advance_loc: 5 to 0000000000435411
  DW_CFA_restore_state
  DW_CFA_advance_loc: 46 to 000000000043543f
  DW_CFA_remember_state
  DW_CFA_def_cfa_offset: 56
  DW_CFA_advance_loc: 8 to 0000000000435447
  DW_CFA_def_cfa_offset: 48
  DW_CFA_advance_loc: 1 to 0000000000435448
  DW_CFA_def_cfa_offset: 40
  DW_CFA_advance_loc: 2 to 000000000043544a
  DW_CFA_def_cfa_offset: 32
  DW_CFA_advance_loc: 2 to 000000000043544c
  DW_CFA_def_cfa_offset: 24
  DW_CFA_advance_loc: 2 to 000000000043544e
  DW_CFA_def_cfa_offset: 16
  DW_CFA_advance_loc: 2 to 0000000000435450
  DW_CFA_def_cfa_offset: 8
  DW_CFA_advance_loc: 5 to 0000000000435455
  DW_CFA_restore_state
  DW_CFA_advance_loc: 56 to 000000000043548d
  DW_CFA_remember_state
  DW_CFA_def_cfa_offset: 56
  DW_CFA_advance_loc: 8 to 0000000000435495
  DW_CFA_def_cfa_offset: 48
  DW_CFA_advance_loc: 1 to 0000000000435496
  DW_CFA_def_cfa_offset: 40
  DW_CFA_advance_loc: 2 to 0000000000435498
  DW_CFA_def_cfa_offset: 32
  DW_CFA_advance_loc: 2 to 000000000043549a
  DW_CFA_def_cfa_offset: 24
  DW_CFA_advance_loc: 2 to 000000000043549c
  DW_CFA_def_cfa_offset: 16
  DW_CFA_advance_loc: 2 to 000000000043549e
  DW_CFA_def_cfa_offset: 8
  DW_CFA_advance_loc: 5 to 00000000004354a3
  DW_CFA_restore_state
  DW_CFA_advance_loc: 46 to 00000000004354d1
  DW_CFA_remember_state
  DW_CFA_def_cfa_offset: 56
  DW_CFA_advance_loc: 8 to 00000000004354d9
  DW_CFA_def_cfa_offset: 48
  DW_CFA_advance_loc: 1 to 00000000004354da
  DW_CFA_def_cfa_offset: 40
  DW_CFA_advance_loc: 2 to 00000000004354dc
  DW_CFA_def_cfa_offset: 32
  DW_CFA_advance_loc: 2 to 00000000004354de
  DW_CFA_def_cfa_offset: 24
  DW_CFA_advance_loc: 2 to 00000000004354e0
  DW_CFA_def_cfa_offset: 16
  DW_CFA_advance_loc: 2 to 00000000004354e2
  DW_CFA_def_cfa_offset: 8
  DW_CFA_advance_loc: 5 to 00000000004354e7
  DW_CFA_restore_state
  DW_CFA_advance_loc: 56 to 000000000043551f
  DW_CFA_remember_state
  DW_CFA_def_cfa_offset: 56
  DW_CFA_advance_loc: 8 to 0000000000435527
  DW_CFA_def_cfa_offset: 48
  DW_CFA_advance_loc: 1 to 0000000000435528
  DW_CFA_def_cfa_offset: 40
  DW_CFA_advance_loc: 2 to 000000000043552a
  DW_CFA_def_cfa_offset: 32
  DW_CFA_advance_loc: 2 to 000000000043552c
  DW_CFA_def_cfa_offset: 24
  DW_CFA_advance_loc: 2 to 000000000043552e
  DW_CFA_def_cfa_offset: 16
  DW_CFA_advance_loc: 2 to 0000000000435530
  DW_CFA_def_cfa_offset: 8
  DW_CFA_advance_loc: 5 to 0000000000435535
  DW_CFA_restore_state
  DW_CFA_advance_loc: 46 to 0000000000435563
  DW_CFA_remember_state
  DW_CFA_def_cfa_offset: 56
  DW_CFA_advance_loc: 8 to 000000000043556b
  DW_CFA_def_cfa_offset: 48
  DW_CFA_advance_loc: 1 to 000000000043556c
  DW_CFA_def_cfa_offset: 40
  DW_CFA_advance_loc: 2 to 000000000043556e
  DW_CFA_def_cfa_offset: 32
  DW_CFA_advance_loc: 2 to 0000000000435570
  DW_CFA_def_cfa_offset: 24
  DW_CFA_advance_loc: 2 to 0000000000435572
  DW_CFA_def_cfa_offset: 16
  DW_CFA_advance_loc: 2 to 0000000000435574
  DW_CFA_def_cfa_offset: 8
  DW_CFA_advance_loc: 5 to 0000000000435579
  DW_CFA_restore_state
  DW_CFA_advance_loc: 56 to 00000000004355b1
  DW_CFA_remember_state
  DW_CFA_def_cfa_offset: 56
  DW_CFA_advance_loc: 8 to 00000000004355b9
  DW_CFA_def_cfa_offset: 48
  DW_CFA_advance_loc: 1 to 00000000004355ba
  DW_CFA_def_cfa_offset: 40
  DW_CFA_advance_loc: 2 to 00000000004355bc
  DW_CFA_def_cfa_offset: 32
  DW_CFA_advance_loc: 2 to 00000000004355be
  DW_CFA_def_cfa_offset: 24
  DW_CFA_advance_loc: 2 to 00000000004355c0
  DW_CFA_def_cfa_offset: 16
  DW_CFA_advance_loc: 2 to 00000000004355c2
  DW_CFA_def_cfa_offset: 8
  DW_CFA_advance_loc: 5 to 00000000004355c7
  DW_CFA_restore_state
  DW_CFA_advance_loc: 46 to 00000000004355f5
  DW_CFA_remember_state
  DW_CFA_def_cfa_offset: 56
  DW_CFA_advance_loc: 8 to 00000000004355fd
  DW_CFA_def_cfa_offset: 48
  DW_CFA_advance_loc: 1 to 00000000004355fe
  DW_CFA_def_cfa_offset: 40
  DW_CFA_advance_loc: 2 to 0000000000435600
  DW_CFA_def_cfa_offset: 32
  DW_CFA_advance_loc: 2 to 0000000000435602
  DW_CFA_def_cfa_offset: 24
  DW_CFA_advance_loc: 2 to 0000000000435604
  DW_CFA_def_cfa_offset: 16
  DW_CFA_advance_loc: 2 to 0000000000435606
  DW_CFA_def_cfa_offset: 8
  DW_CFA_advance_loc: 5 to 000000000043560b
  DW_CFA_restore_state
  DW_CFA_advance_loc: 56 to 0000000000435643
  DW_CFA_remember_state
  DW_CFA_def_cfa_offset: 56
  DW_CFA_advance_loc: 8 to 000000000043564b
  DW_CFA_def_cfa_offset: 48
  DW_CFA_advance_loc: 1 to 000000000043564c
  DW_CFA_def_cfa_offset: 40
  DW_CFA_advance_loc: 2 to 000000000043564e
  DW_CFA_def_cfa_offset: 32
  DW_CFA_advance_loc: 2 to 0000000000435650
  DW_CFA_def_cfa_offset: 24
  DW_CFA_advance_loc: 2 to 0000000000435652
  DW_CFA_def_cfa_offset: 16
  DW_CFA_advance_loc: 2 to 0000000000435654
  DW_CFA_def_cfa_offset: 8
  DW_CFA_advance_loc: 5 to 0000000000435659
  DW_CFA_restore_state
  DW_CFA_advance_loc: 46 to 0000000000435687
  DW_CFA_remember_state
  DW_CFA_def_cfa_offset: 56
  DW_CFA_advance_loc: 8 to 000000000043568f
  DW_CFA_def_cfa_offset: 48
  DW_CFA_advance_loc: 1 to 0000000000435690
  DW_CFA_def_cfa_offset: 40
  DW_CFA_advance_loc: 2 to 0000000000435692
  DW_CFA_def_cfa_offset: 32
  DW_CFA_advance_loc: 2 to 0000000000435694
  DW_CFA_def_cfa_offset: 24
  DW_CFA_advance_loc: 2 to 0000000000435696
  DW_CFA_def_cfa_offset: 16
  DW_CFA_advance_loc: 2 to 0000000000435698
  DW_CFA_def_cfa_offset: 8
  DW_CFA_advance_loc: 5 to 000000000043569d
  DW_CFA_restore_state
  DW_CFA_advance_loc: 56 to 00000000004356d5
  DW_CFA_remember_state
  DW_CFA_def_cfa_offset: 56
  DW_CFA_advance_loc: 8 to 00000000004356dd
  DW_CFA_def_cfa_offset: 48
  DW_CFA_advance_loc: 1 to 00000000004356de
  DW_CFA_def_cfa_offset: 40
  DW_CFA_advance_loc: 2 to 00000000004356e0
  DW_CFA_def_cfa_offset: 32
  DW_CFA_advance_loc: 2 to 00000000004356e2
  DW_CFA_def_cfa_offset: 24
  DW_CFA_advance_loc: 2 to 00000000004356e4
  DW_CFA_def_cfa_offset: 16
  DW_CFA_advance_loc: 2 to 00000000004356e6
  DW_CFA_def_cfa_offset: 8
  DW_CFA_advance_loc: 5 to 00000000004356eb
  DW_CFA_restore_state
  DW_CFA_advance_loc: 46 to 0000000000435719
  DW_CFA_remember_state
  DW_CFA_def_cfa_offset: 56
  DW_CFA_advance_loc: 8 to 0000000000435721
  DW_CFA_def_cfa_offset: 48
  DW_CFA_advance_loc: 1 to 0000000000435722
  DW_CFA_def_cfa_offset: 40
  DW_CFA_advance_loc: 2 to 0000000000435724
  DW_CFA_def_cfa_offset: 32
  DW_CFA_advance_loc: 2 to 0000000000435726
  DW_CFA_def_cfa_offset: 24
  DW_CFA_advance_loc: 2 to 0000000000435728
  DW_CFA_def_cfa_offset: 16
  DW_CFA_advance_loc: 2 to 000000000043572a
  DW_CFA_def_cfa_offset: 8
  DW_CFA_advance_loc: 5 to 000000000043572f
  DW_CFA_restore_state
  DW_CFA_advance_loc: 56 to 0000000000435767
  DW_CFA_remember_state
  DW_CFA_def_cfa_offset: 56
  DW_CFA_advance_loc: 8 to 000000000043576f
  DW_CFA_def_cfa_offset: 48
  DW_CFA_advance_loc: 1 to 0000000000435770
  DW_CFA_def_cfa_offset: 40
  DW_CFA_advance_loc: 2 to 0000000000435772
  DW_CFA_def_cfa_offset: 32
  DW_CFA_advance_loc: 2 to 0000000000435774
  DW_CFA_def_cfa_offset: 24
  DW_CFA_advance_loc: 2 to 0000000000435776
  DW_CFA_def_cfa_offset: 16
  DW_CFA_advance_loc: 2 to 0000000000435778
  DW_CFA_def_cfa_offset: 8
  DW_CFA_advance_loc: 5 to 000000000043577d
  DW_CFA_restore_state
  DW_CFA_advance_loc: 46 to 00000000004357ab
  DW_CFA_remember_state
  DW_CFA_def_cfa_offset: 56
  DW_CFA_advance_loc: 8 to 00000000004357b3
  DW_CFA_def_cfa_offset: 48
  DW_CFA_advance_loc: 1 to 00000000004357b4
  DW_CFA_def_cfa_offset: 40
  DW_CFA_advance_loc: 2 to 00000000004357b6
  DW_CFA_def_cfa_offset: 32
  DW_CFA_advance_loc: 2 to 00000000004357b8
  DW_CFA_def_cfa_offset: 24
  DW_CFA_advance_loc: 2 to 00000000004357ba
  DW_CFA_def_cfa_offset: 16
  DW_CFA_advance_loc: 2 to 00000000004357bc
  DW_CFA_def_cfa_offset: 8
  DW_CFA_advance_loc: 5 to 00000000004357c1
  DW_CFA_restore_state
  DW_CFA_advance_loc: 56 to 00000000004357f9
  DW_CFA_remember_state
  DW_CFA_def_cfa_offset: 56
  DW_CFA_advance_loc: 8 to 0000000000435801
  DW_CFA_def_cfa_offset: 48
  DW_CFA_advance_loc: 1 to 0000000000435802
  DW_CFA_def_cfa_offset: 40
  DW_CFA_advance_loc: 2 to 0000000000435804
  DW_CFA_def_cfa_offset: 32
  DW_CFA_advance_loc: 2 to 0000000000435806
  DW_CFA_def_cfa_offset: 24
  DW_CFA_advance_loc: 2 to 0000000000435808
  DW_CFA_def_cfa_offset: 16
  DW_CFA_advance_loc: 2 to 000000000043580a
  DW_CFA_def_cfa_offset: 8
  DW_CFA_advance_loc: 5 to 000000000043580f
  DW_CFA_restore_state
  DW_CFA_advance_loc: 46 to 000000000043583d
  DW_CFA_remember_state
  DW_CFA_def_cfa_offset: 56
  DW_CFA_advance_loc: 8 to 0000000000435845
  DW_CFA_def_cfa_offset: 48
  DW_CFA_advance_loc: 1 to 0000000000435846
  DW_CFA_def_cfa_offset: 40
  DW_CFA_advance_loc: 2 to 0000000000435848
  DW_CFA_def_cfa_offset: 32
  DW_CFA_advance_loc: 2 to 000000000043584a
  DW_CFA_def_cfa_offset: 24
  DW_CFA_advance_loc: 2 to 000000000043584c
  DW_CFA_def_cfa_offset: 16
  DW_CFA_advance_loc: 2 to 000000000043584e
  DW_CFA_def_cfa_offset: 8
  DW_CFA_advance_loc: 5 to 0000000000435853
  DW_CFA_restore_state
  DW_CFA_advance_loc: 56 to 000000000043588b
  DW_CFA_remember_state
  DW_CFA_def_cfa_offset: 56
  DW_CFA_advance_loc: 8 to 0000000000435893
  DW_CFA_def_cfa_offset: 48
  DW_CFA_advance_loc: 1 to 0000000000435894
  DW_CFA_def_cfa_offset: 40
  DW_CFA_advance_loc: 2 to 0000000000435896
  DW_CFA_def_cfa_offset: 32
  DW_CFA_advance_loc: 2 to 0000000000435898
  DW_CFA_def_cfa_offset: 24
  DW_CFA_advance_loc: 2 to 000000000043589a
  DW_CFA_def_cfa_offset: 16
  DW_CFA_advance_loc: 2 to 000000000043589c
  DW_CFA_def_cfa_offset: 8
  DW_CFA_advance_loc: 5 to 00000000004358a1
  DW_CFA_restore_state
  DW_CFA_advance_loc: 46 to 00000000004358cf
  DW_CFA_remember_state
  DW_CFA_def_cfa_offset: 56
  DW_CFA_advance_loc: 8 to 00000000004358d7
  DW_CFA_def_cfa_offset: 48
  DW_CFA_advance_loc: 1 to 00000000004358d8
  DW_CFA_def_cfa_offset: 40
  DW_CFA_advance_loc: 2 to 00000000004358da
  DW_CFA_def_cfa_offset: 32
  DW_CFA_advance_loc: 2 to 00000000004358dc
  DW_CFA_def_cfa_offset: 24
  DW_CFA_advance_loc: 2 to 00000000004358de
  DW_CFA_def_cfa_offset: 16
  DW_CFA_advance_loc: 2 to 00000000004358e0
  DW_CFA_def_cfa_offset: 8
  DW_CFA_advance_loc: 5 to 00000000004358e5
  DW_CFA_restore_state
  DW_CFA_advance_loc: 56 to 000000000043591d
  DW_CFA_remember_state
  DW_CFA_def_cfa_offset: 56
  DW_CFA_advance_loc: 8 to 0000000000435925
  DW_CFA_def_cfa_offset: 48
  DW_CFA_advance_loc: 1 to 0000000000435926
  DW_CFA_def_cfa_offset: 40
  DW_CFA_advance_loc: 2 to 0000000000435928
  DW_CFA_def_cfa_offset: 32
  DW_CFA_advance_loc: 2 to 000000000043592a
  DW_CFA_def_cfa_offset: 24
  DW_CFA_advance_loc: 2 to 000000000043592c
  DW_CFA_def_cfa_offset: 16
  DW_CFA_advance_loc: 2 to 000000000043592e
  DW_CFA_def_cfa_offset: 8
  DW_CFA_advance_loc: 5 to 0000000000435933
  DW_CFA_restore_state
  DW_CFA_advance_loc: 46 to 0000000000435961
  DW_CFA_remember_state
  DW_CFA_def_cfa_offset: 56
  DW_CFA_advance_loc: 8 to 0000000000435969
  DW_CFA_def_cfa_offset: 48
  DW_CFA_advance_loc: 1 to 000000000043596a
  DW_CFA_def_cfa_offset: 40
  DW_CFA_advance_loc: 2 to 000000000043596c
  DW_CFA_def_cfa_offset: 32
  DW_CFA_advance_loc: 2 to 000000000043596e
  DW_CFA_def_cfa_offset: 24
  DW_CFA_advance_loc: 2 to 0000000000435970
  DW_CFA_def_cfa_offset: 16
  DW_CFA_advance_loc: 2 to 0000000000435972
  DW_CFA_def_cfa_offset: 8
  DW_CFA_advance_loc: 5 to 0000000000435977
  DW_CFA_restore_state
  DW_CFA_advance_loc: 56 to 00000000004359af
  DW_CFA_remember_state
  DW_CFA_def_cfa_offset: 56
  DW_CFA_advance_loc: 8 to 00000000004359b7
  DW_CFA_def_cfa_offset: 48
  DW_CFA_advance_loc: 1 to 00000000004359b8
  DW_CFA_def_cfa_offset: 40
  DW_CFA_advance_loc: 2 to 00000000004359ba
  DW_CFA_def_cfa_offset: 32
  DW_CFA_advance_loc: 2 to 00000000004359bc
  DW_CFA_def_cfa_offset: 24
  DW_CFA_advance_loc: 2 to 00000000004359be
  DW_CFA_def_cfa_offset: 16
  DW_CFA_advance_loc: 2 to 00000000004359c0
  DW_CFA_def_cfa_offset: 8
  DW_CFA_advance_loc: 5 to 00000000004359c5
  DW_CFA_restore_state
  DW_CFA_advance_loc: 46 to 00000000004359f3
  DW_CFA_remember_state
  DW_CFA_def_cfa_offset: 56
  DW_CFA_advance_loc: 8 to 00000000004359fb
  DW_CFA_def_cfa_offset: 48
  DW_CFA_advance_loc: 1 to 00000000004359fc
  DW_CFA_def_cfa_offset: 40
  DW_CFA_advance_loc: 2 to 00000000004359fe
  DW_CFA_def_cfa_offset: 32
  DW_CFA_advance_loc: 2 to 0000000000435a00
  DW_CFA_def_cfa_offset: 24
  DW_CFA_advance_loc: 2 to 0000000000435a02
  DW_CFA_def_cfa_offset: 16
  DW_CFA_advance_loc: 2 to 0000000000435a04
  DW_CFA_def_cfa_offset: 8
  DW_CFA_advance_loc: 5 to 0000000000435a09
  DW_CFA_restore_state
  DW_CFA_advance_loc: 56 to 0000000000435a41
  DW_CFA_remember_state
  DW_CFA_def_cfa_offset: 56
  DW_CFA_advance_loc: 8 to 0000000000435a49
  DW_CFA_def_cfa_offset: 48
  DW_CFA_advance_loc: 1 to 0000000000435a4a
  DW_CFA_def_cfa_offset: 40
  DW_CFA_advance_loc: 2 to 0000000000435a4c
  DW_CFA_def_cfa_offset: 32
  DW_CFA_advance_loc: 2 to 0000000000435a4e
  DW_CFA_def_cfa_offset: 24
  DW_CFA_advance_loc: 2 to 0000000000435a50
  DW_CFA_def_cfa_offset: 16
  DW_CFA_advance_loc: 2 to 0000000000435a52
  DW_CFA_def_cfa_offset: 8
  DW_CFA_advance_loc: 5 to 0000000000435a57
  DW_CFA_restore_state
  DW_CFA_advance_loc: 46 to 0000000000435a85
  DW_CFA_remember_state
  DW_CFA_def_cfa_offset: 56
  DW_CFA_advance_loc: 8 to 0000000000435a8d
  DW_CFA_def_cfa_offset: 48
  DW_CFA_advance_loc: 1 to 0000000000435a8e
  DW_CFA_def_cfa_offset: 40
  DW_CFA_advance_loc: 2 to 0000000000435a90
  DW_CFA_def_cfa_offset: 32
  DW_CFA_advance_loc: 2 to 0000000000435a92
  DW_CFA_def_cfa_offset: 24
  DW_CFA_advance_loc: 2 to 0000000000435a94
  DW_CFA_def_cfa_offset: 16
  DW_CFA_advance_loc: 2 to 0000000000435a96
  DW_CFA_def_cfa_offset: 8
  DW_CFA_advance_loc: 5 to 0000000000435a9b
  DW_CFA_restore_state
  DW_CFA_advance_loc: 56 to 0000000000435ad3
  DW_CFA_remember_state
  DW_CFA_def_cfa_offset: 56
  DW_CFA_advance_loc: 8 to 0000000000435adb
  DW_CFA_def_cfa_offset: 48
  DW_CFA_advance_loc: 1 to 0000000000435adc
  DW_CFA_def_cfa_offset: 40
  DW_CFA_advance_loc: 2 to 0000000000435ade
  DW_CFA_def_cfa_offset: 32
  DW_CFA_advance_loc: 2 to 0000000000435ae0
  DW_CFA_def_cfa_offset: 24
  DW_CFA_advance_loc: 2 to 0000000000435ae2
  DW_CFA_def_cfa_offset: 16
  DW_CFA_advance_loc: 2 to 0000000000435ae4
  DW_CFA_def_cfa_offset: 8
  DW_CFA_advance_loc: 5 to 0000000000435ae9
  DW_CFA_restore_state
  DW_CFA_advance_loc: 46 to 0000000000435b17
  DW_CFA_remember_state
  DW_CFA_def_cfa_offset: 56
  DW_CFA_advance_loc: 8 to 0000000000435b1f
  DW_CFA_def_cfa_offset: 48
  DW_CFA_advance_loc: 1 to 0000000000435b20
  DW_CFA_def_cfa_offset: 40
  DW_CFA_advance_loc: 2 to 0000000000435b22
  DW_CFA_def_cfa_offset: 32
  DW_CFA_advance_loc: 2 to 0000000000435b24
  DW_CFA_def_cfa_offset: 24
  DW_CFA_advance_loc: 2 to 0000000000435b26
  DW_CFA_def_cfa_offset: 16
  DW_CFA_advance_loc: 2 to 0000000000435b28
  DW_CFA_def_cfa_offset: 8
  DW_CFA_advance_loc: 5 to 0000000000435b2d
  DW_CFA_restore_state
  DW_CFA_advance_loc: 56 to 0000000000435b65
  DW_CFA_remember_state
  DW_CFA_def_cfa_offset: 56
  DW_CFA_advance_loc: 8 to 0000000000435b6d
  DW_CFA_def_cfa_offset: 48
  DW_CFA_advance_loc: 1 to 0000000000435b6e
  DW_CFA_def_cfa_offset: 40
  DW_CFA_advance_loc: 2 to 0000000000435b70
  DW_CFA_def_cfa_offset: 32
  DW_CFA_advance_loc: 2 to 0000000000435b72
  DW_CFA_def_cfa_offset: 24
  DW_CFA_advance_loc: 2 to 0000000000435b74
  DW_CFA_def_cfa_offset: 16
  DW_CFA_advance_loc: 2 to 0000000000435b76
  DW_CFA_def_cfa_offset: 8
  DW_CFA_advance_loc: 5 to 0000000000435b7b
  DW_CFA_restore_state
  DW_CFA_advance_loc: 46 to 0000000000435ba9
  DW_CFA_remember_state
  DW_CFA_def_cfa_offset: 56
  DW_CFA_advance_loc: 8 to 0000000000435bb1
  DW_CFA_def_cfa_offset: 48
  DW_CFA_advance_loc: 1 to 0000000000435bb2
  DW_CFA_def_cfa_offset: 40
  DW_CFA_advance_loc: 2 to 0000000000435bb4
  DW_CFA_def_cfa_offset: 32
  DW_CFA_advance_loc: 2 to 0000000000435bb6
  DW_CFA_def_cfa_offset: 24
  DW_CFA_advance_loc: 2 to 0000000000435bb8
  DW_CFA_def_cfa_offset: 16
  DW_CFA_advance_loc: 2 to 0000000000435bba
  DW_CFA_def_cfa_offset: 8
  DW_CFA_advance_loc: 5 to 0000000000435bbf
  DW_CFA_restore_state
  DW_CFA_advance_loc: 56 to 0000000000435bf7
  DW_CFA_remember_state
  DW_CFA_def_cfa_offset: 56
  DW_CFA_advance_loc: 8 to 0000000000435bff
  DW_CFA_def_cfa_offset: 48
  DW_CFA_advance_loc: 1 to 0000000000435c00
  DW_CFA_def_cfa_offset: 40
  DW_CFA_advance_loc: 2 to 0000000000435c02
  DW_CFA_def_cfa_offset: 32
  DW_CFA_advance_loc: 2 to 0000000000435c04
  DW_CFA_def_cfa_offset: 24
  DW_CFA_advance_loc: 2 to 0000000000435c06
  DW_CFA_def_cfa_offset: 16
  DW_CFA_advance_loc: 2 to 0000000000435c08
  DW_CFA_def_cfa_offset: 8
  DW_CFA_advance_loc: 5 to 0000000000435c0d
  DW_CFA_restore_state
  DW_CFA_advance_loc: 46 to 0000000000435c3b
  DW_CFA_remember_state
  DW_CFA_def_cfa_offset: 56
  DW_CFA_advance_loc: 8 to 0000000000435c43
  DW_CFA_def_cfa_offset: 48
  DW_CFA_advance_loc: 1 to 0000000000435c44
  DW_CFA_def_cfa_offset: 40
  DW_CFA_advance_loc: 2 to 0000000000435c46
  DW_CFA_def_cfa_offset: 32
  DW_CFA_advance_loc: 2 to 0000000000435c48
  DW_CFA_def_cfa_offset: 24
  DW_CFA_advance_loc: 2 to 0000000000435c4a
  DW_CFA_def_cfa_offset: 16
  DW_CFA_advance_loc: 2 to 0000000000435c4c
  DW_CFA_def_cfa_offset: 8
  DW_CFA_advance_loc: 5 to 0000000000435c51
  DW_CFA_restore_state
  DW_CFA_advance_loc: 56 to 0000000000435c89
  DW_CFA_remember_state
  DW_CFA_def_cfa_offset: 56
  DW_CFA_advance_loc: 8 to 0000000000435c91
  DW_CFA_def_cfa_offset: 48
  DW_CFA_advance_loc: 1 to 0000000000435c92
  DW_CFA_def_cfa_offset: 40
  DW_CFA_advance_loc: 2 to 0000000000435c94
  DW_CFA_def_cfa_offset: 32
  DW_CFA_advance_loc: 2 to 0000000000435c96
  DW_CFA_def_cfa_offset: 24
  DW_CFA_advance_loc: 2 to 0000000000435c98
  DW_CFA_def_cfa_offset: 16
  DW_CFA_advance_loc: 2 to 0000000000435c9a
  DW_CFA_def_cfa_offset: 8
  DW_CFA_advance_loc: 5 to 0000000000435c9f
  DW_CFA_restore_state
  DW_CFA_advance_loc: 46 to 0000000000435ccd
  DW_CFA_remember_state
  DW_CFA_def_cfa_offset: 56
  DW_CFA_advance_loc: 8 to 0000000000435cd5
  DW_CFA_def_cfa_offset: 48
  DW_CFA_advance_loc: 1 to 0000000000435cd6
  DW_CFA_def_cfa_offset: 40
  DW_CFA_advance_loc: 2 to 0000000000435cd8
  DW_CFA_def_cfa_offset: 32
  DW_CFA_advance_loc: 2 to 0000000000435cda
  DW_CFA_def_cfa_offset: 24
  DW_CFA_advance_loc: 2 to 0000000000435cdc
  DW_CFA_def_cfa_offset: 16
  DW_CFA_advance_loc: 2 to 0000000000435cde
  DW_CFA_def_cfa_offset: 8
  DW_CFA_advance_loc: 5 to 0000000000435ce3
  DW_CFA_restore_state
  DW_CFA_advance_loc: 56 to 0000000000435d1b
  DW_CFA_remember_state
  DW_CFA_def_cfa_offset: 56
  DW_CFA_advance_loc: 8 to 0000000000435d23
  DW_CFA_def_cfa_offset: 48
  DW_CFA_advance_loc: 1 to 0000000000435d24
  DW_CFA_def_cfa_offset: 40
  DW_CFA_advance_loc: 2 to 0000000000435d26
  DW_CFA_def_cfa_offset: 32
  DW_CFA_advance_loc: 2 to 0000000000435d28
  DW_CFA_def_cfa_offset: 24
  DW_CFA_advance_loc: 2 to 0000000000435d2a
  DW_CFA_def_cfa_offset: 16
  DW_CFA_advance_loc: 2 to 0000000000435d2c
  DW_CFA_def_cfa_offset: 8
  DW_CFA_advance_loc: 5 to 0000000000435d31
  DW_CFA_restore_state
  DW_CFA_advance_loc: 46 to 0000000000435d5f
  DW_CFA_remember_state
  DW_CFA_def_cfa_offset: 56
  DW_CFA_advance_loc: 8 to 0000000000435d67
  DW_CFA_def_cfa_offset: 48
  DW_CFA_advance_loc: 1 to 0000000000435d68
  DW_CFA_def_cfa_offset: 40
  DW_CFA_advance_loc: 2 to 0000000000435d6a
  DW_CFA_def_cfa_offset: 32
  DW_CFA_advance_loc: 2 to 0000000000435d6c
  DW_CFA_def_cfa_offset: 24
  DW_CFA_advance_loc: 2 to 0000000000435d6e
  DW_CFA_def_cfa_offset: 16
  DW_CFA_advance_loc: 2 to 0000000000435d70
  DW_CFA_def_cfa_offset: 8
  DW_CFA_advance_loc: 5 to 0000000000435d75
  DW_CFA_restore_state
  DW_CFA_advance_loc: 56 to 0000000000435dad
  DW_CFA_remember_state
  DW_CFA_def_cfa_offset: 56
  DW_CFA_advance_loc: 8 to 0000000000435db5
  DW_CFA_def_cfa_offset: 48
  DW_CFA_advance_loc: 1 to 0000000000435db6
  DW_CFA_def_cfa_offset: 40
  DW_CFA_advance_loc: 2 to 0000000000435db8
  DW_CFA_def_cfa_offset: 32
  DW_CFA_advance_loc: 2 to 0000000000435dba
  DW_CFA_def_cfa_offset: 24
  DW_CFA_advance_loc: 2 to 0000000000435dbc
  DW_CFA_def_cfa_offset: 16
  DW_CFA_advance_loc: 2 to 0000000000435dbe
  DW_CFA_def_cfa_offset: 8
  DW_CFA_advance_loc: 5 to 0000000000435dc3
  DW_CFA_restore_state
  DW_CFA_advance_loc: 46 to 0000000000435df1
  DW_CFA_remember_state
  DW_CFA_def_cfa_offset: 56
  DW_CFA_advance_loc: 8 to 0000000000435df9
  DW_CFA_def_cfa_offset: 48
  DW_CFA_advance_loc: 1 to 0000000000435dfa
  DW_CFA_def_cfa_offset: 40
  DW_CFA_advance_loc: 2 to 0000000000435dfc
  DW_CFA_def_cfa_offset: 32
  DW_CFA_advance_loc: 2 to 0000000000435dfe
  DW_CFA_def_cfa_offset: 24
  DW_CFA_advance_loc: 2 to 0000000000435e00
  DW_CFA_def_cfa_offset: 16
  DW_CFA_advance_loc: 2 to 0000000000435e02
  DW_CFA_def_cfa_offset: 8
  DW_CFA_advance_loc: 5 to 0000000000435e07
  DW_CFA_restore_state
  DW_CFA_advance_loc: 56 to 0000000000435e3f
  DW_CFA_remember_state
  DW_CFA_def_cfa_offset: 56
  DW_CFA_advance_loc: 8 to 0000000000435e47
  DW_CFA_def_cfa_offset: 48
  DW_CFA_advance_loc: 1 to 0000000000435e48
  DW_CFA_def_cfa_offset: 40
  DW_CFA_advance_loc: 2 to 0000000000435e4a
  DW_CFA_def_cfa_offset: 32
  DW_CFA_advance_loc: 2 to 0000000000435e4c
  DW_CFA_def_cfa_offset: 24
  DW_CFA_advance_loc: 2 to 0000000000435e4e
  DW_CFA_def_cfa_offset: 16
  DW_CFA_advance_loc: 2 to 0000000000435e50
  DW_CFA_def_cfa_offset: 8
  DW_CFA_advance_loc: 5 to 0000000000435e55
  DW_CFA_restore_state
  DW_CFA_advance_loc: 46 to 0000000000435e83
  DW_CFA_remember_state
  DW_CFA_def_cfa_offset: 56
  DW_CFA_advance_loc: 8 to 0000000000435e8b
  DW_CFA_def_cfa_offset: 48
  DW_CFA_advance_loc: 1 to 0000000000435e8c
  DW_CFA_def_cfa_offset: 40
  DW_CFA_advance_loc: 2 to 0000000000435e8e
  DW_CFA_def_cfa_offset: 32
  DW_CFA_advance_loc: 2 to 0000000000435e90
  DW_CFA_def_cfa_offset: 24
  DW_CFA_advance_loc: 2 to 0000000000435e92
  DW_CFA_def_cfa_offset: 16
  DW_CFA_advance_loc: 2 to 0000000000435e94
  DW_CFA_def_cfa_offset: 8
  DW_CFA_advance_loc: 5 to 0000000000435e99
  DW_CFA_restore_state
  DW_CFA_advance_loc: 56 to 0000000000435ed1
  DW_CFA_remember_state
  DW_CFA_def_cfa_offset: 56
  DW_CFA_advance_loc: 8 to 0000000000435ed9
  DW_CFA_def_cfa_offset: 48
  DW_CFA_advance_loc: 1 to 0000000000435eda
  DW_CFA_def_cfa_offset: 40
  DW_CFA_advance_loc: 2 to 0000000000435edc
  DW_CFA_def_cfa_offset: 32
  DW_CFA_advance_loc: 2 to 0000000000435ede
  DW_CFA_def_cfa_offset: 24
  DW_CFA_advance_loc: 2 to 0000000000435ee0
  DW_CFA_def_cfa_offset: 16
  DW_CFA_advance_loc: 2 to 0000000000435ee2
  DW_CFA_def_cfa_offset: 8
  DW_CFA_advance_loc: 5 to 0000000000435ee7
  DW_CFA_restore_state
  DW_CFA_advance_loc: 46 to 0000000000435f15
  DW_CFA_remember_state
  DW_CFA_def_cfa_offset: 56
  DW_CFA_advance_loc: 8 to 0000000000435f1d
  DW_CFA_def_cfa_offset: 48
  DW_CFA_advance_loc: 1 to 0000000000435f1e
  DW_CFA_def_cfa_offset: 40
  DW_CFA_advance_loc: 2 to 0000000000435f20
  DW_CFA_def_cfa_offset: 32
  DW_CFA_advance_loc: 2 to 0000000000435f22
  DW_CFA_def_cfa_offset: 24
  DW_CFA_advance_loc: 2 to 0000000000435f24
  DW_CFA_def_cfa_offset: 16
  DW_CFA_advance_loc: 2 to 0000000000435f26
  DW_CFA_def_cfa_offset: 8
  DW_CFA_advance_loc: 5 to 0000000000435f2b
  DW_CFA_restore_state
  DW_CFA_advance_loc: 56 to 0000000000435f63
  DW_CFA_remember_state
  DW_CFA_def_cfa_offset: 56
  DW_CFA_advance_loc: 8 to 0000000000435f6b
  DW_CFA_def_cfa_offset: 48
  DW_CFA_advance_loc: 1 to 0000000000435f6c
  DW_CFA_def_cfa_offset: 40
  DW_CFA_advance_loc: 2 to 0000000000435f6e
  DW_CFA_def_cfa_offset: 32
  DW_CFA_advance_loc: 2 to 0000000000435f70
  DW_CFA_def_cfa_offset: 24
  DW_CFA_advance_loc: 2 to 0000000000435f72
  DW_CFA_def_cfa_offset: 16
  DW_CFA_advance_loc: 2 to 0000000000435f74
  DW_CFA_def_cfa_offset: 8
  DW_CFA_advance_loc: 5 to 0000000000435f79
  DW_CFA_restore_state
  DW_CFA_advance_loc: 46 to 0000000000435fa7
  DW_CFA_remember_state
  DW_CFA_def_cfa_offset: 56
  DW_CFA_advance_loc: 8 to 0000000000435faf
  DW_CFA_def_cfa_offset: 48
  DW_CFA_advance_loc: 1 to 0000000000435fb0
  DW_CFA_def_cfa_offset: 40
  DW_CFA_advance_loc: 2 to 0000000000435fb2
  DW_CFA_def_cfa_offset: 32
  DW_CFA_advance_loc: 2 to 0000000000435fb4
  DW_CFA_def_cfa_offset: 24
  DW_CFA_advance_loc: 2 to 0000000000435fb6
  DW_CFA_def_cfa_offset: 16
  DW_CFA_advance_loc: 2 to 0000000000435fb8
  DW_CFA_def_cfa_offset: 8
  DW_CFA_advance_loc: 5 to 0000000000435fbd
  DW_CFA_restore_state
  DW_CFA_advance_loc: 56 to 0000000000435ff5
  DW_CFA_remember_state
  DW_CFA_def_cfa_offset: 56
  DW_CFA_advance_loc: 8 to 0000000000435ffd
  DW_CFA_def_cfa_offset: 48
  DW_CFA_advance_loc: 1 to 0000000000435ffe
  DW_CFA_def_cfa_offset: 40
  DW_CFA_advance_loc: 2 to 0000000000436000
  DW_CFA_def_cfa_offset: 32
  DW_CFA_advance_loc: 2 to 0000000000436002
  DW_CFA_def_cfa_offset: 24
  DW_CFA_advance_loc: 2 to 0000000000436004
  DW_CFA_def_cfa_offset: 16
  DW_CFA_advance_loc: 2 to 0000000000436006
  DW_CFA_def_cfa_offset: 8
  DW_CFA_advance_loc: 5 to 000000000043600b
  DW_CFA_restore_state
  DW_CFA_advance_loc: 46 to 0000000000436039
  DW_CFA_remember_state
  DW_CFA_def_cfa_offset: 56
  DW_CFA_advance_loc: 8 to 0000000000436041
  DW_CFA_def_cfa_offset: 48
  DW_CFA_advance_loc: 1 to 0000000000436042
  DW_CFA_def_cfa_offset: 40
  DW_CFA_advance_loc: 2 to 0000000000436044
  DW_CFA_def_cfa_offset: 32
  DW_CFA_advance_loc: 2 to 0000000000436046
  DW_CFA_def_cfa_offset: 24
  DW_CFA_advance_loc: 2 to 0000000000436048
  DW_CFA_def_cfa_offset: 16
  DW_CFA_advance_loc: 2 to 000000000043604a
  DW_CFA_def_cfa_offset: 8
  DW_CFA_advance_loc: 5 to 000000000043604f
  DW_CFA_restore_state
  DW_CFA_advance_loc: 56 to 0000000000436087
  DW_CFA_remember_state
  DW_CFA_def_cfa_offset: 56
  DW_CFA_advance_loc: 8 to 000000000043608f
  DW_CFA_def_cfa_offset: 48
  DW_CFA_advance_loc: 1 to 0000000000436090
  DW_CFA_def_cfa_offset: 40
  DW_CFA_advance_loc: 2 to 0000000000436092
  DW_CFA_def_cfa_offset: 32
  DW_CFA_advance_loc: 2 to 0000000000436094
  DW_CFA_def_cfa_offset: 24
  DW_CFA_advance_loc: 2 to 0000000000436096
  DW_CFA_def_cfa_offset: 16
  DW_CFA_advance_loc: 2 to 0000000000436098
  DW_CFA_def_cfa_offset: 8
  DW_CFA_advance_loc: 5 to 000000000043609d
  DW_CFA_restore_state
  DW_CFA_advance_loc: 46 to 00000000004360cb
  DW_CFA_remember_state
  DW_CFA_def_cfa_offset: 56
  DW_CFA_advance_loc: 8 to 00000000004360d3
  DW_CFA_def_cfa_offset: 48
  DW_CFA_advance_loc: 1 to 00000000004360d4
  DW_CFA_def_cfa_offset: 40
  DW_CFA_advance_loc: 2 to 00000000004360d6
  DW_CFA_def_cfa_offset: 32
  DW_CFA_advance_loc: 2 to 00000000004360d8
  DW_CFA_def_cfa_offset: 24
  DW_CFA_advance_loc: 2 to 00000000004360da
  DW_CFA_def_cfa_offset: 16
  DW_CFA_advance_loc: 2 to 00000000004360dc
  DW_CFA_def_cfa_offset: 8
  DW_CFA_advance_loc: 5 to 00000000004360e1
  DW_CFA_restore_state
  DW_CFA_advance_loc: 56 to 0000000000436119
  DW_CFA_remember_state
  DW_CFA_def_cfa_offset: 56
  DW_CFA_advance_loc: 8 to 0000000000436121
  DW_CFA_def_cfa_offset: 48
  DW_CFA_advance_loc: 1 to 0000000000436122
  DW_CFA_def_cfa_offset: 40
  DW_CFA_advance_loc: 2 to 0000000000436124
  DW_CFA_def_cfa_offset: 32
  DW_CFA_advance_loc: 2 to 0000000000436126
  DW_CFA_def_cfa_offset: 24
  DW_CFA_advance_loc: 2 to 0000000000436128
  DW_CFA_def_cfa_offset: 16
  DW_CFA_advance_loc: 2 to 000000000043612a
  DW_CFA_def_cfa_offset: 8
  DW_CFA_advance_loc: 5 to 000000000043612f
  DW_CFA_restore_state
  DW_CFA_advance_loc: 46 to 000000000043615d
  DW_CFA_remember_state
  DW_CFA_def_cfa_offset: 56
  DW_CFA_advance_loc: 8 to 0000000000436165
  DW_CFA_def_cfa_offset: 48
  DW_CFA_advance_loc: 1 to 0000000000436166
  DW_CFA_def_cfa_offset: 40
  DW_CFA_advance_loc: 2 to 0000000000436168
  DW_CFA_def_cfa_offset: 32
  DW_CFA_advance_loc: 2 to 000000000043616a
  DW_CFA_def_cfa_offset: 24
  DW_CFA_advance_loc: 2 to 000000000043616c
  DW_CFA_def_cfa_offset: 16
  DW_CFA_advance_loc: 2 to 000000000043616e
  DW_CFA_def_cfa_offset: 8
  DW_CFA_advance_loc: 5 to 0000000000436173
  DW_CFA_restore_state
  DW_CFA_advance_loc2: 3703 to 0000000000436fea
  DW_CFA_remember_state
  DW_CFA_def_cfa_offset: 56
  DW_CFA_advance_loc: 8 to 0000000000436ff2
  DW_CFA_def_cfa_offset: 48
  DW_CFA_advance_loc: 1 to 0000000000436ff3
  DW_CFA_def_cfa_offset: 40
  DW_CFA_advance_loc: 2 to 0000000000436ff5
  DW_CFA_def_cfa_offset: 32
  DW_CFA_advance_loc: 2 to 0000000000436ff7
  DW_CFA_def_cfa_offset: 24
  DW_CFA_advance_loc: 2 to 0000000000436ff9
  DW_CFA_def_cfa_offset: 16
  DW_CFA_advance_loc: 2 to 0000000000436ffb
  DW_CFA_def_cfa_offset: 8
  DW_CFA_advance_loc: 5 to 0000000000437000
  DW_CFA_restore_state
  DW_CFA_advance_loc1: 171 to 00000000004370ab
  DW_CFA_remember_state
  DW_CFA_def_cfa_offset: 56
  DW_CFA_advance_loc: 8 to 00000000004370b3
  DW_CFA_def_cfa_offset: 48
  DW_CFA_advance_loc: 1 to 00000000004370b4
  DW_CFA_def_cfa_offset: 40
  DW_CFA_advance_loc: 2 to 00000000004370b6
  DW_CFA_def_cfa_offset: 32
  DW_CFA_advance_loc: 2 to 00000000004370b8
  DW_CFA_def_cfa_offset: 24
  DW_CFA_advance_loc: 2 to 00000000004370ba
  DW_CFA_def_cfa_offset: 16
  DW_CFA_advance_loc: 2 to 00000000004370bc
  DW_CFA_def_cfa_offset: 8
  DW_CFA_advance_loc: 5 to 00000000004370c1
  DW_CFA_restore_state
  DW_CFA_advance_loc1: 106 to 000000000043712b
  DW_CFA_remember_state
  DW_CFA_def_cfa_offset: 56
  DW_CFA_advance_loc: 8 to 0000000000437133
  DW_CFA_def_cfa_offset: 48
  DW_CFA_advance_loc: 1 to 0000000000437134
  DW_CFA_def_cfa_offset: 40
  DW_CFA_advance_loc: 2 to 0000000000437136
  DW_CFA_def_cfa_offset: 32
  DW_CFA_advance_loc: 2 to 0000000000437138
  DW_CFA_def_cfa_offset: 24
  DW_CFA_advance_loc: 2 to 000000000043713a
  DW_CFA_def_cfa_offset: 16
  DW_CFA_advance_loc: 2 to 000000000043713c
  DW_CFA_def_cfa_offset: 8
  DW_CFA_advance_loc: 5 to 0000000000437141
  DW_CFA_restore_state
  DW_CFA_advance_loc1: 137 to 00000000004371ca
  DW_CFA_remember_state
  DW_CFA_def_cfa_offset: 56
  DW_CFA_advance_loc: 8 to 00000000004371d2
  DW_CFA_def_cfa_offset: 48
  DW_CFA_advance_loc: 1 to 00000000004371d3
  DW_CFA_def_cfa_offset: 40
  DW_CFA_advance_loc: 2 to 00000000004371d5
  DW_CFA_def_cfa_offset: 32
  DW_CFA_advance_loc: 2 to 00000000004371d7
  DW_CFA_def_cfa_offset: 24
  DW_CFA_advance_loc: 2 to 00000000004371d9
  DW_CFA_def_cfa_offset: 16
  DW_CFA_advance_loc: 2 to 00000000004371db
  DW_CFA_def_cfa_offset: 8
  DW_CFA_advance_loc: 5 to 00000000004371e0
  DW_CFA_restore_state
  DW_CFA_advance_loc1: 123 to 000000000043725b
  DW_CFA_remember_state
  DW_CFA_def_cfa_offset: 56
  DW_CFA_advance_loc: 8 to 0000000000437263
  DW_CFA_def_cfa_offset: 48
  DW_CFA_advance_loc: 1 to 0000000000437264
  DW_CFA_def_cfa_offset: 40
  DW_CFA_advance_loc: 2 to 0000000000437266
  DW_CFA_def_cfa_offset: 32
  DW_CFA_advance_loc: 2 to 0000000000437268
  DW_CFA_def_cfa_offset: 24
  DW_CFA_advance_loc: 2 to 000000000043726a
  DW_CFA_def_cfa_offset: 16
  DW_CFA_advance_loc: 2 to 000000000043726c
  DW_CFA_def_cfa_offset: 8
  DW_CFA_advance_loc: 5 to 0000000000437271
  DW_CFA_restore_state
  DW_CFA_advance_loc1: 130 to 00000000004372f3
  DW_CFA_remember_state
  DW_CFA_def_cfa_offset: 56
  DW_CFA_advance_loc: 8 to 00000000004372fb
  DW_CFA_def_cfa_offset: 48
  DW_CFA_advance_loc: 1 to 00000000004372fc
  DW_CFA_def_cfa_offset: 40
  DW_CFA_advance_loc: 2 to 00000000004372fe
  DW_CFA_def_cfa_offset: 32
  DW_CFA_advance_loc: 2 to 0000000000437300
  DW_CFA_def_cfa_offset: 24
  DW_CFA_advance_loc: 2 to 0000000000437302
  DW_CFA_def_cfa_offset: 16
  DW_CFA_advance_loc: 2 to 0000000000437304
  DW_CFA_def_cfa_offset: 8
  DW_CFA_advance_loc: 5 to 0000000000437309
  DW_CFA_restore_state
  DW_CFA_advance_loc: 55 to 0000000000437340
  DW_CFA_remember_state
  DW_CFA_def_cfa_offset: 56
  DW_CFA_advance_loc: 11 to 000000000043734b
  DW_CFA_def_cfa_offset: 48
  DW_CFA_advance_loc: 1 to 000000000043734c
  DW_CFA_def_cfa_offset: 40
  DW_CFA_advance_loc: 2 to 000000000043734e
  DW_CFA_def_cfa_offset: 32
  DW_CFA_advance_loc: 2 to 0000000000437350
  DW_CFA_def_cfa_offset: 24
  DW_CFA_advance_loc: 2 to 0000000000437352
  DW_CFA_def_cfa_offset: 16
  DW_CFA_advance_loc: 2 to 0000000000437354
  DW_CFA_def_cfa_offset: 8
  DW_CFA_advance_loc: 5 to 0000000000437359
  DW_CFA_restore_state
  DW_CFA_advance_loc1: 65 to 000000000043739a
  DW_CFA_remember_state
  DW_CFA_def_cfa_offset: 56
  DW_CFA_advance_loc: 8 to 00000000004373a2
  DW_CFA_def_cfa_offset: 48
  DW_CFA_advance_loc: 1 to 00000000004373a3
  DW_CFA_def_cfa_offset: 40
  DW_CFA_advance_loc: 2 to 00000000004373a5
  DW_CFA_def_cfa_offset: 32
  DW_CFA_advance_loc: 2 to 00000000004373a7
  DW_CFA_def_cfa_offset: 24
  DW_CFA_advance_loc: 2 to 00000000004373a9
  DW_CFA_def_cfa_offset: 16
  DW_CFA_advance_loc: 2 to 00000000004373ab
  DW_CFA_def_cfa_offset: 8
  DW_CFA_advance_loc: 5 to 00000000004373b0
  DW_CFA_restore_state
  DW_CFA_advance_loc: 55 to 00000000004373e7
  DW_CFA_remember_state
  DW_CFA_def_cfa_offset: 56
  DW_CFA_advance_loc: 11 to 00000000004373f2
  DW_CFA_def_cfa_offset: 48
  DW_CFA_advance_loc: 1 to 00000000004373f3
  DW_CFA_def_cfa_offset: 40
  DW_CFA_advance_loc: 2 to 00000000004373f5
  DW_CFA_def_cfa_offset: 32
  DW_CFA_advance_loc: 2 to 00000000004373f7
  DW_CFA_def_cfa_offset: 24
  DW_CFA_advance_loc: 2 to 00000000004373f9
  DW_CFA_def_cfa_offset: 16
  DW_CFA_advance_loc: 2 to 00000000004373fb
  DW_CFA_def_cfa_offset: 8
  DW_CFA_advance_loc: 5 to 0000000000437400
  DW_CFA_restore_state
  DW_CFA_advance_loc1: 65 to 0000000000437441
  DW_CFA_remember_state
  DW_CFA_def_cfa_offset: 56
  DW_CFA_advance_loc: 8 to 0000000000437449
  DW_CFA_def_cfa_offset: 48
  DW_CFA_advance_loc: 1 to 000000000043744a
  DW_CFA_def_cfa_offset: 40
  DW_CFA_advance_loc: 2 to 000000000043744c
  DW_CFA_def_cfa_offset: 32
  DW_CFA_advance_loc: 2 to 000000000043744e
  DW_CFA_def_cfa_offset: 24
  DW_CFA_advance_loc: 2 to 0000000000437450
  DW_CFA_def_cfa_offset: 16
  DW_CFA_advance_loc: 2 to 0000000000437452
  DW_CFA_def_cfa_offset: 8
  DW_CFA_advance_loc: 5 to 0000000000437457
  DW_CFA_restore_state
  DW_CFA_advance_loc: 55 to 000000000043748e
  DW_CFA_remember_state
  DW_CFA_def_cfa_offset: 56
  DW_CFA_advance_loc: 11 to 0000000000437499
  DW_CFA_def_cfa_offset: 48
  DW_CFA_advance_loc: 1 to 000000000043749a
  DW_CFA_def_cfa_offset: 40
  DW_CFA_advance_loc: 2 to 000000000043749c
  DW_CFA_def_cfa_offset: 32
  DW_CFA_advance_loc: 2 to 000000000043749e
  DW_CFA_def_cfa_offset: 24
  DW_CFA_advance_loc: 2 to 00000000004374a0
  DW_CFA_def_cfa_offset: 16
  DW_CFA_advance_loc: 2 to 00000000004374a2
  DW_CFA_def_cfa_offset: 8
  DW_CFA_advance_loc: 5 to 00000000004374a7
  DW_CFA_restore_state
  DW_CFA_advance_loc1: 65 to 00000000004374e8
  DW_CFA_remember_state
  DW_CFA_def_cfa_offset: 56
  DW_CFA_advance_loc: 8 to 00000000004374f0
  DW_CFA_def_cfa_offset: 48
  DW_CFA_advance_loc: 1 to 00000000004374f1
  DW_CFA_def_cfa_offset: 40
  DW_CFA_advance_loc: 2 to 00000000004374f3
  DW_CFA_def_cfa_offset: 32
  DW_CFA_advance_loc: 2 to 00000000004374f5
  DW_CFA_def_cfa_offset: 24
  DW_CFA_advance_loc: 2 to 00000000004374f7
  DW_CFA_def_cfa_offset: 16
  DW_CFA_advance_loc: 2 to 00000000004374f9
  DW_CFA_def_cfa_offset: 8
  DW_CFA_advance_loc: 5 to 00000000004374fe
  DW_CFA_restore_state
  DW_CFA_advance_loc: 46 to 000000000043752c
  DW_CFA_remember_state
  DW_CFA_def_cfa_offset: 56
  DW_CFA_advance_loc: 11 to 0000000000437537
  DW_CFA_def_cfa_offset: 48
  DW_CFA_advance_loc: 1 to 0000000000437538
  DW_CFA_def_cfa_offset: 40
  DW_CFA_advance_loc: 2 to 000000000043753a
  DW_CFA_def_cfa_offset: 32
  DW_CFA_advance_loc: 2 to 000000000043753c
  DW_CFA_def_cfa_offset: 24
  DW_CFA_advance_loc: 2 to 000000000043753e
  DW_CFA_def_cfa_offset: 16
  DW_CFA_advance_loc: 2 to 0000000000437540
  DW_CFA_def_cfa_offset: 8
  DW_CFA_advance_loc: 5 to 0000000000437545
  DW_CFA_restore_state
  DW_CFA_advance_loc: 61 to 0000000000437582
  DW_CFA_remember_state
  DW_CFA_def_cfa_offset: 56
  DW_CFA_advance_loc: 11 to 000000000043758d
  DW_CFA_def_cfa_offset: 48
  DW_CFA_advance_loc: 1 to 000000000043758e
  DW_CFA_def_cfa_offset: 40
  DW_CFA_advance_loc: 2 to 0000000000437590
  DW_CFA_def_cfa_offset: 32
  DW_CFA_advance_loc: 2 to 0000000000437592
  DW_CFA_def_cfa_offset: 24
  DW_CFA_advance_loc: 2 to 0000000000437594
  DW_CFA_def_cfa_offset: 16
  DW_CFA_advance_loc: 2 to 0000000000437596
  DW_CFA_def_cfa_offset: 8
  DW_CFA_advance_loc: 5 to 000000000043759b
  DW_CFA_restore_state
  DW_CFA_advance_loc: 51 to 00000000004375ce
  DW_CFA_remember_state
  DW_CFA_def_cfa_offset: 56
  DW_CFA_advance_loc: 8 to 00000000004375d6
  DW_CFA_def_cfa_offset: 48
  DW_CFA_advance_loc: 1 to 00000000004375d7
  DW_CFA_def_cfa_offset: 40
  DW_CFA_advance_loc: 2 to 00000000004375d9
  DW_CFA_def_cfa_offset: 32
  DW_CFA_advance_loc: 2 to 00000000004375db
  DW_CFA_def_cfa_offset: 24
  DW_CFA_advance_loc: 2 to 00000000004375dd
  DW_CFA_def_cfa_offset: 16
  DW_CFA_advance_loc: 2 to 00000000004375df
  DW_CFA_def_cfa_offset: 8
  DW_CFA_advance_loc: 5 to 00000000004375e4
  DW_CFA_restore_state
  DW_CFA_advance_loc: 57 to 000000000043761d
  DW_CFA_remember_state
  DW_CFA_def_cfa_offset: 56
  DW_CFA_advance_loc: 11 to 0000000000437628
  DW_CFA_def_cfa_offset: 48
  DW_CFA_advance_loc: 1 to 0000000000437629
  DW_CFA_def_cfa_offset: 40
  DW_CFA_advance_loc: 2 to 000000000043762b
  DW_CFA_def_cfa_offset: 32
  DW_CFA_advance_loc: 2 to 000000000043762d
  DW_CFA_def_cfa_offset: 24
  DW_CFA_advance_loc: 2 to 000000000043762f
  DW_CFA_def_cfa_offset: 16
  DW_CFA_advance_loc: 2 to 0000000000437631
  DW_CFA_def_cfa_offset: 8
  DW_CFA_advance_loc: 5 to 0000000000437636
  DW_CFA_restore_state
  DW_CFA_advance_loc: 47 to 0000000000437665
  DW_CFA_remember_state
  DW_CFA_def_cfa_offset: 56
  DW_CFA_advance_loc: 8 to 000000000043766d
  DW_CFA_def_cfa_offset: 48
  DW_CFA_advance_loc: 1 to 000000000043766e
  DW_CFA_def_cfa_offset: 40
  DW_CFA_advance_loc: 2 to 0000000000437670
  DW_CFA_def_cfa_offset: 32
  DW_CFA_advance_loc: 2 to 0000000000437672
  DW_CFA_def_cfa_offset: 24
  DW_CFA_advance_loc: 2 to 0000000000437674
  DW_CFA_def_cfa_offset: 16
  DW_CFA_advance_loc: 2 to 0000000000437676
  DW_CFA_def_cfa_offset: 8
  DW_CFA_advance_loc: 5 to 000000000043767b
  DW_CFA_restore_state
  DW_CFA_advance_loc1: 101 to 00000000004376e0
  DW_CFA_remember_state
  DW_CFA_def_cfa_offset: 56
  DW_CFA_advance_loc: 8 to 00000000004376e8
  DW_CFA_def_cfa_offset: 48
  DW_CFA_advance_loc: 1 to 00000000004376e9
  DW_CFA_def_cfa_offset: 40
  DW_CFA_advance_loc: 2 to 00000000004376eb
  DW_CFA_def_cfa_offset: 32
  DW_CFA_advance_loc: 2 to 00000000004376ed
  DW_CFA_def_cfa_offset: 24
  DW_CFA_advance_loc: 2 to 00000000004376ef
  DW_CFA_def_cfa_offset: 16
  DW_CFA_advance_loc: 2 to 00000000004376f1
  DW_CFA_def_cfa_offset: 8
  DW_CFA_advance_loc: 5 to 00000000004376f6
  DW_CFA_restore_state
  DW_CFA_advance_loc1: 66 to 0000000000437738
  DW_CFA_remember_state
  DW_CFA_def_cfa_offset: 56
  DW_CFA_advance_loc: 8 to 0000000000437740
  DW_CFA_def_cfa_offset: 48
  DW_CFA_advance_loc: 1 to 0000000000437741
  DW_CFA_def_cfa_offset: 40
  DW_CFA_advance_loc: 2 to 0000000000437743
  DW_CFA_def_cfa_offset: 32
  DW_CFA_advance_loc: 2 to 0000000000437745
  DW_CFA_def_cfa_offset: 24
  DW_CFA_advance_loc: 2 to 0000000000437747
  DW_CFA_def_cfa_offset: 16
  DW_CFA_advance_loc: 2 to 0000000000437749
  DW_CFA_def_cfa_offset: 8
  DW_CFA_advance_loc: 5 to 000000000043774e
  DW_CFA_restore_state
  DW_CFA_advance_loc: 46 to 000000000043777c
  DW_CFA_remember_state
  DW_CFA_def_cfa_offset: 56
  DW_CFA_advance_loc: 8 to 0000000000437784
  DW_CFA_def_cfa_offset: 48
  DW_CFA_advance_loc: 1 to 0000000000437785
  DW_CFA_def_cfa_offset: 40
  DW_CFA_advance_loc: 2 to 0000000000437787
  DW_CFA_def_cfa_offset: 32
  DW_CFA_advance_loc: 2 to 0000000000437789
  DW_CFA_def_cfa_offset: 24
  DW_CFA_advance_loc: 2 to 000000000043778b
  DW_CFA_def_cfa_offset: 16
  DW_CFA_advance_loc: 2 to 000000000043778d
  DW_CFA_def_cfa_offset: 8
  DW_CFA_advance_loc: 5 to 0000000000437792
  DW_CFA_restore_state
  DW_CFA_advance_loc: 56 to 00000000004377ca
  DW_CFA_remember_state
  DW_CFA_def_cfa_offset: 56
  DW_CFA_advance_loc: 8 to 00000000004377d2
  DW_CFA_def_cfa_offset: 48
  DW_CFA_advance_loc: 1 to 00000000004377d3
  DW_CFA_def_cfa_offset: 40
  DW_CFA_advance_loc: 2 to 00000000004377d5
  DW_CFA_def_cfa_offset: 32
  DW_CFA_advance_loc: 2 to 00000000004377d7
  DW_CFA_def_cfa_offset: 24
  DW_CFA_advance_loc: 2 to 00000000004377d9
  DW_CFA_def_cfa_offset: 16
  DW_CFA_advance_loc: 2 to 00000000004377db
  DW_CFA_def_cfa_offset: 8
  DW_CFA_advance_loc: 5 to 00000000004377e0
  DW_CFA_restore_state
  DW_CFA_advance_loc: 46 to 000000000043780e
  DW_CFA_remember_state
  DW_CFA_def_cfa_offset: 56
  DW_CFA_advance_loc: 8 to 0000000000437816
  DW_CFA_def_cfa_offset: 48
  DW_CFA_advance_loc: 1 to 0000000000437817
  DW_CFA_def_cfa_offset: 40
  DW_CFA_advance_loc: 2 to 0000000000437819
  DW_CFA_def_cfa_offset: 32
  DW_CFA_advance_loc: 2 to 000000000043781b
  DW_CFA_def_cfa_offset: 24
  DW_CFA_advance_loc: 2 to 000000000043781d
  DW_CFA_def_cfa_offset: 16
  DW_CFA_advance_loc: 2 to 000000000043781f
  DW_CFA_def_cfa_offset: 8
  DW_CFA_advance_loc: 5 to 0000000000437824
  DW_CFA_restore_state
  DW_CFA_advance_loc: 56 to 000000000043785c
  DW_CFA_remember_state
  DW_CFA_def_cfa_offset: 56
  DW_CFA_advance_loc: 8 to 0000000000437864
  DW_CFA_def_cfa_offset: 48
  DW_CFA_advance_loc: 1 to 0000000000437865
  DW_CFA_def_cfa_offset: 40
  DW_CFA_advance_loc: 2 to 0000000000437867
  DW_CFA_def_cfa_offset: 32
  DW_CFA_advance_loc: 2 to 0000000000437869
  DW_CFA_def_cfa_offset: 24
  DW_CFA_advance_loc: 2 to 000000000043786b
  DW_CFA_def_cfa_offset: 16
  DW_CFA_advance_loc: 2 to 000000000043786d
  DW_CFA_def_cfa_offset: 8
  DW_CFA_advance_loc: 5 to 0000000000437872
  DW_CFA_restore_state
  DW_CFA_advance_loc: 46 to 00000000004378a0
  DW_CFA_remember_state
  DW_CFA_def_cfa_offset: 56
  DW_CFA_advance_loc: 8 to 00000000004378a8
  DW_CFA_def_cfa_offset: 48
  DW_CFA_advance_loc: 1 to 00000000004378a9
  DW_CFA_def_cfa_offset: 40
  DW_CFA_advance_loc: 2 to 00000000004378ab
  DW_CFA_def_cfa_offset: 32
  DW_CFA_advance_loc: 2 to 00000000004378ad
  DW_CFA_def_cfa_offset: 24
  DW_CFA_advance_loc: 2 to 00000000004378af
  DW_CFA_def_cfa_offset: 16
  DW_CFA_advance_loc: 2 to 00000000004378b1
  DW_CFA_def_cfa_offset: 8
  DW_CFA_advance_loc: 5 to 00000000004378b6
  DW_CFA_restore_state
  DW_CFA_advance_loc: 56 to 00000000004378ee
  DW_CFA_remember_state
  DW_CFA_def_cfa_offset: 56
  DW_CFA_advance_loc: 8 to 00000000004378f6
  DW_CFA_def_cfa_offset: 48
  DW_CFA_advance_loc: 1 to 00000000004378f7
  DW_CFA_def_cfa_offset: 40
  DW_CFA_advance_loc: 2 to 00000000004378f9
  DW_CFA_def_cfa_offset: 32
  DW_CFA_advance_loc: 2 to 00000000004378fb
  DW_CFA_def_cfa_offset: 24
  DW_CFA_advance_loc: 2 to 00000000004378fd
  DW_CFA_def_cfa_offset: 16
  DW_CFA_advance_loc: 2 to 00000000004378ff
  DW_CFA_def_cfa_offset: 8
  DW_CFA_advance_loc: 5 to 0000000000437904
  DW_CFA_restore_state
  DW_CFA_advance_loc: 46 to 0000000000437932
  DW_CFA_remember_state
  DW_CFA_def_cfa_offset: 56
  DW_CFA_advance_loc: 8 to 000000000043793a
  DW_CFA_def_cfa_offset: 48
  DW_CFA_advance_loc: 1 to 000000000043793b
  DW_CFA_def_cfa_offset: 40
  DW_CFA_advance_loc: 2 to 000000000043793d
  DW_CFA_def_cfa_offset: 32
  DW_CFA_advance_loc: 2 to 000000000043793f
  DW_CFA_def_cfa_offset: 24
  DW_CFA_advance_loc: 2 to 0000000000437941
  DW_CFA_def_cfa_offset: 16
  DW_CFA_advance_loc: 2 to 0000000000437943
  DW_CFA_def_cfa_offset: 8
  DW_CFA_advance_loc: 5 to 0000000000437948
  DW_CFA_restore_state
  DW_CFA_advance_loc: 56 to 0000000000437980
  DW_CFA_remember_state
  DW_CFA_def_cfa_offset: 56
  DW_CFA_advance_loc: 8 to 0000000000437988
  DW_CFA_def_cfa_offset: 48
  DW_CFA_advance_loc: 1 to 0000000000437989
  DW_CFA_def_cfa_offset: 40
  DW_CFA_advance_loc: 2 to 000000000043798b
  DW_CFA_def_cfa_offset: 32
  DW_CFA_advance_loc: 2 to 000000000043798d
  DW_CFA_def_cfa_offset: 24
  DW_CFA_advance_loc: 2 to 000000000043798f
  DW_CFA_def_cfa_offset: 16
  DW_CFA_advance_loc: 2 to 0000000000437991
  DW_CFA_def_cfa_offset: 8
  DW_CFA_advance_loc: 5 to 0000000000437996
  DW_CFA_restore_state
  DW_CFA_advance_loc: 46 to 00000000004379c4
  DW_CFA_remember_state
  DW_CFA_def_cfa_offset: 56
  DW_CFA_advance_loc: 8 to 00000000004379cc
  DW_CFA_def_cfa_offset: 48
  DW_CFA_advance_loc: 1 to 00000000004379cd
  DW_CFA_def_cfa_offset: 40
  DW_CFA_advance_loc: 2 to 00000000004379cf
  DW_CFA_def_cfa_offset: 32
  DW_CFA_advance_loc: 2 to 00000000004379d1
  DW_CFA_def_cfa_offset: 24
  DW_CFA_advance_loc: 2 to 00000000004379d3
  DW_CFA_def_cfa_offset: 16
  DW_CFA_advance_loc: 2 to 00000000004379d5
  DW_CFA_def_cfa_offset: 8
  DW_CFA_advance_loc: 5 to 00000000004379da
  DW_CFA_restore_state
  DW_CFA_advance_loc: 56 to 0000000000437a12
  DW_CFA_remember_state
  DW_CFA_def_cfa_offset: 56
  DW_CFA_advance_loc: 8 to 0000000000437a1a
  DW_CFA_def_cfa_offset: 48
  DW_CFA_advance_loc: 1 to 0000000000437a1b
  DW_CFA_def_cfa_offset: 40
  DW_CFA_advance_loc: 2 to 0000000000437a1d
  DW_CFA_def_cfa_offset: 32
  DW_CFA_advance_loc: 2 to 0000000000437a1f
  DW_CFA_def_cfa_offset: 24
  DW_CFA_advance_loc: 2 to 0000000000437a21
  DW_CFA_def_cfa_offset: 16
  DW_CFA_advance_loc: 2 to 0000000000437a23
  DW_CFA_def_cfa_offset: 8
  DW_CFA_advance_loc: 5 to 0000000000437a28
  DW_CFA_restore_state
  DW_CFA_advance_loc: 46 to 0000000000437a56
  DW_CFA_remember_state
  DW_CFA_def_cfa_offset: 56
  DW_CFA_advance_loc: 8 to 0000000000437a5e
  DW_CFA_def_cfa_offset: 48
  DW_CFA_advance_loc: 1 to 0000000000437a5f
  DW_CFA_def_cfa_offset: 40
  DW_CFA_advance_loc: 2 to 0000000000437a61
  DW_CFA_def_cfa_offset: 32
  DW_CFA_advance_loc: 2 to 0000000000437a63
  DW_CFA_def_cfa_offset: 24
  DW_CFA_advance_loc: 2 to 0000000000437a65
  DW_CFA_def_cfa_offset: 16
  DW_CFA_advance_loc: 2 to 0000000000437a67
  DW_CFA_def_cfa_offset: 8
  DW_CFA_advance_loc: 5 to 0000000000437a6c
  DW_CFA_restore_state
  DW_CFA_advance_loc: 56 to 0000000000437aa4
  DW_CFA_remember_state
  DW_CFA_def_cfa_offset: 56
  DW_CFA_advance_loc: 8 to 0000000000437aac
  DW_CFA_def_cfa_offset: 48
  DW_CFA_advance_loc: 1 to 0000000000437aad
  DW_CFA_def_cfa_offset: 40
  DW_CFA_advance_loc: 2 to 0000000000437aaf
  DW_CFA_def_cfa_offset: 32
  DW_CFA_advance_loc: 2 to 0000000000437ab1
  DW_CFA_def_cfa_offset: 24
  DW_CFA_advance_loc: 2 to 0000000000437ab3
  DW_CFA_def_cfa_offset: 16
  DW_CFA_advance_loc: 2 to 0000000000437ab5
  DW_CFA_def_cfa_offset: 8
  DW_CFA_advance_loc: 5 to 0000000000437aba
  DW_CFA_restore_state
  DW_CFA_advance_loc: 46 to 0000000000437ae8
  DW_CFA_remember_state
  DW_CFA_def_cfa_offset: 56
  DW_CFA_advance_loc: 8 to 0000000000437af0
  DW_CFA_def_cfa_offset: 48
  DW_CFA_advance_loc: 1 to 0000000000437af1
  DW_CFA_def_cfa_offset: 40
  DW_CFA_advance_loc: 2 to 0000000000437af3
  DW_CFA_def_cfa_offset: 32
  DW_CFA_advance_loc: 2 to 0000000000437af5
  DW_CFA_def_cfa_offset: 24
  DW_CFA_advance_loc: 2 to 0000000000437af7
  DW_CFA_def_cfa_offset: 16
  DW_CFA_advance_loc: 2 to 0000000000437af9
  DW_CFA_def_cfa_offset: 8
  DW_CFA_advance_loc: 5 to 0000000000437afe
  DW_CFA_restore_state
  DW_CFA_advance_loc: 56 to 0000000000437b36
  DW_CFA_remember_state
  DW_CFA_def_cfa_offset: 56
  DW_CFA_advance_loc: 8 to 0000000000437b3e
  DW_CFA_def_cfa_offset: 48
  DW_CFA_advance_loc: 1 to 0000000000437b3f
  DW_CFA_def_cfa_offset: 40
  DW_CFA_advance_loc: 2 to 0000000000437b41
  DW_CFA_def_cfa_offset: 32
  DW_CFA_advance_loc: 2 to 0000000000437b43
  DW_CFA_def_cfa_offset: 24
  DW_CFA_advance_loc: 2 to 0000000000437b45
  DW_CFA_def_cfa_offset: 16
  DW_CFA_advance_loc: 2 to 0000000000437b47
  DW_CFA_def_cfa_offset: 8
  DW_CFA_advance_loc: 5 to 0000000000437b4c
  DW_CFA_restore_state
  DW_CFA_advance_loc: 46 to 0000000000437b7a
  DW_CFA_remember_state
  DW_CFA_def_cfa_offset: 56
  DW_CFA_advance_loc: 8 to 0000000000437b82
  DW_CFA_def_cfa_offset: 48
  DW_CFA_advance_loc: 1 to 0000000000437b83
  DW_CFA_def_cfa_offset: 40
  DW_CFA_advance_loc: 2 to 0000000000437b85
  DW_CFA_def_cfa_offset: 32
  DW_CFA_advance_loc: 2 to 0000000000437b87
  DW_CFA_def_cfa_offset: 24
  DW_CFA_advance_loc: 2 to 0000000000437b89
  DW_CFA_def_cfa_offset: 16
  DW_CFA_advance_loc: 2 to 0000000000437b8b
  DW_CFA_def_cfa_offset: 8
  DW_CFA_advance_loc: 5 to 0000000000437b90
  DW_CFA_restore_state
  DW_CFA_advance_loc: 56 to 0000000000437bc8
  DW_CFA_remember_state
  DW_CFA_def_cfa_offset: 56
  DW_CFA_advance_loc: 8 to 0000000000437bd0
  DW_CFA_def_cfa_offset: 48
  DW_CFA_advance_loc: 1 to 0000000000437bd1
  DW_CFA_def_cfa_offset: 40
  DW_CFA_advance_loc: 2 to 0000000000437bd3
  DW_CFA_def_cfa_offset: 32
  DW_CFA_advance_loc: 2 to 0000000000437bd5
  DW_CFA_def_cfa_offset: 24
  DW_CFA_advance_loc: 2 to 0000000000437bd7
  DW_CFA_def_cfa_offset: 16
  DW_CFA_advance_loc: 2 to 0000000000437bd9
  DW_CFA_def_cfa_offset: 8
  DW_CFA_advance_loc: 5 to 0000000000437bde
  DW_CFA_restore_state
  DW_CFA_advance_loc: 46 to 0000000000437c0c
  DW_CFA_remember_state
  DW_CFA_def_cfa_offset: 56
  DW_CFA_advance_loc: 8 to 0000000000437c14
  DW_CFA_def_cfa_offset: 48
  DW_CFA_advance_loc: 1 to 0000000000437c15
  DW_CFA_def_cfa_offset: 40
  DW_CFA_advance_loc: 2 to 0000000000437c17
  DW_CFA_def_cfa_offset: 32
  DW_CFA_advance_loc: 2 to 0000000000437c19
  DW_CFA_def_cfa_offset: 24
  DW_CFA_advance_loc: 2 to 0000000000437c1b
  DW_CFA_def_cfa_offset: 16
  DW_CFA_advance_loc: 2 to 0000000000437c1d
  DW_CFA_def_cfa_offset: 8
  DW_CFA_advance_loc: 5 to 0000000000437c22
  DW_CFA_restore_state
  DW_CFA_advance_loc: 56 to 0000000000437c5a
  DW_CFA_remember_state
  DW_CFA_def_cfa_offset: 56
  DW_CFA_advance_loc: 8 to 0000000000437c62
  DW_CFA_def_cfa_offset: 48
  DW_CFA_advance_loc: 1 to 0000000000437c63
  DW_CFA_def_cfa_offset: 40
  DW_CFA_advance_loc: 2 to 0000000000437c65
  DW_CFA_def_cfa_offset: 32
  DW_CFA_advance_loc: 2 to 0000000000437c67
  DW_CFA_def_cfa_offset: 24
  DW_CFA_advance_loc: 2 to 0000000000437c69
  DW_CFA_def_cfa_offset: 16
  DW_CFA_advance_loc: 2 to 0000000000437c6b
  DW_CFA_def_cfa_offset: 8
  DW_CFA_advance_loc: 5 to 0000000000437c70
  DW_CFA_restore_state
  DW_CFA_advance_loc: 46 to 0000000000437c9e
  DW_CFA_remember_state
  DW_CFA_def_cfa_offset: 56
  DW_CFA_advance_loc: 8 to 0000000000437ca6
  DW_CFA_def_cfa_offset: 48
  DW_CFA_advance_loc: 1 to 0000000000437ca7
  DW_CFA_def_cfa_offset: 40
  DW_CFA_advance_loc: 2 to 0000000000437ca9
  DW_CFA_def_cfa_offset: 32
  DW_CFA_advance_loc: 2 to 0000000000437cab
  DW_CFA_def_cfa_offset: 24
  DW_CFA_advance_loc: 2 to 0000000000437cad
  DW_CFA_def_cfa_offset: 16
  DW_CFA_advance_loc: 2 to 0000000000437caf
  DW_CFA_def_cfa_offset: 8
  DW_CFA_advance_loc: 5 to 0000000000437cb4
  DW_CFA_restore_state
  DW_CFA_advance_loc: 56 to 0000000000437cec
  DW_CFA_remember_state
  DW_CFA_def_cfa_offset: 56
  DW_CFA_advance_loc: 8 to 0000000000437cf4
  DW_CFA_def_cfa_offset: 48
  DW_CFA_advance_loc: 1 to 0000000000437cf5
  DW_CFA_def_cfa_offset: 40
  DW_CFA_advance_loc: 2 to 0000000000437cf7
  DW_CFA_def_cfa_offset: 32
  DW_CFA_advance_loc: 2 to 0000000000437cf9
  DW_CFA_def_cfa_offset: 24
  DW_CFA_advance_loc: 2 to 0000000000437cfb
  DW_CFA_def_cfa_offset: 16
  DW_CFA_advance_loc: 2 to 0000000000437cfd
  DW_CFA_def_cfa_offset: 8
  DW_CFA_advance_loc: 5 to 0000000000437d02
  DW_CFA_restore_state
  DW_CFA_advance_loc: 46 to 0000000000437d30
  DW_CFA_remember_state
  DW_CFA_def_cfa_offset: 56
  DW_CFA_advance_loc: 8 to 0000000000437d38
  DW_CFA_def_cfa_offset: 48
  DW_CFA_advance_loc: 1 to 0000000000437d39
  DW_CFA_def_cfa_offset: 40
  DW_CFA_advance_loc: 2 to 0000000000437d3b
  DW_CFA_def_cfa_offset: 32
  DW_CFA_advance_loc: 2 to 0000000000437d3d
  DW_CFA_def_cfa_offset: 24
  DW_CFA_advance_loc: 2 to 0000000000437d3f
  DW_CFA_def_cfa_offset: 16
  DW_CFA_advance_loc: 2 to 0000000000437d41
  DW_CFA_def_cfa_offset: 8
  DW_CFA_advance_loc: 5 to 0000000000437d46
  DW_CFA_restore_state
  DW_CFA_advance_loc: 56 to 0000000000437d7e
  DW_CFA_remember_state
  DW_CFA_def_cfa_offset: 56
  DW_CFA_advance_loc: 8 to 0000000000437d86
  DW_CFA_def_cfa_offset: 48
  DW_CFA_advance_loc: 1 to 0000000000437d87
  DW_CFA_def_cfa_offset: 40
  DW_CFA_advance_loc: 2 to 0000000000437d89
  DW_CFA_def_cfa_offset: 32
  DW_CFA_advance_loc: 2 to 0000000000437d8b
  DW_CFA_def_cfa_offset: 24
  DW_CFA_advance_loc: 2 to 0000000000437d8d
  DW_CFA_def_cfa_offset: 16
  DW_CFA_advance_loc: 2 to 0000000000437d8f
  DW_CFA_def_cfa_offset: 8
  DW_CFA_advance_loc: 5 to 0000000000437d94
  DW_CFA_restore_state
  DW_CFA_advance_loc: 46 to 0000000000437dc2
  DW_CFA_remember_state
  DW_CFA_def_cfa_offset: 56
  DW_CFA_advance_loc: 8 to 0000000000437dca
  DW_CFA_def_cfa_offset: 48
  DW_CFA_advance_loc: 1 to 0000000000437dcb
  DW_CFA_def_cfa_offset: 40
  DW_CFA_advance_loc: 2 to 0000000000437dcd
  DW_CFA_def_cfa_offset: 32
  DW_CFA_advance_loc: 2 to 0000000000437dcf
  DW_CFA_def_cfa_offset: 24
  DW_CFA_advance_loc: 2 to 0000000000437dd1
  DW_CFA_def_cfa_offset: 16
  DW_CFA_advance_loc: 2 to 0000000000437dd3
  DW_CFA_def_cfa_offset: 8
  DW_CFA_advance_loc: 5 to 0000000000437dd8
  DW_CFA_restore_state
  DW_CFA_advance_loc: 56 to 0000000000437e10
  DW_CFA_remember_state
  DW_CFA_def_cfa_offset: 56
  DW_CFA_advance_loc: 8 to 0000000000437e18
  DW_CFA_def_cfa_offset: 48
  DW_CFA_advance_loc: 1 to 0000000000437e19
  DW_CFA_def_cfa_offset: 40
  DW_CFA_advance_loc: 2 to 0000000000437e1b
  DW_CFA_def_cfa_offset: 32
  DW_CFA_advance_loc: 2 to 0000000000437e1d
  DW_CFA_def_cfa_offset: 24
  DW_CFA_advance_loc: 2 to 0000000000437e1f
  DW_CFA_def_cfa_offset: 16
  DW_CFA_advance_loc: 2 to 0000000000437e21
  DW_CFA_def_cfa_offset: 8
  DW_CFA_advance_loc: 5 to 0000000000437e26
  DW_CFA_restore_state
  DW_CFA_advance_loc: 46 to 0000000000437e54
  DW_CFA_remember_state
  DW_CFA_def_cfa_offset: 56
  DW_CFA_advance_loc: 8 to 0000000000437e5c
  DW_CFA_def_cfa_offset: 48
  DW_CFA_advance_loc: 1 to 0000000000437e5d
  DW_CFA_def_cfa_offset: 40
  DW_CFA_advance_loc: 2 to 0000000000437e5f
  DW_CFA_def_cfa_offset: 32
  DW_CFA_advance_loc: 2 to 0000000000437e61
  DW_CFA_def_cfa_offset: 24
  DW_CFA_advance_loc: 2 to 0000000000437e63
  DW_CFA_def_cfa_offset: 16
  DW_CFA_advance_loc: 2 to 0000000000437e65
  DW_CFA_def_cfa_offset: 8
  DW_CFA_advance_loc: 5 to 0000000000437e6a
  DW_CFA_restore_state
  DW_CFA_advance_loc: 56 to 0000000000437ea2
  DW_CFA_remember_state
  DW_CFA_def_cfa_offset: 56
  DW_CFA_advance_loc: 8 to 0000000000437eaa
  DW_CFA_def_cfa_offset: 48
  DW_CFA_advance_loc: 1 to 0000000000437eab
  DW_CFA_def_cfa_offset: 40
  DW_CFA_advance_loc: 2 to 0000000000437ead
  DW_CFA_def_cfa_offset: 32
  DW_CFA_advance_loc: 2 to 0000000000437eaf
  DW_CFA_def_cfa_offset: 24
  DW_CFA_advance_loc: 2 to 0000000000437eb1
  DW_CFA_def_cfa_offset: 16
  DW_CFA_advance_loc: 2 to 0000000000437eb3
  DW_CFA_def_cfa_offset: 8
  DW_CFA_advance_loc: 5 to 0000000000437eb8
  DW_CFA_restore_state
  DW_CFA_advance_loc: 46 to 0000000000437ee6
  DW_CFA_remember_state
  DW_CFA_def_cfa_offset: 56
  DW_CFA_advance_loc: 8 to 0000000000437eee
  DW_CFA_def_cfa_offset: 48
  DW_CFA_advance_loc: 1 to 0000000000437eef
  DW_CFA_def_cfa_offset: 40
  DW_CFA_advance_loc: 2 to 0000000000437ef1
  DW_CFA_def_cfa_offset: 32
  DW_CFA_advance_loc: 2 to 0000000000437ef3
  DW_CFA_def_cfa_offset: 24
  DW_CFA_advance_loc: 2 to 0000000000437ef5
  DW_CFA_def_cfa_offset: 16
  DW_CFA_advance_loc: 2 to 0000000000437ef7
  DW_CFA_def_cfa_offset: 8
  DW_CFA_advance_loc: 5 to 0000000000437efc
  DW_CFA_restore_state
  DW_CFA_advance_loc: 56 to 0000000000437f34
  DW_CFA_remember_state
  DW_CFA_def_cfa_offset: 56
  DW_CFA_advance_loc: 8 to 0000000000437f3c
  DW_CFA_def_cfa_offset: 48
  DW_CFA_advance_loc: 1 to 0000000000437f3d
  DW_CFA_def_cfa_offset: 40
  DW_CFA_advance_loc: 2 to 0000000000437f3f
  DW_CFA_def_cfa_offset: 32
  DW_CFA_advance_loc: 2 to 0000000000437f41
  DW_CFA_def_cfa_offset: 24
  DW_CFA_advance_loc: 2 to 0000000000437f43
  DW_CFA_def_cfa_offset: 16
  DW_CFA_advance_loc: 2 to 0000000000437f45
  DW_CFA_def_cfa_offset: 8
  DW_CFA_advance_loc: 5 to 0000000000437f4a
  DW_CFA_restore_state
  DW_CFA_advance_loc: 46 to 0000000000437f78
  DW_CFA_remember_state
  DW_CFA_def_cfa_offset: 56
  DW_CFA_advance_loc: 8 to 0000000000437f80
  DW_CFA_def_cfa_offset: 48
  DW_CFA_advance_loc: 1 to 0000000000437f81
  DW_CFA_def_cfa_offset: 40
  DW_CFA_advance_loc: 2 to 0000000000437f83
  DW_CFA_def_cfa_offset: 32
  DW_CFA_advance_loc: 2 to 0000000000437f85
  DW_CFA_def_cfa_offset: 24
  DW_CFA_advance_loc: 2 to 0000000000437f87
  DW_CFA_def_cfa_offset: 16
  DW_CFA_advance_loc: 2 to 0000000000437f89
  DW_CFA_def_cfa_offset: 8
  DW_CFA_advance_loc: 5 to 0000000000437f8e
  DW_CFA_restore_state
  DW_CFA_advance_loc: 56 to 0000000000437fc6
  DW_CFA_remember_state
  DW_CFA_def_cfa_offset: 56
  DW_CFA_advance_loc: 8 to 0000000000437fce
  DW_CFA_def_cfa_offset: 48
  DW_CFA_advance_loc: 1 to 0000000000437fcf
  DW_CFA_def_cfa_offset: 40
  DW_CFA_advance_loc: 2 to 0000000000437fd1
  DW_CFA_def_cfa_offset: 32
  DW_CFA_advance_loc: 2 to 0000000000437fd3
  DW_CFA_def_cfa_offset: 24
  DW_CFA_advance_loc: 2 to 0000000000437fd5
  DW_CFA_def_cfa_offset: 16
  DW_CFA_advance_loc: 2 to 0000000000437fd7
  DW_CFA_def_cfa_offset: 8
  DW_CFA_advance_loc: 5 to 0000000000437fdc
  DW_CFA_restore_state
  DW_CFA_advance_loc: 46 to 000000000043800a
  DW_CFA_remember_state
  DW_CFA_def_cfa_offset: 56
  DW_CFA_advance_loc: 8 to 0000000000438012
  DW_CFA_def_cfa_offset: 48
  DW_CFA_advance_loc: 1 to 0000000000438013
  DW_CFA_def_cfa_offset: 40
  DW_CFA_advance_loc: 2 to 0000000000438015
  DW_CFA_def_cfa_offset: 32
  DW_CFA_advance_loc: 2 to 0000000000438017
  DW_CFA_def_cfa_offset: 24
  DW_CFA_advance_loc: 2 to 0000000000438019
  DW_CFA_def_cfa_offset: 16
  DW_CFA_advance_loc: 2 to 000000000043801b
  DW_CFA_def_cfa_offset: 8
  DW_CFA_advance_loc: 5 to 0000000000438020
  DW_CFA_restore_state
  DW_CFA_advance_loc: 56 to 0000000000438058
  DW_CFA_remember_state
  DW_CFA_def_cfa_offset: 56
  DW_CFA_advance_loc: 8 to 0000000000438060
  DW_CFA_def_cfa_offset: 48
  DW_CFA_advance_loc: 1 to 0000000000438061
  DW_CFA_def_cfa_offset: 40
  DW_CFA_advance_loc: 2 to 0000000000438063
  DW_CFA_def_cfa_offset: 32
  DW_CFA_advance_loc: 2 to 0000000000438065
  DW_CFA_def_cfa_offset: 24
  DW_CFA_advance_loc: 2 to 0000000000438067
  DW_CFA_def_cfa_offset: 16
  DW_CFA_advance_loc: 2 to 0000000000438069
  DW_CFA_def_cfa_offset: 8
  DW_CFA_advance_loc: 5 to 000000000043806e
  DW_CFA_restore_state
  DW_CFA_advance_loc: 46 to 000000000043809c
  DW_CFA_remember_state
  DW_CFA_def_cfa_offset: 56
  DW_CFA_advance_loc: 8 to 00000000004380a4
  DW_CFA_def_cfa_offset: 48
  DW_CFA_advance_loc: 1 to 00000000004380a5
  DW_CFA_def_cfa_offset: 40
  DW_CFA_advance_loc: 2 to 00000000004380a7
  DW_CFA_def_cfa_offset: 32
  DW_CFA_advance_loc: 2 to 00000000004380a9
  DW_CFA_def_cfa_offset: 24
  DW_CFA_advance_loc: 2 to 00000000004380ab
  DW_CFA_def_cfa_offset: 16
  DW_CFA_advance_loc: 2 to 00000000004380ad
  DW_CFA_def_cfa_offset: 8
  DW_CFA_advance_loc: 5 to 00000000004380b2
  DW_CFA_restore_state
  DW_CFA_advance_loc: 56 to 00000000004380ea
  DW_CFA_remember_state
  DW_CFA_def_cfa_offset: 56
  DW_CFA_advance_loc: 8 to 00000000004380f2
  DW_CFA_def_cfa_offset: 48
  DW_CFA_advance_loc: 1 to 00000000004380f3
  DW_CFA_def_cfa_offset: 40
  DW_CFA_advance_loc: 2 to 00000000004380f5
  DW_CFA_def_cfa_offset: 32
  DW_CFA_advance_loc: 2 to 00000000004380f7
  DW_CFA_def_cfa_offset: 24
  DW_CFA_advance_loc: 2 to 00000000004380f9
  DW_CFA_def_cfa_offset: 16
  DW_CFA_advance_loc: 2 to 00000000004380fb
  DW_CFA_def_cfa_offset: 8
  DW_CFA_advance_loc: 5 to 0000000000438100
  DW_CFA_restore_state
  DW_CFA_advance_loc: 46 to 000000000043812e
  DW_CFA_remember_state
  DW_CFA_def_cfa_offset: 56
  DW_CFA_advance_loc: 8 to 0000000000438136
  DW_CFA_def_cfa_offset: 48
  DW_CFA_advance_loc: 1 to 0000000000438137
  DW_CFA_def_cfa_offset: 40
  DW_CFA_advance_loc: 2 to 0000000000438139
  DW_CFA_def_cfa_offset: 32
  DW_CFA_advance_loc: 2 to 000000000043813b
  DW_CFA_def_cfa_offset: 24
  DW_CFA_advance_loc: 2 to 000000000043813d
  DW_CFA_def_cfa_offset: 16
  DW_CFA_advance_loc: 2 to 000000000043813f
  DW_CFA_def_cfa_offset: 8
  DW_CFA_advance_loc: 5 to 0000000000438144
  DW_CFA_restore_state
  DW_CFA_advance_loc: 56 to 000000000043817c
  DW_CFA_remember_state
  DW_CFA_def_cfa_offset: 56
  DW_CFA_advance_loc: 8 to 0000000000438184
  DW_CFA_def_cfa_offset: 48
  DW_CFA_advance_loc: 1 to 0000000000438185
  DW_CFA_def_cfa_offset: 40
  DW_CFA_advance_loc: 2 to 0000000000438187
  DW_CFA_def_cfa_offset: 32
  DW_CFA_advance_loc: 2 to 0000000000438189
  DW_CFA_def_cfa_offset: 24
  DW_CFA_advance_loc: 2 to 000000000043818b
  DW_CFA_def_cfa_offset: 16
  DW_CFA_advance_loc: 2 to 000000000043818d
  DW_CFA_def_cfa_offset: 8
  DW_CFA_advance_loc: 5 to 0000000000438192
  DW_CFA_restore_state
  DW_CFA_advance_loc: 46 to 00000000004381c0
  DW_CFA_remember_state
  DW_CFA_def_cfa_offset: 56
  DW_CFA_advance_loc: 8 to 00000000004381c8
  DW_CFA_def_cfa_offset: 48
  DW_CFA_advance_loc: 1 to 00000000004381c9
  DW_CFA_def_cfa_offset: 40
  DW_CFA_advance_loc: 2 to 00000000004381cb
  DW_CFA_def_cfa_offset: 32
  DW_CFA_advance_loc: 2 to 00000000004381cd
  DW_CFA_def_cfa_offset: 24
  DW_CFA_advance_loc: 2 to 00000000004381cf
  DW_CFA_def_cfa_offset: 16
  DW_CFA_advance_loc: 2 to 00000000004381d1
  DW_CFA_def_cfa_offset: 8
  DW_CFA_advance_loc: 5 to 00000000004381d6
  DW_CFA_restore_state
  DW_CFA_advance_loc: 56 to 000000000043820e
  DW_CFA_remember_state
  DW_CFA_def_cfa_offset: 56
  DW_CFA_advance_loc: 8 to 0000000000438216
  DW_CFA_def_cfa_offset: 48
  DW_CFA_advance_loc: 1 to 0000000000438217
  DW_CFA_def_cfa_offset: 40
  DW_CFA_advance_loc: 2 to 0000000000438219
  DW_CFA_def_cfa_offset: 32
  DW_CFA_advance_loc: 2 to 000000000043821b
  DW_CFA_def_cfa_offset: 24
  DW_CFA_advance_loc: 2 to 000000000043821d
  DW_CFA_def_cfa_offset: 16
  DW_CFA_advance_loc: 2 to 000000000043821f
  DW_CFA_def_cfa_offset: 8
  DW_CFA_advance_loc: 5 to 0000000000438224
  DW_CFA_restore_state
  DW_CFA_advance_loc: 46 to 0000000000438252
  DW_CFA_remember_state
  DW_CFA_def_cfa_offset: 56
  DW_CFA_advance_loc: 8 to 000000000043825a
  DW_CFA_def_cfa_offset: 48
  DW_CFA_advance_loc: 1 to 000000000043825b
  DW_CFA_def_cfa_offset: 40
  DW_CFA_advance_loc: 2 to 000000000043825d
  DW_CFA_def_cfa_offset: 32
  DW_CFA_advance_loc: 2 to 000000000043825f
  DW_CFA_def_cfa_offset: 24
  DW_CFA_advance_loc: 2 to 0000000000438261
  DW_CFA_def_cfa_offset: 16
  DW_CFA_advance_loc: 2 to 0000000000438263
  DW_CFA_def_cfa_offset: 8
  DW_CFA_advance_loc: 5 to 0000000000438268
  DW_CFA_restore_state
  DW_CFA_advance_loc: 56 to 00000000004382a0
  DW_CFA_remember_state
  DW_CFA_def_cfa_offset: 56
  DW_CFA_advance_loc: 8 to 00000000004382a8
  DW_CFA_def_cfa_offset: 48
  DW_CFA_advance_loc: 1 to 00000000004382a9
  DW_CFA_def_cfa_offset: 40
  DW_CFA_advance_loc: 2 to 00000000004382ab
  DW_CFA_def_cfa_offset: 32
  DW_CFA_advance_loc: 2 to 00000000004382ad
  DW_CFA_def_cfa_offset: 24
  DW_CFA_advance_loc: 2 to 00000000004382af
  DW_CFA_def_cfa_offset: 16
  DW_CFA_advance_loc: 2 to 00000000004382b1
  DW_CFA_def_cfa_offset: 8
  DW_CFA_advance_loc: 5 to 00000000004382b6
  DW_CFA_restore_state
  DW_CFA_advance_loc: 46 to 00000000004382e4
  DW_CFA_remember_state
  DW_CFA_def_cfa_offset: 56
  DW_CFA_advance_loc: 8 to 00000000004382ec
  DW_CFA_def_cfa_offset: 48
  DW_CFA_advance_loc: 1 to 00000000004382ed
  DW_CFA_def_cfa_offset: 40
  DW_CFA_advance_loc: 2 to 00000000004382ef
  DW_CFA_def_cfa_offset: 32
  DW_CFA_advance_loc: 2 to 00000000004382f1
  DW_CFA_def_cfa_offset: 24
  DW_CFA_advance_loc: 2 to 00000000004382f3
  DW_CFA_def_cfa_offset: 16
  DW_CFA_advance_loc: 2 to 00000000004382f5
  DW_CFA_def_cfa_offset: 8
  DW_CFA_advance_loc: 5 to 00000000004382fa
  DW_CFA_restore_state
  DW_CFA_advance_loc: 56 to 0000000000438332
  DW_CFA_remember_state
  DW_CFA_def_cfa_offset: 56
  DW_CFA_advance_loc: 8 to 000000000043833a
  DW_CFA_def_cfa_offset: 48
  DW_CFA_advance_loc: 1 to 000000000043833b
  DW_CFA_def_cfa_offset: 40
  DW_CFA_advance_loc: 2 to 000000000043833d
  DW_CFA_def_cfa_offset: 32
  DW_CFA_advance_loc: 2 to 000000000043833f
  DW_CFA_def_cfa_offset: 24
  DW_CFA_advance_loc: 2 to 0000000000438341
  DW_CFA_def_cfa_offset: 16
  DW_CFA_advance_loc: 2 to 0000000000438343
  DW_CFA_def_cfa_offset: 8
  DW_CFA_advance_loc: 5 to 0000000000438348
  DW_CFA_restore_state
  DW_CFA_advance_loc: 46 to 0000000000438376
  DW_CFA_remember_state
  DW_CFA_def_cfa_offset: 56
  DW_CFA_advance_loc: 8 to 000000000043837e
  DW_CFA_def_cfa_offset: 48
  DW_CFA_advance_loc: 1 to 000000000043837f
  DW_CFA_def_cfa_offset: 40
  DW_CFA_advance_loc: 2 to 0000000000438381
  DW_CFA_def_cfa_offset: 32
  DW_CFA_advance_loc: 2 to 0000000000438383
  DW_CFA_def_cfa_offset: 24
  DW_CFA_advance_loc: 2 to 0000000000438385
  DW_CFA_def_cfa_offset: 16
  DW_CFA_advance_loc: 2 to 0000000000438387
  DW_CFA_def_cfa_offset: 8
  DW_CFA_advance_loc: 5 to 000000000043838c
  DW_CFA_restore_state
  DW_CFA_advance_loc: 56 to 00000000004383c4
  DW_CFA_remember_state
  DW_CFA_def_cfa_offset: 56
  DW_CFA_advance_loc: 8 to 00000000004383cc
  DW_CFA_def_cfa_offset: 48
  DW_CFA_advance_loc: 1 to 00000000004383cd
  DW_CFA_def_cfa_offset: 40
  DW_CFA_advance_loc: 2 to 00000000004383cf
  DW_CFA_def_cfa_offset: 32
  DW_CFA_advance_loc: 2 to 00000000004383d1
  DW_CFA_def_cfa_offset: 24
  DW_CFA_advance_loc: 2 to 00000000004383d3
  DW_CFA_def_cfa_offset: 16
  DW_CFA_advance_loc: 2 to 00000000004383d5
  DW_CFA_def_cfa_offset: 8
  DW_CFA_advance_loc: 5 to 00000000004383da
  DW_CFA_restore_state
  DW_CFA_advance_loc: 46 to 0000000000438408
  DW_CFA_remember_state
  DW_CFA_def_cfa_offset: 56
  DW_CFA_advance_loc: 8 to 0000000000438410
  DW_CFA_def_cfa_offset: 48
  DW_CFA_advance_loc: 1 to 0000000000438411
  DW_CFA_def_cfa_offset: 40
  DW_CFA_advance_loc: 2 to 0000000000438413
  DW_CFA_def_cfa_offset: 32
  DW_CFA_advance_loc: 2 to 0000000000438415
  DW_CFA_def_cfa_offset: 24
  DW_CFA_advance_loc: 2 to 0000000000438417
  DW_CFA_def_cfa_offset: 16
  DW_CFA_advance_loc: 2 to 0000000000438419
  DW_CFA_def_cfa_offset: 8
  DW_CFA_advance_loc: 5 to 000000000043841e
  DW_CFA_restore_state
  DW_CFA_advance_loc: 56 to 0000000000438456
  DW_CFA_remember_state
  DW_CFA_def_cfa_offset: 56
  DW_CFA_advance_loc: 8 to 000000000043845e
  DW_CFA_def_cfa_offset: 48
  DW_CFA_advance_loc: 1 to 000000000043845f
  DW_CFA_def_cfa_offset: 40
  DW_CFA_advance_loc: 2 to 0000000000438461
  DW_CFA_def_cfa_offset: 32
  DW_CFA_advance_loc: 2 to 0000000000438463
  DW_CFA_def_cfa_offset: 24
  DW_CFA_advance_loc: 2 to 0000000000438465
  DW_CFA_def_cfa_offset: 16
  DW_CFA_advance_loc: 2 to 0000000000438467
  DW_CFA_def_cfa_offset: 8
  DW_CFA_advance_loc: 5 to 000000000043846c
  DW_CFA_restore_state
  DW_CFA_advance_loc: 46 to 000000000043849a
  DW_CFA_remember_state
  DW_CFA_def_cfa_offset: 56
  DW_CFA_advance_loc: 8 to 00000000004384a2
  DW_CFA_def_cfa_offset: 48
  DW_CFA_advance_loc: 1 to 00000000004384a3
  DW_CFA_def_cfa_offset: 40
  DW_CFA_advance_loc: 2 to 00000000004384a5
  DW_CFA_def_cfa_offset: 32
  DW_CFA_advance_loc: 2 to 00000000004384a7
  DW_CFA_def_cfa_offset: 24
  DW_CFA_advance_loc: 2 to 00000000004384a9
  DW_CFA_def_cfa_offset: 16
  DW_CFA_advance_loc: 2 to 00000000004384ab
  DW_CFA_def_cfa_offset: 8
  DW_CFA_advance_loc: 5 to 00000000004384b0
  DW_CFA_restore_state
  DW_CFA_advance_loc: 56 to 00000000004384e8
  DW_CFA_remember_state
  DW_CFA_def_cfa_offset: 56
  DW_CFA_advance_loc: 8 to 00000000004384f0
  DW_CFA_def_cfa_offset: 48
  DW_CFA_advance_loc: 1 to 00000000004384f1
  DW_CFA_def_cfa_offset: 40
  DW_CFA_advance_loc: 2 to 00000000004384f3
  DW_CFA_def_cfa_offset: 32
  DW_CFA_advance_loc: 2 to 00000000004384f5
  DW_CFA_def_cfa_offset: 24
  DW_CFA_advance_loc: 2 to 00000000004384f7
  DW_CFA_def_cfa_offset: 16
  DW_CFA_advance_loc: 2 to 00000000004384f9
  DW_CFA_def_cfa_offset: 8
  DW_CFA_advance_loc: 5 to 00000000004384fe
  DW_CFA_restore_state
  DW_CFA_advance_loc: 46 to 000000000043852c
  DW_CFA_remember_state
  DW_CFA_def_cfa_offset: 56
  DW_CFA_advance_loc: 8 to 0000000000438534
  DW_CFA_def_cfa_offset: 48
  DW_CFA_advance_loc: 1 to 0000000000438535
  DW_CFA_def_cfa_offset: 40
  DW_CFA_advance_loc: 2 to 0000000000438537
  DW_CFA_def_cfa_offset: 32
  DW_CFA_advance_loc: 2 to 0000000000438539
  DW_CFA_def_cfa_offset: 24
  DW_CFA_advance_loc: 2 to 000000000043853b
  DW_CFA_def_cfa_offset: 16
  DW_CFA_advance_loc: 2 to 000000000043853d
  DW_CFA_def_cfa_offset: 8
  DW_CFA_advance_loc: 5 to 0000000000438542
  DW_CFA_restore_state
  DW_CFA_advance_loc: 56 to 000000000043857a
  DW_CFA_remember_state
  DW_CFA_def_cfa_offset: 56
  DW_CFA_advance_loc: 8 to 0000000000438582
  DW_CFA_def_cfa_offset: 48
  DW_CFA_advance_loc: 1 to 0000000000438583
  DW_CFA_def_cfa_offset: 40
  DW_CFA_advance_loc: 2 to 0000000000438585
  DW_CFA_def_cfa_offset: 32
  DW_CFA_advance_loc: 2 to 0000000000438587
  DW_CFA_def_cfa_offset: 24
  DW_CFA_advance_loc: 2 to 0000000000438589
  DW_CFA_def_cfa_offset: 16
  DW_CFA_advance_loc: 2 to 000000000043858b
  DW_CFA_def_cfa_offset: 8
  DW_CFA_advance_loc: 5 to 0000000000438590
  DW_CFA_restore_state
  DW_CFA_advance_loc: 46 to 00000000004385be
  DW_CFA_remember_state
  DW_CFA_def_cfa_offset: 56
  DW_CFA_advance_loc: 8 to 00000000004385c6
  DW_CFA_def_cfa_offset: 48
  DW_CFA_advance_loc: 1 to 00000000004385c7
  DW_CFA_def_cfa_offset: 40
  DW_CFA_advance_loc: 2 to 00000000004385c9
  DW_CFA_def_cfa_offset: 32
  DW_CFA_advance_loc: 2 to 00000000004385cb
  DW_CFA_def_cfa_offset: 24
  DW_CFA_advance_loc: 2 to 00000000004385cd
  DW_CFA_def_cfa_offset: 16
  DW_CFA_advance_loc: 2 to 00000000004385cf
  DW_CFA_def_cfa_offset: 8
  DW_CFA_advance_loc: 5 to 00000000004385d4
  DW_CFA_restore_state
  DW_CFA_advance_loc: 56 to 000000000043860c
  DW_CFA_remember_state
  DW_CFA_def_cfa_offset: 56
  DW_CFA_advance_loc: 8 to 0000000000438614
  DW_CFA_def_cfa_offset: 48
  DW_CFA_advance_loc: 1 to 0000000000438615
  DW_CFA_def_cfa_offset: 40
  DW_CFA_advance_loc: 2 to 0000000000438617
  DW_CFA_def_cfa_offset: 32
  DW_CFA_advance_loc: 2 to 0000000000438619
  DW_CFA_def_cfa_offset: 24
  DW_CFA_advance_loc: 2 to 000000000043861b
  DW_CFA_def_cfa_offset: 16
  DW_CFA_advance_loc: 2 to 000000000043861d
  DW_CFA_def_cfa_offset: 8
  DW_CFA_advance_loc: 5 to 0000000000438622
  DW_CFA_restore_state
  DW_CFA_advance_loc: 46 to 0000000000438650
  DW_CFA_remember_state
  DW_CFA_def_cfa_offset: 56
  DW_CFA_advance_loc: 8 to 0000000000438658
  DW_CFA_def_cfa_offset: 48
  DW_CFA_advance_loc: 1 to 0000000000438659
  DW_CFA_def_cfa_offset: 40
  DW_CFA_advance_loc: 2 to 000000000043865b
  DW_CFA_def_cfa_offset: 32
  DW_CFA_advance_loc: 2 to 000000000043865d
  DW_CFA_def_cfa_offset: 24
  DW_CFA_advance_loc: 2 to 000000000043865f
  DW_CFA_def_cfa_offset: 16
  DW_CFA_advance_loc: 2 to 0000000000438661
  DW_CFA_def_cfa_offset: 8
  DW_CFA_advance_loc: 5 to 0000000000438666
  DW_CFA_restore_state
  DW_CFA_advance_loc: 56 to 000000000043869e
  DW_CFA_remember_state
  DW_CFA_def_cfa_offset: 56
  DW_CFA_advance_loc: 8 to 00000000004386a6
  DW_CFA_def_cfa_offset: 48
  DW_CFA_advance_loc: 1 to 00000000004386a7
  DW_CFA_def_cfa_offset: 40
  DW_CFA_advance_loc: 2 to 00000000004386a9
  DW_CFA_def_cfa_offset: 32
  DW_CFA_advance_loc: 2 to 00000000004386ab
  DW_CFA_def_cfa_offset: 24
  DW_CFA_advance_loc: 2 to 00000000004386ad
  DW_CFA_def_cfa_offset: 16
  DW_CFA_advance_loc: 2 to 00000000004386af
  DW_CFA_def_cfa_offset: 8
  DW_CFA_advance_loc: 5 to 00000000004386b4
  DW_CFA_restore_state
  DW_CFA_advance_loc: 46 to 00000000004386e2
  DW_CFA_remember_state
  DW_CFA_def_cfa_offset: 56
  DW_CFA_advance_loc: 8 to 00000000004386ea
  DW_CFA_def_cfa_offset: 48
  DW_CFA_advance_loc: 1 to 00000000004386eb
  DW_CFA_def_cfa_offset: 40
  DW_CFA_advance_loc: 2 to 00000000004386ed
  DW_CFA_def_cfa_offset: 32
  DW_CFA_advance_loc: 2 to 00000000004386ef
  DW_CFA_def_cfa_offset: 24
  DW_CFA_advance_loc: 2 to 00000000004386f1
  DW_CFA_def_cfa_offset: 16
  DW_CFA_advance_loc: 2 to 00000000004386f3
  DW_CFA_def_cfa_offset: 8
  DW_CFA_advance_loc: 5 to 00000000004386f8
  DW_CFA_restore_state
  DW_CFA_advance_loc: 56 to 0000000000438730
  DW_CFA_remember_state
  DW_CFA_def_cfa_offset: 56
  DW_CFA_advance_loc: 8 to 0000000000438738
  DW_CFA_def_cfa_offset: 48
  DW_CFA_advance_loc: 1 to 0000000000438739
  DW_CFA_def_cfa_offset: 40
  DW_CFA_advance_loc: 2 to 000000000043873b
  DW_CFA_def_cfa_offset: 32
  DW_CFA_advance_loc: 2 to 000000000043873d
  DW_CFA_def_cfa_offset: 24
  DW_CFA_advance_loc: 2 to 000000000043873f
  DW_CFA_def_cfa_offset: 16
  DW_CFA_advance_loc: 2 to 0000000000438741
  DW_CFA_def_cfa_offset: 8
  DW_CFA_advance_loc: 5 to 0000000000438746
  DW_CFA_restore_state
  DW_CFA_advance_loc: 46 to 0000000000438774
  DW_CFA_remember_state
  DW_CFA_def_cfa_offset: 56
  DW_CFA_advance_loc: 8 to 000000000043877c
  DW_CFA_def_cfa_offset: 48
  DW_CFA_advance_loc: 1 to 000000000043877d
  DW_CFA_def_cfa_offset: 40
  DW_CFA_advance_loc: 2 to 000000000043877f
  DW_CFA_def_cfa_offset: 32
  DW_CFA_advance_loc: 2 to 0000000000438781
  DW_CFA_def_cfa_offset: 24
  DW_CFA_advance_loc: 2 to 0000000000438783
  DW_CFA_def_cfa_offset: 16
  DW_CFA_advance_loc: 2 to 0000000000438785
  DW_CFA_def_cfa_offset: 8
  DW_CFA_advance_loc: 5 to 000000000043878a
  DW_CFA_restore_state
  DW_CFA_advance_loc: 56 to 00000000004387c2
  DW_CFA_remember_state
  DW_CFA_def_cfa_offset: 56
  DW_CFA_advance_loc: 8 to 00000000004387ca
  DW_CFA_def_cfa_offset: 48
  DW_CFA_advance_loc: 1 to 00000000004387cb
  DW_CFA_def_cfa_offset: 40
  DW_CFA_advance_loc: 2 to 00000000004387cd
  DW_CFA_def_cfa_offset: 32
  DW_CFA_advance_loc: 2 to 00000000004387cf
  DW_CFA_def_cfa_offset: 24
  DW_CFA_advance_loc: 2 to 00000000004387d1
  DW_CFA_def_cfa_offset: 16
  DW_CFA_advance_loc: 2 to 00000000004387d3
  DW_CFA_def_cfa_offset: 8
  DW_CFA_advance_loc: 5 to 00000000004387d8
  DW_CFA_restore_state
  DW_CFA_advance_loc: 46 to 0000000000438806
  DW_CFA_remember_state
  DW_CFA_def_cfa_offset: 56
  DW_CFA_advance_loc: 8 to 000000000043880e
  DW_CFA_def_cfa_offset: 48
  DW_CFA_advance_loc: 1 to 000000000043880f
  DW_CFA_def_cfa_offset: 40
  DW_CFA_advance_loc: 2 to 0000000000438811
  DW_CFA_def_cfa_offset: 32
  DW_CFA_advance_loc: 2 to 0000000000438813
  DW_CFA_def_cfa_offset: 24
  DW_CFA_advance_loc: 2 to 0000000000438815
  DW_CFA_def_cfa_offset: 16
  DW_CFA_advance_loc: 2 to 0000000000438817
  DW_CFA_def_cfa_offset: 8
  DW_CFA_advance_loc: 5 to 000000000043881c
  DW_CFA_restore_state
  DW_CFA_advance_loc: 56 to 0000000000438854
  DW_CFA_remember_state
  DW_CFA_def_cfa_offset: 56
  DW_CFA_advance_loc: 8 to 000000000043885c
  DW_CFA_def_cfa_offset: 48
  DW_CFA_advance_loc: 1 to 000000000043885d
  DW_CFA_def_cfa_offset: 40
  DW_CFA_advance_loc: 2 to 000000000043885f
  DW_CFA_def_cfa_offset: 32
  DW_CFA_advance_loc: 2 to 0000000000438861
  DW_CFA_def_cfa_offset: 24
  DW_CFA_advance_loc: 2 to 0000000000438863
  DW_CFA_def_cfa_offset: 16
  DW_CFA_advance_loc: 2 to 0000000000438865
  DW_CFA_def_cfa_offset: 8
  DW_CFA_advance_loc: 5 to 000000000043886a
  DW_CFA_restore_state
  DW_CFA_advance_loc: 46 to 0000000000438898
  DW_CFA_remember_state
  DW_CFA_def_cfa_offset: 56
  DW_CFA_advance_loc: 8 to 00000000004388a0
  DW_CFA_def_cfa_offset: 48
  DW_CFA_advance_loc: 1 to 00000000004388a1
  DW_CFA_def_cfa_offset: 40
  DW_CFA_advance_loc: 2 to 00000000004388a3
  DW_CFA_def_cfa_offset: 32
  DW_CFA_advance_loc: 2 to 00000000004388a5
  DW_CFA_def_cfa_offset: 24
  DW_CFA_advance_loc: 2 to 00000000004388a7
  DW_CFA_def_cfa_offset: 16
  DW_CFA_advance_loc: 2 to 00000000004388a9
  DW_CFA_def_cfa_offset: 8
  DW_CFA_advance_loc: 5 to 00000000004388ae
  DW_CFA_restore_state
  DW_CFA_advance_loc: 56 to 00000000004388e6
  DW_CFA_remember_state
  DW_CFA_def_cfa_offset: 56
  DW_CFA_advance_loc: 8 to 00000000004388ee
  DW_CFA_def_cfa_offset: 48
  DW_CFA_advance_loc: 1 to 00000000004388ef
  DW_CFA_def_cfa_offset: 40
  DW_CFA_advance_loc: 2 to 00000000004388f1
  DW_CFA_def_cfa_offset: 32
  DW_CFA_advance_loc: 2 to 00000000004388f3
  DW_CFA_def_cfa_offset: 24
  DW_CFA_advance_loc: 2 to 00000000004388f5
  DW_CFA_def_cfa_offset: 16
  DW_CFA_advance_loc: 2 to 00000000004388f7
  DW_CFA_def_cfa_offset: 8
  DW_CFA_advance_loc: 5 to 00000000004388fc
  DW_CFA_restore_state
  DW_CFA_advance_loc: 46 to 000000000043892a
  DW_CFA_remember_state
  DW_CFA_def_cfa_offset: 56
  DW_CFA_advance_loc: 8 to 0000000000438932
  DW_CFA_def_cfa_offset: 48
  DW_CFA_advance_loc: 1 to 0000000000438933
  DW_CFA_def_cfa_offset: 40
  DW_CFA_advance_loc: 2 to 0000000000438935
  DW_CFA_def_cfa_offset: 32
  DW_CFA_advance_loc: 2 to 0000000000438937
  DW_CFA_def_cfa_offset: 24
  DW_CFA_advance_loc: 2 to 0000000000438939
  DW_CFA_def_cfa_offset: 16
  DW_CFA_advance_loc: 2 to 000000000043893b
  DW_CFA_def_cfa_offset: 8
  DW_CFA_advance_loc: 5 to 0000000000438940
  DW_CFA_restore_state
  DW_CFA_advance_loc: 56 to 0000000000438978
  DW_CFA_remember_state
  DW_CFA_def_cfa_offset: 56
  DW_CFA_advance_loc: 8 to 0000000000438980
  DW_CFA_def_cfa_offset: 48
  DW_CFA_advance_loc: 1 to 0000000000438981
  DW_CFA_def_cfa_offset: 40
  DW_CFA_advance_loc: 2 to 0000000000438983
  DW_CFA_def_cfa_offset: 32
  DW_CFA_advance_loc: 2 to 0000000000438985
  DW_CFA_def_cfa_offset: 24
  DW_CFA_advance_loc: 2 to 0000000000438987
  DW_CFA_def_cfa_offset: 16
  DW_CFA_advance_loc: 2 to 0000000000438989
  DW_CFA_def_cfa_offset: 8
  DW_CFA_advance_loc: 5 to 000000000043898e
  DW_CFA_restore_state
  DW_CFA_advance_loc: 46 to 00000000004389bc
  DW_CFA_remember_state
  DW_CFA_def_cfa_offset: 56
  DW_CFA_advance_loc: 8 to 00000000004389c4
  DW_CFA_def_cfa_offset: 48
  DW_CFA_advance_loc: 1 to 00000000004389c5
  DW_CFA_def_cfa_offset: 40
  DW_CFA_advance_loc: 2 to 00000000004389c7
  DW_CFA_def_cfa_offset: 32
  DW_CFA_advance_loc: 2 to 00000000004389c9
  DW_CFA_def_cfa_offset: 24
  DW_CFA_advance_loc: 2 to 00000000004389cb
  DW_CFA_def_cfa_offset: 16
  DW_CFA_advance_loc: 2 to 00000000004389cd
  DW_CFA_def_cfa_offset: 8
  DW_CFA_advance_loc: 5 to 00000000004389d2
  DW_CFA_restore_state
  DW_CFA_advance_loc: 56 to 0000000000438a0a
  DW_CFA_remember_state
  DW_CFA_def_cfa_offset: 56
  DW_CFA_advance_loc: 8 to 0000000000438a12
  DW_CFA_def_cfa_offset: 48
  DW_CFA_advance_loc: 1 to 0000000000438a13
  DW_CFA_def_cfa_offset: 40
  DW_CFA_advance_loc: 2 to 0000000000438a15
  DW_CFA_def_cfa_offset: 32
  DW_CFA_advance_loc: 2 to 0000000000438a17
  DW_CFA_def_cfa_offset: 24
  DW_CFA_advance_loc: 2 to 0000000000438a19
  DW_CFA_def_cfa_offset: 16
  DW_CFA_advance_loc: 2 to 0000000000438a1b
  DW_CFA_def_cfa_offset: 8
  DW_CFA_advance_loc: 5 to 0000000000438a20
  DW_CFA_restore_state
  DW_CFA_advance_loc: 46 to 0000000000438a4e
  DW_CFA_remember_state
  DW_CFA_def_cfa_offset: 56
  DW_CFA_advance_loc: 8 to 0000000000438a56
  DW_CFA_def_cfa_offset: 48
  DW_CFA_advance_loc: 1 to 0000000000438a57
  DW_CFA_def_cfa_offset: 40
  DW_CFA_advance_loc: 2 to 0000000000438a59
  DW_CFA_def_cfa_offset: 32
  DW_CFA_advance_loc: 2 to 0000000000438a5b
  DW_CFA_def_cfa_offset: 24
  DW_CFA_advance_loc: 2 to 0000000000438a5d
  DW_CFA_def_cfa_offset: 16
  DW_CFA_advance_loc: 2 to 0000000000438a5f
  DW_CFA_def_cfa_offset: 8
  DW_CFA_advance_loc: 5 to 0000000000438a64
  DW_CFA_restore_state
  DW_CFA_advance_loc: 56 to 0000000000438a9c
  DW_CFA_remember_state
  DW_CFA_def_cfa_offset: 56
  DW_CFA_advance_loc: 8 to 0000000000438aa4
  DW_CFA_def_cfa_offset: 48
  DW_CFA_advance_loc: 1 to 0000000000438aa5
  DW_CFA_def_cfa_offset: 40
  DW_CFA_advance_loc: 2 to 0000000000438aa7
  DW_CFA_def_cfa_offset: 32
  DW_CFA_advance_loc: 2 to 0000000000438aa9
  DW_CFA_def_cfa_offset: 24
  DW_CFA_advance_loc: 2 to 0000000000438aab
  DW_CFA_def_cfa_offset: 16
  DW_CFA_advance_loc: 2 to 0000000000438aad
  DW_CFA_def_cfa_offset: 8
  DW_CFA_advance_loc: 5 to 0000000000438ab2
  DW_CFA_restore_state
  DW_CFA_advance_loc: 46 to 0000000000438ae0
  DW_CFA_remember_state
  DW_CFA_def_cfa_offset: 56
  DW_CFA_advance_loc: 8 to 0000000000438ae8
  DW_CFA_def_cfa_offset: 48
  DW_CFA_advance_loc: 1 to 0000000000438ae9
  DW_CFA_def_cfa_offset: 40
  DW_CFA_advance_loc: 2 to 0000000000438aeb
  DW_CFA_def_cfa_offset: 32
  DW_CFA_advance_loc: 2 to 0000000000438aed
  DW_CFA_def_cfa_offset: 24
  DW_CFA_advance_loc: 2 to 0000000000438aef
  DW_CFA_def_cfa_offset: 16
  DW_CFA_advance_loc: 2 to 0000000000438af1
  DW_CFA_def_cfa_offset: 8
  DW_CFA_advance_loc: 5 to 0000000000438af6
  DW_CFA_restore_state
  DW_CFA_advance_loc: 56 to 0000000000438b2e
  DW_CFA_remember_state
  DW_CFA_def_cfa_offset: 56
  DW_CFA_advance_loc: 8 to 0000000000438b36
  DW_CFA_def_cfa_offset: 48
  DW_CFA_advance_loc: 1 to 0000000000438b37
  DW_CFA_def_cfa_offset: 40
  DW_CFA_advance_loc: 2 to 0000000000438b39
  DW_CFA_def_cfa_offset: 32
  DW_CFA_advance_loc: 2 to 0000000000438b3b
  DW_CFA_def_cfa_offset: 24
  DW_CFA_advance_loc: 2 to 0000000000438b3d
  DW_CFA_def_cfa_offset: 16
  DW_CFA_advance_loc: 2 to 0000000000438b3f
  DW_CFA_def_cfa_offset: 8
  DW_CFA_advance_loc: 5 to 0000000000438b44
  DW_CFA_restore_state
  DW_CFA_advance_loc: 46 to 0000000000438b72
  DW_CFA_remember_state
  DW_CFA_def_cfa_offset: 56
  DW_CFA_advance_loc: 8 to 0000000000438b7a
  DW_CFA_def_cfa_offset: 48
  DW_CFA_advance_loc: 1 to 0000000000438b7b
  DW_CFA_def_cfa_offset: 40
  DW_CFA_advance_loc: 2 to 0000000000438b7d
  DW_CFA_def_cfa_offset: 32
  DW_CFA_advance_loc: 2 to 0000000000438b7f
  DW_CFA_def_cfa_offset: 24
  DW_CFA_advance_loc: 2 to 0000000000438b81
  DW_CFA_def_cfa_offset: 16
  DW_CFA_advance_loc: 2 to 0000000000438b83
  DW_CFA_def_cfa_offset: 8
  DW_CFA_advance_loc: 5 to 0000000000438b88
  DW_CFA_restore_state
  DW_CFA_advance_loc: 56 to 0000000000438bc0
  DW_CFA_remember_state
  DW_CFA_def_cfa_offset: 56
  DW_CFA_advance_loc: 8 to 0000000000438bc8
  DW_CFA_def_cfa_offset: 48
  DW_CFA_advance_loc: 1 to 0000000000438bc9
  DW_CFA_def_cfa_offset: 40
  DW_CFA_advance_loc: 2 to 0000000000438bcb
  DW_CFA_def_cfa_offset: 32
  DW_CFA_advance_loc: 2 to 0000000000438bcd
  DW_CFA_def_cfa_offset: 24
  DW_CFA_advance_loc: 2 to 0000000000438bcf
  DW_CFA_def_cfa_offset: 16
  DW_CFA_advance_loc: 2 to 0000000000438bd1
  DW_CFA_def_cfa_offset: 8
  DW_CFA_advance_loc: 5 to 0000000000438bd6
  DW_CFA_restore_state
  DW_CFA_advance_loc: 46 to 0000000000438c04
  DW_CFA_remember_state
  DW_CFA_def_cfa_offset: 56
  DW_CFA_advance_loc: 8 to 0000000000438c0c
  DW_CFA_def_cfa_offset: 48
  DW_CFA_advance_loc: 1 to 0000000000438c0d
  DW_CFA_def_cfa_offset: 40
  DW_CFA_advance_loc: 2 to 0000000000438c0f
  DW_CFA_def_cfa_offset: 32
  DW_CFA_advance_loc: 2 to 0000000000438c11
  DW_CFA_def_cfa_offset: 24
  DW_CFA_advance_loc: 2 to 0000000000438c13
  DW_CFA_def_cfa_offset: 16
  DW_CFA_advance_loc: 2 to 0000000000438c15
  DW_CFA_def_cfa_offset: 8
  DW_CFA_advance_loc: 5 to 0000000000438c1a
  DW_CFA_restore_state
  DW_CFA_advance_loc: 56 to 0000000000438c52
  DW_CFA_remember_state
  DW_CFA_def_cfa_offset: 56
  DW_CFA_advance_loc: 8 to 0000000000438c5a
  DW_CFA_def_cfa_offset: 48
  DW_CFA_advance_loc: 1 to 0000000000438c5b
  DW_CFA_def_cfa_offset: 40
  DW_CFA_advance_loc: 2 to 0000000000438c5d
  DW_CFA_def_cfa_offset: 32
  DW_CFA_advance_loc: 2 to 0000000000438c5f
  DW_CFA_def_cfa_offset: 24
  DW_CFA_advance_loc: 2 to 0000000000438c61
  DW_CFA_def_cfa_offset: 16
  DW_CFA_advance_loc: 2 to 0000000000438c63
  DW_CFA_def_cfa_offset: 8
  DW_CFA_advance_loc: 5 to 0000000000438c68
  DW_CFA_restore_state
  DW_CFA_advance_loc: 46 to 0000000000438c96
  DW_CFA_remember_state
  DW_CFA_def_cfa_offset: 56
  DW_CFA_advance_loc: 8 to 0000000000438c9e
  DW_CFA_def_cfa_offset: 48
  DW_CFA_advance_loc: 1 to 0000000000438c9f
  DW_CFA_def_cfa_offset: 40
  DW_CFA_advance_loc: 2 to 0000000000438ca1
  DW_CFA_def_cfa_offset: 32
  DW_CFA_advance_loc: 2 to 0000000000438ca3
  DW_CFA_def_cfa_offset: 24
  DW_CFA_advance_loc: 2 to 0000000000438ca5
  DW_CFA_def_cfa_offset: 16
  DW_CFA_advance_loc: 2 to 0000000000438ca7
  DW_CFA_def_cfa_offset: 8
  DW_CFA_advance_loc: 5 to 0000000000438cac
  DW_CFA_restore_state
  DW_CFA_advance_loc: 56 to 0000000000438ce4
  DW_CFA_remember_state
  DW_CFA_def_cfa_offset: 56
  DW_CFA_advance_loc: 8 to 0000000000438cec
  DW_CFA_def_cfa_offset: 48
  DW_CFA_advance_loc: 1 to 0000000000438ced
  DW_CFA_def_cfa_offset: 40
  DW_CFA_advance_loc: 2 to 0000000000438cef
  DW_CFA_def_cfa_offset: 32
  DW_CFA_advance_loc: 2 to 0000000000438cf1
  DW_CFA_def_cfa_offset: 24
  DW_CFA_advance_loc: 2 to 0000000000438cf3
  DW_CFA_def_cfa_offset: 16
  DW_CFA_advance_loc: 2 to 0000000000438cf5
  DW_CFA_def_cfa_offset: 8
  DW_CFA_advance_loc: 5 to 0000000000438cfa
  DW_CFA_restore_state
  DW_CFA_advance_loc: 46 to 0000000000438d28
  DW_CFA_remember_state
  DW_CFA_def_cfa_offset: 56
  DW_CFA_advance_loc: 8 to 0000000000438d30
  DW_CFA_def_cfa_offset: 48
  DW_CFA_advance_loc: 1 to 0000000000438d31
  DW_CFA_def_cfa_offset: 40
  DW_CFA_advance_loc: 2 to 0000000000438d33
  DW_CFA_def_cfa_offset: 32
  DW_CFA_advance_loc: 2 to 0000000000438d35
  DW_CFA_def_cfa_offset: 24
  DW_CFA_advance_loc: 2 to 0000000000438d37
  DW_CFA_def_cfa_offset: 16
  DW_CFA_advance_loc: 2 to 0000000000438d39
  DW_CFA_def_cfa_offset: 8
  DW_CFA_advance_loc: 5 to 0000000000438d3e
  DW_CFA_restore_state
  DW_CFA_advance_loc: 56 to 0000000000438d76
  DW_CFA_remember_state
  DW_CFA_def_cfa_offset: 56
  DW_CFA_advance_loc: 8 to 0000000000438d7e
  DW_CFA_def_cfa_offset: 48
  DW_CFA_advance_loc: 1 to 0000000000438d7f
  DW_CFA_def_cfa_offset: 40
  DW_CFA_advance_loc: 2 to 0000000000438d81
  DW_CFA_def_cfa_offset: 32
  DW_CFA_advance_loc: 2 to 0000000000438d83
  DW_CFA_def_cfa_offset: 24
  DW_CFA_advance_loc: 2 to 0000000000438d85
  DW_CFA_def_cfa_offset: 16
  DW_CFA_advance_loc: 2 to 0000000000438d87
  DW_CFA_def_cfa_offset: 8
  DW_CFA_advance_loc: 5 to 0000000000438d8c
  DW_CFA_restore_state
  DW_CFA_advance_loc: 46 to 0000000000438dba
  DW_CFA_remember_state
  DW_CFA_def_cfa_offset: 56
  DW_CFA_advance_loc: 8 to 0000000000438dc2
  DW_CFA_def_cfa_offset: 48
  DW_CFA_advance_loc: 1 to 0000000000438dc3
  DW_CFA_def_cfa_offset: 40
  DW_CFA_advance_loc: 2 to 0000000000438dc5
  DW_CFA_def_cfa_offset: 32
  DW_CFA_advance_loc: 2 to 0000000000438dc7
  DW_CFA_def_cfa_offset: 24
  DW_CFA_advance_loc: 2 to 0000000000438dc9
  DW_CFA_def_cfa_offset: 16
  DW_CFA_advance_loc: 2 to 0000000000438dcb
  DW_CFA_def_cfa_offset: 8
  DW_CFA_advance_loc: 5 to 0000000000438dd0
  DW_CFA_restore_state
  DW_CFA_advance_loc: 56 to 0000000000438e08
  DW_CFA_remember_state
  DW_CFA_def_cfa_offset: 56
  DW_CFA_advance_loc: 8 to 0000000000438e10
  DW_CFA_def_cfa_offset: 48
  DW_CFA_advance_loc: 1 to 0000000000438e11
  DW_CFA_def_cfa_offset: 40
  DW_CFA_advance_loc: 2 to 0000000000438e13
  DW_CFA_def_cfa_offset: 32
  DW_CFA_advance_loc: 2 to 0000000000438e15
  DW_CFA_def_cfa_offset: 24
  DW_CFA_advance_loc: 2 to 0000000000438e17
  DW_CFA_def_cfa_offset: 16
  DW_CFA_advance_loc: 2 to 0000000000438e19
  DW_CFA_def_cfa_offset: 8
  DW_CFA_advance_loc: 5 to 0000000000438e1e
  DW_CFA_restore_state
  DW_CFA_advance_loc: 46 to 0000000000438e4c
  DW_CFA_remember_state
  DW_CFA_def_cfa_offset: 56
  DW_CFA_advance_loc: 8 to 0000000000438e54
  DW_CFA_def_cfa_offset: 48
  DW_CFA_advance_loc: 1 to 0000000000438e55
  DW_CFA_def_cfa_offset: 40
  DW_CFA_advance_loc: 2 to 0000000000438e57
  DW_CFA_def_cfa_offset: 32
  DW_CFA_advance_loc: 2 to 0000000000438e59
  DW_CFA_def_cfa_offset: 24
  DW_CFA_advance_loc: 2 to 0000000000438e5b
  DW_CFA_def_cfa_offset: 16
  DW_CFA_advance_loc: 2 to 0000000000438e5d
  DW_CFA_def_cfa_offset: 8
  DW_CFA_advance_loc: 5 to 0000000000438e62
  DW_CFA_restore_state
  DW_CFA_advance_loc: 56 to 0000000000438e9a
  DW_CFA_remember_state
  DW_CFA_def_cfa_offset: 56
  DW_CFA_advance_loc: 8 to 0000000000438ea2
  DW_CFA_def_cfa_offset: 48
  DW_CFA_advance_loc: 1 to 0000000000438ea3
  DW_CFA_def_cfa_offset: 40
  DW_CFA_advance_loc: 2 to 0000000000438ea5
  DW_CFA_def_cfa_offset: 32
  DW_CFA_advance_loc: 2 to 0000000000438ea7
  DW_CFA_def_cfa_offset: 24
  DW_CFA_advance_loc: 2 to 0000000000438ea9
  DW_CFA_def_cfa_offset: 16
  DW_CFA_advance_loc: 2 to 0000000000438eab
  DW_CFA_def_cfa_offset: 8
  DW_CFA_advance_loc: 5 to 0000000000438eb0
  DW_CFA_restore_state
  DW_CFA_advance_loc: 46 to 0000000000438ede
  DW_CFA_remember_state
  DW_CFA_def_cfa_offset: 56
  DW_CFA_advance_loc: 8 to 0000000000438ee6
  DW_CFA_def_cfa_offset: 48
  DW_CFA_advance_loc: 1 to 0000000000438ee7
  DW_CFA_def_cfa_offset: 40
  DW_CFA_advance_loc: 2 to 0000000000438ee9
  DW_CFA_def_cfa_offset: 32
  DW_CFA_advance_loc: 2 to 0000000000438eeb
  DW_CFA_def_cfa_offset: 24
  DW_CFA_advance_loc: 2 to 0000000000438eed
  DW_CFA_def_cfa_offset: 16
  DW_CFA_advance_loc: 2 to 0000000000438eef
  DW_CFA_def_cfa_offset: 8
  DW_CFA_advance_loc: 5 to 0000000000438ef4
  DW_CFA_restore_state
  DW_CFA_advance_loc: 56 to 0000000000438f2c
  DW_CFA_remember_state
  DW_CFA_def_cfa_offset: 56
  DW_CFA_advance_loc: 8 to 0000000000438f34
  DW_CFA_def_cfa_offset: 48
  DW_CFA_advance_loc: 1 to 0000000000438f35
  DW_CFA_def_cfa_offset: 40
  DW_CFA_advance_loc: 2 to 0000000000438f37
  DW_CFA_def_cfa_offset: 32
  DW_CFA_advance_loc: 2 to 0000000000438f39
  DW_CFA_def_cfa_offset: 24
  DW_CFA_advance_loc: 2 to 0000000000438f3b
  DW_CFA_def_cfa_offset: 16
  DW_CFA_advance_loc: 2 to 0000000000438f3d
  DW_CFA_def_cfa_offset: 8
  DW_CFA_advance_loc: 5 to 0000000000438f42
  DW_CFA_restore_state
  DW_CFA_advance_loc: 46 to 0000000000438f70
  DW_CFA_remember_state
  DW_CFA_def_cfa_offset: 56
  DW_CFA_advance_loc: 8 to 0000000000438f78
  DW_CFA_def_cfa_offset: 48
  DW_CFA_advance_loc: 1 to 0000000000438f79
  DW_CFA_def_cfa_offset: 40
  DW_CFA_advance_loc: 2 to 0000000000438f7b
  DW_CFA_def_cfa_offset: 32
  DW_CFA_advance_loc: 2 to 0000000000438f7d
  DW_CFA_def_cfa_offset: 24
  DW_CFA_advance_loc: 2 to 0000000000438f7f
  DW_CFA_def_cfa_offset: 16
  DW_CFA_advance_loc: 2 to 0000000000438f81
  DW_CFA_def_cfa_offset: 8
  DW_CFA_advance_loc: 5 to 0000000000438f86
  DW_CFA_restore_state
  DW_CFA_advance_loc: 56 to 0000000000438fbe
  DW_CFA_remember_state
  DW_CFA_def_cfa_offset: 56
  DW_CFA_advance_loc: 8 to 0000000000438fc6
  DW_CFA_def_cfa_offset: 48
  DW_CFA_advance_loc: 1 to 0000000000438fc7
  DW_CFA_def_cfa_offset: 40
  DW_CFA_advance_loc: 2 to 0000000000438fc9
  DW_CFA_def_cfa_offset: 32
  DW_CFA_advance_loc: 2 to 0000000000438fcb
  DW_CFA_def_cfa_offset: 24
  DW_CFA_advance_loc: 2 to 0000000000438fcd
  DW_CFA_def_cfa_offset: 16
  DW_CFA_advance_loc: 2 to 0000000000438fcf
  DW_CFA_def_cfa_offset: 8
  DW_CFA_advance_loc: 5 to 0000000000438fd4
  DW_CFA_restore_state
  DW_CFA_advance_loc: 46 to 0000000000439002
  DW_CFA_remember_state
  DW_CFA_def_cfa_offset: 56
  DW_CFA_advance_loc: 8 to 000000000043900a
  DW_CFA_def_cfa_offset: 48
  DW_CFA_advance_loc: 1 to 000000000043900b
  DW_CFA_def_cfa_offset: 40
  DW_CFA_advance_loc: 2 to 000000000043900d
  DW_CFA_def_cfa_offset: 32
  DW_CFA_advance_loc: 2 to 000000000043900f
  DW_CFA_def_cfa_offset: 24
  DW_CFA_advance_loc: 2 to 0000000000439011
  DW_CFA_def_cfa_offset: 16
  DW_CFA_advance_loc: 2 to 0000000000439013
  DW_CFA_def_cfa_offset: 8
  DW_CFA_advance_loc: 5 to 0000000000439018
  DW_CFA_restore_state
  DW_CFA_advance_loc: 56 to 0000000000439050
  DW_CFA_remember_state
  DW_CFA_def_cfa_offset: 56
  DW_CFA_advance_loc: 8 to 0000000000439058
  DW_CFA_def_cfa_offset: 48
  DW_CFA_advance_loc: 1 to 0000000000439059
  DW_CFA_def_cfa_offset: 40
  DW_CFA_advance_loc: 2 to 000000000043905b
  DW_CFA_def_cfa_offset: 32
  DW_CFA_advance_loc: 2 to 000000000043905d
  DW_CFA_def_cfa_offset: 24
  DW_CFA_advance_loc: 2 to 000000000043905f
  DW_CFA_def_cfa_offset: 16
  DW_CFA_advance_loc: 2 to 0000000000439061
  DW_CFA_def_cfa_offset: 8
  DW_CFA_advance_loc: 5 to 0000000000439066
  DW_CFA_restore_state
  DW_CFA_advance_loc: 46 to 0000000000439094
  DW_CFA_remember_state
  DW_CFA_def_cfa_offset: 56
  DW_CFA_advance_loc: 8 to 000000000043909c
  DW_CFA_def_cfa_offset: 48
  DW_CFA_advance_loc: 1 to 000000000043909d
  DW_CFA_def_cfa_offset: 40
  DW_CFA_advance_loc: 2 to 000000000043909f
  DW_CFA_def_cfa_offset: 32
  DW_CFA_advance_loc: 2 to 00000000004390a1
  DW_CFA_def_cfa_offset: 24
  DW_CFA_advance_loc: 2 to 00000000004390a3
  DW_CFA_def_cfa_offset: 16
  DW_CFA_advance_loc: 2 to 00000000004390a5
  DW_CFA_def_cfa_offset: 8
  DW_CFA_advance_loc: 5 to 00000000004390aa
  DW_CFA_restore_state
  DW_CFA_advance_loc: 56 to 00000000004390e2
  DW_CFA_remember_state
  DW_CFA_def_cfa_offset: 56
  DW_CFA_advance_loc: 8 to 00000000004390ea
  DW_CFA_def_cfa_offset: 48
  DW_CFA_advance_loc: 1 to 00000000004390eb
  DW_CFA_def_cfa_offset: 40
  DW_CFA_advance_loc: 2 to 00000000004390ed
  DW_CFA_def_cfa_offset: 32
  DW_CFA_advance_loc: 2 to 00000000004390ef
  DW_CFA_def_cfa_offset: 24
  DW_CFA_advance_loc: 2 to 00000000004390f1
  DW_CFA_def_cfa_offset: 16
  DW_CFA_advance_loc: 2 to 00000000004390f3
  DW_CFA_def_cfa_offset: 8
  DW_CFA_advance_loc: 5 to 00000000004390f8
  DW_CFA_restore_state
  DW_CFA_advance_loc: 46 to 0000000000439126
  DW_CFA_remember_state
  DW_CFA_def_cfa_offset: 56
  DW_CFA_advance_loc: 8 to 000000000043912e
  DW_CFA_def_cfa_offset: 48
  DW_CFA_advance_loc: 1 to 000000000043912f
  DW_CFA_def_cfa_offset: 40
  DW_CFA_advance_loc: 2 to 0000000000439131
  DW_CFA_def_cfa_offset: 32
  DW_CFA_advance_loc: 2 to 0000000000439133
  DW_CFA_def_cfa_offset: 24
  DW_CFA_advance_loc: 2 to 0000000000439135
  DW_CFA_def_cfa_offset: 16
  DW_CFA_advance_loc: 2 to 0000000000439137
  DW_CFA_def_cfa_offset: 8
  DW_CFA_advance_loc: 5 to 000000000043913c
  DW_CFA_restore_state
  DW_CFA_advance_loc: 56 to 0000000000439174
  DW_CFA_remember_state
  DW_CFA_def_cfa_offset: 56
  DW_CFA_advance_loc: 8 to 000000000043917c
  DW_CFA_def_cfa_offset: 48
  DW_CFA_advance_loc: 1 to 000000000043917d
  DW_CFA_def_cfa_offset: 40
  DW_CFA_advance_loc: 2 to 000000000043917f
  DW_CFA_def_cfa_offset: 32
  DW_CFA_advance_loc: 2 to 0000000000439181
  DW_CFA_def_cfa_offset: 24
  DW_CFA_advance_loc: 2 to 0000000000439183
  DW_CFA_def_cfa_offset: 16
  DW_CFA_advance_loc: 2 to 0000000000439185
  DW_CFA_def_cfa_offset: 8
  DW_CFA_advance_loc: 5 to 000000000043918a
  DW_CFA_restore_state
  DW_CFA_advance_loc: 46 to 00000000004391b8
  DW_CFA_remember_state
  DW_CFA_def_cfa_offset: 56
  DW_CFA_advance_loc: 8 to 00000000004391c0
  DW_CFA_def_cfa_offset: 48
  DW_CFA_advance_loc: 1 to 00000000004391c1
  DW_CFA_def_cfa_offset: 40
  DW_CFA_advance_loc: 2 to 00000000004391c3
  DW_CFA_def_cfa_offset: 32
  DW_CFA_advance_loc: 2 to 00000000004391c5
  DW_CFA_def_cfa_offset: 24
  DW_CFA_advance_loc: 2 to 00000000004391c7
  DW_CFA_def_cfa_offset: 16
  DW_CFA_advance_loc: 2 to 00000000004391c9
  DW_CFA_def_cfa_offset: 8
  DW_CFA_advance_loc: 5 to 00000000004391ce
  DW_CFA_restore_state
  DW_CFA_advance_loc: 56 to 0000000000439206
  DW_CFA_remember_state
  DW_CFA_def_cfa_offset: 56
  DW_CFA_advance_loc: 8 to 000000000043920e
  DW_CFA_def_cfa_offset: 48
  DW_CFA_advance_loc: 1 to 000000000043920f
  DW_CFA_def_cfa_offset: 40
  DW_CFA_advance_loc: 2 to 0000000000439211
  DW_CFA_def_cfa_offset: 32
  DW_CFA_advance_loc: 2 to 0000000000439213
  DW_CFA_def_cfa_offset: 24
  DW_CFA_advance_loc: 2 to 0000000000439215
  DW_CFA_def_cfa_offset: 16
  DW_CFA_advance_loc: 2 to 0000000000439217
  DW_CFA_def_cfa_offset: 8
  DW_CFA_advance_loc: 5 to 000000000043921c
  DW_CFA_restore_state
  DW_CFA_advance_loc: 46 to 000000000043924a
  DW_CFA_remember_state
  DW_CFA_def_cfa_offset: 56
  DW_CFA_advance_loc: 8 to 0000000000439252
  DW_CFA_def_cfa_offset: 48
  DW_CFA_advance_loc: 1 to 0000000000439253
  DW_CFA_def_cfa_offset: 40
  DW_CFA_advance_loc: 2 to 0000000000439255
  DW_CFA_def_cfa_offset: 32
  DW_CFA_advance_loc: 2 to 0000000000439257
  DW_CFA_def_cfa_offset: 24
  DW_CFA_advance_loc: 2 to 0000000000439259
  DW_CFA_def_cfa_offset: 16
  DW_CFA_advance_loc: 2 to 000000000043925b
  DW_CFA_def_cfa_offset: 8
  DW_CFA_advance_loc: 5 to 0000000000439260
  DW_CFA_restore_state
  DW_CFA_advance_loc: 56 to 0000000000439298
  DW_CFA_remember_state
  DW_CFA_def_cfa_offset: 56
  DW_CFA_advance_loc: 8 to 00000000004392a0
  DW_CFA_def_cfa_offset: 48
  DW_CFA_advance_loc: 1 to 00000000004392a1
  DW_CFA_def_cfa_offset: 40
  DW_CFA_advance_loc: 2 to 00000000004392a3
  DW_CFA_def_cfa_offset: 32
  DW_CFA_advance_loc: 2 to 00000000004392a5
  DW_CFA_def_cfa_offset: 24
  DW_CFA_advance_loc: 2 to 00000000004392a7
  DW_CFA_def_cfa_offset: 16
  DW_CFA_advance_loc: 2 to 00000000004392a9
  DW_CFA_def_cfa_offset: 8
  DW_CFA_advance_loc: 5 to 00000000004392ae
  DW_CFA_restore_state
  DW_CFA_advance_loc: 46 to 00000000004392dc
  DW_CFA_remember_state
  DW_CFA_def_cfa_offset: 56
  DW_CFA_advance_loc: 8 to 00000000004392e4
  DW_CFA_def_cfa_offset: 48
  DW_CFA_advance_loc: 1 to 00000000004392e5
  DW_CFA_def_cfa_offset: 40
  DW_CFA_advance_loc: 2 to 00000000004392e7
  DW_CFA_def_cfa_offset: 32
  DW_CFA_advance_loc: 2 to 00000000004392e9
  DW_CFA_def_cfa_offset: 24
  DW_CFA_advance_loc: 2 to 00000000004392eb
  DW_CFA_def_cfa_offset: 16
  DW_CFA_advance_loc: 2 to 00000000004392ed
  DW_CFA_def_cfa_offset: 8
  DW_CFA_advance_loc: 5 to 00000000004392f2
  DW_CFA_restore_state
  DW_CFA_advance_loc: 56 to 000000000043932a
  DW_CFA_remember_state
  DW_CFA_def_cfa_offset: 56
  DW_CFA_advance_loc: 8 to 0000000000439332
  DW_CFA_def_cfa_offset: 48
  DW_CFA_advance_loc: 1 to 0000000000439333
  DW_CFA_def_cfa_offset: 40
  DW_CFA_advance_loc: 2 to 0000000000439335
  DW_CFA_def_cfa_offset: 32
  DW_CFA_advance_loc: 2 to 0000000000439337
  DW_CFA_def_cfa_offset: 24
  DW_CFA_advance_loc: 2 to 0000000000439339
  DW_CFA_def_cfa_offset: 16
  DW_CFA_advance_loc: 2 to 000000000043933b
  DW_CFA_def_cfa_offset: 8
  DW_CFA_advance_loc: 5 to 0000000000439340
  DW_CFA_restore_state
  DW_CFA_advance_loc: 46 to 000000000043936e
  DW_CFA_remember_state
  DW_CFA_def_cfa_offset: 56
  DW_CFA_advance_loc: 8 to 0000000000439376
  DW_CFA_def_cfa_offset: 48
  DW_CFA_advance_loc: 1 to 0000000000439377
  DW_CFA_def_cfa_offset: 40
  DW_CFA_advance_loc: 2 to 0000000000439379
  DW_CFA_def_cfa_offset: 32
  DW_CFA_advance_loc: 2 to 000000000043937b
  DW_CFA_def_cfa_offset: 24
  DW_CFA_advance_loc: 2 to 000000000043937d
  DW_CFA_def_cfa_offset: 16
  DW_CFA_advance_loc: 2 to 000000000043937f
  DW_CFA_def_cfa_offset: 8
  DW_CFA_advance_loc: 5 to 0000000000439384
  DW_CFA_restore_state
  DW_CFA_advance_loc: 56 to 00000000004393bc
  DW_CFA_remember_state
  DW_CFA_def_cfa_offset: 56
  DW_CFA_advance_loc: 8 to 00000000004393c4
  DW_CFA_def_cfa_offset: 48
  DW_CFA_advance_loc: 1 to 00000000004393c5
  DW_CFA_def_cfa_offset: 40
  DW_CFA_advance_loc: 2 to 00000000004393c7
  DW_CFA_def_cfa_offset: 32
  DW_CFA_advance_loc: 2 to 00000000004393c9
  DW_CFA_def_cfa_offset: 24
  DW_CFA_advance_loc: 2 to 00000000004393cb
  DW_CFA_def_cfa_offset: 16
  DW_CFA_advance_loc: 2 to 00000000004393cd
  DW_CFA_def_cfa_offset: 8
  DW_CFA_advance_loc: 5 to 00000000004393d2
  DW_CFA_restore_state
  DW_CFA_advance_loc: 46 to 0000000000439400
  DW_CFA_remember_state
  DW_CFA_def_cfa_offset: 56
  DW_CFA_advance_loc: 8 to 0000000000439408
  DW_CFA_def_cfa_offset: 48
  DW_CFA_advance_loc: 1 to 0000000000439409
  DW_CFA_def_cfa_offset: 40
  DW_CFA_advance_loc: 2 to 000000000043940b
  DW_CFA_def_cfa_offset: 32
  DW_CFA_advance_loc: 2 to 000000000043940d
  DW_CFA_def_cfa_offset: 24
  DW_CFA_advance_loc: 2 to 000000000043940f
  DW_CFA_def_cfa_offset: 16
  DW_CFA_advance_loc: 2 to 0000000000439411
  DW_CFA_def_cfa_offset: 8
  DW_CFA_advance_loc: 5 to 0000000000439416
  DW_CFA_restore_state
  DW_CFA_advance_loc: 56 to 000000000043944e
  DW_CFA_remember_state
  DW_CFA_def_cfa_offset: 56
  DW_CFA_advance_loc: 8 to 0000000000439456
  DW_CFA_def_cfa_offset: 48
  DW_CFA_advance_loc: 1 to 0000000000439457
  DW_CFA_def_cfa_offset: 40
  DW_CFA_advance_loc: 2 to 0000000000439459
  DW_CFA_def_cfa_offset: 32
  DW_CFA_advance_loc: 2 to 000000000043945b
  DW_CFA_def_cfa_offset: 24
  DW_CFA_advance_loc: 2 to 000000000043945d
  DW_CFA_def_cfa_offset: 16
  DW_CFA_advance_loc: 2 to 000000000043945f
  DW_CFA_def_cfa_offset: 8
  DW_CFA_advance_loc: 5 to 0000000000439464
  DW_CFA_restore_state
  DW_CFA_advance_loc: 46 to 0000000000439492
  DW_CFA_remember_state
  DW_CFA_def_cfa_offset: 56
  DW_CFA_advance_loc: 8 to 000000000043949a
  DW_CFA_def_cfa_offset: 48
  DW_CFA_advance_loc: 1 to 000000000043949b
  DW_CFA_def_cfa_offset: 40
  DW_CFA_advance_loc: 2 to 000000000043949d
  DW_CFA_def_cfa_offset: 32
  DW_CFA_advance_loc: 2 to 000000000043949f
  DW_CFA_def_cfa_offset: 24
  DW_CFA_advance_loc: 2 to 00000000004394a1
  DW_CFA_def_cfa_offset: 16
  DW_CFA_advance_loc: 2 to 00000000004394a3
  DW_CFA_def_cfa_offset: 8
  DW_CFA_advance_loc: 5 to 00000000004394a8
  DW_CFA_restore_state
  DW_CFA_advance_loc: 56 to 00000000004394e0
  DW_CFA_remember_state
  DW_CFA_def_cfa_offset: 56
  DW_CFA_advance_loc: 8 to 00000000004394e8
  DW_CFA_def_cfa_offset: 48
  DW_CFA_advance_loc: 1 to 00000000004394e9
  DW_CFA_def_cfa_offset: 40
  DW_CFA_advance_loc: 2 to 00000000004394eb
  DW_CFA_def_cfa_offset: 32
  DW_CFA_advance_loc: 2 to 00000000004394ed
  DW_CFA_def_cfa_offset: 24
  DW_CFA_advance_loc: 2 to 00000000004394ef
  DW_CFA_def_cfa_offset: 16
  DW_CFA_advance_loc: 2 to 00000000004394f1
  DW_CFA_def_cfa_offset: 8
  DW_CFA_advance_loc: 5 to 00000000004394f6
  DW_CFA_restore_state
  DW_CFA_advance_loc: 46 to 0000000000439524
  DW_CFA_remember_state
  DW_CFA_def_cfa_offset: 56
  DW_CFA_advance_loc: 8 to 000000000043952c
  DW_CFA_def_cfa_offset: 48
  DW_CFA_advance_loc: 1 to 000000000043952d
  DW_CFA_def_cfa_offset: 40
  DW_CFA_advance_loc: 2 to 000000000043952f
  DW_CFA_def_cfa_offset: 32
  DW_CFA_advance_loc: 2 to 0000000000439531
  DW_CFA_def_cfa_offset: 24
  DW_CFA_advance_loc: 2 to 0000000000439533
  DW_CFA_def_cfa_offset: 16
  DW_CFA_advance_loc: 2 to 0000000000439535
  DW_CFA_def_cfa_offset: 8
  DW_CFA_advance_loc: 5 to 000000000043953a
  DW_CFA_restore_state
  DW_CFA_advance_loc: 56 to 0000000000439572
  DW_CFA_remember_state
  DW_CFA_def_cfa_offset: 56
  DW_CFA_advance_loc: 8 to 000000000043957a
  DW_CFA_def_cfa_offset: 48
  DW_CFA_advance_loc: 1 to 000000000043957b
  DW_CFA_def_cfa_offset: 40
  DW_CFA_advance_loc: 2 to 000000000043957d
  DW_CFA_def_cfa_offset: 32
  DW_CFA_advance_loc: 2 to 000000000043957f
  DW_CFA_def_cfa_offset: 24
  DW_CFA_advance_loc: 2 to 0000000000439581
  DW_CFA_def_cfa_offset: 16
  DW_CFA_advance_loc: 2 to 0000000000439583
  DW_CFA_def_cfa_offset: 8
  DW_CFA_advance_loc: 5 to 0000000000439588
  DW_CFA_restore_state
  DW_CFA_advance_loc: 46 to 00000000004395b6
