  DW_CFA_def_cfa_offset: 48
  DW_CFA_advance_loc: 1 to 00000000004298f2
  DW_CFA_def_cfa_offset: 40
  DW_CFA_advance_loc: 2 to 00000000004298f4
  DW_CFA_def_cfa_offset: 32
  DW_CFA_advance_loc: 2 to 00000000004298f6
  DW_CFA_def_cfa_offset: 24
  DW_CFA_advance_loc: 2 to 00000000004298f8
  DW_CFA_def_cfa_offset: 16
  DW_CFA_advance_loc: 2 to 00000000004298fa
  DW_CFA_def_cfa_offset: 8
  DW_CFA_advance_loc: 5 to 00000000004298ff
  DW_CFA_restore_state
  DW_CFA_advance_loc: 56 to 0000000000429937
  DW_CFA_remember_state
  DW_CFA_def_cfa_offset: 56
  DW_CFA_advance_loc: 8 to 000000000042993f
  DW_CFA_def_cfa_offset: 48
  DW_CFA_advance_loc: 1 to 0000000000429940
  DW_CFA_def_cfa_offset: 40
  DW_CFA_advance_loc: 2 to 0000000000429942
  DW_CFA_def_cfa_offset: 32
  DW_CFA_advance_loc: 2 to 0000000000429944
  DW_CFA_def_cfa_offset: 24
  DW_CFA_advance_loc: 2 to 0000000000429946
  DW_CFA_def_cfa_offset: 16
  DW_CFA_advance_loc: 2 to 0000000000429948
  DW_CFA_def_cfa_offset: 8
  DW_CFA_advance_loc: 5 to 000000000042994d
  DW_CFA_restore_state
  DW_CFA_advance_loc: 46 to 000000000042997b
  DW_CFA_remember_state
  DW_CFA_def_cfa_offset: 56
  DW_CFA_advance_loc: 8 to 0000000000429983
  DW_CFA_def_cfa_offset: 48
  DW_CFA_advance_loc: 1 to 0000000000429984
  DW_CFA_def_cfa_offset: 40
  DW_CFA_advance_loc: 2 to 0000000000429986
  DW_CFA_def_cfa_offset: 32
  DW_CFA_advance_loc: 2 to 0000000000429988
  DW_CFA_def_cfa_offset: 24
  DW_CFA_advance_loc: 2 to 000000000042998a
  DW_CFA_def_cfa_offset: 16
  DW_CFA_advance_loc: 2 to 000000000042998c
  DW_CFA_def_cfa_offset: 8
  DW_CFA_advance_loc: 5 to 0000000000429991
  DW_CFA_restore_state
  DW_CFA_advance_loc: 56 to 00000000004299c9
  DW_CFA_remember_state
  DW_CFA_def_cfa_offset: 56
  DW_CFA_advance_loc: 8 to 00000000004299d1
  DW_CFA_def_cfa_offset: 48
  DW_CFA_advance_loc: 1 to 00000000004299d2
  DW_CFA_def_cfa_offset: 40
  DW_CFA_advance_loc: 2 to 00000000004299d4
  DW_CFA_def_cfa_offset: 32
  DW_CFA_advance_loc: 2 to 00000000004299d6
  DW_CFA_def_cfa_offset: 24
  DW_CFA_advance_loc: 2 to 00000000004299d8
  DW_CFA_def_cfa_offset: 16
  DW_CFA_advance_loc: 2 to 00000000004299da
  DW_CFA_def_cfa_offset: 8
  DW_CFA_advance_loc: 5 to 00000000004299df
  DW_CFA_restore_state
  DW_CFA_advance_loc: 46 to 0000000000429a0d
  DW_CFA_remember_state
  DW_CFA_def_cfa_offset: 56
  DW_CFA_advance_loc: 8 to 0000000000429a15
  DW_CFA_def_cfa_offset: 48
  DW_CFA_advance_loc: 1 to 0000000000429a16
  DW_CFA_def_cfa_offset: 40
  DW_CFA_advance_loc: 2 to 0000000000429a18
  DW_CFA_def_cfa_offset: 32
  DW_CFA_advance_loc: 2 to 0000000000429a1a
  DW_CFA_def_cfa_offset: 24
  DW_CFA_advance_loc: 2 to 0000000000429a1c
  DW_CFA_def_cfa_offset: 16
  DW_CFA_advance_loc: 2 to 0000000000429a1e
  DW_CFA_def_cfa_offset: 8
  DW_CFA_advance_loc: 5 to 0000000000429a23
  DW_CFA_restore_state
  DW_CFA_advance_loc: 56 to 0000000000429a5b
  DW_CFA_remember_state
  DW_CFA_def_cfa_offset: 56
  DW_CFA_advance_loc: 8 to 0000000000429a63
  DW_CFA_def_cfa_offset: 48
  DW_CFA_advance_loc: 1 to 0000000000429a64
  DW_CFA_def_cfa_offset: 40
  DW_CFA_advance_loc: 2 to 0000000000429a66
  DW_CFA_def_cfa_offset: 32
  DW_CFA_advance_loc: 2 to 0000000000429a68
  DW_CFA_def_cfa_offset: 24
  DW_CFA_advance_loc: 2 to 0000000000429a6a
  DW_CFA_def_cfa_offset: 16
  DW_CFA_advance_loc: 2 to 0000000000429a6c
  DW_CFA_def_cfa_offset: 8
  DW_CFA_advance_loc: 5 to 0000000000429a71
  DW_CFA_restore_state
  DW_CFA_advance_loc: 46 to 0000000000429a9f
  DW_CFA_remember_state
  DW_CFA_def_cfa_offset: 56
  DW_CFA_advance_loc: 8 to 0000000000429aa7
  DW_CFA_def_cfa_offset: 48
  DW_CFA_advance_loc: 1 to 0000000000429aa8
  DW_CFA_def_cfa_offset: 40
  DW_CFA_advance_loc: 2 to 0000000000429aaa
  DW_CFA_def_cfa_offset: 32
  DW_CFA_advance_loc: 2 to 0000000000429aac
  DW_CFA_def_cfa_offset: 24
  DW_CFA_advance_loc: 2 to 0000000000429aae
  DW_CFA_def_cfa_offset: 16
  DW_CFA_advance_loc: 2 to 0000000000429ab0
  DW_CFA_def_cfa_offset: 8
  DW_CFA_advance_loc: 5 to 0000000000429ab5
  DW_CFA_restore_state
  DW_CFA_advance_loc: 56 to 0000000000429aed
  DW_CFA_remember_state
  DW_CFA_def_cfa_offset: 56
  DW_CFA_advance_loc: 8 to 0000000000429af5
  DW_CFA_def_cfa_offset: 48
  DW_CFA_advance_loc: 1 to 0000000000429af6
  DW_CFA_def_cfa_offset: 40
  DW_CFA_advance_loc: 2 to 0000000000429af8
  DW_CFA_def_cfa_offset: 32
  DW_CFA_advance_loc: 2 to 0000000000429afa
  DW_CFA_def_cfa_offset: 24
  DW_CFA_advance_loc: 2 to 0000000000429afc
  DW_CFA_def_cfa_offset: 16
  DW_CFA_advance_loc: 2 to 0000000000429afe
  DW_CFA_def_cfa_offset: 8
  DW_CFA_advance_loc: 5 to 0000000000429b03
  DW_CFA_restore_state
  DW_CFA_advance_loc: 46 to 0000000000429b31
  DW_CFA_remember_state
  DW_CFA_def_cfa_offset: 56
  DW_CFA_advance_loc: 8 to 0000000000429b39
  DW_CFA_def_cfa_offset: 48
  DW_CFA_advance_loc: 1 to 0000000000429b3a
  DW_CFA_def_cfa_offset: 40
  DW_CFA_advance_loc: 2 to 0000000000429b3c
  DW_CFA_def_cfa_offset: 32
  DW_CFA_advance_loc: 2 to 0000000000429b3e
  DW_CFA_def_cfa_offset: 24
  DW_CFA_advance_loc: 2 to 0000000000429b40
  DW_CFA_def_cfa_offset: 16
  DW_CFA_advance_loc: 2 to 0000000000429b42
  DW_CFA_def_cfa_offset: 8
  DW_CFA_advance_loc: 5 to 0000000000429b47
  DW_CFA_restore_state
  DW_CFA_advance_loc: 56 to 0000000000429b7f
  DW_CFA_remember_state
  DW_CFA_def_cfa_offset: 56
  DW_CFA_advance_loc: 8 to 0000000000429b87
  DW_CFA_def_cfa_offset: 48
  DW_CFA_advance_loc: 1 to 0000000000429b88
  DW_CFA_def_cfa_offset: 40
  DW_CFA_advance_loc: 2 to 0000000000429b8a
  DW_CFA_def_cfa_offset: 32
  DW_CFA_advance_loc: 2 to 0000000000429b8c
  DW_CFA_def_cfa_offset: 24
  DW_CFA_advance_loc: 2 to 0000000000429b8e
  DW_CFA_def_cfa_offset: 16
  DW_CFA_advance_loc: 2 to 0000000000429b90
  DW_CFA_def_cfa_offset: 8
  DW_CFA_advance_loc: 5 to 0000000000429b95
  DW_CFA_restore_state
  DW_CFA_advance_loc: 46 to 0000000000429bc3
  DW_CFA_remember_state
  DW_CFA_def_cfa_offset: 56
  DW_CFA_advance_loc: 8 to 0000000000429bcb
  DW_CFA_def_cfa_offset: 48
  DW_CFA_advance_loc: 1 to 0000000000429bcc
  DW_CFA_def_cfa_offset: 40
  DW_CFA_advance_loc: 2 to 0000000000429bce
  DW_CFA_def_cfa_offset: 32
  DW_CFA_advance_loc: 2 to 0000000000429bd0
  DW_CFA_def_cfa_offset: 24
  DW_CFA_advance_loc: 2 to 0000000000429bd2
  DW_CFA_def_cfa_offset: 16
  DW_CFA_advance_loc: 2 to 0000000000429bd4
  DW_CFA_def_cfa_offset: 8
  DW_CFA_advance_loc: 5 to 0000000000429bd9
  DW_CFA_restore_state
  DW_CFA_advance_loc: 56 to 0000000000429c11
  DW_CFA_remember_state
  DW_CFA_def_cfa_offset: 56
  DW_CFA_advance_loc: 8 to 0000000000429c19
  DW_CFA_def_cfa_offset: 48
  DW_CFA_advance_loc: 1 to 0000000000429c1a
  DW_CFA_def_cfa_offset: 40
  DW_CFA_advance_loc: 2 to 0000000000429c1c
  DW_CFA_def_cfa_offset: 32
  DW_CFA_advance_loc: 2 to 0000000000429c1e
  DW_CFA_def_cfa_offset: 24
  DW_CFA_advance_loc: 2 to 0000000000429c20
  DW_CFA_def_cfa_offset: 16
  DW_CFA_advance_loc: 2 to 0000000000429c22
  DW_CFA_def_cfa_offset: 8
  DW_CFA_advance_loc: 5 to 0000000000429c27
  DW_CFA_restore_state
  DW_CFA_advance_loc: 46 to 0000000000429c55
  DW_CFA_remember_state
  DW_CFA_def_cfa_offset: 56
  DW_CFA_advance_loc: 8 to 0000000000429c5d
  DW_CFA_def_cfa_offset: 48
  DW_CFA_advance_loc: 1 to 0000000000429c5e
  DW_CFA_def_cfa_offset: 40
  DW_CFA_advance_loc: 2 to 0000000000429c60
  DW_CFA_def_cfa_offset: 32
  DW_CFA_advance_loc: 2 to 0000000000429c62
  DW_CFA_def_cfa_offset: 24
  DW_CFA_advance_loc: 2 to 0000000000429c64
  DW_CFA_def_cfa_offset: 16
  DW_CFA_advance_loc: 2 to 0000000000429c66
  DW_CFA_def_cfa_offset: 8
  DW_CFA_advance_loc: 5 to 0000000000429c6b
  DW_CFA_restore_state
  DW_CFA_advance_loc: 56 to 0000000000429ca3
  DW_CFA_remember_state
  DW_CFA_def_cfa_offset: 56
  DW_CFA_advance_loc: 8 to 0000000000429cab
  DW_CFA_def_cfa_offset: 48
  DW_CFA_advance_loc: 1 to 0000000000429cac
  DW_CFA_def_cfa_offset: 40
  DW_CFA_advance_loc: 2 to 0000000000429cae
  DW_CFA_def_cfa_offset: 32
  DW_CFA_advance_loc: 2 to 0000000000429cb0
  DW_CFA_def_cfa_offset: 24
  DW_CFA_advance_loc: 2 to 0000000000429cb2
  DW_CFA_def_cfa_offset: 16
  DW_CFA_advance_loc: 2 to 0000000000429cb4
  DW_CFA_def_cfa_offset: 8
  DW_CFA_advance_loc: 5 to 0000000000429cb9
  DW_CFA_restore_state
  DW_CFA_advance_loc: 46 to 0000000000429ce7
  DW_CFA_remember_state
  DW_CFA_def_cfa_offset: 56
  DW_CFA_advance_loc: 8 to 0000000000429cef
  DW_CFA_def_cfa_offset: 48
  DW_CFA_advance_loc: 1 to 0000000000429cf0
  DW_CFA_def_cfa_offset: 40
  DW_CFA_advance_loc: 2 to 0000000000429cf2
  DW_CFA_def_cfa_offset: 32
  DW_CFA_advance_loc: 2 to 0000000000429cf4
  DW_CFA_def_cfa_offset: 24
  DW_CFA_advance_loc: 2 to 0000000000429cf6
  DW_CFA_def_cfa_offset: 16
  DW_CFA_advance_loc: 2 to 0000000000429cf8
  DW_CFA_def_cfa_offset: 8
  DW_CFA_advance_loc: 5 to 0000000000429cfd
  DW_CFA_restore_state
  DW_CFA_advance_loc: 56 to 0000000000429d35
  DW_CFA_remember_state
  DW_CFA_def_cfa_offset: 56
  DW_CFA_advance_loc: 8 to 0000000000429d3d
  DW_CFA_def_cfa_offset: 48
  DW_CFA_advance_loc: 1 to 0000000000429d3e
  DW_CFA_def_cfa_offset: 40
  DW_CFA_advance_loc: 2 to 0000000000429d40
  DW_CFA_def_cfa_offset: 32
  DW_CFA_advance_loc: 2 to 0000000000429d42
  DW_CFA_def_cfa_offset: 24
  DW_CFA_advance_loc: 2 to 0000000000429d44
  DW_CFA_def_cfa_offset: 16
  DW_CFA_advance_loc: 2 to 0000000000429d46
  DW_CFA_def_cfa_offset: 8
  DW_CFA_advance_loc: 5 to 0000000000429d4b
  DW_CFA_restore_state
  DW_CFA_advance_loc: 46 to 0000000000429d79
  DW_CFA_remember_state
  DW_CFA_def_cfa_offset: 56
  DW_CFA_advance_loc: 8 to 0000000000429d81
  DW_CFA_def_cfa_offset: 48
  DW_CFA_advance_loc: 1 to 0000000000429d82
  DW_CFA_def_cfa_offset: 40
  DW_CFA_advance_loc: 2 to 0000000000429d84
  DW_CFA_def_cfa_offset: 32
  DW_CFA_advance_loc: 2 to 0000000000429d86
  DW_CFA_def_cfa_offset: 24
  DW_CFA_advance_loc: 2 to 0000000000429d88
  DW_CFA_def_cfa_offset: 16
  DW_CFA_advance_loc: 2 to 0000000000429d8a
  DW_CFA_def_cfa_offset: 8
  DW_CFA_advance_loc: 5 to 0000000000429d8f
  DW_CFA_restore_state
  DW_CFA_advance_loc: 56 to 0000000000429dc7
  DW_CFA_remember_state
  DW_CFA_def_cfa_offset: 56
  DW_CFA_advance_loc: 8 to 0000000000429dcf
  DW_CFA_def_cfa_offset: 48
  DW_CFA_advance_loc: 1 to 0000000000429dd0
  DW_CFA_def_cfa_offset: 40
  DW_CFA_advance_loc: 2 to 0000000000429dd2
  DW_CFA_def_cfa_offset: 32
  DW_CFA_advance_loc: 2 to 0000000000429dd4
  DW_CFA_def_cfa_offset: 24
  DW_CFA_advance_loc: 2 to 0000000000429dd6
  DW_CFA_def_cfa_offset: 16
  DW_CFA_advance_loc: 2 to 0000000000429dd8
  DW_CFA_def_cfa_offset: 8
  DW_CFA_advance_loc: 5 to 0000000000429ddd
  DW_CFA_restore_state
  DW_CFA_advance_loc: 46 to 0000000000429e0b
  DW_CFA_remember_state
  DW_CFA_def_cfa_offset: 56
  DW_CFA_advance_loc: 8 to 0000000000429e13
  DW_CFA_def_cfa_offset: 48
  DW_CFA_advance_loc: 1 to 0000000000429e14
  DW_CFA_def_cfa_offset: 40
  DW_CFA_advance_loc: 2 to 0000000000429e16
  DW_CFA_def_cfa_offset: 32
  DW_CFA_advance_loc: 2 to 0000000000429e18
  DW_CFA_def_cfa_offset: 24
  DW_CFA_advance_loc: 2 to 0000000000429e1a
  DW_CFA_def_cfa_offset: 16
  DW_CFA_advance_loc: 2 to 0000000000429e1c
  DW_CFA_def_cfa_offset: 8
  DW_CFA_advance_loc: 5 to 0000000000429e21
  DW_CFA_restore_state
  DW_CFA_advance_loc: 56 to 0000000000429e59
  DW_CFA_remember_state
  DW_CFA_def_cfa_offset: 56
  DW_CFA_advance_loc: 8 to 0000000000429e61
  DW_CFA_def_cfa_offset: 48
  DW_CFA_advance_loc: 1 to 0000000000429e62
  DW_CFA_def_cfa_offset: 40
  DW_CFA_advance_loc: 2 to 0000000000429e64
  DW_CFA_def_cfa_offset: 32
  DW_CFA_advance_loc: 2 to 0000000000429e66
  DW_CFA_def_cfa_offset: 24
  DW_CFA_advance_loc: 2 to 0000000000429e68
  DW_CFA_def_cfa_offset: 16
  DW_CFA_advance_loc: 2 to 0000000000429e6a
  DW_CFA_def_cfa_offset: 8
  DW_CFA_advance_loc: 5 to 0000000000429e6f
  DW_CFA_restore_state
  DW_CFA_advance_loc: 46 to 0000000000429e9d
  DW_CFA_remember_state
  DW_CFA_def_cfa_offset: 56
  DW_CFA_advance_loc: 8 to 0000000000429ea5
  DW_CFA_def_cfa_offset: 48
  DW_CFA_advance_loc: 1 to 0000000000429ea6
  DW_CFA_def_cfa_offset: 40
  DW_CFA_advance_loc: 2 to 0000000000429ea8
  DW_CFA_def_cfa_offset: 32
  DW_CFA_advance_loc: 2 to 0000000000429eaa
  DW_CFA_def_cfa_offset: 24
  DW_CFA_advance_loc: 2 to 0000000000429eac
  DW_CFA_def_cfa_offset: 16
  DW_CFA_advance_loc: 2 to 0000000000429eae
  DW_CFA_def_cfa_offset: 8
  DW_CFA_advance_loc: 5 to 0000000000429eb3
  DW_CFA_restore_state
  DW_CFA_advance_loc: 56 to 0000000000429eeb
  DW_CFA_remember_state
  DW_CFA_def_cfa_offset: 56
  DW_CFA_advance_loc: 8 to 0000000000429ef3
  DW_CFA_def_cfa_offset: 48
  DW_CFA_advance_loc: 1 to 0000000000429ef4
  DW_CFA_def_cfa_offset: 40
  DW_CFA_advance_loc: 2 to 0000000000429ef6
  DW_CFA_def_cfa_offset: 32
  DW_CFA_advance_loc: 2 to 0000000000429ef8
  DW_CFA_def_cfa_offset: 24
  DW_CFA_advance_loc: 2 to 0000000000429efa
  DW_CFA_def_cfa_offset: 16
  DW_CFA_advance_loc: 2 to 0000000000429efc
  DW_CFA_def_cfa_offset: 8
  DW_CFA_advance_loc: 5 to 0000000000429f01
  DW_CFA_restore_state
  DW_CFA_advance_loc: 46 to 0000000000429f2f
  DW_CFA_remember_state
  DW_CFA_def_cfa_offset: 56
  DW_CFA_advance_loc: 8 to 0000000000429f37
  DW_CFA_def_cfa_offset: 48
  DW_CFA_advance_loc: 1 to 0000000000429f38
  DW_CFA_def_cfa_offset: 40
  DW_CFA_advance_loc: 2 to 0000000000429f3a
  DW_CFA_def_cfa_offset: 32
  DW_CFA_advance_loc: 2 to 0000000000429f3c
  DW_CFA_def_cfa_offset: 24
  DW_CFA_advance_loc: 2 to 0000000000429f3e
  DW_CFA_def_cfa_offset: 16
  DW_CFA_advance_loc: 2 to 0000000000429f40
  DW_CFA_def_cfa_offset: 8
  DW_CFA_advance_loc: 5 to 0000000000429f45
  DW_CFA_restore_state
  DW_CFA_advance_loc: 56 to 0000000000429f7d
  DW_CFA_remember_state
  DW_CFA_def_cfa_offset: 56
  DW_CFA_advance_loc: 8 to 0000000000429f85
  DW_CFA_def_cfa_offset: 48
  DW_CFA_advance_loc: 1 to 0000000000429f86
  DW_CFA_def_cfa_offset: 40
  DW_CFA_advance_loc: 2 to 0000000000429f88
  DW_CFA_def_cfa_offset: 32
  DW_CFA_advance_loc: 2 to 0000000000429f8a
  DW_CFA_def_cfa_offset: 24
  DW_CFA_advance_loc: 2 to 0000000000429f8c
  DW_CFA_def_cfa_offset: 16
  DW_CFA_advance_loc: 2 to 0000000000429f8e
  DW_CFA_def_cfa_offset: 8
  DW_CFA_advance_loc: 5 to 0000000000429f93
  DW_CFA_restore_state
  DW_CFA_advance_loc: 46 to 0000000000429fc1
  DW_CFA_remember_state
  DW_CFA_def_cfa_offset: 56
  DW_CFA_advance_loc: 8 to 0000000000429fc9
  DW_CFA_def_cfa_offset: 48
  DW_CFA_advance_loc: 1 to 0000000000429fca
  DW_CFA_def_cfa_offset: 40
  DW_CFA_advance_loc: 2 to 0000000000429fcc
  DW_CFA_def_cfa_offset: 32
  DW_CFA_advance_loc: 2 to 0000000000429fce
  DW_CFA_def_cfa_offset: 24
  DW_CFA_advance_loc: 2 to 0000000000429fd0
  DW_CFA_def_cfa_offset: 16
  DW_CFA_advance_loc: 2 to 0000000000429fd2
  DW_CFA_def_cfa_offset: 8
  DW_CFA_advance_loc: 5 to 0000000000429fd7
  DW_CFA_restore_state
  DW_CFA_advance_loc: 56 to 000000000042a00f
  DW_CFA_remember_state
  DW_CFA_def_cfa_offset: 56
  DW_CFA_advance_loc: 8 to 000000000042a017
  DW_CFA_def_cfa_offset: 48
  DW_CFA_advance_loc: 1 to 000000000042a018
  DW_CFA_def_cfa_offset: 40
  DW_CFA_advance_loc: 2 to 000000000042a01a
  DW_CFA_def_cfa_offset: 32
  DW_CFA_advance_loc: 2 to 000000000042a01c
  DW_CFA_def_cfa_offset: 24
  DW_CFA_advance_loc: 2 to 000000000042a01e
  DW_CFA_def_cfa_offset: 16
  DW_CFA_advance_loc: 2 to 000000000042a020
  DW_CFA_def_cfa_offset: 8
  DW_CFA_advance_loc: 5 to 000000000042a025
  DW_CFA_restore_state
  DW_CFA_advance_loc: 46 to 000000000042a053
  DW_CFA_remember_state
  DW_CFA_def_cfa_offset: 56
  DW_CFA_advance_loc: 8 to 000000000042a05b
  DW_CFA_def_cfa_offset: 48
  DW_CFA_advance_loc: 1 to 000000000042a05c
  DW_CFA_def_cfa_offset: 40
  DW_CFA_advance_loc: 2 to 000000000042a05e
  DW_CFA_def_cfa_offset: 32
  DW_CFA_advance_loc: 2 to 000000000042a060
  DW_CFA_def_cfa_offset: 24
  DW_CFA_advance_loc: 2 to 000000000042a062
  DW_CFA_def_cfa_offset: 16
  DW_CFA_advance_loc: 2 to 000000000042a064
  DW_CFA_def_cfa_offset: 8
  DW_CFA_advance_loc: 5 to 000000000042a069
  DW_CFA_restore_state
  DW_CFA_advance_loc: 56 to 000000000042a0a1
  DW_CFA_remember_state
  DW_CFA_def_cfa_offset: 56
  DW_CFA_advance_loc: 8 to 000000000042a0a9
  DW_CFA_def_cfa_offset: 48
  DW_CFA_advance_loc: 1 to 000000000042a0aa
  DW_CFA_def_cfa_offset: 40
  DW_CFA_advance_loc: 2 to 000000000042a0ac
  DW_CFA_def_cfa_offset: 32
  DW_CFA_advance_loc: 2 to 000000000042a0ae
  DW_CFA_def_cfa_offset: 24
  DW_CFA_advance_loc: 2 to 000000000042a0b0
  DW_CFA_def_cfa_offset: 16
  DW_CFA_advance_loc: 2 to 000000000042a0b2
  DW_CFA_def_cfa_offset: 8
  DW_CFA_advance_loc: 5 to 000000000042a0b7
  DW_CFA_restore_state
  DW_CFA_advance_loc: 46 to 000000000042a0e5
  DW_CFA_remember_state
  DW_CFA_def_cfa_offset: 56
  DW_CFA_advance_loc: 8 to 000000000042a0ed
  DW_CFA_def_cfa_offset: 48
  DW_CFA_advance_loc: 1 to 000000000042a0ee
  DW_CFA_def_cfa_offset: 40
  DW_CFA_advance_loc: 2 to 000000000042a0f0
  DW_CFA_def_cfa_offset: 32
  DW_CFA_advance_loc: 2 to 000000000042a0f2
  DW_CFA_def_cfa_offset: 24
  DW_CFA_advance_loc: 2 to 000000000042a0f4
  DW_CFA_def_cfa_offset: 16
  DW_CFA_advance_loc: 2 to 000000000042a0f6
  DW_CFA_def_cfa_offset: 8
  DW_CFA_advance_loc: 5 to 000000000042a0fb
  DW_CFA_restore_state
  DW_CFA_advance_loc: 56 to 000000000042a133
  DW_CFA_remember_state
  DW_CFA_def_cfa_offset: 56
  DW_CFA_advance_loc: 8 to 000000000042a13b
  DW_CFA_def_cfa_offset: 48
  DW_CFA_advance_loc: 1 to 000000000042a13c
  DW_CFA_def_cfa_offset: 40
  DW_CFA_advance_loc: 2 to 000000000042a13e
  DW_CFA_def_cfa_offset: 32
  DW_CFA_advance_loc: 2 to 000000000042a140
  DW_CFA_def_cfa_offset: 24
  DW_CFA_advance_loc: 2 to 000000000042a142
  DW_CFA_def_cfa_offset: 16
  DW_CFA_advance_loc: 2 to 000000000042a144
  DW_CFA_def_cfa_offset: 8
  DW_CFA_advance_loc: 5 to 000000000042a149
  DW_CFA_restore_state
  DW_CFA_advance_loc: 46 to 000000000042a177
  DW_CFA_remember_state
  DW_CFA_def_cfa_offset: 56
  DW_CFA_advance_loc: 8 to 000000000042a17f
  DW_CFA_def_cfa_offset: 48
  DW_CFA_advance_loc: 1 to 000000000042a180
  DW_CFA_def_cfa_offset: 40
  DW_CFA_advance_loc: 2 to 000000000042a182
  DW_CFA_def_cfa_offset: 32
  DW_CFA_advance_loc: 2 to 000000000042a184
  DW_CFA_def_cfa_offset: 24
  DW_CFA_advance_loc: 2 to 000000000042a186
  DW_CFA_def_cfa_offset: 16
  DW_CFA_advance_loc: 2 to 000000000042a188
  DW_CFA_def_cfa_offset: 8
  DW_CFA_advance_loc: 5 to 000000000042a18d
  DW_CFA_restore_state
  DW_CFA_advance_loc: 56 to 000000000042a1c5
  DW_CFA_remember_state
  DW_CFA_def_cfa_offset: 56
  DW_CFA_advance_loc: 8 to 000000000042a1cd
  DW_CFA_def_cfa_offset: 48
  DW_CFA_advance_loc: 1 to 000000000042a1ce
  DW_CFA_def_cfa_offset: 40
  DW_CFA_advance_loc: 2 to 000000000042a1d0
  DW_CFA_def_cfa_offset: 32
  DW_CFA_advance_loc: 2 to 000000000042a1d2
  DW_CFA_def_cfa_offset: 24
  DW_CFA_advance_loc: 2 to 000000000042a1d4
  DW_CFA_def_cfa_offset: 16
  DW_CFA_advance_loc: 2 to 000000000042a1d6
  DW_CFA_def_cfa_offset: 8
  DW_CFA_advance_loc: 5 to 000000000042a1db
  DW_CFA_restore_state
  DW_CFA_advance_loc: 46 to 000000000042a209
  DW_CFA_remember_state
  DW_CFA_def_cfa_offset: 56
  DW_CFA_advance_loc: 8 to 000000000042a211
  DW_CFA_def_cfa_offset: 48
  DW_CFA_advance_loc: 1 to 000000000042a212
  DW_CFA_def_cfa_offset: 40
  DW_CFA_advance_loc: 2 to 000000000042a214
  DW_CFA_def_cfa_offset: 32
  DW_CFA_advance_loc: 2 to 000000000042a216
  DW_CFA_def_cfa_offset: 24
  DW_CFA_advance_loc: 2 to 000000000042a218
  DW_CFA_def_cfa_offset: 16
  DW_CFA_advance_loc: 2 to 000000000042a21a
  DW_CFA_def_cfa_offset: 8
  DW_CFA_advance_loc: 5 to 000000000042a21f
  DW_CFA_restore_state
  DW_CFA_advance_loc: 56 to 000000000042a257
  DW_CFA_remember_state
  DW_CFA_def_cfa_offset: 56
  DW_CFA_advance_loc: 8 to 000000000042a25f
  DW_CFA_def_cfa_offset: 48
  DW_CFA_advance_loc: 1 to 000000000042a260
  DW_CFA_def_cfa_offset: 40
  DW_CFA_advance_loc: 2 to 000000000042a262
  DW_CFA_def_cfa_offset: 32
  DW_CFA_advance_loc: 2 to 000000000042a264
  DW_CFA_def_cfa_offset: 24
  DW_CFA_advance_loc: 2 to 000000000042a266
  DW_CFA_def_cfa_offset: 16
  DW_CFA_advance_loc: 2 to 000000000042a268
  DW_CFA_def_cfa_offset: 8
  DW_CFA_advance_loc: 5 to 000000000042a26d
  DW_CFA_restore_state
  DW_CFA_advance_loc: 46 to 000000000042a29b
  DW_CFA_remember_state
  DW_CFA_def_cfa_offset: 56
  DW_CFA_advance_loc: 8 to 000000000042a2a3
  DW_CFA_def_cfa_offset: 48
  DW_CFA_advance_loc: 1 to 000000000042a2a4
  DW_CFA_def_cfa_offset: 40
  DW_CFA_advance_loc: 2 to 000000000042a2a6
  DW_CFA_def_cfa_offset: 32
  DW_CFA_advance_loc: 2 to 000000000042a2a8
  DW_CFA_def_cfa_offset: 24
  DW_CFA_advance_loc: 2 to 000000000042a2aa
  DW_CFA_def_cfa_offset: 16
  DW_CFA_advance_loc: 2 to 000000000042a2ac
  DW_CFA_def_cfa_offset: 8
  DW_CFA_advance_loc: 5 to 000000000042a2b1
  DW_CFA_restore_state
  DW_CFA_advance_loc: 56 to 000000000042a2e9
  DW_CFA_remember_state
  DW_CFA_def_cfa_offset: 56
  DW_CFA_advance_loc: 8 to 000000000042a2f1
  DW_CFA_def_cfa_offset: 48
  DW_CFA_advance_loc: 1 to 000000000042a2f2
  DW_CFA_def_cfa_offset: 40
  DW_CFA_advance_loc: 2 to 000000000042a2f4
  DW_CFA_def_cfa_offset: 32
  DW_CFA_advance_loc: 2 to 000000000042a2f6
  DW_CFA_def_cfa_offset: 24
  DW_CFA_advance_loc: 2 to 000000000042a2f8
  DW_CFA_def_cfa_offset: 16
  DW_CFA_advance_loc: 2 to 000000000042a2fa
  DW_CFA_def_cfa_offset: 8
  DW_CFA_advance_loc: 5 to 000000000042a2ff
  DW_CFA_restore_state
  DW_CFA_advance_loc: 46 to 000000000042a32d
  DW_CFA_remember_state
  DW_CFA_def_cfa_offset: 56
  DW_CFA_advance_loc: 8 to 000000000042a335
  DW_CFA_def_cfa_offset: 48
  DW_CFA_advance_loc: 1 to 000000000042a336
  DW_CFA_def_cfa_offset: 40
  DW_CFA_advance_loc: 2 to 000000000042a338
  DW_CFA_def_cfa_offset: 32
  DW_CFA_advance_loc: 2 to 000000000042a33a
  DW_CFA_def_cfa_offset: 24
  DW_CFA_advance_loc: 2 to 000000000042a33c
  DW_CFA_def_cfa_offset: 16
  DW_CFA_advance_loc: 2 to 000000000042a33e
  DW_CFA_def_cfa_offset: 8
  DW_CFA_advance_loc: 5 to 000000000042a343
  DW_CFA_restore_state
  DW_CFA_advance_loc: 56 to 000000000042a37b
  DW_CFA_remember_state
  DW_CFA_def_cfa_offset: 56
  DW_CFA_advance_loc: 8 to 000000000042a383
  DW_CFA_def_cfa_offset: 48
  DW_CFA_advance_loc: 1 to 000000000042a384
  DW_CFA_def_cfa_offset: 40
  DW_CFA_advance_loc: 2 to 000000000042a386
  DW_CFA_def_cfa_offset: 32
  DW_CFA_advance_loc: 2 to 000000000042a388
  DW_CFA_def_cfa_offset: 24
  DW_CFA_advance_loc: 2 to 000000000042a38a
  DW_CFA_def_cfa_offset: 16
  DW_CFA_advance_loc: 2 to 000000000042a38c
  DW_CFA_def_cfa_offset: 8
  DW_CFA_advance_loc: 5 to 000000000042a391
  DW_CFA_restore_state
  DW_CFA_advance_loc: 46 to 000000000042a3bf
  DW_CFA_remember_state
  DW_CFA_def_cfa_offset: 56
  DW_CFA_advance_loc: 8 to 000000000042a3c7
  DW_CFA_def_cfa_offset: 48
  DW_CFA_advance_loc: 1 to 000000000042a3c8
  DW_CFA_def_cfa_offset: 40
  DW_CFA_advance_loc: 2 to 000000000042a3ca
  DW_CFA_def_cfa_offset: 32
  DW_CFA_advance_loc: 2 to 000000000042a3cc
  DW_CFA_def_cfa_offset: 24
  DW_CFA_advance_loc: 2 to 000000000042a3ce
  DW_CFA_def_cfa_offset: 16
  DW_CFA_advance_loc: 2 to 000000000042a3d0
  DW_CFA_def_cfa_offset: 8
  DW_CFA_advance_loc: 5 to 000000000042a3d5
  DW_CFA_restore_state
  DW_CFA_advance_loc: 56 to 000000000042a40d
  DW_CFA_remember_state
  DW_CFA_def_cfa_offset: 56
  DW_CFA_advance_loc: 8 to 000000000042a415
  DW_CFA_def_cfa_offset: 48
  DW_CFA_advance_loc: 1 to 000000000042a416
  DW_CFA_def_cfa_offset: 40
  DW_CFA_advance_loc: 2 to 000000000042a418
  DW_CFA_def_cfa_offset: 32
  DW_CFA_advance_loc: 2 to 000000000042a41a
  DW_CFA_def_cfa_offset: 24
  DW_CFA_advance_loc: 2 to 000000000042a41c
  DW_CFA_def_cfa_offset: 16
  DW_CFA_advance_loc: 2 to 000000000042a41e
  DW_CFA_def_cfa_offset: 8
  DW_CFA_advance_loc: 5 to 000000000042a423
  DW_CFA_restore_state
  DW_CFA_advance_loc: 46 to 000000000042a451
  DW_CFA_remember_state
  DW_CFA_def_cfa_offset: 56
  DW_CFA_advance_loc: 8 to 000000000042a459
  DW_CFA_def_cfa_offset: 48
  DW_CFA_advance_loc: 1 to 000000000042a45a
  DW_CFA_def_cfa_offset: 40
  DW_CFA_advance_loc: 2 to 000000000042a45c
  DW_CFA_def_cfa_offset: 32
  DW_CFA_advance_loc: 2 to 000000000042a45e
  DW_CFA_def_cfa_offset: 24
  DW_CFA_advance_loc: 2 to 000000000042a460
  DW_CFA_def_cfa_offset: 16
  DW_CFA_advance_loc: 2 to 000000000042a462
  DW_CFA_def_cfa_offset: 8
  DW_CFA_advance_loc: 5 to 000000000042a467
  DW_CFA_restore_state
  DW_CFA_advance_loc: 56 to 000000000042a49f
  DW_CFA_remember_state
  DW_CFA_def_cfa_offset: 56
  DW_CFA_advance_loc: 8 to 000000000042a4a7
  DW_CFA_def_cfa_offset: 48
  DW_CFA_advance_loc: 1 to 000000000042a4a8
  DW_CFA_def_cfa_offset: 40
  DW_CFA_advance_loc: 2 to 000000000042a4aa
  DW_CFA_def_cfa_offset: 32
  DW_CFA_advance_loc: 2 to 000000000042a4ac
  DW_CFA_def_cfa_offset: 24
  DW_CFA_advance_loc: 2 to 000000000042a4ae
  DW_CFA_def_cfa_offset: 16
  DW_CFA_advance_loc: 2 to 000000000042a4b0
  DW_CFA_def_cfa_offset: 8
  DW_CFA_advance_loc: 5 to 000000000042a4b5
  DW_CFA_restore_state
  DW_CFA_advance_loc: 46 to 000000000042a4e3
  DW_CFA_remember_state
  DW_CFA_def_cfa_offset: 56
  DW_CFA_advance_loc: 8 to 000000000042a4eb
  DW_CFA_def_cfa_offset: 48
  DW_CFA_advance_loc: 1 to 000000000042a4ec
  DW_CFA_def_cfa_offset: 40
  DW_CFA_advance_loc: 2 to 000000000042a4ee
  DW_CFA_def_cfa_offset: 32
  DW_CFA_advance_loc: 2 to 000000000042a4f0
  DW_CFA_def_cfa_offset: 24
  DW_CFA_advance_loc: 2 to 000000000042a4f2
  DW_CFA_def_cfa_offset: 16
  DW_CFA_advance_loc: 2 to 000000000042a4f4
  DW_CFA_def_cfa_offset: 8
  DW_CFA_advance_loc: 5 to 000000000042a4f9
  DW_CFA_restore_state
  DW_CFA_advance_loc: 56 to 000000000042a531
  DW_CFA_remember_state
  DW_CFA_def_cfa_offset: 56
  DW_CFA_advance_loc: 8 to 000000000042a539
  DW_CFA_def_cfa_offset: 48
  DW_CFA_advance_loc: 1 to 000000000042a53a
  DW_CFA_def_cfa_offset: 40
  DW_CFA_advance_loc: 2 to 000000000042a53c
  DW_CFA_def_cfa_offset: 32
  DW_CFA_advance_loc: 2 to 000000000042a53e
  DW_CFA_def_cfa_offset: 24
  DW_CFA_advance_loc: 2 to 000000000042a540
  DW_CFA_def_cfa_offset: 16
  DW_CFA_advance_loc: 2 to 000000000042a542
  DW_CFA_def_cfa_offset: 8
  DW_CFA_advance_loc: 5 to 000000000042a547
  DW_CFA_restore_state
  DW_CFA_advance_loc: 46 to 000000000042a575
  DW_CFA_remember_state
  DW_CFA_def_cfa_offset: 56
  DW_CFA_advance_loc: 8 to 000000000042a57d
  DW_CFA_def_cfa_offset: 48
  DW_CFA_advance_loc: 1 to 000000000042a57e
  DW_CFA_def_cfa_offset: 40
  DW_CFA_advance_loc: 2 to 000000000042a580
  DW_CFA_def_cfa_offset: 32
  DW_CFA_advance_loc: 2 to 000000000042a582
  DW_CFA_def_cfa_offset: 24
  DW_CFA_advance_loc: 2 to 000000000042a584
  DW_CFA_def_cfa_offset: 16
  DW_CFA_advance_loc: 2 to 000000000042a586
  DW_CFA_def_cfa_offset: 8
  DW_CFA_advance_loc: 5 to 000000000042a58b
  DW_CFA_restore_state
  DW_CFA_advance_loc: 56 to 000000000042a5c3
  DW_CFA_remember_state
  DW_CFA_def_cfa_offset: 56
  DW_CFA_advance_loc: 8 to 000000000042a5cb
  DW_CFA_def_cfa_offset: 48
  DW_CFA_advance_loc: 1 to 000000000042a5cc
  DW_CFA_def_cfa_offset: 40
  DW_CFA_advance_loc: 2 to 000000000042a5ce
  DW_CFA_def_cfa_offset: 32
  DW_CFA_advance_loc: 2 to 000000000042a5d0
  DW_CFA_def_cfa_offset: 24
  DW_CFA_advance_loc: 2 to 000000000042a5d2
  DW_CFA_def_cfa_offset: 16
  DW_CFA_advance_loc: 2 to 000000000042a5d4
  DW_CFA_def_cfa_offset: 8
  DW_CFA_advance_loc: 5 to 000000000042a5d9
  DW_CFA_restore_state
  DW_CFA_advance_loc: 46 to 000000000042a607
  DW_CFA_remember_state
  DW_CFA_def_cfa_offset: 56
  DW_CFA_advance_loc: 8 to 000000000042a60f
  DW_CFA_def_cfa_offset: 48
  DW_CFA_advance_loc: 1 to 000000000042a610
  DW_CFA_def_cfa_offset: 40
  DW_CFA_advance_loc: 2 to 000000000042a612
  DW_CFA_def_cfa_offset: 32
  DW_CFA_advance_loc: 2 to 000000000042a614
  DW_CFA_def_cfa_offset: 24
  DW_CFA_advance_loc: 2 to 000000000042a616
  DW_CFA_def_cfa_offset: 16
  DW_CFA_advance_loc: 2 to 000000000042a618
  DW_CFA_def_cfa_offset: 8
  DW_CFA_advance_loc: 5 to 000000000042a61d
  DW_CFA_restore_state
  DW_CFA_advance_loc: 56 to 000000000042a655
  DW_CFA_remember_state
  DW_CFA_def_cfa_offset: 56
  DW_CFA_advance_loc: 8 to 000000000042a65d
  DW_CFA_def_cfa_offset: 48
  DW_CFA_advance_loc: 1 to 000000000042a65e
  DW_CFA_def_cfa_offset: 40
  DW_CFA_advance_loc: 2 to 000000000042a660
  DW_CFA_def_cfa_offset: 32
  DW_CFA_advance_loc: 2 to 000000000042a662
  DW_CFA_def_cfa_offset: 24
  DW_CFA_advance_loc: 2 to 000000000042a664
  DW_CFA_def_cfa_offset: 16
  DW_CFA_advance_loc: 2 to 000000000042a666
  DW_CFA_def_cfa_offset: 8
  DW_CFA_advance_loc: 5 to 000000000042a66b
  DW_CFA_restore_state
  DW_CFA_advance_loc: 46 to 000000000042a699
  DW_CFA_remember_state
  DW_CFA_def_cfa_offset: 56
  DW_CFA_advance_loc: 8 to 000000000042a6a1
  DW_CFA_def_cfa_offset: 48
  DW_CFA_advance_loc: 1 to 000000000042a6a2
  DW_CFA_def_cfa_offset: 40
  DW_CFA_advance_loc: 2 to 000000000042a6a4
  DW_CFA_def_cfa_offset: 32
  DW_CFA_advance_loc: 2 to 000000000042a6a6
  DW_CFA_def_cfa_offset: 24
  DW_CFA_advance_loc: 2 to 000000000042a6a8
  DW_CFA_def_cfa_offset: 16
  DW_CFA_advance_loc: 2 to 000000000042a6aa
  DW_CFA_def_cfa_offset: 8
  DW_CFA_advance_loc: 5 to 000000000042a6af
  DW_CFA_restore_state
  DW_CFA_advance_loc: 56 to 000000000042a6e7
  DW_CFA_remember_state
  DW_CFA_def_cfa_offset: 56
  DW_CFA_advance_loc: 8 to 000000000042a6ef
  DW_CFA_def_cfa_offset: 48
  DW_CFA_advance_loc: 1 to 000000000042a6f0
  DW_CFA_def_cfa_offset: 40
  DW_CFA_advance_loc: 2 to 000000000042a6f2
  DW_CFA_def_cfa_offset: 32
  DW_CFA_advance_loc: 2 to 000000000042a6f4
  DW_CFA_def_cfa_offset: 24
  DW_CFA_advance_loc: 2 to 000000000042a6f6
  DW_CFA_def_cfa_offset: 16
  DW_CFA_advance_loc: 2 to 000000000042a6f8
  DW_CFA_def_cfa_offset: 8
  DW_CFA_advance_loc: 5 to 000000000042a6fd
  DW_CFA_restore_state
  DW_CFA_advance_loc: 46 to 000000000042a72b
  DW_CFA_remember_state
  DW_CFA_def_cfa_offset: 56
  DW_CFA_advance_loc: 8 to 000000000042a733
  DW_CFA_def_cfa_offset: 48
  DW_CFA_advance_loc: 1 to 000000000042a734
  DW_CFA_def_cfa_offset: 40
  DW_CFA_advance_loc: 2 to 000000000042a736
  DW_CFA_def_cfa_offset: 32
  DW_CFA_advance_loc: 2 to 000000000042a738
  DW_CFA_def_cfa_offset: 24
  DW_CFA_advance_loc: 2 to 000000000042a73a
  DW_CFA_def_cfa_offset: 16
  DW_CFA_advance_loc: 2 to 000000000042a73c
  DW_CFA_def_cfa_offset: 8
  DW_CFA_advance_loc: 5 to 000000000042a741
  DW_CFA_restore_state
  DW_CFA_advance_loc: 56 to 000000000042a779
  DW_CFA_remember_state
  DW_CFA_def_cfa_offset: 56
  DW_CFA_advance_loc: 8 to 000000000042a781
  DW_CFA_def_cfa_offset: 48
  DW_CFA_advance_loc: 1 to 000000000042a782
  DW_CFA_def_cfa_offset: 40
  DW_CFA_advance_loc: 2 to 000000000042a784
  DW_CFA_def_cfa_offset: 32
  DW_CFA_advance_loc: 2 to 000000000042a786
  DW_CFA_def_cfa_offset: 24
  DW_CFA_advance_loc: 2 to 000000000042a788
  DW_CFA_def_cfa_offset: 16
  DW_CFA_advance_loc: 2 to 000000000042a78a
  DW_CFA_def_cfa_offset: 8
  DW_CFA_advance_loc: 5 to 000000000042a78f
  DW_CFA_restore_state
  DW_CFA_advance_loc: 46 to 000000000042a7bd
  DW_CFA_remember_state
  DW_CFA_def_cfa_offset: 56
  DW_CFA_advance_loc: 8 to 000000000042a7c5
  DW_CFA_def_cfa_offset: 48
  DW_CFA_advance_loc: 1 to 000000000042a7c6
  DW_CFA_def_cfa_offset: 40
  DW_CFA_advance_loc: 2 to 000000000042a7c8
  DW_CFA_def_cfa_offset: 32
  DW_CFA_advance_loc: 2 to 000000000042a7ca
  DW_CFA_def_cfa_offset: 24
  DW_CFA_advance_loc: 2 to 000000000042a7cc
  DW_CFA_def_cfa_offset: 16
  DW_CFA_advance_loc: 2 to 000000000042a7ce
  DW_CFA_def_cfa_offset: 8
  DW_CFA_advance_loc: 5 to 000000000042a7d3
  DW_CFA_restore_state
  DW_CFA_advance_loc: 56 to 000000000042a80b
  DW_CFA_remember_state
  DW_CFA_def_cfa_offset: 56
  DW_CFA_advance_loc: 8 to 000000000042a813
  DW_CFA_def_cfa_offset: 48
  DW_CFA_advance_loc: 1 to 000000000042a814
  DW_CFA_def_cfa_offset: 40
  DW_CFA_advance_loc: 2 to 000000000042a816
  DW_CFA_def_cfa_offset: 32
  DW_CFA_advance_loc: 2 to 000000000042a818
  DW_CFA_def_cfa_offset: 24
  DW_CFA_advance_loc: 2 to 000000000042a81a
  DW_CFA_def_cfa_offset: 16
  DW_CFA_advance_loc: 2 to 000000000042a81c
  DW_CFA_def_cfa_offset: 8
  DW_CFA_advance_loc: 5 to 000000000042a821
  DW_CFA_restore_state
  DW_CFA_advance_loc: 46 to 000000000042a84f
  DW_CFA_remember_state
  DW_CFA_def_cfa_offset: 56
  DW_CFA_advance_loc: 8 to 000000000042a857
  DW_CFA_def_cfa_offset: 48
  DW_CFA_advance_loc: 1 to 000000000042a858
  DW_CFA_def_cfa_offset: 40
  DW_CFA_advance_loc: 2 to 000000000042a85a
  DW_CFA_def_cfa_offset: 32
  DW_CFA_advance_loc: 2 to 000000000042a85c
  DW_CFA_def_cfa_offset: 24
  DW_CFA_advance_loc: 2 to 000000000042a85e
  DW_CFA_def_cfa_offset: 16
  DW_CFA_advance_loc: 2 to 000000000042a860
  DW_CFA_def_cfa_offset: 8
  DW_CFA_advance_loc: 5 to 000000000042a865
  DW_CFA_restore_state
  DW_CFA_advance_loc: 56 to 000000000042a89d
  DW_CFA_remember_state
  DW_CFA_def_cfa_offset: 56
  DW_CFA_advance_loc: 8 to 000000000042a8a5
  DW_CFA_def_cfa_offset: 48
  DW_CFA_advance_loc: 1 to 000000000042a8a6
  DW_CFA_def_cfa_offset: 40
  DW_CFA_advance_loc: 2 to 000000000042a8a8
  DW_CFA_def_cfa_offset: 32
  DW_CFA_advance_loc: 2 to 000000000042a8aa
  DW_CFA_def_cfa_offset: 24
  DW_CFA_advance_loc: 2 to 000000000042a8ac
  DW_CFA_def_cfa_offset: 16
  DW_CFA_advance_loc: 2 to 000000000042a8ae
  DW_CFA_def_cfa_offset: 8
  DW_CFA_advance_loc: 5 to 000000000042a8b3
  DW_CFA_restore_state
  DW_CFA_advance_loc: 46 to 000000000042a8e1
  DW_CFA_remember_state
  DW_CFA_def_cfa_offset: 56
  DW_CFA_advance_loc: 8 to 000000000042a8e9
  DW_CFA_def_cfa_offset: 48
  DW_CFA_advance_loc: 1 to 000000000042a8ea
  DW_CFA_def_cfa_offset: 40
  DW_CFA_advance_loc: 2 to 000000000042a8ec
  DW_CFA_def_cfa_offset: 32
  DW_CFA_advance_loc: 2 to 000000000042a8ee
  DW_CFA_def_cfa_offset: 24
  DW_CFA_advance_loc: 2 to 000000000042a8f0
  DW_CFA_def_cfa_offset: 16
  DW_CFA_advance_loc: 2 to 000000000042a8f2
  DW_CFA_def_cfa_offset: 8
  DW_CFA_advance_loc: 5 to 000000000042a8f7
  DW_CFA_restore_state
  DW_CFA_advance_loc: 56 to 000000000042a92f
  DW_CFA_remember_state
  DW_CFA_def_cfa_offset: 56
  DW_CFA_advance_loc: 8 to 000000000042a937
  DW_CFA_def_cfa_offset: 48
  DW_CFA_advance_loc: 1 to 000000000042a938
  DW_CFA_def_cfa_offset: 40
  DW_CFA_advance_loc: 2 to 000000000042a93a
  DW_CFA_def_cfa_offset: 32
  DW_CFA_advance_loc: 2 to 000000000042a93c
  DW_CFA_def_cfa_offset: 24
  DW_CFA_advance_loc: 2 to 000000000042a93e
  DW_CFA_def_cfa_offset: 16
  DW_CFA_advance_loc: 2 to 000000000042a940
  DW_CFA_def_cfa_offset: 8
  DW_CFA_advance_loc: 5 to 000000000042a945
  DW_CFA_restore_state
  DW_CFA_advance_loc: 46 to 000000000042a973
  DW_CFA_remember_state
  DW_CFA_def_cfa_offset: 56
  DW_CFA_advance_loc: 8 to 000000000042a97b
  DW_CFA_def_cfa_offset: 48
  DW_CFA_advance_loc: 1 to 000000000042a97c
  DW_CFA_def_cfa_offset: 40
  DW_CFA_advance_loc: 2 to 000000000042a97e
  DW_CFA_def_cfa_offset: 32
  DW_CFA_advance_loc: 2 to 000000000042a980
  DW_CFA_def_cfa_offset: 24
  DW_CFA_advance_loc: 2 to 000000000042a982
  DW_CFA_def_cfa_offset: 16
  DW_CFA_advance_loc: 2 to 000000000042a984
  DW_CFA_def_cfa_offset: 8
  DW_CFA_advance_loc: 5 to 000000000042a989
  DW_CFA_restore_state
  DW_CFA_advance_loc: 56 to 000000000042a9c1
  DW_CFA_remember_state
  DW_CFA_def_cfa_offset: 56
  DW_CFA_advance_loc: 8 to 000000000042a9c9
  DW_CFA_def_cfa_offset: 48
  DW_CFA_advance_loc: 1 to 000000000042a9ca
  DW_CFA_def_cfa_offset: 40
  DW_CFA_advance_loc: 2 to 000000000042a9cc
  DW_CFA_def_cfa_offset: 32
  DW_CFA_advance_loc: 2 to 000000000042a9ce
  DW_CFA_def_cfa_offset: 24
  DW_CFA_advance_loc: 2 to 000000000042a9d0
  DW_CFA_def_cfa_offset: 16
  DW_CFA_advance_loc: 2 to 000000000042a9d2
  DW_CFA_def_cfa_offset: 8
  DW_CFA_advance_loc: 5 to 000000000042a9d7
  DW_CFA_restore_state
  DW_CFA_advance_loc: 46 to 000000000042aa05
  DW_CFA_remember_state
  DW_CFA_def_cfa_offset: 56
  DW_CFA_advance_loc: 8 to 000000000042aa0d
  DW_CFA_def_cfa_offset: 48
  DW_CFA_advance_loc: 1 to 000000000042aa0e
  DW_CFA_def_cfa_offset: 40
  DW_CFA_advance_loc: 2 to 000000000042aa10
  DW_CFA_def_cfa_offset: 32
  DW_CFA_advance_loc: 2 to 000000000042aa12
  DW_CFA_def_cfa_offset: 24
  DW_CFA_advance_loc: 2 to 000000000042aa14
  DW_CFA_def_cfa_offset: 16
  DW_CFA_advance_loc: 2 to 000000000042aa16
  DW_CFA_def_cfa_offset: 8
  DW_CFA_advance_loc: 5 to 000000000042aa1b
  DW_CFA_restore_state
  DW_CFA_advance_loc: 56 to 000000000042aa53
  DW_CFA_remember_state
  DW_CFA_def_cfa_offset: 56
  DW_CFA_advance_loc: 8 to 000000000042aa5b
  DW_CFA_def_cfa_offset: 48
  DW_CFA_advance_loc: 1 to 000000000042aa5c
  DW_CFA_def_cfa_offset: 40
  DW_CFA_advance_loc: 2 to 000000000042aa5e
  DW_CFA_def_cfa_offset: 32
  DW_CFA_advance_loc: 2 to 000000000042aa60
  DW_CFA_def_cfa_offset: 24
  DW_CFA_advance_loc: 2 to 000000000042aa62
  DW_CFA_def_cfa_offset: 16
  DW_CFA_advance_loc: 2 to 000000000042aa64
  DW_CFA_def_cfa_offset: 8
  DW_CFA_advance_loc: 5 to 000000000042aa69
  DW_CFA_restore_state
  DW_CFA_advance_loc: 46 to 000000000042aa97
  DW_CFA_remember_state
  DW_CFA_def_cfa_offset: 56
  DW_CFA_advance_loc: 8 to 000000000042aa9f
  DW_CFA_def_cfa_offset: 48
  DW_CFA_advance_loc: 1 to 000000000042aaa0
  DW_CFA_def_cfa_offset: 40
  DW_CFA_advance_loc: 2 to 000000000042aaa2
  DW_CFA_def_cfa_offset: 32
  DW_CFA_advance_loc: 2 to 000000000042aaa4
  DW_CFA_def_cfa_offset: 24
  DW_CFA_advance_loc: 2 to 000000000042aaa6
  DW_CFA_def_cfa_offset: 16
  DW_CFA_advance_loc: 2 to 000000000042aaa8
  DW_CFA_def_cfa_offset: 8
  DW_CFA_advance_loc: 5 to 000000000042aaad
  DW_CFA_restore_state
  DW_CFA_advance_loc: 56 to 000000000042aae5
  DW_CFA_remember_state
  DW_CFA_def_cfa_offset: 56
  DW_CFA_advance_loc: 8 to 000000000042aaed
  DW_CFA_def_cfa_offset: 48
  DW_CFA_advance_loc: 1 to 000000000042aaee
  DW_CFA_def_cfa_offset: 40
  DW_CFA_advance_loc: 2 to 000000000042aaf0
  DW_CFA_def_cfa_offset: 32
  DW_CFA_advance_loc: 2 to 000000000042aaf2
  DW_CFA_def_cfa_offset: 24
  DW_CFA_advance_loc: 2 to 000000000042aaf4
  DW_CFA_def_cfa_offset: 16
  DW_CFA_advance_loc: 2 to 000000000042aaf6
  DW_CFA_def_cfa_offset: 8
  DW_CFA_advance_loc: 5 to 000000000042aafb
  DW_CFA_restore_state
  DW_CFA_advance_loc: 46 to 000000000042ab29
  DW_CFA_remember_state
  DW_CFA_def_cfa_offset: 56
  DW_CFA_advance_loc: 8 to 000000000042ab31
  DW_CFA_def_cfa_offset: 48
  DW_CFA_advance_loc: 1 to 000000000042ab32
  DW_CFA_def_cfa_offset: 40
  DW_CFA_advance_loc: 2 to 000000000042ab34
  DW_CFA_def_cfa_offset: 32
  DW_CFA_advance_loc: 2 to 000000000042ab36
  DW_CFA_def_cfa_offset: 24
  DW_CFA_advance_loc: 2 to 000000000042ab38
  DW_CFA_def_cfa_offset: 16
  DW_CFA_advance_loc: 2 to 000000000042ab3a
  DW_CFA_def_cfa_offset: 8
  DW_CFA_advance_loc: 5 to 000000000042ab3f
  DW_CFA_restore_state
  DW_CFA_advance_loc: 56 to 000000000042ab77
  DW_CFA_remember_state
  DW_CFA_def_cfa_offset: 56
  DW_CFA_advance_loc: 8 to 000000000042ab7f
  DW_CFA_def_cfa_offset: 48
  DW_CFA_advance_loc: 1 to 000000000042ab80
  DW_CFA_def_cfa_offset: 40
  DW_CFA_advance_loc: 2 to 000000000042ab82
  DW_CFA_def_cfa_offset: 32
  DW_CFA_advance_loc: 2 to 000000000042ab84
  DW_CFA_def_cfa_offset: 24
  DW_CFA_advance_loc: 2 to 000000000042ab86
  DW_CFA_def_cfa_offset: 16
  DW_CFA_advance_loc: 2 to 000000000042ab88
  DW_CFA_def_cfa_offset: 8
  DW_CFA_advance_loc: 5 to 000000000042ab8d
  DW_CFA_restore_state
  DW_CFA_advance_loc: 46 to 000000000042abbb
  DW_CFA_remember_state
  DW_CFA_def_cfa_offset: 56
  DW_CFA_advance_loc: 8 to 000000000042abc3
  DW_CFA_def_cfa_offset: 48
  DW_CFA_advance_loc: 1 to 000000000042abc4
  DW_CFA_def_cfa_offset: 40
  DW_CFA_advance_loc: 2 to 000000000042abc6
  DW_CFA_def_cfa_offset: 32
  DW_CFA_advance_loc: 2 to 000000000042abc8
  DW_CFA_def_cfa_offset: 24
  DW_CFA_advance_loc: 2 to 000000000042abca
  DW_CFA_def_cfa_offset: 16
  DW_CFA_advance_loc: 2 to 000000000042abcc
  DW_CFA_def_cfa_offset: 8
  DW_CFA_advance_loc: 5 to 000000000042abd1
  DW_CFA_restore_state
  DW_CFA_advance_loc: 56 to 000000000042ac09
  DW_CFA_remember_state
  DW_CFA_def_cfa_offset: 56
  DW_CFA_advance_loc: 8 to 000000000042ac11
  DW_CFA_def_cfa_offset: 48
  DW_CFA_advance_loc: 1 to 000000000042ac12
  DW_CFA_def_cfa_offset: 40
  DW_CFA_advance_loc: 2 to 000000000042ac14
  DW_CFA_def_cfa_offset: 32
  DW_CFA_advance_loc: 2 to 000000000042ac16
  DW_CFA_def_cfa_offset: 24
  DW_CFA_advance_loc: 2 to 000000000042ac18
  DW_CFA_def_cfa_offset: 16
  DW_CFA_advance_loc: 2 to 000000000042ac1a
  DW_CFA_def_cfa_offset: 8
  DW_CFA_advance_loc: 5 to 000000000042ac1f
  DW_CFA_restore_state
  DW_CFA_advance_loc: 46 to 000000000042ac4d
  DW_CFA_remember_state
  DW_CFA_def_cfa_offset: 56
  DW_CFA_advance_loc: 8 to 000000000042ac55
  DW_CFA_def_cfa_offset: 48
  DW_CFA_advance_loc: 1 to 000000000042ac56
  DW_CFA_def_cfa_offset: 40
  DW_CFA_advance_loc: 2 to 000000000042ac58
  DW_CFA_def_cfa_offset: 32
  DW_CFA_advance_loc: 2 to 000000000042ac5a
  DW_CFA_def_cfa_offset: 24
  DW_CFA_advance_loc: 2 to 000000000042ac5c
  DW_CFA_def_cfa_offset: 16
  DW_CFA_advance_loc: 2 to 000000000042ac5e
  DW_CFA_def_cfa_offset: 8
  DW_CFA_advance_loc: 5 to 000000000042ac63
  DW_CFA_restore_state
  DW_CFA_advance_loc: 56 to 000000000042ac9b
  DW_CFA_remember_state
  DW_CFA_def_cfa_offset: 56
  DW_CFA_advance_loc: 8 to 000000000042aca3
  DW_CFA_def_cfa_offset: 48
  DW_CFA_advance_loc: 1 to 000000000042aca4
  DW_CFA_def_cfa_offset: 40
  DW_CFA_advance_loc: 2 to 000000000042aca6
  DW_CFA_def_cfa_offset: 32
  DW_CFA_advance_loc: 2 to 000000000042aca8
  DW_CFA_def_cfa_offset: 24
  DW_CFA_advance_loc: 2 to 000000000042acaa
  DW_CFA_def_cfa_offset: 16
  DW_CFA_advance_loc: 2 to 000000000042acac
  DW_CFA_def_cfa_offset: 8
  DW_CFA_advance_loc: 5 to 000000000042acb1
  DW_CFA_restore_state
  DW_CFA_advance_loc: 46 to 000000000042acdf
  DW_CFA_remember_state
  DW_CFA_def_cfa_offset: 56
  DW_CFA_advance_loc: 8 to 000000000042ace7
  DW_CFA_def_cfa_offset: 48
  DW_CFA_advance_loc: 1 to 000000000042ace8
  DW_CFA_def_cfa_offset: 40
  DW_CFA_advance_loc: 2 to 000000000042acea
  DW_CFA_def_cfa_offset: 32
  DW_CFA_advance_loc: 2 to 000000000042acec
  DW_CFA_def_cfa_offset: 24
  DW_CFA_advance_loc: 2 to 000000000042acee
  DW_CFA_def_cfa_offset: 16
  DW_CFA_advance_loc: 2 to 000000000042acf0
  DW_CFA_def_cfa_offset: 8
  DW_CFA_advance_loc: 5 to 000000000042acf5
  DW_CFA_restore_state
  DW_CFA_advance_loc: 56 to 000000000042ad2d
  DW_CFA_remember_state
  DW_CFA_def_cfa_offset: 56
  DW_CFA_advance_loc: 8 to 000000000042ad35
  DW_CFA_def_cfa_offset: 48
  DW_CFA_advance_loc: 1 to 000000000042ad36
  DW_CFA_def_cfa_offset: 40
  DW_CFA_advance_loc: 2 to 000000000042ad38
  DW_CFA_def_cfa_offset: 32
  DW_CFA_advance_loc: 2 to 000000000042ad3a
  DW_CFA_def_cfa_offset: 24
  DW_CFA_advance_loc: 2 to 000000000042ad3c
  DW_CFA_def_cfa_offset: 16
  DW_CFA_advance_loc: 2 to 000000000042ad3e
  DW_CFA_def_cfa_offset: 8
  DW_CFA_advance_loc: 5 to 000000000042ad43
  DW_CFA_restore_state
  DW_CFA_advance_loc: 46 to 000000000042ad71
  DW_CFA_remember_state
  DW_CFA_def_cfa_offset: 56
  DW_CFA_advance_loc: 8 to 000000000042ad79
  DW_CFA_def_cfa_offset: 48
  DW_CFA_advance_loc: 1 to 000000000042ad7a
  DW_CFA_def_cfa_offset: 40
  DW_CFA_advance_loc: 2 to 000000000042ad7c
  DW_CFA_def_cfa_offset: 32
  DW_CFA_advance_loc: 2 to 000000000042ad7e
  DW_CFA_def_cfa_offset: 24
  DW_CFA_advance_loc: 2 to 000000000042ad80
  DW_CFA_def_cfa_offset: 16
  DW_CFA_advance_loc: 2 to 000000000042ad82
  DW_CFA_def_cfa_offset: 8
  DW_CFA_advance_loc: 5 to 000000000042ad87
  DW_CFA_restore_state
  DW_CFA_advance_loc: 56 to 000000000042adbf
  DW_CFA_remember_state
  DW_CFA_def_cfa_offset: 56
  DW_CFA_advance_loc: 8 to 000000000042adc7
  DW_CFA_def_cfa_offset: 48
  DW_CFA_advance_loc: 1 to 000000000042adc8
  DW_CFA_def_cfa_offset: 40
  DW_CFA_advance_loc: 2 to 000000000042adca
  DW_CFA_def_cfa_offset: 32
  DW_CFA_advance_loc: 2 to 000000000042adcc
  DW_CFA_def_cfa_offset: 24
  DW_CFA_advance_loc: 2 to 000000000042adce
  DW_CFA_def_cfa_offset: 16
  DW_CFA_advance_loc: 2 to 000000000042add0
  DW_CFA_def_cfa_offset: 8
  DW_CFA_advance_loc: 5 to 000000000042add5
  DW_CFA_restore_state
  DW_CFA_advance_loc: 46 to 000000000042ae03
  DW_CFA_remember_state
  DW_CFA_def_cfa_offset: 56
  DW_CFA_advance_loc: 8 to 000000000042ae0b
  DW_CFA_def_cfa_offset: 48
  DW_CFA_advance_loc: 1 to 000000000042ae0c
  DW_CFA_def_cfa_offset: 40
  DW_CFA_advance_loc: 2 to 000000000042ae0e
  DW_CFA_def_cfa_offset: 32
  DW_CFA_advance_loc: 2 to 000000000042ae10
  DW_CFA_def_cfa_offset: 24
  DW_CFA_advance_loc: 2 to 000000000042ae12
  DW_CFA_def_cfa_offset: 16
  DW_CFA_advance_loc: 2 to 000000000042ae14
  DW_CFA_def_cfa_offset: 8
  DW_CFA_advance_loc: 5 to 000000000042ae19
  DW_CFA_restore_state
  DW_CFA_advance_loc: 56 to 000000000042ae51
  DW_CFA_remember_state
  DW_CFA_def_cfa_offset: 56
  DW_CFA_advance_loc: 8 to 000000000042ae59
  DW_CFA_def_cfa_offset: 48
  DW_CFA_advance_loc: 1 to 000000000042ae5a
  DW_CFA_def_cfa_offset: 40
  DW_CFA_advance_loc: 2 to 000000000042ae5c
  DW_CFA_def_cfa_offset: 32
  DW_CFA_advance_loc: 2 to 000000000042ae5e
  DW_CFA_def_cfa_offset: 24
  DW_CFA_advance_loc: 2 to 000000000042ae60
  DW_CFA_def_cfa_offset: 16
  DW_CFA_advance_loc: 2 to 000000000042ae62
  DW_CFA_def_cfa_offset: 8
  DW_CFA_advance_loc: 5 to 000000000042ae67
  DW_CFA_restore_state
  DW_CFA_advance_loc: 46 to 000000000042ae95
  DW_CFA_remember_state
  DW_CFA_def_cfa_offset: 56
  DW_CFA_advance_loc: 8 to 000000000042ae9d
  DW_CFA_def_cfa_offset: 48
  DW_CFA_advance_loc: 1 to 000000000042ae9e
  DW_CFA_def_cfa_offset: 40
  DW_CFA_advance_loc: 2 to 000000000042aea0
  DW_CFA_def_cfa_offset: 32
  DW_CFA_advance_loc: 2 to 000000000042aea2
  DW_CFA_def_cfa_offset: 24
  DW_CFA_advance_loc: 2 to 000000000042aea4
  DW_CFA_def_cfa_offset: 16
  DW_CFA_advance_loc: 2 to 000000000042aea6
  DW_CFA_def_cfa_offset: 8
  DW_CFA_advance_loc: 5 to 000000000042aeab
  DW_CFA_restore_state
  DW_CFA_advance_loc: 56 to 000000000042aee3
  DW_CFA_remember_state
  DW_CFA_def_cfa_offset: 56
  DW_CFA_advance_loc: 8 to 000000000042aeeb
  DW_CFA_def_cfa_offset: 48
  DW_CFA_advance_loc: 1 to 000000000042aeec
  DW_CFA_def_cfa_offset: 40
  DW_CFA_advance_loc: 2 to 000000000042aeee
  DW_CFA_def_cfa_offset: 32
  DW_CFA_advance_loc: 2 to 000000000042aef0
  DW_CFA_def_cfa_offset: 24
  DW_CFA_advance_loc: 2 to 000000000042aef2
  DW_CFA_def_cfa_offset: 16
  DW_CFA_advance_loc: 2 to 000000000042aef4
  DW_CFA_def_cfa_offset: 8
  DW_CFA_advance_loc: 5 to 000000000042aef9
  DW_CFA_restore_state
  DW_CFA_advance_loc: 46 to 000000000042af27
  DW_CFA_remember_state
  DW_CFA_def_cfa_offset: 56
  DW_CFA_advance_loc: 8 to 000000000042af2f
  DW_CFA_def_cfa_offset: 48
  DW_CFA_advance_loc: 1 to 000000000042af30
  DW_CFA_def_cfa_offset: 40
  DW_CFA_advance_loc: 2 to 000000000042af32
  DW_CFA_def_cfa_offset: 32
  DW_CFA_advance_loc: 2 to 000000000042af34
  DW_CFA_def_cfa_offset: 24
  DW_CFA_advance_loc: 2 to 000000000042af36
  DW_CFA_def_cfa_offset: 16
  DW_CFA_advance_loc: 2 to 000000000042af38
  DW_CFA_def_cfa_offset: 8
  DW_CFA_advance_loc: 5 to 000000000042af3d
  DW_CFA_restore_state
  DW_CFA_advance_loc: 56 to 000000000042af75
  DW_CFA_remember_state
  DW_CFA_def_cfa_offset: 56
  DW_CFA_advance_loc: 8 to 000000000042af7d
  DW_CFA_def_cfa_offset: 48
  DW_CFA_advance_loc: 1 to 000000000042af7e
  DW_CFA_def_cfa_offset: 40
  DW_CFA_advance_loc: 2 to 000000000042af80
  DW_CFA_def_cfa_offset: 32
  DW_CFA_advance_loc: 2 to 000000000042af82
  DW_CFA_def_cfa_offset: 24
  DW_CFA_advance_loc: 2 to 000000000042af84
  DW_CFA_def_cfa_offset: 16
  DW_CFA_advance_loc: 2 to 000000000042af86
  DW_CFA_def_cfa_offset: 8
  DW_CFA_advance_loc: 5 to 000000000042af8b
  DW_CFA_restore_state
  DW_CFA_advance_loc: 46 to 000000000042afb9
  DW_CFA_remember_state
  DW_CFA_def_cfa_offset: 56
  DW_CFA_advance_loc: 8 to 000000000042afc1
  DW_CFA_def_cfa_offset: 48
  DW_CFA_advance_loc: 1 to 000000000042afc2
  DW_CFA_def_cfa_offset: 40
  DW_CFA_advance_loc: 2 to 000000000042afc4
  DW_CFA_def_cfa_offset: 32
  DW_CFA_advance_loc: 2 to 000000000042afc6
  DW_CFA_def_cfa_offset: 24
  DW_CFA_advance_loc: 2 to 000000000042afc8
  DW_CFA_def_cfa_offset: 16
  DW_CFA_advance_loc: 2 to 000000000042afca
  DW_CFA_def_cfa_offset: 8
  DW_CFA_advance_loc: 5 to 000000000042afcf
  DW_CFA_restore_state
  DW_CFA_advance_loc: 56 to 000000000042b007
  DW_CFA_remember_state
  DW_CFA_def_cfa_offset: 56
  DW_CFA_advance_loc: 8 to 000000000042b00f
  DW_CFA_def_cfa_offset: 48
  DW_CFA_advance_loc: 1 to 000000000042b010
  DW_CFA_def_cfa_offset: 40
  DW_CFA_advance_loc: 2 to 000000000042b012
  DW_CFA_def_cfa_offset: 32
  DW_CFA_advance_loc: 2 to 000000000042b014
  DW_CFA_def_cfa_offset: 24
  DW_CFA_advance_loc: 2 to 000000000042b016
  DW_CFA_def_cfa_offset: 16
  DW_CFA_advance_loc: 2 to 000000000042b018
  DW_CFA_def_cfa_offset: 8
  DW_CFA_advance_loc: 5 to 000000000042b01d
  DW_CFA_restore_state
  DW_CFA_advance_loc: 46 to 000000000042b04b
  DW_CFA_remember_state
  DW_CFA_def_cfa_offset: 56
  DW_CFA_advance_loc: 8 to 000000000042b053
  DW_CFA_def_cfa_offset: 48
  DW_CFA_advance_loc: 1 to 000000000042b054
  DW_CFA_def_cfa_offset: 40
  DW_CFA_advance_loc: 2 to 000000000042b056
  DW_CFA_def_cfa_offset: 32
  DW_CFA_advance_loc: 2 to 000000000042b058
  DW_CFA_def_cfa_offset: 24
  DW_CFA_advance_loc: 2 to 000000000042b05a
  DW_CFA_def_cfa_offset: 16
  DW_CFA_advance_loc: 2 to 000000000042b05c
  DW_CFA_def_cfa_offset: 8
  DW_CFA_advance_loc: 5 to 000000000042b061
  DW_CFA_restore_state
  DW_CFA_advance_loc: 56 to 000000000042b099
  DW_CFA_remember_state
  DW_CFA_def_cfa_offset: 56
  DW_CFA_advance_loc: 8 to 000000000042b0a1
  DW_CFA_def_cfa_offset: 48
  DW_CFA_advance_loc: 1 to 000000000042b0a2
  DW_CFA_def_cfa_offset: 40
  DW_CFA_advance_loc: 2 to 000000000042b0a4
  DW_CFA_def_cfa_offset: 32
  DW_CFA_advance_loc: 2 to 000000000042b0a6
  DW_CFA_def_cfa_offset: 24
  DW_CFA_advance_loc: 2 to 000000000042b0a8
  DW_CFA_def_cfa_offset: 16
  DW_CFA_advance_loc: 2 to 000000000042b0aa
  DW_CFA_def_cfa_offset: 8
  DW_CFA_advance_loc: 5 to 000000000042b0af
  DW_CFA_restore_state
  DW_CFA_advance_loc: 46 to 000000000042b0dd
  DW_CFA_remember_state
  DW_CFA_def_cfa_offset: 56
  DW_CFA_advance_loc: 8 to 000000000042b0e5
  DW_CFA_def_cfa_offset: 48
  DW_CFA_advance_loc: 1 to 000000000042b0e6
  DW_CFA_def_cfa_offset: 40
  DW_CFA_advance_loc: 2 to 000000000042b0e8
  DW_CFA_def_cfa_offset: 32
  DW_CFA_advance_loc: 2 to 000000000042b0ea
  DW_CFA_def_cfa_offset: 24
  DW_CFA_advance_loc: 2 to 000000000042b0ec
  DW_CFA_def_cfa_offset: 16
  DW_CFA_advance_loc: 2 to 000000000042b0ee
  DW_CFA_def_cfa_offset: 8
  DW_CFA_advance_loc: 5 to 000000000042b0f3
  DW_CFA_restore_state
  DW_CFA_advance_loc: 56 to 000000000042b12b
  DW_CFA_remember_state
  DW_CFA_def_cfa_offset: 56
  DW_CFA_advance_loc: 8 to 000000000042b133
  DW_CFA_def_cfa_offset: 48
  DW_CFA_advance_loc: 1 to 000000000042b134
  DW_CFA_def_cfa_offset: 40
  DW_CFA_advance_loc: 2 to 000000000042b136
  DW_CFA_def_cfa_offset: 32
  DW_CFA_advance_loc: 2 to 000000000042b138
  DW_CFA_def_cfa_offset: 24
  DW_CFA_advance_loc: 2 to 000000000042b13a
  DW_CFA_def_cfa_offset: 16
  DW_CFA_advance_loc: 2 to 000000000042b13c
  DW_CFA_def_cfa_offset: 8
  DW_CFA_advance_loc: 5 to 000000000042b141
  DW_CFA_restore_state
  DW_CFA_advance_loc: 46 to 000000000042b16f
  DW_CFA_remember_state
  DW_CFA_def_cfa_offset: 56
  DW_CFA_advance_loc: 8 to 000000000042b177
  DW_CFA_def_cfa_offset: 48
  DW_CFA_advance_loc: 1 to 000000000042b178
  DW_CFA_def_cfa_offset: 40
  DW_CFA_advance_loc: 2 to 000000000042b17a
  DW_CFA_def_cfa_offset: 32
  DW_CFA_advance_loc: 2 to 000000000042b17c
  DW_CFA_def_cfa_offset: 24
  DW_CFA_advance_loc: 2 to 000000000042b17e
  DW_CFA_def_cfa_offset: 16
  DW_CFA_advance_loc: 2 to 000000000042b180
  DW_CFA_def_cfa_offset: 8
  DW_CFA_advance_loc: 5 to 000000000042b185
  DW_CFA_restore_state
  DW_CFA_advance_loc: 56 to 000000000042b1bd
  DW_CFA_remember_state
  DW_CFA_def_cfa_offset: 56
  DW_CFA_advance_loc: 8 to 000000000042b1c5
  DW_CFA_def_cfa_offset: 48
  DW_CFA_advance_loc: 1 to 000000000042b1c6
  DW_CFA_def_cfa_offset: 40
  DW_CFA_advance_loc: 2 to 000000000042b1c8
  DW_CFA_def_cfa_offset: 32
  DW_CFA_advance_loc: 2 to 000000000042b1ca
  DW_CFA_def_cfa_offset: 24
  DW_CFA_advance_loc: 2 to 000000000042b1cc
  DW_CFA_def_cfa_offset: 16
  DW_CFA_advance_loc: 2 to 000000000042b1ce
  DW_CFA_def_cfa_offset: 8
  DW_CFA_advance_loc: 5 to 000000000042b1d3
  DW_CFA_restore_state
  DW_CFA_advance_loc: 46 to 000000000042b201
  DW_CFA_remember_state
  DW_CFA_def_cfa_offset: 56
  DW_CFA_advance_loc: 8 to 000000000042b209
  DW_CFA_def_cfa_offset: 48
  DW_CFA_advance_loc: 1 to 000000000042b20a
  DW_CFA_def_cfa_offset: 40
  DW_CFA_advance_loc: 2 to 000000000042b20c
  DW_CFA_def_cfa_offset: 32
  DW_CFA_advance_loc: 2 to 000000000042b20e
  DW_CFA_def_cfa_offset: 24
  DW_CFA_advance_loc: 2 to 000000000042b210
  DW_CFA_def_cfa_offset: 16
  DW_CFA_advance_loc: 2 to 000000000042b212
  DW_CFA_def_cfa_offset: 8
  DW_CFA_advance_loc: 5 to 000000000042b217
  DW_CFA_restore_state
  DW_CFA_advance_loc: 56 to 000000000042b24f
  DW_CFA_remember_state
  DW_CFA_def_cfa_offset: 56
  DW_CFA_advance_loc: 8 to 000000000042b257
  DW_CFA_def_cfa_offset: 48
  DW_CFA_advance_loc: 1 to 000000000042b258
  DW_CFA_def_cfa_offset: 40
  DW_CFA_advance_loc: 2 to 000000000042b25a
  DW_CFA_def_cfa_offset: 32
  DW_CFA_advance_loc: 2 to 000000000042b25c
  DW_CFA_def_cfa_offset: 24
  DW_CFA_advance_loc: 2 to 000000000042b25e
  DW_CFA_def_cfa_offset: 16
  DW_CFA_advance_loc: 2 to 000000000042b260
  DW_CFA_def_cfa_offset: 8
  DW_CFA_advance_loc: 5 to 000000000042b265
  DW_CFA_restore_state
  DW_CFA_advance_loc: 46 to 000000000042b293
  DW_CFA_remember_state
  DW_CFA_def_cfa_offset: 56
  DW_CFA_advance_loc: 8 to 000000000042b29b
  DW_CFA_def_cfa_offset: 48
  DW_CFA_advance_loc: 1 to 000000000042b29c
  DW_CFA_def_cfa_offset: 40
  DW_CFA_advance_loc: 2 to 000000000042b29e
  DW_CFA_def_cfa_offset: 32
  DW_CFA_advance_loc: 2 to 000000000042b2a0
  DW_CFA_def_cfa_offset: 24
  DW_CFA_advance_loc: 2 to 000000000042b2a2
  DW_CFA_def_cfa_offset: 16
  DW_CFA_advance_loc: 2 to 000000000042b2a4
  DW_CFA_def_cfa_offset: 8
  DW_CFA_advance_loc: 5 to 000000000042b2a9
  DW_CFA_restore_state
  DW_CFA_advance_loc: 56 to 000000000042b2e1
  DW_CFA_remember_state
  DW_CFA_def_cfa_offset: 56
  DW_CFA_advance_loc: 8 to 000000000042b2e9
  DW_CFA_def_cfa_offset: 48
  DW_CFA_advance_loc: 1 to 000000000042b2ea
  DW_CFA_def_cfa_offset: 40
  DW_CFA_advance_loc: 2 to 000000000042b2ec
  DW_CFA_def_cfa_offset: 32
  DW_CFA_advance_loc: 2 to 000000000042b2ee
  DW_CFA_def_cfa_offset: 24
  DW_CFA_advance_loc: 2 to 000000000042b2f0
  DW_CFA_def_cfa_offset: 16
  DW_CFA_advance_loc: 2 to 000000000042b2f2
  DW_CFA_def_cfa_offset: 8
  DW_CFA_advance_loc: 5 to 000000000042b2f7
  DW_CFA_restore_state
  DW_CFA_advance_loc: 46 to 000000000042b325
  DW_CFA_remember_state
  DW_CFA_def_cfa_offset: 56
  DW_CFA_advance_loc: 8 to 000000000042b32d
  DW_CFA_def_cfa_offset: 48
  DW_CFA_advance_loc: 1 to 000000000042b32e
  DW_CFA_def_cfa_offset: 40
  DW_CFA_advance_loc: 2 to 000000000042b330
  DW_CFA_def_cfa_offset: 32
  DW_CFA_advance_loc: 2 to 000000000042b332
  DW_CFA_def_cfa_offset: 24
  DW_CFA_advance_loc: 2 to 000000000042b334
  DW_CFA_def_cfa_offset: 16
  DW_CFA_advance_loc: 2 to 000000000042b336
  DW_CFA_def_cfa_offset: 8
  DW_CFA_advance_loc: 5 to 000000000042b33b
  DW_CFA_restore_state
  DW_CFA_advance_loc: 56 to 000000000042b373
  DW_CFA_remember_state
  DW_CFA_def_cfa_offset: 56
  DW_CFA_advance_loc: 8 to 000000000042b37b
  DW_CFA_def_cfa_offset: 48
  DW_CFA_advance_loc: 1 to 000000000042b37c
  DW_CFA_def_cfa_offset: 40
  DW_CFA_advance_loc: 2 to 000000000042b37e
  DW_CFA_def_cfa_offset: 32
  DW_CFA_advance_loc: 2 to 000000000042b380
  DW_CFA_def_cfa_offset: 24
  DW_CFA_advance_loc: 2 to 000000000042b382
  DW_CFA_def_cfa_offset: 16
  DW_CFA_advance_loc: 2 to 000000000042b384
  DW_CFA_def_cfa_offset: 8
  DW_CFA_advance_loc: 5 to 000000000042b389
  DW_CFA_restore_state
  DW_CFA_advance_loc: 46 to 000000000042b3b7
  DW_CFA_remember_state
  DW_CFA_def_cfa_offset: 56
  DW_CFA_advance_loc: 8 to 000000000042b3bf
  DW_CFA_def_cfa_offset: 48
  DW_CFA_advance_loc: 1 to 000000000042b3c0
  DW_CFA_def_cfa_offset: 40
  DW_CFA_advance_loc: 2 to 000000000042b3c2
  DW_CFA_def_cfa_offset: 32
  DW_CFA_advance_loc: 2 to 000000000042b3c4
  DW_CFA_def_cfa_offset: 24
  DW_CFA_advance_loc: 2 to 000000000042b3c6
  DW_CFA_def_cfa_offset: 16
  DW_CFA_advance_loc: 2 to 000000000042b3c8
  DW_CFA_def_cfa_offset: 8
  DW_CFA_advance_loc: 5 to 000000000042b3cd
  DW_CFA_restore_state
  DW_CFA_advance_loc: 56 to 000000000042b405
  DW_CFA_remember_state
  DW_CFA_def_cfa_offset: 56
  DW_CFA_advance_loc: 8 to 000000000042b40d
  DW_CFA_def_cfa_offset: 48
  DW_CFA_advance_loc: 1 to 000000000042b40e
  DW_CFA_def_cfa_offset: 40
  DW_CFA_advance_loc: 2 to 000000000042b410
  DW_CFA_def_cfa_offset: 32
  DW_CFA_advance_loc: 2 to 000000000042b412
  DW_CFA_def_cfa_offset: 24
  DW_CFA_advance_loc: 2 to 000000000042b414
  DW_CFA_def_cfa_offset: 16
  DW_CFA_advance_loc: 2 to 000000000042b416
  DW_CFA_def_cfa_offset: 8
  DW_CFA_advance_loc: 5 to 000000000042b41b
  DW_CFA_restore_state
  DW_CFA_advance_loc: 46 to 000000000042b449
  DW_CFA_remember_state
  DW_CFA_def_cfa_offset: 56
  DW_CFA_advance_loc: 8 to 000000000042b451
  DW_CFA_def_cfa_offset: 48
  DW_CFA_advance_loc: 1 to 000000000042b452
  DW_CFA_def_cfa_offset: 40
  DW_CFA_advance_loc: 2 to 000000000042b454
  DW_CFA_def_cfa_offset: 32
  DW_CFA_advance_loc: 2 to 000000000042b456
  DW_CFA_def_cfa_offset: 24
  DW_CFA_advance_loc: 2 to 000000000042b458
  DW_CFA_def_cfa_offset: 16
  DW_CFA_advance_loc: 2 to 000000000042b45a
  DW_CFA_def_cfa_offset: 8
  DW_CFA_advance_loc: 5 to 000000000042b45f
  DW_CFA_restore_state
  DW_CFA_advance_loc: 56 to 000000000042b497
  DW_CFA_remember_state
  DW_CFA_def_cfa_offset: 56
  DW_CFA_advance_loc: 8 to 000000000042b49f
  DW_CFA_def_cfa_offset: 48
  DW_CFA_advance_loc: 1 to 000000000042b4a0
  DW_CFA_def_cfa_offset: 40
  DW_CFA_advance_loc: 2 to 000000000042b4a2
  DW_CFA_def_cfa_offset: 32
  DW_CFA_advance_loc: 2 to 000000000042b4a4
  DW_CFA_def_cfa_offset: 24
  DW_CFA_advance_loc: 2 to 000000000042b4a6
  DW_CFA_def_cfa_offset: 16
  DW_CFA_advance_loc: 2 to 000000000042b4a8
  DW_CFA_def_cfa_offset: 8
  DW_CFA_advance_loc: 5 to 000000000042b4ad
  DW_CFA_restore_state
  DW_CFA_advance_loc: 46 to 000000000042b4db
  DW_CFA_remember_state
  DW_CFA_def_cfa_offset: 56
  DW_CFA_advance_loc: 8 to 000000000042b4e3
  DW_CFA_def_cfa_offset: 48
  DW_CFA_advance_loc: 1 to 000000000042b4e4
  DW_CFA_def_cfa_offset: 40
  DW_CFA_advance_loc: 2 to 000000000042b4e6
  DW_CFA_def_cfa_offset: 32
  DW_CFA_advance_loc: 2 to 000000000042b4e8
  DW_CFA_def_cfa_offset: 24
  DW_CFA_advance_loc: 2 to 000000000042b4ea
  DW_CFA_def_cfa_offset: 16
  DW_CFA_advance_loc: 2 to 000000000042b4ec
  DW_CFA_def_cfa_offset: 8
  DW_CFA_advance_loc: 5 to 000000000042b4f1
  DW_CFA_restore_state
  DW_CFA_advance_loc: 56 to 000000000042b529
  DW_CFA_remember_state
  DW_CFA_def_cfa_offset: 56
  DW_CFA_advance_loc: 8 to 000000000042b531
  DW_CFA_def_cfa_offset: 48
  DW_CFA_advance_loc: 1 to 000000000042b532
  DW_CFA_def_cfa_offset: 40
  DW_CFA_advance_loc: 2 to 000000000042b534
  DW_CFA_def_cfa_offset: 32
  DW_CFA_advance_loc: 2 to 000000000042b536
  DW_CFA_def_cfa_offset: 24
  DW_CFA_advance_loc: 2 to 000000000042b538
  DW_CFA_def_cfa_offset: 16
  DW_CFA_advance_loc: 2 to 000000000042b53a
  DW_CFA_def_cfa_offset: 8
  DW_CFA_advance_loc: 5 to 000000000042b53f
  DW_CFA_restore_state
  DW_CFA_advance_loc: 46 to 000000000042b56d
  DW_CFA_remember_state
  DW_CFA_def_cfa_offset: 56
  DW_CFA_advance_loc: 8 to 000000000042b575
  DW_CFA_def_cfa_offset: 48
  DW_CFA_advance_loc: 1 to 000000000042b576
  DW_CFA_def_cfa_offset: 40
  DW_CFA_advance_loc: 2 to 000000000042b578
  DW_CFA_def_cfa_offset: 32
  DW_CFA_advance_loc: 2 to 000000000042b57a
  DW_CFA_def_cfa_offset: 24
  DW_CFA_advance_loc: 2 to 000000000042b57c
  DW_CFA_def_cfa_offset: 16
  DW_CFA_advance_loc: 2 to 000000000042b57e
  DW_CFA_def_cfa_offset: 8
  DW_CFA_advance_loc: 5 to 000000000042b583
  DW_CFA_restore_state
  DW_CFA_advance_loc: 56 to 000000000042b5bb
  DW_CFA_remember_state
  DW_CFA_def_cfa_offset: 56
  DW_CFA_advance_loc: 8 to 000000000042b5c3
  DW_CFA_def_cfa_offset: 48
  DW_CFA_advance_loc: 1 to 000000000042b5c4
  DW_CFA_def_cfa_offset: 40
  DW_CFA_advance_loc: 2 to 000000000042b5c6
  DW_CFA_def_cfa_offset: 32
  DW_CFA_advance_loc: 2 to 000000000042b5c8
  DW_CFA_def_cfa_offset: 24
  DW_CFA_advance_loc: 2 to 000000000042b5ca
  DW_CFA_def_cfa_offset: 16
  DW_CFA_advance_loc: 2 to 000000000042b5cc
  DW_CFA_def_cfa_offset: 8
  DW_CFA_advance_loc: 5 to 000000000042b5d1
  DW_CFA_restore_state
  DW_CFA_advance_loc: 46 to 000000000042b5ff
  DW_CFA_remember_state
  DW_CFA_def_cfa_offset: 56
  DW_CFA_advance_loc: 8 to 000000000042b607
  DW_CFA_def_cfa_offset: 48
  DW_CFA_advance_loc: 1 to 000000000042b608
  DW_CFA_def_cfa_offset: 40
  DW_CFA_advance_loc: 2 to 000000000042b60a
  DW_CFA_def_cfa_offset: 32
  DW_CFA_advance_loc: 2 to 000000000042b60c
  DW_CFA_def_cfa_offset: 24
  DW_CFA_advance_loc: 2 to 000000000042b60e
  DW_CFA_def_cfa_offset: 16
  DW_CFA_advance_loc: 2 to 000000000042b610
  DW_CFA_def_cfa_offset: 8
  DW_CFA_advance_loc: 5 to 000000000042b615
  DW_CFA_restore_state
  DW_CFA_advance_loc: 56 to 000000000042b64d
  DW_CFA_remember_state
  DW_CFA_def_cfa_offset: 56
  DW_CFA_advance_loc: 8 to 000000000042b655
  DW_CFA_def_cfa_offset: 48
  DW_CFA_advance_loc: 1 to 000000000042b656
  DW_CFA_def_cfa_offset: 40
  DW_CFA_advance_loc: 2 to 000000000042b658
  DW_CFA_def_cfa_offset: 32
  DW_CFA_advance_loc: 2 to 000000000042b65a
  DW_CFA_def_cfa_offset: 24
  DW_CFA_advance_loc: 2 to 000000000042b65c
  DW_CFA_def_cfa_offset: 16
  DW_CFA_advance_loc: 2 to 000000000042b65e
  DW_CFA_def_cfa_offset: 8
  DW_CFA_advance_loc: 5 to 000000000042b663
  DW_CFA_restore_state
  DW_CFA_advance_loc: 46 to 000000000042b691
  DW_CFA_remember_state
  DW_CFA_def_cfa_offset: 56
  DW_CFA_advance_loc: 8 to 000000000042b699
  DW_CFA_def_cfa_offset: 48
  DW_CFA_advance_loc: 1 to 000000000042b69a
  DW_CFA_def_cfa_offset: 40
  DW_CFA_advance_loc: 2 to 000000000042b69c
  DW_CFA_def_cfa_offset: 32
  DW_CFA_advance_loc: 2 to 000000000042b69e
  DW_CFA_def_cfa_offset: 24
  DW_CFA_advance_loc: 2 to 000000000042b6a0
  DW_CFA_def_cfa_offset: 16
  DW_CFA_advance_loc: 2 to 000000000042b6a2
  DW_CFA_def_cfa_offset: 8
  DW_CFA_advance_loc: 5 to 000000000042b6a7
  DW_CFA_restore_state
  DW_CFA_advance_loc: 56 to 000000000042b6df
  DW_CFA_remember_state
  DW_CFA_def_cfa_offset: 56
  DW_CFA_advance_loc: 8 to 000000000042b6e7
  DW_CFA_def_cfa_offset: 48
  DW_CFA_advance_loc: 1 to 000000000042b6e8
  DW_CFA_def_cfa_offset: 40
  DW_CFA_advance_loc: 2 to 000000000042b6ea
  DW_CFA_def_cfa_offset: 32
  DW_CFA_advance_loc: 2 to 000000000042b6ec
  DW_CFA_def_cfa_offset: 24
  DW_CFA_advance_loc: 2 to 000000000042b6ee
  DW_CFA_def_cfa_offset: 16
  DW_CFA_advance_loc: 2 to 000000000042b6f0
  DW_CFA_def_cfa_offset: 8
  DW_CFA_advance_loc: 5 to 000000000042b6f5
  DW_CFA_restore_state
  DW_CFA_advance_loc: 46 to 000000000042b723
  DW_CFA_remember_state
  DW_CFA_def_cfa_offset: 56
  DW_CFA_advance_loc: 8 to 000000000042b72b
  DW_CFA_def_cfa_offset: 48
  DW_CFA_advance_loc: 1 to 000000000042b72c
  DW_CFA_def_cfa_offset: 40
  DW_CFA_advance_loc: 2 to 000000000042b72e
  DW_CFA_def_cfa_offset: 32
  DW_CFA_advance_loc: 2 to 000000000042b730
  DW_CFA_def_cfa_offset: 24
  DW_CFA_advance_loc: 2 to 000000000042b732
  DW_CFA_def_cfa_offset: 16
  DW_CFA_advance_loc: 2 to 000000000042b734
  DW_CFA_def_cfa_offset: 8
  DW_CFA_advance_loc: 5 to 000000000042b739
  DW_CFA_restore_state
  DW_CFA_advance_loc: 56 to 000000000042b771
  DW_CFA_remember_state
  DW_CFA_def_cfa_offset: 56
  DW_CFA_advance_loc: 8 to 000000000042b779
  DW_CFA_def_cfa_offset: 48
  DW_CFA_advance_loc: 1 to 000000000042b77a
  DW_CFA_def_cfa_offset: 40
  DW_CFA_advance_loc: 2 to 000000000042b77c
  DW_CFA_def_cfa_offset: 32
  DW_CFA_advance_loc: 2 to 000000000042b77e
  DW_CFA_def_cfa_offset: 24
  DW_CFA_advance_loc: 2 to 000000000042b780
  DW_CFA_def_cfa_offset: 16
  DW_CFA_advance_loc: 2 to 000000000042b782
  DW_CFA_def_cfa_offset: 8
  DW_CFA_advance_loc: 5 to 000000000042b787
  DW_CFA_restore_state
  DW_CFA_advance_loc: 46 to 000000000042b7b5
  DW_CFA_remember_state
  DW_CFA_def_cfa_offset: 56
  DW_CFA_advance_loc: 8 to 000000000042b7bd
  DW_CFA_def_cfa_offset: 48
  DW_CFA_advance_loc: 1 to 000000000042b7be
  DW_CFA_def_cfa_offset: 40
  DW_CFA_advance_loc: 2 to 000000000042b7c0
  DW_CFA_def_cfa_offset: 32
  DW_CFA_advance_loc: 2 to 000000000042b7c2
  DW_CFA_def_cfa_offset: 24
  DW_CFA_advance_loc: 2 to 000000000042b7c4
  DW_CFA_def_cfa_offset: 16
  DW_CFA_advance_loc: 2 to 000000000042b7c6
  DW_CFA_def_cfa_offset: 8
  DW_CFA_advance_loc: 5 to 000000000042b7cb
  DW_CFA_restore_state
  DW_CFA_advance_loc: 56 to 000000000042b803
  DW_CFA_remember_state
  DW_CFA_def_cfa_offset: 56
  DW_CFA_advance_loc: 8 to 000000000042b80b
  DW_CFA_def_cfa_offset: 48
  DW_CFA_advance_loc: 1 to 000000000042b80c
  DW_CFA_def_cfa_offset: 40
  DW_CFA_advance_loc: 2 to 000000000042b80e
  DW_CFA_def_cfa_offset: 32
  DW_CFA_advance_loc: 2 to 000000000042b810
  DW_CFA_def_cfa_offset: 24
  DW_CFA_advance_loc: 2 to 000000000042b812
  DW_CFA_def_cfa_offset: 16
  DW_CFA_advance_loc: 2 to 000000000042b814
  DW_CFA_def_cfa_offset: 8
  DW_CFA_advance_loc: 5 to 000000000042b819
  DW_CFA_restore_state
  DW_CFA_advance_loc: 46 to 000000000042b847
  DW_CFA_remember_state
  DW_CFA_def_cfa_offset: 56
  DW_CFA_advance_loc: 8 to 000000000042b84f
  DW_CFA_def_cfa_offset: 48
  DW_CFA_advance_loc: 1 to 000000000042b850
  DW_CFA_def_cfa_offset: 40
  DW_CFA_advance_loc: 2 to 000000000042b852
  DW_CFA_def_cfa_offset: 32
  DW_CFA_advance_loc: 2 to 000000000042b854
  DW_CFA_def_cfa_offset: 24
  DW_CFA_advance_loc: 2 to 000000000042b856
  DW_CFA_def_cfa_offset: 16
  DW_CFA_advance_loc: 2 to 000000000042b858
  DW_CFA_def_cfa_offset: 8
  DW_CFA_advance_loc: 5 to 000000000042b85d
  DW_CFA_restore_state
  DW_CFA_advance_loc: 56 to 000000000042b895
  DW_CFA_remember_state
  DW_CFA_def_cfa_offset: 56
  DW_CFA_advance_loc: 8 to 000000000042b89d
  DW_CFA_def_cfa_offset: 48
  DW_CFA_advance_loc: 1 to 000000000042b89e
  DW_CFA_def_cfa_offset: 40
  DW_CFA_advance_loc: 2 to 000000000042b8a0
  DW_CFA_def_cfa_offset: 32
  DW_CFA_advance_loc: 2 to 000000000042b8a2
  DW_CFA_def_cfa_offset: 24
  DW_CFA_advance_loc: 2 to 000000000042b8a4
  DW_CFA_def_cfa_offset: 16
  DW_CFA_advance_loc: 2 to 000000000042b8a6
  DW_CFA_def_cfa_offset: 8
  DW_CFA_advance_loc: 5 to 000000000042b8ab
  DW_CFA_restore_state
  DW_CFA_advance_loc: 46 to 000000000042b8d9
  DW_CFA_remember_state
  DW_CFA_def_cfa_offset: 56
  DW_CFA_advance_loc: 8 to 000000000042b8e1
  DW_CFA_def_cfa_offset: 48
  DW_CFA_advance_loc: 1 to 000000000042b8e2
  DW_CFA_def_cfa_offset: 40
  DW_CFA_advance_loc: 2 to 000000000042b8e4
  DW_CFA_def_cfa_offset: 32
  DW_CFA_advance_loc: 2 to 000000000042b8e6
  DW_CFA_def_cfa_offset: 24
  DW_CFA_advance_loc: 2 to 000000000042b8e8
  DW_CFA_def_cfa_offset: 16
  DW_CFA_advance_loc: 2 to 000000000042b8ea
  DW_CFA_def_cfa_offset: 8
  DW_CFA_advance_loc: 5 to 000000000042b8ef
  DW_CFA_restore_state
  DW_CFA_advance_loc: 56 to 000000000042b927
  DW_CFA_remember_state
  DW_CFA_def_cfa_offset: 56
  DW_CFA_advance_loc: 8 to 000000000042b92f
  DW_CFA_def_cfa_offset: 48
  DW_CFA_advance_loc: 1 to 000000000042b930
  DW_CFA_def_cfa_offset: 40
  DW_CFA_advance_loc: 2 to 000000000042b932
  DW_CFA_def_cfa_offset: 32
  DW_CFA_advance_loc: 2 to 000000000042b934
  DW_CFA_def_cfa_offset: 24
  DW_CFA_advance_loc: 2 to 000000000042b936
  DW_CFA_def_cfa_offset: 16
  DW_CFA_advance_loc: 2 to 000000000042b938
  DW_CFA_def_cfa_offset: 8
  DW_CFA_advance_loc: 5 to 000000000042b93d
  DW_CFA_restore_state
  DW_CFA_advance_loc: 46 to 000000000042b96b
  DW_CFA_remember_state
  DW_CFA_def_cfa_offset: 56
  DW_CFA_advance_loc: 8 to 000000000042b973
  DW_CFA_def_cfa_offset: 48
  DW_CFA_advance_loc: 1 to 000000000042b974
  DW_CFA_def_cfa_offset: 40
  DW_CFA_advance_loc: 2 to 000000000042b976
  DW_CFA_def_cfa_offset: 32
  DW_CFA_advance_loc: 2 to 000000000042b978
  DW_CFA_def_cfa_offset: 24
  DW_CFA_advance_loc: 2 to 000000000042b97a
  DW_CFA_def_cfa_offset: 16
  DW_CFA_advance_loc: 2 to 000000000042b97c
  DW_CFA_def_cfa_offset: 8
  DW_CFA_advance_loc: 5 to 000000000042b981
  DW_CFA_restore_state
  DW_CFA_advance_loc: 56 to 000000000042b9b9
  DW_CFA_remember_state
  DW_CFA_def_cfa_offset: 56
  DW_CFA_advance_loc: 8 to 000000000042b9c1
  DW_CFA_def_cfa_offset: 48
  DW_CFA_advance_loc: 1 to 000000000042b9c2
  DW_CFA_def_cfa_offset: 40
  DW_CFA_advance_loc: 2 to 000000000042b9c4
  DW_CFA_def_cfa_offset: 32
  DW_CFA_advance_loc: 2 to 000000000042b9c6
  DW_CFA_def_cfa_offset: 24
  DW_CFA_advance_loc: 2 to 000000000042b9c8
  DW_CFA_def_cfa_offset: 16
  DW_CFA_advance_loc: 2 to 000000000042b9ca
  DW_CFA_def_cfa_offset: 8
  DW_CFA_advance_loc: 5 to 000000000042b9cf
  DW_CFA_restore_state
  DW_CFA_advance_loc: 46 to 000000000042b9fd
  DW_CFA_remember_state
  DW_CFA_def_cfa_offset: 56
  DW_CFA_advance_loc: 8 to 000000000042ba05
  DW_CFA_def_cfa_offset: 48
  DW_CFA_advance_loc: 1 to 000000000042ba06
  DW_CFA_def_cfa_offset: 40
  DW_CFA_advance_loc: 2 to 000000000042ba08
  DW_CFA_def_cfa_offset: 32
  DW_CFA_advance_loc: 2 to 000000000042ba0a
  DW_CFA_def_cfa_offset: 24
  DW_CFA_advance_loc: 2 to 000000000042ba0c
  DW_CFA_def_cfa_offset: 16
  DW_CFA_advance_loc: 2 to 000000000042ba0e
  DW_CFA_def_cfa_offset: 8
  DW_CFA_advance_loc: 5 to 000000000042ba13
  DW_CFA_restore_state
  DW_CFA_advance_loc: 56 to 000000000042ba4b
  DW_CFA_remember_state
  DW_CFA_def_cfa_offset: 56
  DW_CFA_advance_loc: 8 to 000000000042ba53
  DW_CFA_def_cfa_offset: 48
  DW_CFA_advance_loc: 1 to 000000000042ba54
  DW_CFA_def_cfa_offset: 40
  DW_CFA_advance_loc: 2 to 000000000042ba56
  DW_CFA_def_cfa_offset: 32
  DW_CFA_advance_loc: 2 to 000000000042ba58
  DW_CFA_def_cfa_offset: 24
  DW_CFA_advance_loc: 2 to 000000000042ba5a
  DW_CFA_def_cfa_offset: 16
  DW_CFA_advance_loc: 2 to 000000000042ba5c
  DW_CFA_def_cfa_offset: 8
  DW_CFA_advance_loc: 5 to 000000000042ba61
  DW_CFA_restore_state
  DW_CFA_advance_loc: 46 to 000000000042ba8f
  DW_CFA_remember_state
  DW_CFA_def_cfa_offset: 56
  DW_CFA_advance_loc: 8 to 000000000042ba97
  DW_CFA_def_cfa_offset: 48
  DW_CFA_advance_loc: 1 to 000000000042ba98
  DW_CFA_def_cfa_offset: 40
  DW_CFA_advance_loc: 2 to 000000000042ba9a
  DW_CFA_def_cfa_offset: 32
  DW_CFA_advance_loc: 2 to 000000000042ba9c
  DW_CFA_def_cfa_offset: 24
  DW_CFA_advance_loc: 2 to 000000000042ba9e
  DW_CFA_def_cfa_offset: 16
  DW_CFA_advance_loc: 2 to 000000000042baa0
  DW_CFA_def_cfa_offset: 8
  DW_CFA_advance_loc: 5 to 000000000042baa5
  DW_CFA_restore_state
  DW_CFA_advance_loc: 56 to 000000000042badd
  DW_CFA_remember_state
  DW_CFA_def_cfa_offset: 56
  DW_CFA_advance_loc: 8 to 000000000042bae5
  DW_CFA_def_cfa_offset: 48
  DW_CFA_advance_loc: 1 to 000000000042bae6
  DW_CFA_def_cfa_offset: 40
  DW_CFA_advance_loc: 2 to 000000000042bae8
  DW_CFA_def_cfa_offset: 32
  DW_CFA_advance_loc: 2 to 000000000042baea
  DW_CFA_def_cfa_offset: 24
  DW_CFA_advance_loc: 2 to 000000000042baec
  DW_CFA_def_cfa_offset: 16
  DW_CFA_advance_loc: 2 to 000000000042baee
  DW_CFA_def_cfa_offset: 8
  DW_CFA_advance_loc: 5 to 000000000042baf3
  DW_CFA_restore_state
  DW_CFA_advance_loc: 46 to 000000000042bb21
  DW_CFA_remember_state
  DW_CFA_def_cfa_offset: 56
  DW_CFA_advance_loc: 8 to 000000000042bb29
  DW_CFA_def_cfa_offset: 48
  DW_CFA_advance_loc: 1 to 000000000042bb2a
  DW_CFA_def_cfa_offset: 40
  DW_CFA_advance_loc: 2 to 000000000042bb2c
  DW_CFA_def_cfa_offset: 32
  DW_CFA_advance_loc: 2 to 000000000042bb2e
  DW_CFA_def_cfa_offset: 24
  DW_CFA_advance_loc: 2 to 000000000042bb30
  DW_CFA_def_cfa_offset: 16
  DW_CFA_advance_loc: 2 to 000000000042bb32
  DW_CFA_def_cfa_offset: 8
  DW_CFA_advance_loc: 5 to 000000000042bb37
  DW_CFA_restore_state
  DW_CFA_advance_loc: 56 to 000000000042bb6f
  DW_CFA_remember_state
  DW_CFA_def_cfa_offset: 56
  DW_CFA_advance_loc: 8 to 000000000042bb77
  DW_CFA_def_cfa_offset: 48
  DW_CFA_advance_loc: 1 to 000000000042bb78
  DW_CFA_def_cfa_offset: 40
  DW_CFA_advance_loc: 2 to 000000000042bb7a
  DW_CFA_def_cfa_offset: 32
  DW_CFA_advance_loc: 2 to 000000000042bb7c
  DW_CFA_def_cfa_offset: 24
  DW_CFA_advance_loc: 2 to 000000000042bb7e
  DW_CFA_def_cfa_offset: 16
  DW_CFA_advance_loc: 2 to 000000000042bb80
  DW_CFA_def_cfa_offset: 8
  DW_CFA_advance_loc: 5 to 000000000042bb85
  DW_CFA_restore_state
  DW_CFA_advance_loc: 46 to 000000000042bbb3
  DW_CFA_remember_state
  DW_CFA_def_cfa_offset: 56
  DW_CFA_advance_loc: 8 to 000000000042bbbb
  DW_CFA_def_cfa_offset: 48
  DW_CFA_advance_loc: 1 to 000000000042bbbc
  DW_CFA_def_cfa_offset: 40
  DW_CFA_advance_loc: 2 to 000000000042bbbe
  DW_CFA_def_cfa_offset: 32
  DW_CFA_advance_loc: 2 to 000000000042bbc0
  DW_CFA_def_cfa_offset: 24
  DW_CFA_advance_loc: 2 to 000000000042bbc2
  DW_CFA_def_cfa_offset: 16
  DW_CFA_advance_loc: 2 to 000000000042bbc4
  DW_CFA_def_cfa_offset: 8
  DW_CFA_advance_loc: 5 to 000000000042bbc9
  DW_CFA_restore_state
  DW_CFA_advance_loc: 56 to 000000000042bc01
  DW_CFA_remember_state
  DW_CFA_def_cfa_offset: 56
  DW_CFA_advance_loc: 8 to 000000000042bc09
  DW_CFA_def_cfa_offset: 48
  DW_CFA_advance_loc: 1 to 000000000042bc0a
  DW_CFA_def_cfa_offset: 40
  DW_CFA_advance_loc: 2 to 000000000042bc0c
  DW_CFA_def_cfa_offset: 32
  DW_CFA_advance_loc: 2 to 000000000042bc0e
  DW_CFA_def_cfa_offset: 24
  DW_CFA_advance_loc: 2 to 000000000042bc10
  DW_CFA_def_cfa_offset: 16
  DW_CFA_advance_loc: 2 to 000000000042bc12
  DW_CFA_def_cfa_offset: 8
  DW_CFA_advance_loc: 5 to 000000000042bc17
  DW_CFA_restore_state
  DW_CFA_advance_loc: 46 to 000000000042bc45
  DW_CFA_remember_state
  DW_CFA_def_cfa_offset: 56
  DW_CFA_advance_loc: 8 to 000000000042bc4d
  DW_CFA_def_cfa_offset: 48
  DW_CFA_advance_loc: 1 to 000000000042bc4e
  DW_CFA_def_cfa_offset: 40
  DW_CFA_advance_loc: 2 to 000000000042bc50
  DW_CFA_def_cfa_offset: 32
  DW_CFA_advance_loc: 2 to 000000000042bc52
  DW_CFA_def_cfa_offset: 24
  DW_CFA_advance_loc: 2 to 000000000042bc54
  DW_CFA_def_cfa_offset: 16
  DW_CFA_advance_loc: 2 to 000000000042bc56
  DW_CFA_def_cfa_offset: 8
  DW_CFA_advance_loc: 5 to 000000000042bc5b
  DW_CFA_restore_state
  DW_CFA_advance_loc: 56 to 000000000042bc93
  DW_CFA_remember_state
  DW_CFA_def_cfa_offset: 56
  DW_CFA_advance_loc: 8 to 000000000042bc9b
  DW_CFA_def_cfa_offset: 48
  DW_CFA_advance_loc: 1 to 000000000042bc9c
  DW_CFA_def_cfa_offset: 40
  DW_CFA_advance_loc: 2 to 000000000042bc9e
  DW_CFA_def_cfa_offset: 32
  DW_CFA_advance_loc: 2 to 000000000042bca0
  DW_CFA_def_cfa_offset: 24
  DW_CFA_advance_loc: 2 to 000000000042bca2
  DW_CFA_def_cfa_offset: 16
  DW_CFA_advance_loc: 2 to 000000000042bca4
  DW_CFA_def_cfa_offset: 8
  DW_CFA_advance_loc: 5 to 000000000042bca9
  DW_CFA_restore_state
  DW_CFA_advance_loc: 46 to 000000000042bcd7
  DW_CFA_remember_state
  DW_CFA_def_cfa_offset: 56
  DW_CFA_advance_loc: 8 to 000000000042bcdf
  DW_CFA_def_cfa_offset: 48
  DW_CFA_advance_loc: 1 to 000000000042bce0
  DW_CFA_def_cfa_offset: 40
  DW_CFA_advance_loc: 2 to 000000000042bce2
  DW_CFA_def_cfa_offset: 32
  DW_CFA_advance_loc: 2 to 000000000042bce4
  DW_CFA_def_cfa_offset: 24
  DW_CFA_advance_loc: 2 to 000000000042bce6
  DW_CFA_def_cfa_offset: 16
  DW_CFA_advance_loc: 2 to 000000000042bce8
  DW_CFA_def_cfa_offset: 8
  DW_CFA_advance_loc: 5 to 000000000042bced
  DW_CFA_restore_state
  DW_CFA_advance_loc: 56 to 000000000042bd25
  DW_CFA_remember_state
  DW_CFA_def_cfa_offset: 56
  DW_CFA_advance_loc: 8 to 000000000042bd2d
  DW_CFA_def_cfa_offset: 48
  DW_CFA_advance_loc: 1 to 000000000042bd2e
  DW_CFA_def_cfa_offset: 40
  DW_CFA_advance_loc: 2 to 000000000042bd30
  DW_CFA_def_cfa_offset: 32
  DW_CFA_advance_loc: 2 to 000000000042bd32
  DW_CFA_def_cfa_offset: 24
  DW_CFA_advance_loc: 2 to 000000000042bd34
  DW_CFA_def_cfa_offset: 16
  DW_CFA_advance_loc: 2 to 000000000042bd36
  DW_CFA_def_cfa_offset: 8
  DW_CFA_advance_loc: 5 to 000000000042bd3b
  DW_CFA_restore_state
  DW_CFA_advance_loc: 46 to 000000000042bd69
  DW_CFA_remember_state
  DW_CFA_def_cfa_offset: 56
  DW_CFA_advance_loc: 8 to 000000000042bd71
  DW_CFA_def_cfa_offset: 48
  DW_CFA_advance_loc: 1 to 000000000042bd72
  DW_CFA_def_cfa_offset: 40
  DW_CFA_advance_loc: 2 to 000000000042bd74
  DW_CFA_def_cfa_offset: 32
  DW_CFA_advance_loc: 2 to 000000000042bd76
  DW_CFA_def_cfa_offset: 24
  DW_CFA_advance_loc: 2 to 000000000042bd78
  DW_CFA_def_cfa_offset: 16
  DW_CFA_advance_loc: 2 to 000000000042bd7a
  DW_CFA_def_cfa_offset: 8
  DW_CFA_advance_loc: 5 to 000000000042bd7f
  DW_CFA_restore_state
  DW_CFA_advance_loc: 56 to 000000000042bdb7
  DW_CFA_remember_state
  DW_CFA_def_cfa_offset: 56
  DW_CFA_advance_loc: 8 to 000000000042bdbf
  DW_CFA_def_cfa_offset: 48
  DW_CFA_advance_loc: 1 to 000000000042bdc0
  DW_CFA_def_cfa_offset: 40
  DW_CFA_advance_loc: 2 to 000000000042bdc2
  DW_CFA_def_cfa_offset: 32
  DW_CFA_advance_loc: 2 to 000000000042bdc4
  DW_CFA_def_cfa_offset: 24
  DW_CFA_advance_loc: 2 to 000000000042bdc6
  DW_CFA_def_cfa_offset: 16
  DW_CFA_advance_loc: 2 to 000000000042bdc8
  DW_CFA_def_cfa_offset: 8
  DW_CFA_advance_loc: 5 to 000000000042bdcd
  DW_CFA_restore_state
  DW_CFA_advance_loc: 46 to 000000000042bdfb
  DW_CFA_remember_state
  DW_CFA_def_cfa_offset: 56
  DW_CFA_advance_loc: 8 to 000000000042be03
  DW_CFA_def_cfa_offset: 48
  DW_CFA_advance_loc: 1 to 000000000042be04
  DW_CFA_def_cfa_offset: 40
  DW_CFA_advance_loc: 2 to 000000000042be06
  DW_CFA_def_cfa_offset: 32
  DW_CFA_advance_loc: 2 to 000000000042be08
  DW_CFA_def_cfa_offset: 24
  DW_CFA_advance_loc: 2 to 000000000042be0a
  DW_CFA_def_cfa_offset: 16
  DW_CFA_advance_loc: 2 to 000000000042be0c
  DW_CFA_def_cfa_offset: 8
  DW_CFA_advance_loc: 5 to 000000000042be11
  DW_CFA_restore_state
  DW_CFA_advance_loc: 56 to 000000000042be49
  DW_CFA_remember_state
  DW_CFA_def_cfa_offset: 56
  DW_CFA_advance_loc: 8 to 000000000042be51
  DW_CFA_def_cfa_offset: 48
  DW_CFA_advance_loc: 1 to 000000000042be52
  DW_CFA_def_cfa_offset: 40
  DW_CFA_advance_loc: 2 to 000000000042be54
  DW_CFA_def_cfa_offset: 32
  DW_CFA_advance_loc: 2 to 000000000042be56
  DW_CFA_def_cfa_offset: 24
  DW_CFA_advance_loc: 2 to 000000000042be58
  DW_CFA_def_cfa_offset: 16
  DW_CFA_advance_loc: 2 to 000000000042be5a
  DW_CFA_def_cfa_offset: 8
  DW_CFA_advance_loc: 5 to 000000000042be5f
  DW_CFA_restore_state
  DW_CFA_advance_loc: 46 to 000000000042be8d
  DW_CFA_remember_state
  DW_CFA_def_cfa_offset: 56
  DW_CFA_advance_loc: 8 to 000000000042be95
  DW_CFA_def_cfa_offset: 48
  DW_CFA_advance_loc: 1 to 000000000042be96
  DW_CFA_def_cfa_offset: 40
  DW_CFA_advance_loc: 2 to 000000000042be98
  DW_CFA_def_cfa_offset: 32
  DW_CFA_advance_loc: 2 to 000000000042be9a
  DW_CFA_def_cfa_offset: 24
  DW_CFA_advance_loc: 2 to 000000000042be9c
  DW_CFA_def_cfa_offset: 16
  DW_CFA_advance_loc: 2 to 000000000042be9e
  DW_CFA_def_cfa_offset: 8
  DW_CFA_advance_loc: 5 to 000000000042bea3
  DW_CFA_restore_state
  DW_CFA_advance_loc: 56 to 000000000042bedb
  DW_CFA_remember_state
  DW_CFA_def_cfa_offset: 56
  DW_CFA_advance_loc: 8 to 000000000042bee3
  DW_CFA_def_cfa_offset: 48
  DW_CFA_advance_loc: 1 to 000000000042bee4
  DW_CFA_def_cfa_offset: 40
  DW_CFA_advance_loc: 2 to 000000000042bee6
  DW_CFA_def_cfa_offset: 32
  DW_CFA_advance_loc: 2 to 000000000042bee8
  DW_CFA_def_cfa_offset: 24
  DW_CFA_advance_loc: 2 to 000000000042beea
  DW_CFA_def_cfa_offset: 16
  DW_CFA_advance_loc: 2 to 000000000042beec
  DW_CFA_def_cfa_offset: 8
  DW_CFA_advance_loc: 5 to 000000000042bef1
  DW_CFA_restore_state
  DW_CFA_advance_loc: 46 to 000000000042bf1f
  DW_CFA_remember_state
  DW_CFA_def_cfa_offset: 56
  DW_CFA_advance_loc: 8 to 000000000042bf27
  DW_CFA_def_cfa_offset: 48
  DW_CFA_advance_loc: 1 to 000000000042bf28
  DW_CFA_def_cfa_offset: 40
  DW_CFA_advance_loc: 2 to 000000000042bf2a
  DW_CFA_def_cfa_offset: 32
  DW_CFA_advance_loc: 2 to 000000000042bf2c
  DW_CFA_def_cfa_offset: 24
  DW_CFA_advance_loc: 2 to 000000000042bf2e
  DW_CFA_def_cfa_offset: 16
  DW_CFA_advance_loc: 2 to 000000000042bf30
  DW_CFA_def_cfa_offset: 8
  DW_CFA_advance_loc: 5 to 000000000042bf35
  DW_CFA_restore_state
  DW_CFA_advance_loc: 56 to 000000000042bf6d
  DW_CFA_remember_state
  DW_CFA_def_cfa_offset: 56
  DW_CFA_advance_loc: 8 to 000000000042bf75
  DW_CFA_def_cfa_offset: 48
  DW_CFA_advance_loc: 1 to 000000000042bf76
  DW_CFA_def_cfa_offset: 40
  DW_CFA_advance_loc: 2 to 000000000042bf78
  DW_CFA_def_cfa_offset: 32
  DW_CFA_advance_loc: 2 to 000000000042bf7a
  DW_CFA_def_cfa_offset: 24
  DW_CFA_advance_loc: 2 to 000000000042bf7c
  DW_CFA_def_cfa_offset: 16
  DW_CFA_advance_loc: 2 to 000000000042bf7e
  DW_CFA_def_cfa_offset: 8
  DW_CFA_advance_loc: 5 to 000000000042bf83
  DW_CFA_restore_state
  DW_CFA_advance_loc: 46 to 000000000042bfb1
  DW_CFA_remember_state
  DW_CFA_def_cfa_offset: 56
  DW_CFA_advance_loc: 8 to 000000000042bfb9
  DW_CFA_def_cfa_offset: 48
  DW_CFA_advance_loc: 1 to 000000000042bfba
  DW_CFA_def_cfa_offset: 40
  DW_CFA_advance_loc: 2 to 000000000042bfbc
  DW_CFA_def_cfa_offset: 32
  DW_CFA_advance_loc: 2 to 000000000042bfbe
  DW_CFA_def_cfa_offset: 24
  DW_CFA_advance_loc: 2 to 000000000042bfc0
  DW_CFA_def_cfa_offset: 16
  DW_CFA_advance_loc: 2 to 000000000042bfc2
  DW_CFA_def_cfa_offset: 8
  DW_CFA_advance_loc: 5 to 000000000042bfc7
  DW_CFA_restore_state
  DW_CFA_advance_loc: 56 to 000000000042bfff
  DW_CFA_remember_state
  DW_CFA_def_cfa_offset: 56
  DW_CFA_advance_loc: 8 to 000000000042c007
  DW_CFA_def_cfa_offset: 48
  DW_CFA_advance_loc: 1 to 000000000042c008
  DW_CFA_def_cfa_offset: 40
  DW_CFA_advance_loc: 2 to 000000000042c00a
  DW_CFA_def_cfa_offset: 32
  DW_CFA_advance_loc: 2 to 000000000042c00c
  DW_CFA_def_cfa_offset: 24
  DW_CFA_advance_loc: 2 to 000000000042c00e
  DW_CFA_def_cfa_offset: 16
  DW_CFA_advance_loc: 2 to 000000000042c010
  DW_CFA_def_cfa_offset: 8
  DW_CFA_advance_loc: 5 to 000000000042c015
  DW_CFA_restore_state
  DW_CFA_advance_loc: 46 to 000000000042c043
  DW_CFA_remember_state
  DW_CFA_def_cfa_offset: 56
  DW_CFA_advance_loc: 8 to 000000000042c04b
  DW_CFA_def_cfa_offset: 48
  DW_CFA_advance_loc: 1 to 000000000042c04c
  DW_CFA_def_cfa_offset: 40
  DW_CFA_advance_loc: 2 to 000000000042c04e
  DW_CFA_def_cfa_offset: 32
  DW_CFA_advance_loc: 2 to 000000000042c050
  DW_CFA_def_cfa_offset: 24
  DW_CFA_advance_loc: 2 to 000000000042c052
  DW_CFA_def_cfa_offset: 16
  DW_CFA_advance_loc: 2 to 000000000042c054
  DW_CFA_def_cfa_offset: 8
  DW_CFA_advance_loc: 5 to 000000000042c059
  DW_CFA_restore_state
  DW_CFA_advance_loc: 56 to 000000000042c091
  DW_CFA_remember_state
  DW_CFA_def_cfa_offset: 56
  DW_CFA_advance_loc: 8 to 000000000042c099
  DW_CFA_def_cfa_offset: 48
  DW_CFA_advance_loc: 1 to 000000000042c09a
  DW_CFA_def_cfa_offset: 40
  DW_CFA_advance_loc: 2 to 000000000042c09c
  DW_CFA_def_cfa_offset: 32
  DW_CFA_advance_loc: 2 to 000000000042c09e
  DW_CFA_def_cfa_offset: 24
  DW_CFA_advance_loc: 2 to 000000000042c0a0
  DW_CFA_def_cfa_offset: 16
  DW_CFA_advance_loc: 2 to 000000000042c0a2
  DW_CFA_def_cfa_offset: 8
  DW_CFA_advance_loc: 5 to 000000000042c0a7
  DW_CFA_restore_state
  DW_CFA_advance_loc: 46 to 000000000042c0d5
  DW_CFA_remember_state
  DW_CFA_def_cfa_offset: 56
  DW_CFA_advance_loc: 8 to 000000000042c0dd
  DW_CFA_def_cfa_offset: 48
  DW_CFA_advance_loc: 1 to 000000000042c0de
  DW_CFA_def_cfa_offset: 40
  DW_CFA_advance_loc: 2 to 000000000042c0e0
  DW_CFA_def_cfa_offset: 32
  DW_CFA_advance_loc: 2 to 000000000042c0e2
  DW_CFA_def_cfa_offset: 24
  DW_CFA_advance_loc: 2 to 000000000042c0e4
  DW_CFA_def_cfa_offset: 16
  DW_CFA_advance_loc: 2 to 000000000042c0e6
  DW_CFA_def_cfa_offset: 8
  DW_CFA_advance_loc: 5 to 000000000042c0eb
  DW_CFA_restore_state
  DW_CFA_advance_loc: 56 to 000000000042c123
  DW_CFA_remember_state
  DW_CFA_def_cfa_offset: 56
  DW_CFA_advance_loc: 8 to 000000000042c12b
  DW_CFA_def_cfa_offset: 48
  DW_CFA_advance_loc: 1 to 000000000042c12c
  DW_CFA_def_cfa_offset: 40
  DW_CFA_advance_loc: 2 to 000000000042c12e
  DW_CFA_def_cfa_offset: 32
  DW_CFA_advance_loc: 2 to 000000000042c130
  DW_CFA_def_cfa_offset: 24
  DW_CFA_advance_loc: 2 to 000000000042c132
  DW_CFA_def_cfa_offset: 16
  DW_CFA_advance_loc: 2 to 000000000042c134
  DW_CFA_def_cfa_offset: 8
  DW_CFA_advance_loc: 5 to 000000000042c139
  DW_CFA_restore_state
  DW_CFA_advance_loc: 46 to 000000000042c167
  DW_CFA_remember_state
  DW_CFA_def_cfa_offset: 56
  DW_CFA_advance_loc: 8 to 000000000042c16f
  DW_CFA_def_cfa_offset: 48
  DW_CFA_advance_loc: 1 to 000000000042c170
  DW_CFA_def_cfa_offset: 40
  DW_CFA_advance_loc: 2 to 000000000042c172
  DW_CFA_def_cfa_offset: 32
  DW_CFA_advance_loc: 2 to 000000000042c174
  DW_CFA_def_cfa_offset: 24
  DW_CFA_advance_loc: 2 to 000000000042c176
  DW_CFA_def_cfa_offset: 16
  DW_CFA_advance_loc: 2 to 000000000042c178
  DW_CFA_def_cfa_offset: 8
  DW_CFA_advance_loc: 5 to 000000000042c17d
  DW_CFA_restore_state
  DW_CFA_advance_loc: 56 to 000000000042c1b5
  DW_CFA_remember_state
  DW_CFA_def_cfa_offset: 56
  DW_CFA_advance_loc: 8 to 000000000042c1bd
  DW_CFA_def_cfa_offset: 48
  DW_CFA_advance_loc: 1 to 000000000042c1be
  DW_CFA_def_cfa_offset: 40
  DW_CFA_advance_loc: 2 to 000000000042c1c0
  DW_CFA_def_cfa_offset: 32
  DW_CFA_advance_loc: 2 to 000000000042c1c2
  DW_CFA_def_cfa_offset: 24
  DW_CFA_advance_loc: 2 to 000000000042c1c4
  DW_CFA_def_cfa_offset: 16
  DW_CFA_advance_loc: 2 to 000000000042c1c6
  DW_CFA_def_cfa_offset: 8
  DW_CFA_advance_loc: 5 to 000000000042c1cb
  DW_CFA_restore_state
  DW_CFA_advance_loc: 46 to 000000000042c1f9
  DW_CFA_remember_state
  DW_CFA_def_cfa_offset: 56
  DW_CFA_advance_loc: 8 to 000000000042c201
  DW_CFA_def_cfa_offset: 48
  DW_CFA_advance_loc: 1 to 000000000042c202
  DW_CFA_def_cfa_offset: 40
  DW_CFA_advance_loc: 2 to 000000000042c204
  DW_CFA_def_cfa_offset: 32
  DW_CFA_advance_loc: 2 to 000000000042c206
  DW_CFA_def_cfa_offset: 24
  DW_CFA_advance_loc: 2 to 000000000042c208
  DW_CFA_def_cfa_offset: 16
  DW_CFA_advance_loc: 2 to 000000000042c20a
  DW_CFA_def_cfa_offset: 8
  DW_CFA_advance_loc: 5 to 000000000042c20f
  DW_CFA_restore_state
  DW_CFA_advance_loc: 56 to 000000000042c247
  DW_CFA_remember_state
  DW_CFA_def_cfa_offset: 56
  DW_CFA_advance_loc: 8 to 000000000042c24f
  DW_CFA_def_cfa_offset: 48
  DW_CFA_advance_loc: 1 to 000000000042c250
  DW_CFA_def_cfa_offset: 40
  DW_CFA_advance_loc: 2 to 000000000042c252
  DW_CFA_def_cfa_offset: 32
  DW_CFA_advance_loc: 2 to 000000000042c254
  DW_CFA_def_cfa_offset: 24
  DW_CFA_advance_loc: 2 to 000000000042c256
  DW_CFA_def_cfa_offset: 16
  DW_CFA_advance_loc: 2 to 000000000042c258
  DW_CFA_def_cfa_offset: 8
  DW_CFA_advance_loc: 5 to 000000000042c25d
  DW_CFA_restore_state
  DW_CFA_advance_loc: 46 to 000000000042c28b
  DW_CFA_remember_state
  DW_CFA_def_cfa_offset: 56
  DW_CFA_advance_loc: 8 to 000000000042c293
  DW_CFA_def_cfa_offset: 48
  DW_CFA_advance_loc: 1 to 000000000042c294
  DW_CFA_def_cfa_offset: 40
  DW_CFA_advance_loc: 2 to 000000000042c296
  DW_CFA_def_cfa_offset: 32
  DW_CFA_advance_loc: 2 to 000000000042c298
  DW_CFA_def_cfa_offset: 24
  DW_CFA_advance_loc: 2 to 000000000042c29a
  DW_CFA_def_cfa_offset: 16
  DW_CFA_advance_loc: 2 to 000000000042c29c
  DW_CFA_def_cfa_offset: 8
  DW_CFA_advance_loc: 5 to 000000000042c2a1
  DW_CFA_restore_state
  DW_CFA_advance_loc: 56 to 000000000042c2d9
  DW_CFA_remember_state
  DW_CFA_def_cfa_offset: 56
  DW_CFA_advance_loc: 8 to 000000000042c2e1
  DW_CFA_def_cfa_offset: 48
  DW_CFA_advance_loc: 1 to 000000000042c2e2
  DW_CFA_def_cfa_offset: 40
  DW_CFA_advance_loc: 2 to 000000000042c2e4
  DW_CFA_def_cfa_offset: 32
  DW_CFA_advance_loc: 2 to 000000000042c2e6
  DW_CFA_def_cfa_offset: 24
  DW_CFA_advance_loc: 2 to 000000000042c2e8
  DW_CFA_def_cfa_offset: 16
  DW_CFA_advance_loc: 2 to 000000000042c2ea
  DW_CFA_def_cfa_offset: 8
  DW_CFA_advance_loc: 5 to 000000000042c2ef
  DW_CFA_restore_state
  DW_CFA_advance_loc: 46 to 000000000042c31d
  DW_CFA_remember_state
  DW_CFA_def_cfa_offset: 56
  DW_CFA_advance_loc: 8 to 000000000042c325
  DW_CFA_def_cfa_offset: 48
  DW_CFA_advance_loc: 1 to 000000000042c326
  DW_CFA_def_cfa_offset: 40
  DW_CFA_advance_loc: 2 to 000000000042c328
  DW_CFA_def_cfa_offset: 32
  DW_CFA_advance_loc: 2 to 000000000042c32a
  DW_CFA_def_cfa_offset: 24
  DW_CFA_advance_loc: 2 to 000000000042c32c
  DW_CFA_def_cfa_offset: 16
  DW_CFA_advance_loc: 2 to 000000000042c32e
  DW_CFA_def_cfa_offset: 8
  DW_CFA_advance_loc: 5 to 000000000042c333
  DW_CFA_restore_state
  DW_CFA_advance_loc: 56 to 000000000042c36b
  DW_CFA_remember_state
  DW_CFA_def_cfa_offset: 56
  DW_CFA_advance_loc: 8 to 000000000042c373
  DW_CFA_def_cfa_offset: 48
  DW_CFA_advance_loc: 1 to 000000000042c374
  DW_CFA_def_cfa_offset: 40
  DW_CFA_advance_loc: 2 to 000000000042c376
  DW_CFA_def_cfa_offset: 32
  DW_CFA_advance_loc: 2 to 000000000042c378
  DW_CFA_def_cfa_offset: 24
  DW_CFA_advance_loc: 2 to 000000000042c37a
  DW_CFA_def_cfa_offset: 16
  DW_CFA_advance_loc: 2 to 000000000042c37c
  DW_CFA_def_cfa_offset: 8
  DW_CFA_advance_loc: 5 to 000000000042c381
  DW_CFA_restore_state
  DW_CFA_advance_loc: 46 to 000000000042c3af
  DW_CFA_remember_state
  DW_CFA_def_cfa_offset: 56
  DW_CFA_advance_loc: 8 to 000000000042c3b7
  DW_CFA_def_cfa_offset: 48
  DW_CFA_advance_loc: 1 to 000000000042c3b8
  DW_CFA_def_cfa_offset: 40
  DW_CFA_advance_loc: 2 to 000000000042c3ba
  DW_CFA_def_cfa_offset: 32
  DW_CFA_advance_loc: 2 to 000000000042c3bc
  DW_CFA_def_cfa_offset: 24
  DW_CFA_advance_loc: 2 to 000000000042c3be
  DW_CFA_def_cfa_offset: 16
  DW_CFA_advance_loc: 2 to 000000000042c3c0
  DW_CFA_def_cfa_offset: 8
  DW_CFA_advance_loc: 5 to 000000000042c3c5
  DW_CFA_restore_state
  DW_CFA_advance_loc: 56 to 000000000042c3fd
  DW_CFA_remember_state
  DW_CFA_def_cfa_offset: 56
  DW_CFA_advance_loc: 8 to 000000000042c405
  DW_CFA_def_cfa_offset: 48
  DW_CFA_advance_loc: 1 to 000000000042c406
  DW_CFA_def_cfa_offset: 40
  DW_CFA_advance_loc: 2 to 000000000042c408
  DW_CFA_def_cfa_offset: 32
  DW_CFA_advance_loc: 2 to 000000000042c40a
  DW_CFA_def_cfa_offset: 24
  DW_CFA_advance_loc: 2 to 000000000042c40c
  DW_CFA_def_cfa_offset: 16
  DW_CFA_advance_loc: 2 to 000000000042c40e
  DW_CFA_def_cfa_offset: 8
  DW_CFA_advance_loc: 5 to 000000000042c413
  DW_CFA_restore_state
  DW_CFA_advance_loc: 46 to 000000000042c441
  DW_CFA_remember_state
  DW_CFA_def_cfa_offset: 56
  DW_CFA_advance_loc: 8 to 000000000042c449
  DW_CFA_def_cfa_offset: 48
  DW_CFA_advance_loc: 1 to 000000000042c44a
  DW_CFA_def_cfa_offset: 40
  DW_CFA_advance_loc: 2 to 000000000042c44c
  DW_CFA_def_cfa_offset: 32
  DW_CFA_advance_loc: 2 to 000000000042c44e
  DW_CFA_def_cfa_offset: 24
  DW_CFA_advance_loc: 2 to 000000000042c450
  DW_CFA_def_cfa_offset: 16
  DW_CFA_advance_loc: 2 to 000000000042c452
  DW_CFA_def_cfa_offset: 8
  DW_CFA_advance_loc: 5 to 000000000042c457
  DW_CFA_restore_state
  DW_CFA_advance_loc: 56 to 000000000042c48f
  DW_CFA_remember_state
  DW_CFA_def_cfa_offset: 56
  DW_CFA_advance_loc: 8 to 000000000042c497
  DW_CFA_def_cfa_offset: 48
  DW_CFA_advance_loc: 1 to 000000000042c498
  DW_CFA_def_cfa_offset: 40
  DW_CFA_advance_loc: 2 to 000000000042c49a
  DW_CFA_def_cfa_offset: 32
  DW_CFA_advance_loc: 2 to 000000000042c49c
  DW_CFA_def_cfa_offset: 24
  DW_CFA_advance_loc: 2 to 000000000042c49e
  DW_CFA_def_cfa_offset: 16
  DW_CFA_advance_loc: 2 to 000000000042c4a0
  DW_CFA_def_cfa_offset: 8
  DW_CFA_advance_loc: 5 to 000000000042c4a5
  DW_CFA_restore_state
  DW_CFA_advance_loc: 46 to 000000000042c4d3
  DW_CFA_remember_state
  DW_CFA_def_cfa_offset: 56
  DW_CFA_advance_loc: 8 to 000000000042c4db
  DW_CFA_def_cfa_offset: 48
  DW_CFA_advance_loc: 1 to 000000000042c4dc
  DW_CFA_def_cfa_offset: 40
  DW_CFA_advance_loc: 2 to 000000000042c4de
  DW_CFA_def_cfa_offset: 32
  DW_CFA_advance_loc: 2 to 000000000042c4e0
  DW_CFA_def_cfa_offset: 24
  DW_CFA_advance_loc: 2 to 000000000042c4e2
  DW_CFA_def_cfa_offset: 16
  DW_CFA_advance_loc: 2 to 000000000042c4e4
  DW_CFA_def_cfa_offset: 8
  DW_CFA_advance_loc: 5 to 000000000042c4e9
  DW_CFA_restore_state
  DW_CFA_advance_loc: 56 to 000000000042c521
  DW_CFA_remember_state
  DW_CFA_def_cfa_offset: 56
  DW_CFA_advance_loc: 8 to 000000000042c529
  DW_CFA_def_cfa_offset: 48
  DW_CFA_advance_loc: 1 to 000000000042c52a
  DW_CFA_def_cfa_offset: 40
  DW_CFA_advance_loc: 2 to 000000000042c52c
  DW_CFA_def_cfa_offset: 32
  DW_CFA_advance_loc: 2 to 000000000042c52e
  DW_CFA_def_cfa_offset: 24
  DW_CFA_advance_loc: 2 to 000000000042c530
  DW_CFA_def_cfa_offset: 16
  DW_CFA_advance_loc: 2 to 000000000042c532
  DW_CFA_def_cfa_offset: 8
  DW_CFA_advance_loc: 5 to 000000000042c537
  DW_CFA_restore_state
  DW_CFA_advance_loc: 46 to 000000000042c565
  DW_CFA_remember_state
  DW_CFA_def_cfa_offset: 56
  DW_CFA_advance_loc: 8 to 000000000042c56d
  DW_CFA_def_cfa_offset: 48
  DW_CFA_advance_loc: 1 to 000000000042c56e
  DW_CFA_def_cfa_offset: 40
  DW_CFA_advance_loc: 2 to 000000000042c570
  DW_CFA_def_cfa_offset: 32
  DW_CFA_advance_loc: 2 to 000000000042c572
  DW_CFA_def_cfa_offset: 24
  DW_CFA_advance_loc: 2 to 000000000042c574
  DW_CFA_def_cfa_offset: 16
  DW_CFA_advance_loc: 2 to 000000000042c576
  DW_CFA_def_cfa_offset: 8
  DW_CFA_advance_loc: 5 to 000000000042c57b
  DW_CFA_restore_state
  DW_CFA_advance_loc: 56 to 000000000042c5b3
  DW_CFA_remember_state
  DW_CFA_def_cfa_offset: 56
  DW_CFA_advance_loc: 8 to 000000000042c5bb
  DW_CFA_def_cfa_offset: 48
  DW_CFA_advance_loc: 1 to 000000000042c5bc
  DW_CFA_def_cfa_offset: 40
  DW_CFA_advance_loc: 2 to 000000000042c5be
  DW_CFA_def_cfa_offset: 32
  DW_CFA_advance_loc: 2 to 000000000042c5c0
  DW_CFA_def_cfa_offset: 24
  DW_CFA_advance_loc: 2 to 000000000042c5c2
  DW_CFA_def_cfa_offset: 16
  DW_CFA_advance_loc: 2 to 000000000042c5c4
  DW_CFA_def_cfa_offset: 8
  DW_CFA_advance_loc: 5 to 000000000042c5c9
  DW_CFA_restore_state
  DW_CFA_advance_loc: 46 to 000000000042c5f7
  DW_CFA_remember_state
  DW_CFA_def_cfa_offset: 56
  DW_CFA_advance_loc: 8 to 000000000042c5ff
  DW_CFA_def_cfa_offset: 48
  DW_CFA_advance_loc: 1 to 000000000042c600
  DW_CFA_def_cfa_offset: 40
  DW_CFA_advance_loc: 2 to 000000000042c602
  DW_CFA_def_cfa_offset: 32
  DW_CFA_advance_loc: 2 to 000000000042c604
  DW_CFA_def_cfa_offset: 24
  DW_CFA_advance_loc: 2 to 000000000042c606
  DW_CFA_def_cfa_offset: 16
  DW_CFA_advance_loc: 2 to 000000000042c608
  DW_CFA_def_cfa_offset: 8
  DW_CFA_advance_loc: 5 to 000000000042c60d
  DW_CFA_restore_state
  DW_CFA_advance_loc: 56 to 000000000042c645
  DW_CFA_remember_state
  DW_CFA_def_cfa_offset: 56
  DW_CFA_advance_loc: 8 to 000000000042c64d
  DW_CFA_def_cfa_offset: 48
  DW_CFA_advance_loc: 1 to 000000000042c64e
  DW_CFA_def_cfa_offset: 40
  DW_CFA_advance_loc: 2 to 000000000042c650
  DW_CFA_def_cfa_offset: 32
  DW_CFA_advance_loc: 2 to 000000000042c652
  DW_CFA_def_cfa_offset: 24
  DW_CFA_advance_loc: 2 to 000000000042c654
  DW_CFA_def_cfa_offset: 16
  DW_CFA_advance_loc: 2 to 000000000042c656
  DW_CFA_def_cfa_offset: 8
  DW_CFA_advance_loc: 5 to 000000000042c65b
  DW_CFA_restore_state
  DW_CFA_advance_loc: 46 to 000000000042c689
  DW_CFA_remember_state
  DW_CFA_def_cfa_offset: 56
  DW_CFA_advance_loc: 8 to 000000000042c691
  DW_CFA_def_cfa_offset: 48
  DW_CFA_advance_loc: 1 to 000000000042c692
  DW_CFA_def_cfa_offset: 40
  DW_CFA_advance_loc: 2 to 000000000042c694
  DW_CFA_def_cfa_offset: 32
  DW_CFA_advance_loc: 2 to 000000000042c696
  DW_CFA_def_cfa_offset: 24
  DW_CFA_advance_loc: 2 to 000000000042c698
  DW_CFA_def_cfa_offset: 16
  DW_CFA_advance_loc: 2 to 000000000042c69a
  DW_CFA_def_cfa_offset: 8
  DW_CFA_advance_loc: 5 to 000000000042c69f
  DW_CFA_restore_state
  DW_CFA_advance_loc: 56 to 000000000042c6d7
  DW_CFA_remember_state
  DW_CFA_def_cfa_offset: 56
  DW_CFA_advance_loc: 8 to 000000000042c6df
  DW_CFA_def_cfa_offset: 48
  DW_CFA_advance_loc: 1 to 000000000042c6e0
  DW_CFA_def_cfa_offset: 40
  DW_CFA_advance_loc: 2 to 000000000042c6e2
  DW_CFA_def_cfa_offset: 32
  DW_CFA_advance_loc: 2 to 000000000042c6e4
  DW_CFA_def_cfa_offset: 24
  DW_CFA_advance_loc: 2 to 000000000042c6e6
  DW_CFA_def_cfa_offset: 16
  DW_CFA_advance_loc: 2 to 000000000042c6e8
  DW_CFA_def_cfa_offset: 8
  DW_CFA_advance_loc: 5 to 000000000042c6ed
  DW_CFA_restore_state
  DW_CFA_advance_loc: 46 to 000000000042c71b
  DW_CFA_remember_state
  DW_CFA_def_cfa_offset: 56
  DW_CFA_advance_loc: 8 to 000000000042c723
  DW_CFA_def_cfa_offset: 48
  DW_CFA_advance_loc: 1 to 000000000042c724
  DW_CFA_def_cfa_offset: 40
  DW_CFA_advance_loc: 2 to 000000000042c726
  DW_CFA_def_cfa_offset: 32
  DW_CFA_advance_loc: 2 to 000000000042c728
  DW_CFA_def_cfa_offset: 24
  DW_CFA_advance_loc: 2 to 000000000042c72a
  DW_CFA_def_cfa_offset: 16
  DW_CFA_advance_loc: 2 to 000000000042c72c
  DW_CFA_def_cfa_offset: 8
  DW_CFA_advance_loc: 5 to 000000000042c731
  DW_CFA_restore_state
  DW_CFA_advance_loc: 56 to 000000000042c769
  DW_CFA_remember_state
  DW_CFA_def_cfa_offset: 56
  DW_CFA_advance_loc: 8 to 000000000042c771
  DW_CFA_def_cfa_offset: 48
  DW_CFA_advance_loc: 1 to 000000000042c772
  DW_CFA_def_cfa_offset: 40
  DW_CFA_advance_loc: 2 to 000000000042c774
  DW_CFA_def_cfa_offset: 32
  DW_CFA_advance_loc: 2 to 000000000042c776
  DW_CFA_def_cfa_offset: 24
  DW_CFA_advance_loc: 2 to 000000000042c778
  DW_CFA_def_cfa_offset: 16
  DW_CFA_advance_loc: 2 to 000000000042c77a
  DW_CFA_def_cfa_offset: 8
  DW_CFA_advance_loc: 5 to 000000000042c77f
  DW_CFA_restore_state
  DW_CFA_advance_loc: 46 to 000000000042c7ad
  DW_CFA_remember_state
  DW_CFA_def_cfa_offset: 56
  DW_CFA_advance_loc: 8 to 000000000042c7b5
  DW_CFA_def_cfa_offset: 48
  DW_CFA_advance_loc: 1 to 000000000042c7b6
  DW_CFA_def_cfa_offset: 40
  DW_CFA_advance_loc: 2 to 000000000042c7b8
  DW_CFA_def_cfa_offset: 32
  DW_CFA_advance_loc: 2 to 000000000042c7ba
  DW_CFA_def_cfa_offset: 24
  DW_CFA_advance_loc: 2 to 000000000042c7bc
  DW_CFA_def_cfa_offset: 16
  DW_CFA_advance_loc: 2 to 000000000042c7be
  DW_CFA_def_cfa_offset: 8
  DW_CFA_advance_loc: 5 to 000000000042c7c3
  DW_CFA_restore_state
  DW_CFA_advance_loc: 56 to 000000000042c7fb
  DW_CFA_remember_state
  DW_CFA_def_cfa_offset: 56
  DW_CFA_advance_loc: 8 to 000000000042c803
  DW_CFA_def_cfa_offset: 48
  DW_CFA_advance_loc: 1 to 000000000042c804
  DW_CFA_def_cfa_offset: 40
  DW_CFA_advance_loc: 2 to 000000000042c806
  DW_CFA_def_cfa_offset: 32
  DW_CFA_advance_loc: 2 to 000000000042c808
  DW_CFA_def_cfa_offset: 24
  DW_CFA_advance_loc: 2 to 000000000042c80a
  DW_CFA_def_cfa_offset: 16
  DW_CFA_advance_loc: 2 to 000000000042c80c
  DW_CFA_def_cfa_offset: 8
  DW_CFA_advance_loc: 5 to 000000000042c811
  DW_CFA_restore_state
  DW_CFA_advance_loc: 46 to 000000000042c83f
  DW_CFA_remember_state
  DW_CFA_def_cfa_offset: 56
  DW_CFA_advance_loc: 8 to 000000000042c847
  DW_CFA_def_cfa_offset: 48
  DW_CFA_advance_loc: 1 to 000000000042c848
  DW_CFA_def_cfa_offset: 40
  DW_CFA_advance_loc: 2 to 000000000042c84a
  DW_CFA_def_cfa_offset: 32
  DW_CFA_advance_loc: 2 to 000000000042c84c
  DW_CFA_def_cfa_offset: 24
  DW_CFA_advance_loc: 2 to 000000000042c84e
  DW_CFA_def_cfa_offset: 16
  DW_CFA_advance_loc: 2 to 000000000042c850
  DW_CFA_def_cfa_offset: 8
  DW_CFA_advance_loc: 5 to 000000000042c855
  DW_CFA_restore_state
  DW_CFA_advance_loc: 56 to 000000000042c88d
  DW_CFA_remember_state
  DW_CFA_def_cfa_offset: 56
  DW_CFA_advance_loc: 8 to 000000000042c895
  DW_CFA_def_cfa_offset: 48
  DW_CFA_advance_loc: 1 to 000000000042c896
  DW_CFA_def_cfa_offset: 40
  DW_CFA_advance_loc: 2 to 000000000042c898
  DW_CFA_def_cfa_offset: 32
  DW_CFA_advance_loc: 2 to 000000000042c89a
  DW_CFA_def_cfa_offset: 24
  DW_CFA_advance_loc: 2 to 000000000042c89c
  DW_CFA_def_cfa_offset: 16
  DW_CFA_advance_loc: 2 to 000000000042c89e
  DW_CFA_def_cfa_offset: 8
  DW_CFA_advance_loc: 5 to 000000000042c8a3
  DW_CFA_restore_state
  DW_CFA_advance_loc: 46 to 000000000042c8d1
  DW_CFA_remember_state
  DW_CFA_def_cfa_offset: 56
  DW_CFA_advance_loc: 8 to 000000000042c8d9
  DW_CFA_def_cfa_offset: 48
  DW_CFA_advance_loc: 1 to 000000000042c8da
  DW_CFA_def_cfa_offset: 40
  DW_CFA_advance_loc: 2 to 000000000042c8dc
  DW_CFA_def_cfa_offset: 32
  DW_CFA_advance_loc: 2 to 000000000042c8de
  DW_CFA_def_cfa_offset: 24
  DW_CFA_advance_loc: 2 to 000000000042c8e0
  DW_CFA_def_cfa_offset: 16
  DW_CFA_advance_loc: 2 to 000000000042c8e2
  DW_CFA_def_cfa_offset: 8
  DW_CFA_advance_loc: 5 to 000000000042c8e7
  DW_CFA_restore_state
  DW_CFA_advance_loc: 56 to 000000000042c91f
  DW_CFA_remember_state
  DW_CFA_def_cfa_offset: 56
  DW_CFA_advance_loc: 8 to 000000000042c927
  DW_CFA_def_cfa_offset: 48
  DW_CFA_advance_loc: 1 to 000000000042c928
  DW_CFA_def_cfa_offset: 40
  DW_CFA_advance_loc: 2 to 000000000042c92a
  DW_CFA_def_cfa_offset: 32
  DW_CFA_advance_loc: 2 to 000000000042c92c
  DW_CFA_def_cfa_offset: 24
  DW_CFA_advance_loc: 2 to 000000000042c92e
  DW_CFA_def_cfa_offset: 16
  DW_CFA_advance_loc: 2 to 000000000042c930
  DW_CFA_def_cfa_offset: 8
  DW_CFA_advance_loc: 5 to 000000000042c935
  DW_CFA_restore_state
  DW_CFA_advance_loc: 46 to 000000000042c963
  DW_CFA_remember_state
  DW_CFA_def_cfa_offset: 56
  DW_CFA_advance_loc: 8 to 000000000042c96b
  DW_CFA_def_cfa_offset: 48
  DW_CFA_advance_loc: 1 to 000000000042c96c
  DW_CFA_def_cfa_offset: 40
  DW_CFA_advance_loc: 2 to 000000000042c96e
  DW_CFA_def_cfa_offset: 32
  DW_CFA_advance_loc: 2 to 000000000042c970
  DW_CFA_def_cfa_offset: 24
  DW_CFA_advance_loc: 2 to 000000000042c972
  DW_CFA_def_cfa_offset: 16
  DW_CFA_advance_loc: 2 to 000000000042c974
  DW_CFA_def_cfa_offset: 8
  DW_CFA_advance_loc: 5 to 000000000042c979
  DW_CFA_restore_state
  DW_CFA_advance_loc: 56 to 000000000042c9b1
  DW_CFA_remember_state
  DW_CFA_def_cfa_offset: 56
  DW_CFA_advance_loc: 8 to 000000000042c9b9
  DW_CFA_def_cfa_offset: 48
  DW_CFA_advance_loc: 1 to 000000000042c9ba
  DW_CFA_def_cfa_offset: 40
  DW_CFA_advance_loc: 2 to 000000000042c9bc
  DW_CFA_def_cfa_offset: 32
  DW_CFA_advance_loc: 2 to 000000000042c9be
  DW_CFA_def_cfa_offset: 24
  DW_CFA_advance_loc: 2 to 000000000042c9c0
  DW_CFA_def_cfa_offset: 16
  DW_CFA_advance_loc: 2 to 000000000042c9c2
  DW_CFA_def_cfa_offset: 8
  DW_CFA_advance_loc: 5 to 000000000042c9c7
  DW_CFA_restore_state
  DW_CFA_advance_loc: 46 to 000000000042c9f5
  DW_CFA_remember_state
  DW_CFA_def_cfa_offset: 56
  DW_CFA_advance_loc: 8 to 000000000042c9fd
  DW_CFA_def_cfa_offset: 48
  DW_CFA_advance_loc: 1 to 000000000042c9fe
  DW_CFA_def_cfa_offset: 40
  DW_CFA_advance_loc: 2 to 000000000042ca00
  DW_CFA_def_cfa_offset: 32
  DW_CFA_advance_loc: 2 to 000000000042ca02
  DW_CFA_def_cfa_offset: 24
  DW_CFA_advance_loc: 2 to 000000000042ca04
  DW_CFA_def_cfa_offset: 16
  DW_CFA_advance_loc: 2 to 000000000042ca06
  DW_CFA_def_cfa_offset: 8
  DW_CFA_advance_loc: 5 to 000000000042ca0b
  DW_CFA_restore_state
  DW_CFA_advance_loc: 56 to 000000000042ca43
  DW_CFA_remember_state
  DW_CFA_def_cfa_offset: 56
  DW_CFA_advance_loc: 8 to 000000000042ca4b
  DW_CFA_def_cfa_offset: 48
  DW_CFA_advance_loc: 1 to 000000000042ca4c
  DW_CFA_def_cfa_offset: 40
  DW_CFA_advance_loc: 2 to 000000000042ca4e
  DW_CFA_def_cfa_offset: 32
  DW_CFA_advance_loc: 2 to 000000000042ca50
  DW_CFA_def_cfa_offset: 24
  DW_CFA_advance_loc: 2 to 000000000042ca52
  DW_CFA_def_cfa_offset: 16
  DW_CFA_advance_loc: 2 to 000000000042ca54
  DW_CFA_def_cfa_offset: 8
  DW_CFA_advance_loc: 5 to 000000000042ca59
  DW_CFA_restore_state
  DW_CFA_advance_loc: 46 to 000000000042ca87
  DW_CFA_remember_state
  DW_CFA_def_cfa_offset: 56
  DW_CFA_advance_loc: 8 to 000000000042ca8f
  DW_CFA_def_cfa_offset: 48
  DW_CFA_advance_loc: 1 to 000000000042ca90
  DW_CFA_def_cfa_offset: 40
  DW_CFA_advance_loc: 2 to 000000000042ca92
  DW_CFA_def_cfa_offset: 32
  DW_CFA_advance_loc: 2 to 000000000042ca94
  DW_CFA_def_cfa_offset: 24
  DW_CFA_advance_loc: 2 to 000000000042ca96
  DW_CFA_def_cfa_offset: 16
  DW_CFA_advance_loc: 2 to 000000000042ca98
  DW_CFA_def_cfa_offset: 8
  DW_CFA_advance_loc: 5 to 000000000042ca9d
  DW_CFA_restore_state
  DW_CFA_advance_loc: 56 to 000000000042cad5
  DW_CFA_remember_state
  DW_CFA_def_cfa_offset: 56
  DW_CFA_advance_loc: 8 to 000000000042cadd
  DW_CFA_def_cfa_offset: 48
  DW_CFA_advance_loc: 1 to 000000000042cade
  DW_CFA_def_cfa_offset: 40
  DW_CFA_advance_loc: 2 to 000000000042cae0
  DW_CFA_def_cfa_offset: 32
  DW_CFA_advance_loc: 2 to 000000000042cae2
  DW_CFA_def_cfa_offset: 24
  DW_CFA_advance_loc: 2 to 000000000042cae4
  DW_CFA_def_cfa_offset: 16
  DW_CFA_advance_loc: 2 to 000000000042cae6
  DW_CFA_def_cfa_offset: 8
  DW_CFA_advance_loc: 5 to 000000000042caeb
  DW_CFA_restore_state
  DW_CFA_advance_loc: 46 to 000000000042cb19
  DW_CFA_remember_state
  DW_CFA_def_cfa_offset: 56
  DW_CFA_advance_loc: 8 to 000000000042cb21
  DW_CFA_def_cfa_offset: 48
  DW_CFA_advance_loc: 1 to 000000000042cb22
  DW_CFA_def_cfa_offset: 40
  DW_CFA_advance_loc: 2 to 000000000042cb24
  DW_CFA_def_cfa_offset: 32
  DW_CFA_advance_loc: 2 to 000000000042cb26
  DW_CFA_def_cfa_offset: 24
  DW_CFA_advance_loc: 2 to 000000000042cb28
  DW_CFA_def_cfa_offset: 16
  DW_CFA_advance_loc: 2 to 000000000042cb2a
  DW_CFA_def_cfa_offset: 8
  DW_CFA_advance_loc: 5 to 000000000042cb2f
  DW_CFA_restore_state
  DW_CFA_advance_loc: 56 to 000000000042cb67
  DW_CFA_remember_state
  DW_CFA_def_cfa_offset: 56
  DW_CFA_advance_loc: 8 to 000000000042cb6f
  DW_CFA_def_cfa_offset: 48
  DW_CFA_advance_loc: 1 to 000000000042cb70
  DW_CFA_def_cfa_offset: 40
  DW_CFA_advance_loc: 2 to 000000000042cb72
  DW_CFA_def_cfa_offset: 32
  DW_CFA_advance_loc: 2 to 000000000042cb74
  DW_CFA_def_cfa_offset: 24
  DW_CFA_advance_loc: 2 to 000000000042cb76
  DW_CFA_def_cfa_offset: 16
  DW_CFA_advance_loc: 2 to 000000000042cb78
  DW_CFA_def_cfa_offset: 8
  DW_CFA_advance_loc: 5 to 000000000042cb7d
  DW_CFA_restore_state
  DW_CFA_advance_loc: 46 to 000000000042cbab
  DW_CFA_remember_state
  DW_CFA_def_cfa_offset: 56
  DW_CFA_advance_loc: 8 to 000000000042cbb3
  DW_CFA_def_cfa_offset: 48
  DW_CFA_advance_loc: 1 to 000000000042cbb4
  DW_CFA_def_cfa_offset: 40
  DW_CFA_advance_loc: 2 to 000000000042cbb6
  DW_CFA_def_cfa_offset: 32
  DW_CFA_advance_loc: 2 to 000000000042cbb8
  DW_CFA_def_cfa_offset: 24
  DW_CFA_advance_loc: 2 to 000000000042cbba
  DW_CFA_def_cfa_offset: 16
  DW_CFA_advance_loc: 2 to 000000000042cbbc
  DW_CFA_def_cfa_offset: 8
  DW_CFA_advance_loc: 5 to 000000000042cbc1
  DW_CFA_restore_state
  DW_CFA_advance_loc: 56 to 000000000042cbf9
  DW_CFA_remember_state
  DW_CFA_def_cfa_offset: 56
  DW_CFA_advance_loc: 8 to 000000000042cc01
  DW_CFA_def_cfa_offset: 48
  DW_CFA_advance_loc: 1 to 000000000042cc02
  DW_CFA_def_cfa_offset: 40
  DW_CFA_advance_loc: 2 to 000000000042cc04
  DW_CFA_def_cfa_offset: 32
  DW_CFA_advance_loc: 2 to 000000000042cc06
  DW_CFA_def_cfa_offset: 24
  DW_CFA_advance_loc: 2 to 000000000042cc08
  DW_CFA_def_cfa_offset: 16
  DW_CFA_advance_loc: 2 to 000000000042cc0a
  DW_CFA_def_cfa_offset: 8
  DW_CFA_advance_loc: 5 to 000000000042cc0f
  DW_CFA_restore_state
  DW_CFA_advance_loc: 46 to 000000000042cc3d
  DW_CFA_remember_state
  DW_CFA_def_cfa_offset: 56
  DW_CFA_advance_loc: 8 to 000000000042cc45
  DW_CFA_def_cfa_offset: 48
  DW_CFA_advance_loc: 1 to 000000000042cc46
  DW_CFA_def_cfa_offset: 40
  DW_CFA_advance_loc: 2 to 000000000042cc48
  DW_CFA_def_cfa_offset: 32
  DW_CFA_advance_loc: 2 to 000000000042cc4a
  DW_CFA_def_cfa_offset: 24
  DW_CFA_advance_loc: 2 to 000000000042cc4c
  DW_CFA_def_cfa_offset: 16
  DW_CFA_advance_loc: 2 to 000000000042cc4e
  DW_CFA_def_cfa_offset: 8
  DW_CFA_advance_loc: 5 to 000000000042cc53
  DW_CFA_restore_state
  DW_CFA_advance_loc: 56 to 000000000042cc8b
  DW_CFA_remember_state
  DW_CFA_def_cfa_offset: 56
  DW_CFA_advance_loc: 8 to 000000000042cc93
  DW_CFA_def_cfa_offset: 48
  DW_CFA_advance_loc: 1 to 000000000042cc94
  DW_CFA_def_cfa_offset: 40
  DW_CFA_advance_loc: 2 to 000000000042cc96
  DW_CFA_def_cfa_offset: 32
  DW_CFA_advance_loc: 2 to 000000000042cc98
  DW_CFA_def_cfa_offset: 24
  DW_CFA_advance_loc: 2 to 000000000042cc9a
  DW_CFA_def_cfa_offset: 16
  DW_CFA_advance_loc: 2 to 000000000042cc9c
  DW_CFA_def_cfa_offset: 8
  DW_CFA_advance_loc: 5 to 000000000042cca1
  DW_CFA_restore_state
  DW_CFA_advance_loc: 46 to 000000000042cccf
  DW_CFA_remember_state
  DW_CFA_def_cfa_offset: 56
  DW_CFA_advance_loc: 8 to 000000000042ccd7
  DW_CFA_def_cfa_offset: 48
  DW_CFA_advance_loc: 1 to 000000000042ccd8
  DW_CFA_def_cfa_offset: 40
  DW_CFA_advance_loc: 2 to 000000000042ccda
  DW_CFA_def_cfa_offset: 32
  DW_CFA_advance_loc: 2 to 000000000042ccdc
  DW_CFA_def_cfa_offset: 24
  DW_CFA_advance_loc: 2 to 000000000042ccde
  DW_CFA_def_cfa_offset: 16
  DW_CFA_advance_loc: 2 to 000000000042cce0
  DW_CFA_def_cfa_offset: 8
  DW_CFA_advance_loc: 5 to 000000000042cce5
  DW_CFA_restore_state
  DW_CFA_advance_loc: 56 to 000000000042cd1d
  DW_CFA_remember_state
  DW_CFA_def_cfa_offset: 56
  DW_CFA_advance_loc: 8 to 000000000042cd25
  DW_CFA_def_cfa_offset: 48
  DW_CFA_advance_loc: 1 to 000000000042cd26
  DW_CFA_def_cfa_offset: 40
  DW_CFA_advance_loc: 2 to 000000000042cd28
  DW_CFA_def_cfa_offset: 32
  DW_CFA_advance_loc: 2 to 000000000042cd2a
  DW_CFA_def_cfa_offset: 24
  DW_CFA_advance_loc: 2 to 000000000042cd2c
  DW_CFA_def_cfa_offset: 16
  DW_CFA_advance_loc: 2 to 000000000042cd2e
  DW_CFA_def_cfa_offset: 8
  DW_CFA_advance_loc: 5 to 000000000042cd33
  DW_CFA_restore_state
  DW_CFA_advance_loc: 46 to 000000000042cd61
  DW_CFA_remember_state
  DW_CFA_def_cfa_offset: 56
  DW_CFA_advance_loc: 8 to 000000000042cd69
  DW_CFA_def_cfa_offset: 48
  DW_CFA_advance_loc: 1 to 000000000042cd6a
  DW_CFA_def_cfa_offset: 40
  DW_CFA_advance_loc: 2 to 000000000042cd6c
  DW_CFA_def_cfa_offset: 32
  DW_CFA_advance_loc: 2 to 000000000042cd6e
  DW_CFA_def_cfa_offset: 24
  DW_CFA_advance_loc: 2 to 000000000042cd70
  DW_CFA_def_cfa_offset: 16
  DW_CFA_advance_loc: 2 to 000000000042cd72
  DW_CFA_def_cfa_offset: 8
  DW_CFA_advance_loc: 5 to 000000000042cd77
  DW_CFA_restore_state
  DW_CFA_advance_loc: 56 to 000000000042cdaf
  DW_CFA_remember_state
  DW_CFA_def_cfa_offset: 56
  DW_CFA_advance_loc: 8 to 000000000042cdb7
  DW_CFA_def_cfa_offset: 48
  DW_CFA_advance_loc: 1 to 000000000042cdb8
  DW_CFA_def_cfa_offset: 40
  DW_CFA_advance_loc: 2 to 000000000042cdba
  DW_CFA_def_cfa_offset: 32
  DW_CFA_advance_loc: 2 to 000000000042cdbc
  DW_CFA_def_cfa_offset: 24
  DW_CFA_advance_loc: 2 to 000000000042cdbe
  DW_CFA_def_cfa_offset: 16
  DW_CFA_advance_loc: 2 to 000000000042cdc0
  DW_CFA_def_cfa_offset: 8
  DW_CFA_advance_loc: 5 to 000000000042cdc5
  DW_CFA_restore_state
  DW_CFA_advance_loc: 46 to 000000000042cdf3
  DW_CFA_remember_state
  DW_CFA_def_cfa_offset: 56
  DW_CFA_advance_loc: 8 to 000000000042cdfb
  DW_CFA_def_cfa_offset: 48
  DW_CFA_advance_loc: 1 to 000000000042cdfc
  DW_CFA_def_cfa_offset: 40
  DW_CFA_advance_loc: 2 to 000000000042cdfe
  DW_CFA_def_cfa_offset: 32
  DW_CFA_advance_loc: 2 to 000000000042ce00
  DW_CFA_def_cfa_offset: 24
  DW_CFA_advance_loc: 2 to 000000000042ce02
  DW_CFA_def_cfa_offset: 16
  DW_CFA_advance_loc: 2 to 000000000042ce04
  DW_CFA_def_cfa_offset: 8
  DW_CFA_advance_loc: 5 to 000000000042ce09
  DW_CFA_restore_state
  DW_CFA_advance_loc: 56 to 000000000042ce41
  DW_CFA_remember_state
  DW_CFA_def_cfa_offset: 56
  DW_CFA_advance_loc: 8 to 000000000042ce49
  DW_CFA_def_cfa_offset: 48
  DW_CFA_advance_loc: 1 to 000000000042ce4a
  DW_CFA_def_cfa_offset: 40
  DW_CFA_advance_loc: 2 to 000000000042ce4c
  DW_CFA_def_cfa_offset: 32
  DW_CFA_advance_loc: 2 to 000000000042ce4e
  DW_CFA_def_cfa_offset: 24
  DW_CFA_advance_loc: 2 to 000000000042ce50
  DW_CFA_def_cfa_offset: 16
  DW_CFA_advance_loc: 2 to 000000000042ce52
  DW_CFA_def_cfa_offset: 8
  DW_CFA_advance_loc: 5 to 000000000042ce57
  DW_CFA_restore_state
  DW_CFA_advance_loc: 46 to 000000000042ce85
  DW_CFA_remember_state
  DW_CFA_def_cfa_offset: 56
  DW_CFA_advance_loc: 8 to 000000000042ce8d
  DW_CFA_def_cfa_offset: 48
  DW_CFA_advance_loc: 1 to 000000000042ce8e
  DW_CFA_def_cfa_offset: 40
  DW_CFA_advance_loc: 2 to 000000000042ce90
  DW_CFA_def_cfa_offset: 32
  DW_CFA_advance_loc: 2 to 000000000042ce92
  DW_CFA_def_cfa_offset: 24
  DW_CFA_advance_loc: 2 to 000000000042ce94
  DW_CFA_def_cfa_offset: 16
  DW_CFA_advance_loc: 2 to 000000000042ce96
  DW_CFA_def_cfa_offset: 8
  DW_CFA_advance_loc: 5 to 000000000042ce9b
  DW_CFA_restore_state
  DW_CFA_advance_loc: 56 to 000000000042ced3
  DW_CFA_remember_state
  DW_CFA_def_cfa_offset: 56
  DW_CFA_advance_loc: 8 to 000000000042cedb
  DW_CFA_def_cfa_offset: 48
  DW_CFA_advance_loc: 1 to 000000000042cedc
  DW_CFA_def_cfa_offset: 40
  DW_CFA_advance_loc: 2 to 000000000042cede
  DW_CFA_def_cfa_offset: 32
  DW_CFA_advance_loc: 2 to 000000000042cee0
  DW_CFA_def_cfa_offset: 24
  DW_CFA_advance_loc: 2 to 000000000042cee2
  DW_CFA_def_cfa_offset: 16
  DW_CFA_advance_loc: 2 to 000000000042cee4
  DW_CFA_def_cfa_offset: 8
  DW_CFA_advance_loc: 5 to 000000000042cee9
  DW_CFA_restore_state
  DW_CFA_advance_loc: 46 to 000000000042cf17
  DW_CFA_remember_state
  DW_CFA_def_cfa_offset: 56
  DW_CFA_advance_loc: 8 to 000000000042cf1f
  DW_CFA_def_cfa_offset: 48
  DW_CFA_advance_loc: 1 to 000000000042cf20
  DW_CFA_def_cfa_offset: 40
  DW_CFA_advance_loc: 2 to 000000000042cf22
  DW_CFA_def_cfa_offset: 32
  DW_CFA_advance_loc: 2 to 000000000042cf24
  DW_CFA_def_cfa_offset: 24
  DW_CFA_advance_loc: 2 to 000000000042cf26
  DW_CFA_def_cfa_offset: 16
  DW_CFA_advance_loc: 2 to 000000000042cf28
  DW_CFA_def_cfa_offset: 8
  DW_CFA_advance_loc: 5 to 000000000042cf2d
  DW_CFA_restore_state
  DW_CFA_advance_loc: 56 to 000000000042cf65
  DW_CFA_remember_state
  DW_CFA_def_cfa_offset: 56
  DW_CFA_advance_loc: 8 to 000000000042cf6d
  DW_CFA_def_cfa_offset: 48
  DW_CFA_advance_loc: 1 to 000000000042cf6e
  DW_CFA_def_cfa_offset: 40
  DW_CFA_advance_loc: 2 to 000000000042cf70
  DW_CFA_def_cfa_offset: 32
  DW_CFA_advance_loc: 2 to 000000000042cf72
  DW_CFA_def_cfa_offset: 24
  DW_CFA_advance_loc: 2 to 000000000042cf74
  DW_CFA_def_cfa_offset: 16
  DW_CFA_advance_loc: 2 to 000000000042cf76
  DW_CFA_def_cfa_offset: 8
  DW_CFA_advance_loc: 5 to 000000000042cf7b
  DW_CFA_restore_state
  DW_CFA_advance_loc: 46 to 000000000042cfa9
  DW_CFA_remember_state
  DW_CFA_def_cfa_offset: 56
  DW_CFA_advance_loc: 8 to 000000000042cfb1
  DW_CFA_def_cfa_offset: 48
  DW_CFA_advance_loc: 1 to 000000000042cfb2
  DW_CFA_def_cfa_offset: 40
  DW_CFA_advance_loc: 2 to 000000000042cfb4
  DW_CFA_def_cfa_offset: 32
  DW_CFA_advance_loc: 2 to 000000000042cfb6
  DW_CFA_def_cfa_offset: 24
  DW_CFA_advance_loc: 2 to 000000000042cfb8
  DW_CFA_def_cfa_offset: 16
  DW_CFA_advance_loc: 2 to 000000000042cfba
  DW_CFA_def_cfa_offset: 8
  DW_CFA_advance_loc: 5 to 000000000042cfbf
  DW_CFA_restore_state
  DW_CFA_advance_loc: 56 to 000000000042cff7
  DW_CFA_remember_state
  DW_CFA_def_cfa_offset: 56
  DW_CFA_advance_loc: 8 to 000000000042cfff
  DW_CFA_def_cfa_offset: 48
  DW_CFA_advance_loc: 1 to 000000000042d000
  DW_CFA_def_cfa_offset: 40
  DW_CFA_advance_loc: 2 to 000000000042d002
  DW_CFA_def_cfa_offset: 32
  DW_CFA_advance_loc: 2 to 000000000042d004
  DW_CFA_def_cfa_offset: 24
  DW_CFA_advance_loc: 2 to 000000000042d006
  DW_CFA_def_cfa_offset: 16
  DW_CFA_advance_loc: 2 to 000000000042d008
  DW_CFA_def_cfa_offset: 8
  DW_CFA_advance_loc: 5 to 000000000042d00d
  DW_CFA_restore_state
  DW_CFA_advance_loc: 46 to 000000000042d03b
  DW_CFA_remember_state
  DW_CFA_def_cfa_offset: 56
  DW_CFA_advance_loc: 8 to 000000000042d043
  DW_CFA_def_cfa_offset: 48
  DW_CFA_advance_loc: 1 to 000000000042d044
  DW_CFA_def_cfa_offset: 40
  DW_CFA_advance_loc: 2 to 000000000042d046
  DW_CFA_def_cfa_offset: 32
  DW_CFA_advance_loc: 2 to 000000000042d048
  DW_CFA_def_cfa_offset: 24
  DW_CFA_advance_loc: 2 to 000000000042d04a
  DW_CFA_def_cfa_offset: 16
  DW_CFA_advance_loc: 2 to 000000000042d04c
  DW_CFA_def_cfa_offset: 8
  DW_CFA_advance_loc: 5 to 000000000042d051
  DW_CFA_restore_state
  DW_CFA_advance_loc: 56 to 000000000042d089
  DW_CFA_remember_state
  DW_CFA_def_cfa_offset: 56
  DW_CFA_advance_loc: 8 to 000000000042d091
  DW_CFA_def_cfa_offset: 48
  DW_CFA_advance_loc: 1 to 000000000042d092
  DW_CFA_def_cfa_offset: 40
  DW_CFA_advance_loc: 2 to 000000000042d094
  DW_CFA_def_cfa_offset: 32
  DW_CFA_advance_loc: 2 to 000000000042d096
  DW_CFA_def_cfa_offset: 24
  DW_CFA_advance_loc: 2 to 000000000042d098
  DW_CFA_def_cfa_offset: 16
  DW_CFA_advance_loc: 2 to 000000000042d09a
  DW_CFA_def_cfa_offset: 8
  DW_CFA_advance_loc: 5 to 000000000042d09f
  DW_CFA_restore_state
  DW_CFA_advance_loc1: 71 to 000000000042d0e6
  DW_CFA_remember_state
  DW_CFA_def_cfa_offset: 56
  DW_CFA_advance_loc: 8 to 000000000042d0ee
  DW_CFA_def_cfa_offset: 48
  DW_CFA_advance_loc: 1 to 000000000042d0ef
  DW_CFA_def_cfa_offset: 40
  DW_CFA_advance_loc: 2 to 000000000042d0f1
  DW_CFA_def_cfa_offset: 32
  DW_CFA_advance_loc: 2 to 000000000042d0f3
  DW_CFA_def_cfa_offset: 24
  DW_CFA_advance_loc: 2 to 000000000042d0f5
  DW_CFA_def_cfa_offset: 16
  DW_CFA_advance_loc: 2 to 000000000042d0f7
  DW_CFA_def_cfa_offset: 8
  DW_CFA_advance_loc: 5 to 000000000042d0fc
  DW_CFA_restore_state
  DW_CFA_advance_loc: 46 to 000000000042d12a
  DW_CFA_remember_state
  DW_CFA_def_cfa_offset: 56
  DW_CFA_advance_loc: 8 to 000000000042d132
  DW_CFA_def_cfa_offset: 48
  DW_CFA_advance_loc: 1 to 000000000042d133
  DW_CFA_def_cfa_offset: 40
  DW_CFA_advance_loc: 2 to 000000000042d135
  DW_CFA_def_cfa_offset: 32
  DW_CFA_advance_loc: 2 to 000000000042d137
  DW_CFA_def_cfa_offset: 24
  DW_CFA_advance_loc: 2 to 000000000042d139
  DW_CFA_def_cfa_offset: 16
  DW_CFA_advance_loc: 2 to 000000000042d13b
  DW_CFA_def_cfa_offset: 8
  DW_CFA_advance_loc: 5 to 000000000042d140
  DW_CFA_restore_state
  DW_CFA_advance_loc: 56 to 000000000042d178
  DW_CFA_remember_state
  DW_CFA_def_cfa_offset: 56
  DW_CFA_advance_loc: 8 to 000000000042d180
  DW_CFA_def_cfa_offset: 48
  DW_CFA_advance_loc: 1 to 000000000042d181
  DW_CFA_def_cfa_offset: 40
  DW_CFA_advance_loc: 2 to 000000000042d183
  DW_CFA_def_cfa_offset: 32
  DW_CFA_advance_loc: 2 to 000000000042d185
  DW_CFA_def_cfa_offset: 24
  DW_CFA_advance_loc: 2 to 000000000042d187
  DW_CFA_def_cfa_offset: 16
  DW_CFA_advance_loc: 2 to 000000000042d189
  DW_CFA_def_cfa_offset: 8
  DW_CFA_advance_loc: 5 to 000000000042d18e
  DW_CFA_restore_state
  DW_CFA_advance_loc: 46 to 000000000042d1bc
  DW_CFA_remember_state
  DW_CFA_def_cfa_offset: 56
  DW_CFA_advance_loc: 8 to 000000000042d1c4
  DW_CFA_def_cfa_offset: 48
  DW_CFA_advance_loc: 1 to 000000000042d1c5
  DW_CFA_def_cfa_offset: 40
  DW_CFA_advance_loc: 2 to 000000000042d1c7
  DW_CFA_def_cfa_offset: 32
  DW_CFA_advance_loc: 2 to 000000000042d1c9
  DW_CFA_def_cfa_offset: 24
  DW_CFA_advance_loc: 2 to 000000000042d1cb
  DW_CFA_def_cfa_offset: 16
  DW_CFA_advance_loc: 2 to 000000000042d1cd
  DW_CFA_def_cfa_offset: 8
  DW_CFA_advance_loc: 5 to 000000000042d1d2
  DW_CFA_restore_state
  DW_CFA_advance_loc: 56 to 000000000042d20a
  DW_CFA_remember_state
  DW_CFA_def_cfa_offset: 56
  DW_CFA_advance_loc: 8 to 000000000042d212
  DW_CFA_def_cfa_offset: 48
  DW_CFA_advance_loc: 1 to 000000000042d213
  DW_CFA_def_cfa_offset: 40
  DW_CFA_advance_loc: 2 to 000000000042d215
  DW_CFA_def_cfa_offset: 32
  DW_CFA_advance_loc: 2 to 000000000042d217
  DW_CFA_def_cfa_offset: 24
  DW_CFA_advance_loc: 2 to 000000000042d219
  DW_CFA_def_cfa_offset: 16
  DW_CFA_advance_loc: 2 to 000000000042d21b
  DW_CFA_def_cfa_offset: 8
  DW_CFA_advance_loc: 5 to 000000000042d220
  DW_CFA_restore_state
  DW_CFA_advance_loc: 46 to 000000000042d24e
  DW_CFA_remember_state
  DW_CFA_def_cfa_offset: 56
  DW_CFA_advance_loc: 8 to 000000000042d256
  DW_CFA_def_cfa_offset: 48
  DW_CFA_advance_loc: 1 to 000000000042d257
  DW_CFA_def_cfa_offset: 40
  DW_CFA_advance_loc: 2 to 000000000042d259
  DW_CFA_def_cfa_offset: 32
  DW_CFA_advance_loc: 2 to 000000000042d25b
  DW_CFA_def_cfa_offset: 24
  DW_CFA_advance_loc: 2 to 000000000042d25d
  DW_CFA_def_cfa_offset: 16
  DW_CFA_advance_loc: 2 to 000000000042d25f
  DW_CFA_def_cfa_offset: 8
  DW_CFA_advance_loc: 5 to 000000000042d264
  DW_CFA_restore_state
  DW_CFA_advance_loc: 56 to 000000000042d29c
  DW_CFA_remember_state
  DW_CFA_def_cfa_offset: 56
  DW_CFA_advance_loc: 8 to 000000000042d2a4
  DW_CFA_def_cfa_offset: 48
  DW_CFA_advance_loc: 1 to 000000000042d2a5
  DW_CFA_def_cfa_offset: 40
  DW_CFA_advance_loc: 2 to 000000000042d2a7
  DW_CFA_def_cfa_offset: 32
  DW_CFA_advance_loc: 2 to 000000000042d2a9
  DW_CFA_def_cfa_offset: 24
  DW_CFA_advance_loc: 2 to 000000000042d2ab
  DW_CFA_def_cfa_offset: 16
  DW_CFA_advance_loc: 2 to 000000000042d2ad
  DW_CFA_def_cfa_offset: 8
  DW_CFA_advance_loc: 5 to 000000000042d2b2
  DW_CFA_restore_state
  DW_CFA_advance_loc: 46 to 000000000042d2e0
  DW_CFA_remember_state
  DW_CFA_def_cfa_offset: 56
  DW_CFA_advance_loc: 8 to 000000000042d2e8
  DW_CFA_def_cfa_offset: 48
  DW_CFA_advance_loc: 1 to 000000000042d2e9
  DW_CFA_def_cfa_offset: 40
  DW_CFA_advance_loc: 2 to 000000000042d2eb
  DW_CFA_def_cfa_offset: 32
  DW_CFA_advance_loc: 2 to 000000000042d2ed
  DW_CFA_def_cfa_offset: 24
  DW_CFA_advance_loc: 2 to 000000000042d2ef
  DW_CFA_def_cfa_offset: 16
  DW_CFA_advance_loc: 2 to 000000000042d2f1
  DW_CFA_def_cfa_offset: 8
  DW_CFA_advance_loc: 5 to 000000000042d2f6
  DW_CFA_restore_state
  DW_CFA_advance_loc: 56 to 000000000042d32e
  DW_CFA_remember_state
  DW_CFA_def_cfa_offset: 56
  DW_CFA_advance_loc: 8 to 000000000042d336
  DW_CFA_def_cfa_offset: 48
  DW_CFA_advance_loc: 1 to 000000000042d337
  DW_CFA_def_cfa_offset: 40
  DW_CFA_advance_loc: 2 to 000000000042d339
  DW_CFA_def_cfa_offset: 32
  DW_CFA_advance_loc: 2 to 000000000042d33b
  DW_CFA_def_cfa_offset: 24
  DW_CFA_advance_loc: 2 to 000000000042d33d
  DW_CFA_def_cfa_offset: 16
  DW_CFA_advance_loc: 2 to 000000000042d33f
  DW_CFA_def_cfa_offset: 8
  DW_CFA_advance_loc: 5 to 000000000042d344
  DW_CFA_restore_state
  DW_CFA_advance_loc: 46 to 000000000042d372
  DW_CFA_remember_state
  DW_CFA_def_cfa_offset: 56
  DW_CFA_advance_loc: 8 to 000000000042d37a
  DW_CFA_def_cfa_offset: 48
  DW_CFA_advance_loc: 1 to 000000000042d37b
  DW_CFA_def_cfa_offset: 40
  DW_CFA_advance_loc: 2 to 000000000042d37d
  DW_CFA_def_cfa_offset: 32
  DW_CFA_advance_loc: 2 to 000000000042d37f
  DW_CFA_def_cfa_offset: 24
  DW_CFA_advance_loc: 2 to 000000000042d381
  DW_CFA_def_cfa_offset: 16
  DW_CFA_advance_loc: 2 to 000000000042d383
  DW_CFA_def_cfa_offset: 8
  DW_CFA_advance_loc: 5 to 000000000042d388
  DW_CFA_restore_state
  DW_CFA_advance_loc: 56 to 000000000042d3c0
  DW_CFA_remember_state
  DW_CFA_def_cfa_offset: 56
  DW_CFA_advance_loc: 8 to 000000000042d3c8
  DW_CFA_def_cfa_offset: 48
  DW_CFA_advance_loc: 1 to 000000000042d3c9
  DW_CFA_def_cfa_offset: 40
  DW_CFA_advance_loc: 2 to 000000000042d3cb
  DW_CFA_def_cfa_offset: 32
  DW_CFA_advance_loc: 2 to 000000000042d3cd
  DW_CFA_def_cfa_offset: 24
  DW_CFA_advance_loc: 2 to 000000000042d3cf
  DW_CFA_def_cfa_offset: 16
  DW_CFA_advance_loc: 2 to 000000000042d3d1
  DW_CFA_def_cfa_offset: 8
  DW_CFA_advance_loc: 5 to 000000000042d3d6
  DW_CFA_restore_state
  DW_CFA_advance_loc: 46 to 000000000042d404
  DW_CFA_remember_state
  DW_CFA_def_cfa_offset: 56
  DW_CFA_advance_loc: 8 to 000000000042d40c
  DW_CFA_def_cfa_offset: 48
  DW_CFA_advance_loc: 1 to 000000000042d40d
  DW_CFA_def_cfa_offset: 40
  DW_CFA_advance_loc: 2 to 000000000042d40f
  DW_CFA_def_cfa_offset: 32
  DW_CFA_advance_loc: 2 to 000000000042d411
  DW_CFA_def_cfa_offset: 24
  DW_CFA_advance_loc: 2 to 000000000042d413
  DW_CFA_def_cfa_offset: 16
  DW_CFA_advance_loc: 2 to 000000000042d415
  DW_CFA_def_cfa_offset: 8
  DW_CFA_advance_loc: 5 to 000000000042d41a
  DW_CFA_restore_state
  DW_CFA_advance_loc: 56 to 000000000042d452
  DW_CFA_remember_state
  DW_CFA_def_cfa_offset: 56
  DW_CFA_advance_loc: 8 to 000000000042d45a
  DW_CFA_def_cfa_offset: 48
  DW_CFA_advance_loc: 1 to 000000000042d45b
  DW_CFA_def_cfa_offset: 40
  DW_CFA_advance_loc: 2 to 000000000042d45d
  DW_CFA_def_cfa_offset: 32
  DW_CFA_advance_loc: 2 to 000000000042d45f
  DW_CFA_def_cfa_offset: 24
  DW_CFA_advance_loc: 2 to 000000000042d461
  DW_CFA_def_cfa_offset: 16
  DW_CFA_advance_loc: 2 to 000000000042d463
  DW_CFA_def_cfa_offset: 8
  DW_CFA_advance_loc: 5 to 000000000042d468
  DW_CFA_restore_state
  DW_CFA_advance_loc: 46 to 000000000042d496
  DW_CFA_remember_state
  DW_CFA_def_cfa_offset: 56
  DW_CFA_advance_loc: 8 to 000000000042d49e
  DW_CFA_def_cfa_offset: 48
  DW_CFA_advance_loc: 1 to 000000000042d49f
  DW_CFA_def_cfa_offset: 40
  DW_CFA_advance_loc: 2 to 000000000042d4a1
  DW_CFA_def_cfa_offset: 32
  DW_CFA_advance_loc: 2 to 000000000042d4a3
  DW_CFA_def_cfa_offset: 24
  DW_CFA_advance_loc: 2 to 000000000042d4a5
  DW_CFA_def_cfa_offset: 16
  DW_CFA_advance_loc: 2 to 000000000042d4a7
  DW_CFA_def_cfa_offset: 8
  DW_CFA_advance_loc: 5 to 000000000042d4ac
  DW_CFA_restore_state
  DW_CFA_advance_loc: 56 to 000000000042d4e4
  DW_CFA_remember_state
  DW_CFA_def_cfa_offset: 56
  DW_CFA_advance_loc: 8 to 000000000042d4ec
  DW_CFA_def_cfa_offset: 48
  DW_CFA_advance_loc: 1 to 000000000042d4ed
  DW_CFA_def_cfa_offset: 40
  DW_CFA_advance_loc: 2 to 000000000042d4ef
  DW_CFA_def_cfa_offset: 32
  DW_CFA_advance_loc: 2 to 000000000042d4f1
  DW_CFA_def_cfa_offset: 24
  DW_CFA_advance_loc: 2 to 000000000042d4f3
  DW_CFA_def_cfa_offset: 16
  DW_CFA_advance_loc: 2 to 000000000042d4f5
  DW_CFA_def_cfa_offset: 8
  DW_CFA_advance_loc: 5 to 000000000042d4fa
  DW_CFA_restore_state
  DW_CFA_advance_loc: 46 to 000000000042d528
  DW_CFA_remember_state
  DW_CFA_def_cfa_offset: 56
  DW_CFA_advance_loc: 8 to 000000000042d530
  DW_CFA_def_cfa_offset: 48
  DW_CFA_advance_loc: 1 to 000000000042d531
  DW_CFA_def_cfa_offset: 40
  DW_CFA_advance_loc: 2 to 000000000042d533
  DW_CFA_def_cfa_offset: 32
  DW_CFA_advance_loc: 2 to 000000000042d535
  DW_CFA_def_cfa_offset: 24
  DW_CFA_advance_loc: 2 to 000000000042d537
  DW_CFA_def_cfa_offset: 16
  DW_CFA_advance_loc: 2 to 000000000042d539
  DW_CFA_def_cfa_offset: 8
  DW_CFA_advance_loc: 5 to 000000000042d53e
  DW_CFA_restore_state
  DW_CFA_advance_loc: 56 to 000000000042d576
  DW_CFA_remember_state
  DW_CFA_def_cfa_offset: 56
  DW_CFA_advance_loc: 8 to 000000000042d57e
  DW_CFA_def_cfa_offset: 48
  DW_CFA_advance_loc: 1 to 000000000042d57f
  DW_CFA_def_cfa_offset: 40
  DW_CFA_advance_loc: 2 to 000000000042d581
  DW_CFA_def_cfa_offset: 32
  DW_CFA_advance_loc: 2 to 000000000042d583
  DW_CFA_def_cfa_offset: 24
  DW_CFA_advance_loc: 2 to 000000000042d585
  DW_CFA_def_cfa_offset: 16
  DW_CFA_advance_loc: 2 to 000000000042d587
  DW_CFA_def_cfa_offset: 8
  DW_CFA_advance_loc: 5 to 000000000042d58c
  DW_CFA_restore_state
  DW_CFA_advance_loc: 46 to 000000000042d5ba
  DW_CFA_remember_state
  DW_CFA_def_cfa_offset: 56
  DW_CFA_advance_loc: 8 to 000000000042d5c2
  DW_CFA_def_cfa_offset: 48
  DW_CFA_advance_loc: 1 to 000000000042d5c3
  DW_CFA_def_cfa_offset: 40
  DW_CFA_advance_loc: 2 to 000000000042d5c5
  DW_CFA_def_cfa_offset: 32
  DW_CFA_advance_loc: 2 to 000000000042d5c7
  DW_CFA_def_cfa_offset: 24
  DW_CFA_advance_loc: 2 to 000000000042d5c9
  DW_CFA_def_cfa_offset: 16
  DW_CFA_advance_loc: 2 to 000000000042d5cb
  DW_CFA_def_cfa_offset: 8
  DW_CFA_advance_loc: 5 to 000000000042d5d0
  DW_CFA_restore_state
  DW_CFA_advance_loc: 56 to 000000000042d608
  DW_CFA_remember_state
  DW_CFA_def_cfa_offset: 56
  DW_CFA_advance_loc: 8 to 000000000042d610
  DW_CFA_def_cfa_offset: 48
  DW_CFA_advance_loc: 1 to 000000000042d611
  DW_CFA_def_cfa_offset: 40
  DW_CFA_advance_loc: 2 to 000000000042d613
  DW_CFA_def_cfa_offset: 32
  DW_CFA_advance_loc: 2 to 000000000042d615
  DW_CFA_def_cfa_offset: 24
  DW_CFA_advance_loc: 2 to 000000000042d617
  DW_CFA_def_cfa_offset: 16
  DW_CFA_advance_loc: 2 to 000000000042d619
  DW_CFA_def_cfa_offset: 8
  DW_CFA_advance_loc: 5 to 000000000042d61e
  DW_CFA_restore_state
  DW_CFA_advance_loc: 46 to 000000000042d64c
  DW_CFA_remember_state
  DW_CFA_def_cfa_offset: 56
  DW_CFA_advance_loc: 8 to 000000000042d654
  DW_CFA_def_cfa_offset: 48
  DW_CFA_advance_loc: 1 to 000000000042d655
  DW_CFA_def_cfa_offset: 40
  DW_CFA_advance_loc: 2 to 000000000042d657
  DW_CFA_def_cfa_offset: 32
  DW_CFA_advance_loc: 2 to 000000000042d659
  DW_CFA_def_cfa_offset: 24
  DW_CFA_advance_loc: 2 to 000000000042d65b
  DW_CFA_def_cfa_offset: 16
  DW_CFA_advance_loc: 2 to 000000000042d65d
  DW_CFA_def_cfa_offset: 8
  DW_CFA_advance_loc: 5 to 000000000042d662
  DW_CFA_restore_state
  DW_CFA_advance_loc: 56 to 000000000042d69a
  DW_CFA_remember_state
  DW_CFA_def_cfa_offset: 56
  DW_CFA_advance_loc: 8 to 000000000042d6a2
  DW_CFA_def_cfa_offset: 48
  DW_CFA_advance_loc: 1 to 000000000042d6a3
  DW_CFA_def_cfa_offset: 40
  DW_CFA_advance_loc: 2 to 000000000042d6a5
  DW_CFA_def_cfa_offset: 32
  DW_CFA_advance_loc: 2 to 000000000042d6a7
  DW_CFA_def_cfa_offset: 24
  DW_CFA_advance_loc: 2 to 000000000042d6a9
  DW_CFA_def_cfa_offset: 16
  DW_CFA_advance_loc: 2 to 000000000042d6ab
  DW_CFA_def_cfa_offset: 8
  DW_CFA_advance_loc: 5 to 000000000042d6b0
  DW_CFA_restore_state
  DW_CFA_advance_loc: 46 to 000000000042d6de
  DW_CFA_remember_state
  DW_CFA_def_cfa_offset: 56
  DW_CFA_advance_loc: 8 to 000000000042d6e6
  DW_CFA_def_cfa_offset: 48
  DW_CFA_advance_loc: 1 to 000000000042d6e7
  DW_CFA_def_cfa_offset: 40
  DW_CFA_advance_loc: 2 to 000000000042d6e9
  DW_CFA_def_cfa_offset: 32
  DW_CFA_advance_loc: 2 to 000000000042d6eb
  DW_CFA_def_cfa_offset: 24
  DW_CFA_advance_loc: 2 to 000000000042d6ed
  DW_CFA_def_cfa_offset: 16
  DW_CFA_advance_loc: 2 to 000000000042d6ef
  DW_CFA_def_cfa_offset: 8
  DW_CFA_advance_loc: 5 to 000000000042d6f4
  DW_CFA_restore_state
  DW_CFA_advance_loc: 56 to 000000000042d72c
  DW_CFA_remember_state
  DW_CFA_def_cfa_offset: 56
  DW_CFA_advance_loc: 8 to 000000000042d734
  DW_CFA_def_cfa_offset: 48
  DW_CFA_advance_loc: 1 to 000000000042d735
  DW_CFA_def_cfa_offset: 40
  DW_CFA_advance_loc: 2 to 000000000042d737
  DW_CFA_def_cfa_offset: 32
  DW_CFA_advance_loc: 2 to 000000000042d739
  DW_CFA_def_cfa_offset: 24
  DW_CFA_advance_loc: 2 to 000000000042d73b
  DW_CFA_def_cfa_offset: 16
  DW_CFA_advance_loc: 2 to 000000000042d73d
  DW_CFA_def_cfa_offset: 8
  DW_CFA_advance_loc: 5 to 000000000042d742
  DW_CFA_restore_state
  DW_CFA_advance_loc: 46 to 000000000042d770
  DW_CFA_remember_state
  DW_CFA_def_cfa_offset: 56
  DW_CFA_advance_loc: 8 to 000000000042d778
  DW_CFA_def_cfa_offset: 48
  DW_CFA_advance_loc: 1 to 000000000042d779
  DW_CFA_def_cfa_offset: 40
  DW_CFA_advance_loc: 2 to 000000000042d77b
  DW_CFA_def_cfa_offset: 32
  DW_CFA_advance_loc: 2 to 000000000042d77d
  DW_CFA_def_cfa_offset: 24
  DW_CFA_advance_loc: 2 to 000000000042d77f
  DW_CFA_def_cfa_offset: 16
  DW_CFA_advance_loc: 2 to 000000000042d781
  DW_CFA_def_cfa_offset: 8
  DW_CFA_advance_loc: 5 to 000000000042d786
  DW_CFA_restore_state
  DW_CFA_advance_loc: 56 to 000000000042d7be
  DW_CFA_remember_state
  DW_CFA_def_cfa_offset: 56
  DW_CFA_advance_loc: 8 to 000000000042d7c6
  DW_CFA_def_cfa_offset: 48
  DW_CFA_advance_loc: 1 to 000000000042d7c7
  DW_CFA_def_cfa_offset: 40
  DW_CFA_advance_loc: 2 to 000000000042d7c9
  DW_CFA_def_cfa_offset: 32
  DW_CFA_advance_loc: 2 to 000000000042d7cb
  DW_CFA_def_cfa_offset: 24
  DW_CFA_advance_loc: 2 to 000000000042d7cd
  DW_CFA_def_cfa_offset: 16
  DW_CFA_advance_loc: 2 to 000000000042d7cf
  DW_CFA_def_cfa_offset: 8
  DW_CFA_advance_loc: 5 to 000000000042d7d4
  DW_CFA_restore_state
  DW_CFA_advance_loc: 46 to 000000000042d802
  DW_CFA_remember_state
  DW_CFA_def_cfa_offset: 56
  DW_CFA_advance_loc: 8 to 000000000042d80a
  DW_CFA_def_cfa_offset: 48
  DW_CFA_advance_loc: 1 to 000000000042d80b
  DW_CFA_def_cfa_offset: 40
  DW_CFA_advance_loc: 2 to 000000000042d80d
  DW_CFA_def_cfa_offset: 32
  DW_CFA_advance_loc: 2 to 000000000042d80f
  DW_CFA_def_cfa_offset: 24
  DW_CFA_advance_loc: 2 to 000000000042d811
  DW_CFA_def_cfa_offset: 16
  DW_CFA_advance_loc: 2 to 000000000042d813
  DW_CFA_def_cfa_offset: 8
  DW_CFA_advance_loc: 5 to 000000000042d818
  DW_CFA_restore_state
  DW_CFA_advance_loc: 56 to 000000000042d850
  DW_CFA_remember_state
  DW_CFA_def_cfa_offset: 56
  DW_CFA_advance_loc: 8 to 000000000042d858
  DW_CFA_def_cfa_offset: 48
  DW_CFA_advance_loc: 1 to 000000000042d859
  DW_CFA_def_cfa_offset: 40
  DW_CFA_advance_loc: 2 to 000000000042d85b
  DW_CFA_def_cfa_offset: 32
  DW_CFA_advance_loc: 2 to 000000000042d85d
  DW_CFA_def_cfa_offset: 24
  DW_CFA_advance_loc: 2 to 000000000042d85f
  DW_CFA_def_cfa_offset: 16
  DW_CFA_advance_loc: 2 to 000000000042d861
  DW_CFA_def_cfa_offset: 8
  DW_CFA_advance_loc: 5 to 000000000042d866
  DW_CFA_restore_state
  DW_CFA_advance_loc: 46 to 000000000042d894
  DW_CFA_remember_state
  DW_CFA_def_cfa_offset: 56
  DW_CFA_advance_loc: 8 to 000000000042d89c
  DW_CFA_def_cfa_offset: 48
  DW_CFA_advance_loc: 1 to 000000000042d89d
  DW_CFA_def_cfa_offset: 40
  DW_CFA_advance_loc: 2 to 000000000042d89f
  DW_CFA_def_cfa_offset: 32
  DW_CFA_advance_loc: 2 to 000000000042d8a1
  DW_CFA_def_cfa_offset: 24
  DW_CFA_advance_loc: 2 to 000000000042d8a3
  DW_CFA_def_cfa_offset: 16
  DW_CFA_advance_loc: 2 to 000000000042d8a5
  DW_CFA_def_cfa_offset: 8
  DW_CFA_advance_loc: 5 to 000000000042d8aa
  DW_CFA_restore_state
  DW_CFA_advance_loc: 56 to 000000000042d8e2
  DW_CFA_remember_state
  DW_CFA_def_cfa_offset: 56
  DW_CFA_advance_loc: 8 to 000000000042d8ea
  DW_CFA_def_cfa_offset: 48
  DW_CFA_advance_loc: 1 to 000000000042d8eb
  DW_CFA_def_cfa_offset: 40
  DW_CFA_advance_loc: 2 to 000000000042d8ed
  DW_CFA_def_cfa_offset: 32
  DW_CFA_advance_loc: 2 to 000000000042d8ef
  DW_CFA_def_cfa_offset: 24
  DW_CFA_advance_loc: 2 to 000000000042d8f1
  DW_CFA_def_cfa_offset: 16
  DW_CFA_advance_loc: 2 to 000000000042d8f3
  DW_CFA_def_cfa_offset: 8
  DW_CFA_advance_loc: 5 to 000000000042d8f8
  DW_CFA_restore_state
  DW_CFA_advance_loc: 46 to 000000000042d926
  DW_CFA_remember_state
  DW_CFA_def_cfa_offset: 56
  DW_CFA_advance_loc: 8 to 000000000042d92e
  DW_CFA_def_cfa_offset: 48
  DW_CFA_advance_loc: 1 to 000000000042d92f
  DW_CFA_def_cfa_offset: 40
  DW_CFA_advance_loc: 2 to 000000000042d931
  DW_CFA_def_cfa_offset: 32
  DW_CFA_advance_loc: 2 to 000000000042d933
  DW_CFA_def_cfa_offset: 24
  DW_CFA_advance_loc: 2 to 000000000042d935
  DW_CFA_def_cfa_offset: 16
  DW_CFA_advance_loc: 2 to 000000000042d937
  DW_CFA_def_cfa_offset: 8
  DW_CFA_advance_loc: 5 to 000000000042d93c
  DW_CFA_restore_state
  DW_CFA_advance_loc: 56 to 000000000042d974
  DW_CFA_remember_state
  DW_CFA_def_cfa_offset: 56
  DW_CFA_advance_loc: 8 to 000000000042d97c
  DW_CFA_def_cfa_offset: 48
  DW_CFA_advance_loc: 1 to 000000000042d97d
  DW_CFA_def_cfa_offset: 40
  DW_CFA_advance_loc: 2 to 000000000042d97f
  DW_CFA_def_cfa_offset: 32
  DW_CFA_advance_loc: 2 to 000000000042d981
  DW_CFA_def_cfa_offset: 24
  DW_CFA_advance_loc: 2 to 000000000042d983
  DW_CFA_def_cfa_offset: 16
  DW_CFA_advance_loc: 2 to 000000000042d985
  DW_CFA_def_cfa_offset: 8
  DW_CFA_advance_loc: 5 to 000000000042d98a
  DW_CFA_restore_state
  DW_CFA_advance_loc: 46 to 000000000042d9b8
  DW_CFA_remember_state
  DW_CFA_def_cfa_offset: 56
  DW_CFA_advance_loc: 8 to 000000000042d9c0
  DW_CFA_def_cfa_offset: 48
  DW_CFA_advance_loc: 1 to 000000000042d9c1
  DW_CFA_def_cfa_offset: 40
  DW_CFA_advance_loc: 2 to 000000000042d9c3
  DW_CFA_def_cfa_offset: 32
  DW_CFA_advance_loc: 2 to 000000000042d9c5
  DW_CFA_def_cfa_offset: 24
  DW_CFA_advance_loc: 2 to 000000000042d9c7
  DW_CFA_def_cfa_offset: 16
  DW_CFA_advance_loc: 2 to 000000000042d9c9
  DW_CFA_def_cfa_offset: 8
  DW_CFA_advance_loc: 5 to 000000000042d9ce
  DW_CFA_restore_state
  DW_CFA_advance_loc: 56 to 000000000042da06
  DW_CFA_remember_state
  DW_CFA_def_cfa_offset: 56
  DW_CFA_advance_loc: 8 to 000000000042da0e
  DW_CFA_def_cfa_offset: 48
  DW_CFA_advance_loc: 1 to 000000000042da0f
  DW_CFA_def_cfa_offset: 40
  DW_CFA_advance_loc: 2 to 000000000042da11
  DW_CFA_def_cfa_offset: 32
  DW_CFA_advance_loc: 2 to 000000000042da13
  DW_CFA_def_cfa_offset: 24
  DW_CFA_advance_loc: 2 to 000000000042da15
  DW_CFA_def_cfa_offset: 16
  DW_CFA_advance_loc: 2 to 000000000042da17
  DW_CFA_def_cfa_offset: 8
  DW_CFA_advance_loc: 5 to 000000000042da1c
  DW_CFA_restore_state
  DW_CFA_advance_loc: 46 to 000000000042da4a
  DW_CFA_remember_state
  DW_CFA_def_cfa_offset: 56
  DW_CFA_advance_loc: 8 to 000000000042da52
  DW_CFA_def_cfa_offset: 48
  DW_CFA_advance_loc: 1 to 000000000042da53
  DW_CFA_def_cfa_offset: 40
  DW_CFA_advance_loc: 2 to 000000000042da55
  DW_CFA_def_cfa_offset: 32
  DW_CFA_advance_loc: 2 to 000000000042da57
  DW_CFA_def_cfa_offset: 24
  DW_CFA_advance_loc: 2 to 000000000042da59
  DW_CFA_def_cfa_offset: 16
  DW_CFA_advance_loc: 2 to 000000000042da5b
  DW_CFA_def_cfa_offset: 8
  DW_CFA_advance_loc: 5 to 000000000042da60
  DW_CFA_restore_state
  DW_CFA_advance_loc: 56 to 000000000042da98
  DW_CFA_remember_state
  DW_CFA_def_cfa_offset: 56
  DW_CFA_advance_loc: 8 to 000000000042daa0
  DW_CFA_def_cfa_offset: 48
  DW_CFA_advance_loc: 1 to 000000000042daa1
  DW_CFA_def_cfa_offset: 40
  DW_CFA_advance_loc: 2 to 000000000042daa3
  DW_CFA_def_cfa_offset: 32
  DW_CFA_advance_loc: 2 to 000000000042daa5
  DW_CFA_def_cfa_offset: 24
  DW_CFA_advance_loc: 2 to 000000000042daa7
  DW_CFA_def_cfa_offset: 16
  DW_CFA_advance_loc: 2 to 000000000042daa9
  DW_CFA_def_cfa_offset: 8
  DW_CFA_advance_loc: 5 to 000000000042daae
  DW_CFA_restore_state
  DW_CFA_advance_loc: 46 to 000000000042dadc
  DW_CFA_remember_state
  DW_CFA_def_cfa_offset: 56
  DW_CFA_advance_loc: 8 to 000000000042dae4
  DW_CFA_def_cfa_offset: 48
  DW_CFA_advance_loc: 1 to 000000000042dae5
  DW_CFA_def_cfa_offset: 40
  DW_CFA_advance_loc: 2 to 000000000042dae7
  DW_CFA_def_cfa_offset: 32
  DW_CFA_advance_loc: 2 to 000000000042dae9
  DW_CFA_def_cfa_offset: 24
  DW_CFA_advance_loc: 2 to 000000000042daeb
  DW_CFA_def_cfa_offset: 16
  DW_CFA_advance_loc: 2 to 000000000042daed
  DW_CFA_def_cfa_offset: 8
  DW_CFA_advance_loc: 5 to 000000000042daf2
  DW_CFA_restore_state
  DW_CFA_advance_loc: 56 to 000000000042db2a
  DW_CFA_remember_state
  DW_CFA_def_cfa_offset: 56
  DW_CFA_advance_loc: 8 to 000000000042db32
  DW_CFA_def_cfa_offset: 48
  DW_CFA_advance_loc: 1 to 000000000042db33
  DW_CFA_def_cfa_offset: 40
  DW_CFA_advance_loc: 2 to 000000000042db35
  DW_CFA_def_cfa_offset: 32
  DW_CFA_advance_loc: 2 to 000000000042db37
  DW_CFA_def_cfa_offset: 24
  DW_CFA_advance_loc: 2 to 000000000042db39
  DW_CFA_def_cfa_offset: 16
  DW_CFA_advance_loc: 2 to 000000000042db3b
  DW_CFA_def_cfa_offset: 8
  DW_CFA_advance_loc: 5 to 000000000042db40
  DW_CFA_restore_state
  DW_CFA_advance_loc: 46 to 000000000042db6e
  DW_CFA_remember_state
  DW_CFA_def_cfa_offset: 56
  DW_CFA_advance_loc: 8 to 000000000042db76
  DW_CFA_def_cfa_offset: 48
  DW_CFA_advance_loc: 1 to 000000000042db77
  DW_CFA_def_cfa_offset: 40
  DW_CFA_advance_loc: 2 to 000000000042db79
  DW_CFA_def_cfa_offset: 32
  DW_CFA_advance_loc: 2 to 000000000042db7b
  DW_CFA_def_cfa_offset: 24
  DW_CFA_advance_loc: 2 to 000000000042db7d
  DW_CFA_def_cfa_offset: 16
  DW_CFA_advance_loc: 2 to 000000000042db7f
  DW_CFA_def_cfa_offset: 8
  DW_CFA_advance_loc: 5 to 000000000042db84
  DW_CFA_restore_state
  DW_CFA_advance_loc: 56 to 000000000042dbbc
  DW_CFA_remember_state
  DW_CFA_def_cfa_offset: 56
  DW_CFA_advance_loc: 8 to 000000000042dbc4
  DW_CFA_def_cfa_offset: 48
  DW_CFA_advance_loc: 1 to 000000000042dbc5
  DW_CFA_def_cfa_offset: 40
  DW_CFA_advance_loc: 2 to 000000000042dbc7
  DW_CFA_def_cfa_offset: 32
  DW_CFA_advance_loc: 2 to 000000000042dbc9
  DW_CFA_def_cfa_offset: 24
  DW_CFA_advance_loc: 2 to 000000000042dbcb
  DW_CFA_def_cfa_offset: 16
  DW_CFA_advance_loc: 2 to 000000000042dbcd
  DW_CFA_def_cfa_offset: 8
  DW_CFA_advance_loc: 5 to 000000000042dbd2
  DW_CFA_restore_state
  DW_CFA_advance_loc: 46 to 000000000042dc00
  DW_CFA_remember_state
  DW_CFA_def_cfa_offset: 56
  DW_CFA_advance_loc: 8 to 000000000042dc08
  DW_CFA_def_cfa_offset: 48
  DW_CFA_advance_loc: 1 to 000000000042dc09
  DW_CFA_def_cfa_offset: 40
  DW_CFA_advance_loc: 2 to 000000000042dc0b
  DW_CFA_def_cfa_offset: 32
  DW_CFA_advance_loc: 2 to 000000000042dc0d
  DW_CFA_def_cfa_offset: 24
  DW_CFA_advance_loc: 2 to 000000000042dc0f
  DW_CFA_def_cfa_offset: 16
  DW_CFA_advance_loc: 2 to 000000000042dc11
  DW_CFA_def_cfa_offset: 8
  DW_CFA_advance_loc: 5 to 000000000042dc16
  DW_CFA_restore_state
  DW_CFA_advance_loc: 56 to 000000000042dc4e
  DW_CFA_remember_state
  DW_CFA_def_cfa_offset: 56
  DW_CFA_advance_loc: 8 to 000000000042dc56
  DW_CFA_def_cfa_offset: 48
  DW_CFA_advance_loc: 1 to 000000000042dc57
  DW_CFA_def_cfa_offset: 40
  DW_CFA_advance_loc: 2 to 000000000042dc59
  DW_CFA_def_cfa_offset: 32
  DW_CFA_advance_loc: 2 to 000000000042dc5b
  DW_CFA_def_cfa_offset: 24
  DW_CFA_advance_loc: 2 to 000000000042dc5d
  DW_CFA_def_cfa_offset: 16
  DW_CFA_advance_loc: 2 to 000000000042dc5f
  DW_CFA_def_cfa_offset: 8
  DW_CFA_advance_loc: 5 to 000000000042dc64
  DW_CFA_restore_state
  DW_CFA_advance_loc: 46 to 000000000042dc92
  DW_CFA_remember_state
  DW_CFA_def_cfa_offset: 56
  DW_CFA_advance_loc: 8 to 000000000042dc9a
  DW_CFA_def_cfa_offset: 48
  DW_CFA_advance_loc: 1 to 000000000042dc9b
  DW_CFA_def_cfa_offset: 40
  DW_CFA_advance_loc: 2 to 000000000042dc9d
  DW_CFA_def_cfa_offset: 32
  DW_CFA_advance_loc: 2 to 000000000042dc9f
  DW_CFA_def_cfa_offset: 24
  DW_CFA_advance_loc: 2 to 000000000042dca1
  DW_CFA_def_cfa_offset: 16
  DW_CFA_advance_loc: 2 to 000000000042dca3
  DW_CFA_def_cfa_offset: 8
  DW_CFA_advance_loc: 5 to 000000000042dca8
  DW_CFA_restore_state
  DW_CFA_advance_loc: 56 to 000000000042dce0
  DW_CFA_remember_state
  DW_CFA_def_cfa_offset: 56
  DW_CFA_advance_loc: 8 to 000000000042dce8
  DW_CFA_def_cfa_offset: 48
  DW_CFA_advance_loc: 1 to 000000000042dce9
  DW_CFA_def_cfa_offset: 40
  DW_CFA_advance_loc: 2 to 000000000042dceb
  DW_CFA_def_cfa_offset: 32
  DW_CFA_advance_loc: 2 to 000000000042dced
  DW_CFA_def_cfa_offset: 24
  DW_CFA_advance_loc: 2 to 000000000042dcef
  DW_CFA_def_cfa_offset: 16
  DW_CFA_advance_loc: 2 to 000000000042dcf1
  DW_CFA_def_cfa_offset: 8
  DW_CFA_advance_loc: 5 to 000000000042dcf6
  DW_CFA_restore_state
  DW_CFA_advance_loc: 46 to 000000000042dd24
  DW_CFA_remember_state
  DW_CFA_def_cfa_offset: 56
  DW_CFA_advance_loc: 8 to 000000000042dd2c
  DW_CFA_def_cfa_offset: 48
  DW_CFA_advance_loc: 1 to 000000000042dd2d
  DW_CFA_def_cfa_offset: 40
  DW_CFA_advance_loc: 2 to 000000000042dd2f
  DW_CFA_def_cfa_offset: 32
  DW_CFA_advance_loc: 2 to 000000000042dd31
  DW_CFA_def_cfa_offset: 24
  DW_CFA_advance_loc: 2 to 000000000042dd33
  DW_CFA_def_cfa_offset: 16
  DW_CFA_advance_loc: 2 to 000000000042dd35
  DW_CFA_def_cfa_offset: 8
  DW_CFA_advance_loc: 5 to 000000000042dd3a
  DW_CFA_restore_state
  DW_CFA_advance_loc: 56 to 000000000042dd72
  DW_CFA_remember_state
  DW_CFA_def_cfa_offset: 56
  DW_CFA_advance_loc: 8 to 000000000042dd7a
  DW_CFA_def_cfa_offset: 48
  DW_CFA_advance_loc: 1 to 000000000042dd7b
  DW_CFA_def_cfa_offset: 40
  DW_CFA_advance_loc: 2 to 000000000042dd7d
  DW_CFA_def_cfa_offset: 32
  DW_CFA_advance_loc: 2 to 000000000042dd7f
  DW_CFA_def_cfa_offset: 24
  DW_CFA_advance_loc: 2 to 000000000042dd81
  DW_CFA_def_cfa_offset: 16
  DW_CFA_advance_loc: 2 to 000000000042dd83
  DW_CFA_def_cfa_offset: 8
  DW_CFA_advance_loc: 5 to 000000000042dd88
  DW_CFA_restore_state
  DW_CFA_advance_loc: 46 to 000000000042ddb6
  DW_CFA_remember_state
  DW_CFA_def_cfa_offset: 56
  DW_CFA_advance_loc: 8 to 000000000042ddbe
  DW_CFA_def_cfa_offset: 48
  DW_CFA_advance_loc: 1 to 000000000042ddbf
  DW_CFA_def_cfa_offset: 40
  DW_CFA_advance_loc: 2 to 000000000042ddc1
  DW_CFA_def_cfa_offset: 32
  DW_CFA_advance_loc: 2 to 000000000042ddc3
  DW_CFA_def_cfa_offset: 24
  DW_CFA_advance_loc: 2 to 000000000042ddc5
  DW_CFA_def_cfa_offset: 16
  DW_CFA_advance_loc: 2 to 000000000042ddc7
  DW_CFA_def_cfa_offset: 8
  DW_CFA_advance_loc: 5 to 000000000042ddcc
  DW_CFA_restore_state
  DW_CFA_advance_loc: 56 to 000000000042de04
  DW_CFA_remember_state
  DW_CFA_def_cfa_offset: 56
  DW_CFA_advance_loc: 8 to 000000000042de0c
  DW_CFA_def_cfa_offset: 48
  DW_CFA_advance_loc: 1 to 000000000042de0d
  DW_CFA_def_cfa_offset: 40
  DW_CFA_advance_loc: 2 to 000000000042de0f
  DW_CFA_def_cfa_offset: 32
  DW_CFA_advance_loc: 2 to 000000000042de11
  DW_CFA_def_cfa_offset: 24
  DW_CFA_advance_loc: 2 to 000000000042de13
  DW_CFA_def_cfa_offset: 16
  DW_CFA_advance_loc: 2 to 000000000042de15
  DW_CFA_def_cfa_offset: 8
  DW_CFA_advance_loc: 5 to 000000000042de1a
  DW_CFA_restore_state
  DW_CFA_advance_loc: 46 to 000000000042de48
  DW_CFA_remember_state
  DW_CFA_def_cfa_offset: 56
  DW_CFA_advance_loc: 8 to 000000000042de50
  DW_CFA_def_cfa_offset: 48
  DW_CFA_advance_loc: 1 to 000000000042de51
  DW_CFA_def_cfa_offset: 40
  DW_CFA_advance_loc: 2 to 000000000042de53
  DW_CFA_def_cfa_offset: 32
  DW_CFA_advance_loc: 2 to 000000000042de55
  DW_CFA_def_cfa_offset: 24
  DW_CFA_advance_loc: 2 to 000000000042de57
  DW_CFA_def_cfa_offset: 16
  DW_CFA_advance_loc: 2 to 000000000042de59
  DW_CFA_def_cfa_offset: 8
  DW_CFA_advance_loc: 5 to 000000000042de5e
  DW_CFA_restore_state
  DW_CFA_advance_loc: 56 to 000000000042de96
  DW_CFA_remember_state
  DW_CFA_def_cfa_offset: 56
  DW_CFA_advance_loc: 8 to 000000000042de9e
  DW_CFA_def_cfa_offset: 48
  DW_CFA_advance_loc: 1 to 000000000042de9f
  DW_CFA_def_cfa_offset: 40
  DW_CFA_advance_loc: 2 to 000000000042dea1
  DW_CFA_def_cfa_offset: 32
  DW_CFA_advance_loc: 2 to 000000000042dea3
  DW_CFA_def_cfa_offset: 24
  DW_CFA_advance_loc: 2 to 000000000042dea5
  DW_CFA_def_cfa_offset: 16
  DW_CFA_advance_loc: 2 to 000000000042dea7
  DW_CFA_def_cfa_offset: 8
  DW_CFA_advance_loc: 5 to 000000000042deac
  DW_CFA_restore_state
  DW_CFA_advance_loc: 46 to 000000000042deda
  DW_CFA_remember_state
  DW_CFA_def_cfa_offset: 56
  DW_CFA_advance_loc: 8 to 000000000042dee2
  DW_CFA_def_cfa_offset: 48
  DW_CFA_advance_loc: 1 to 000000000042dee3
  DW_CFA_def_cfa_offset: 40
  DW_CFA_advance_loc: 2 to 000000000042dee5
  DW_CFA_def_cfa_offset: 32
  DW_CFA_advance_loc: 2 to 000000000042dee7
  DW_CFA_def_cfa_offset: 24
  DW_CFA_advance_loc: 2 to 000000000042dee9
  DW_CFA_def_cfa_offset: 16
  DW_CFA_advance_loc: 2 to 000000000042deeb
  DW_CFA_def_cfa_offset: 8
  DW_CFA_advance_loc: 5 to 000000000042def0
  DW_CFA_restore_state
  DW_CFA_advance_loc: 56 to 000000000042df28
  DW_CFA_remember_state
  DW_CFA_def_cfa_offset: 56
  DW_CFA_advance_loc: 8 to 000000000042df30
  DW_CFA_def_cfa_offset: 48
  DW_CFA_advance_loc: 1 to 000000000042df31
  DW_CFA_def_cfa_offset: 40
  DW_CFA_advance_loc: 2 to 000000000042df33
  DW_CFA_def_cfa_offset: 32
  DW_CFA_advance_loc: 2 to 000000000042df35
  DW_CFA_def_cfa_offset: 24
  DW_CFA_advance_loc: 2 to 000000000042df37
  DW_CFA_def_cfa_offset: 16
  DW_CFA_advance_loc: 2 to 000000000042df39
  DW_CFA_def_cfa_offset: 8
  DW_CFA_advance_loc: 5 to 000000000042df3e
  DW_CFA_restore_state
  DW_CFA_advance_loc: 46 to 000000000042df6c
  DW_CFA_remember_state
  DW_CFA_def_cfa_offset: 56
  DW_CFA_advance_loc: 8 to 000000000042df74
  DW_CFA_def_cfa_offset: 48
  DW_CFA_advance_loc: 1 to 000000000042df75
  DW_CFA_def_cfa_offset: 40
  DW_CFA_advance_loc: 2 to 000000000042df77
  DW_CFA_def_cfa_offset: 32
  DW_CFA_advance_loc: 2 to 000000000042df79
  DW_CFA_def_cfa_offset: 24
  DW_CFA_advance_loc: 2 to 000000000042df7b
  DW_CFA_def_cfa_offset: 16
  DW_CFA_advance_loc: 2 to 000000000042df7d
  DW_CFA_def_cfa_offset: 8
  DW_CFA_advance_loc: 5 to 000000000042df82
  DW_CFA_restore_state
  DW_CFA_advance_loc: 56 to 000000000042dfba
  DW_CFA_remember_state
  DW_CFA_def_cfa_offset: 56
  DW_CFA_advance_loc: 8 to 000000000042dfc2
  DW_CFA_def_cfa_offset: 48
  DW_CFA_advance_loc: 1 to 000000000042dfc3
  DW_CFA_def_cfa_offset: 40
  DW_CFA_advance_loc: 2 to 000000000042dfc5
  DW_CFA_def_cfa_offset: 32
  DW_CFA_advance_loc: 2 to 000000000042dfc7
  DW_CFA_def_cfa_offset: 24
  DW_CFA_advance_loc: 2 to 000000000042dfc9
  DW_CFA_def_cfa_offset: 16
  DW_CFA_advance_loc: 2 to 000000000042dfcb
  DW_CFA_def_cfa_offset: 8
  DW_CFA_advance_loc: 5 to 000000000042dfd0
  DW_CFA_restore_state
  DW_CFA_advance_loc: 46 to 000000000042dffe
  DW_CFA_remember_state
  DW_CFA_def_cfa_offset: 56
  DW_CFA_advance_loc: 8 to 000000000042e006
  DW_CFA_def_cfa_offset: 48
  DW_CFA_advance_loc: 1 to 000000000042e007
  DW_CFA_def_cfa_offset: 40
  DW_CFA_advance_loc: 2 to 000000000042e009
  DW_CFA_def_cfa_offset: 32
  DW_CFA_advance_loc: 2 to 000000000042e00b
  DW_CFA_def_cfa_offset: 24
  DW_CFA_advance_loc: 2 to 000000000042e00d
  DW_CFA_def_cfa_offset: 16
  DW_CFA_advance_loc: 2 to 000000000042e00f
  DW_CFA_def_cfa_offset: 8
  DW_CFA_advance_loc: 5 to 000000000042e014
  DW_CFA_restore_state
  DW_CFA_advance_loc: 56 to 000000000042e04c
  DW_CFA_remember_state
  DW_CFA_def_cfa_offset: 56
  DW_CFA_advance_loc: 8 to 000000000042e054
  DW_CFA_def_cfa_offset: 48
  DW_CFA_advance_loc: 1 to 000000000042e055
  DW_CFA_def_cfa_offset: 40
  DW_CFA_advance_loc: 2 to 000000000042e057
  DW_CFA_def_cfa_offset: 32
  DW_CFA_advance_loc: 2 to 000000000042e059
  DW_CFA_def_cfa_offset: 24
  DW_CFA_advance_loc: 2 to 000000000042e05b
  DW_CFA_def_cfa_offset: 16
  DW_CFA_advance_loc: 2 to 000000000042e05d
  DW_CFA_def_cfa_offset: 8
  DW_CFA_advance_loc: 5 to 000000000042e062
  DW_CFA_restore_state
  DW_CFA_advance_loc: 46 to 000000000042e090
  DW_CFA_remember_state
  DW_CFA_def_cfa_offset: 56
  DW_CFA_advance_loc: 8 to 000000000042e098
  DW_CFA_def_cfa_offset: 48
  DW_CFA_advance_loc: 1 to 000000000042e099
  DW_CFA_def_cfa_offset: 40
  DW_CFA_advance_loc: 2 to 000000000042e09b
  DW_CFA_def_cfa_offset: 32
  DW_CFA_advance_loc: 2 to 000000000042e09d
  DW_CFA_def_cfa_offset: 24
  DW_CFA_advance_loc: 2 to 000000000042e09f
  DW_CFA_def_cfa_offset: 16
  DW_CFA_advance_loc: 2 to 000000000042e0a1
  DW_CFA_def_cfa_offset: 8
  DW_CFA_advance_loc: 5 to 000000000042e0a6
  DW_CFA_restore_state
  DW_CFA_advance_loc: 56 to 000000000042e0de
  DW_CFA_remember_state
  DW_CFA_def_cfa_offset: 56
  DW_CFA_advance_loc: 8 to 000000000042e0e6
  DW_CFA_def_cfa_offset: 48
  DW_CFA_advance_loc: 1 to 000000000042e0e7
  DW_CFA_def_cfa_offset: 40
  DW_CFA_advance_loc: 2 to 000000000042e0e9
  DW_CFA_def_cfa_offset: 32
  DW_CFA_advance_loc: 2 to 000000000042e0eb
  DW_CFA_def_cfa_offset: 24
  DW_CFA_advance_loc: 2 to 000000000042e0ed
  DW_CFA_def_cfa_offset: 16
  DW_CFA_advance_loc: 2 to 000000000042e0ef
  DW_CFA_def_cfa_offset: 8
  DW_CFA_advance_loc: 5 to 000000000042e0f4
  DW_CFA_restore_state
  DW_CFA_advance_loc: 46 to 000000000042e122
  DW_CFA_remember_state
  DW_CFA_def_cfa_offset: 56
  DW_CFA_advance_loc: 8 to 000000000042e12a
  DW_CFA_def_cfa_offset: 48
  DW_CFA_advance_loc: 1 to 000000000042e12b
  DW_CFA_def_cfa_offset: 40
  DW_CFA_advance_loc: 2 to 000000000042e12d
  DW_CFA_def_cfa_offset: 32
  DW_CFA_advance_loc: 2 to 000000000042e12f
  DW_CFA_def_cfa_offset: 24
  DW_CFA_advance_loc: 2 to 000000000042e131
  DW_CFA_def_cfa_offset: 16
  DW_CFA_advance_loc: 2 to 000000000042e133
  DW_CFA_def_cfa_offset: 8
  DW_CFA_advance_loc: 5 to 000000000042e138
  DW_CFA_restore_state
  DW_CFA_advance_loc: 56 to 000000000042e170
  DW_CFA_remember_state
  DW_CFA_def_cfa_offset: 56
  DW_CFA_advance_loc: 8 to 000000000042e178
  DW_CFA_def_cfa_offset: 48
  DW_CFA_advance_loc: 1 to 000000000042e179
  DW_CFA_def_cfa_offset: 40
  DW_CFA_advance_loc: 2 to 000000000042e17b
  DW_CFA_def_cfa_offset: 32
  DW_CFA_advance_loc: 2 to 000000000042e17d
  DW_CFA_def_cfa_offset: 24
  DW_CFA_advance_loc: 2 to 000000000042e17f
  DW_CFA_def_cfa_offset: 16
  DW_CFA_advance_loc: 2 to 000000000042e181
  DW_CFA_def_cfa_offset: 8
  DW_CFA_advance_loc: 5 to 000000000042e186
  DW_CFA_restore_state
  DW_CFA_advance_loc: 46 to 000000000042e1b4
  DW_CFA_remember_state
  DW_CFA_def_cfa_offset: 56
  DW_CFA_advance_loc: 8 to 000000000042e1bc
  DW_CFA_def_cfa_offset: 48
  DW_CFA_advance_loc: 1 to 000000000042e1bd
  DW_CFA_def_cfa_offset: 40
  DW_CFA_advance_loc: 2 to 000000000042e1bf
  DW_CFA_def_cfa_offset: 32
  DW_CFA_advance_loc: 2 to 000000000042e1c1
  DW_CFA_def_cfa_offset: 24
  DW_CFA_advance_loc: 2 to 000000000042e1c3
  DW_CFA_def_cfa_offset: 16
  DW_CFA_advance_loc: 2 to 000000000042e1c5
  DW_CFA_def_cfa_offset: 8
  DW_CFA_advance_loc: 5 to 000000000042e1ca
  DW_CFA_restore_state
  DW_CFA_advance_loc: 56 to 000000000042e202
  DW_CFA_remember_state
  DW_CFA_def_cfa_offset: 56
  DW_CFA_advance_loc: 8 to 000000000042e20a
  DW_CFA_def_cfa_offset: 48
  DW_CFA_advance_loc: 1 to 000000000042e20b
  DW_CFA_def_cfa_offset: 40
  DW_CFA_advance_loc: 2 to 000000000042e20d
  DW_CFA_def_cfa_offset: 32
  DW_CFA_advance_loc: 2 to 000000000042e20f
  DW_CFA_def_cfa_offset: 24
  DW_CFA_advance_loc: 2 to 000000000042e211
  DW_CFA_def_cfa_offset: 16
  DW_CFA_advance_loc: 2 to 000000000042e213
  DW_CFA_def_cfa_offset: 8
  DW_CFA_advance_loc: 5 to 000000000042e218
  DW_CFA_restore_state
  DW_CFA_advance_loc: 46 to 000000000042e246
  DW_CFA_remember_state
  DW_CFA_def_cfa_offset: 56
  DW_CFA_advance_loc: 8 to 000000000042e24e
  DW_CFA_def_cfa_offset: 48
  DW_CFA_advance_loc: 1 to 000000000042e24f
  DW_CFA_def_cfa_offset: 40
  DW_CFA_advance_loc: 2 to 000000000042e251
  DW_CFA_def_cfa_offset: 32
  DW_CFA_advance_loc: 2 to 000000000042e253
  DW_CFA_def_cfa_offset: 24
  DW_CFA_advance_loc: 2 to 000000000042e255
  DW_CFA_def_cfa_offset: 16
  DW_CFA_advance_loc: 2 to 000000000042e257
  DW_CFA_def_cfa_offset: 8
  DW_CFA_advance_loc: 5 to 000000000042e25c
  DW_CFA_restore_state
  DW_CFA_advance_loc: 56 to 000000000042e294
  DW_CFA_remember_state
  DW_CFA_def_cfa_offset: 56
  DW_CFA_advance_loc: 8 to 000000000042e29c
  DW_CFA_def_cfa_offset: 48
  DW_CFA_advance_loc: 1 to 000000000042e29d
  DW_CFA_def_cfa_offset: 40
  DW_CFA_advance_loc: 2 to 000000000042e29f
  DW_CFA_def_cfa_offset: 32
  DW_CFA_advance_loc: 2 to 000000000042e2a1
  DW_CFA_def_cfa_offset: 24
  DW_CFA_advance_loc: 2 to 000000000042e2a3
  DW_CFA_def_cfa_offset: 16
  DW_CFA_advance_loc: 2 to 000000000042e2a5
  DW_CFA_def_cfa_offset: 8
  DW_CFA_advance_loc: 5 to 000000000042e2aa
  DW_CFA_restore_state
  DW_CFA_advance_loc: 46 to 000000000042e2d8
  DW_CFA_remember_state
  DW_CFA_def_cfa_offset: 56
  DW_CFA_advance_loc: 8 to 000000000042e2e0
  DW_CFA_def_cfa_offset: 48
  DW_CFA_advance_loc: 1 to 000000000042e2e1
  DW_CFA_def_cfa_offset: 40
  DW_CFA_advance_loc: 2 to 000000000042e2e3
  DW_CFA_def_cfa_offset: 32
  DW_CFA_advance_loc: 2 to 000000000042e2e5
  DW_CFA_def_cfa_offset: 24
  DW_CFA_advance_loc: 2 to 000000000042e2e7
  DW_CFA_def_cfa_offset: 16
  DW_CFA_advance_loc: 2 to 000000000042e2e9
  DW_CFA_def_cfa_offset: 8
  DW_CFA_advance_loc: 5 to 000000000042e2ee
  DW_CFA_restore_state
  DW_CFA_advance_loc: 56 to 000000000042e326
  DW_CFA_remember_state
  DW_CFA_def_cfa_offset: 56
  DW_CFA_advance_loc: 8 to 000000000042e32e
  DW_CFA_def_cfa_offset: 48
  DW_CFA_advance_loc: 1 to 000000000042e32f
  DW_CFA_def_cfa_offset: 40
  DW_CFA_advance_loc: 2 to 000000000042e331
  DW_CFA_def_cfa_offset: 32
  DW_CFA_advance_loc: 2 to 000000000042e333
  DW_CFA_def_cfa_offset: 24
  DW_CFA_advance_loc: 2 to 000000000042e335
  DW_CFA_def_cfa_offset: 16
  DW_CFA_advance_loc: 2 to 000000000042e337
  DW_CFA_def_cfa_offset: 8
  DW_CFA_advance_loc: 5 to 000000000042e33c
  DW_CFA_restore_state
  DW_CFA_advance_loc: 46 to 000000000042e36a
  DW_CFA_remember_state
  DW_CFA_def_cfa_offset: 56
  DW_CFA_advance_loc: 8 to 000000000042e372
  DW_CFA_def_cfa_offset: 48
  DW_CFA_advance_loc: 1 to 000000000042e373
  DW_CFA_def_cfa_offset: 40
  DW_CFA_advance_loc: 2 to 000000000042e375
  DW_CFA_def_cfa_offset: 32
  DW_CFA_advance_loc: 2 to 000000000042e377
  DW_CFA_def_cfa_offset: 24
  DW_CFA_advance_loc: 2 to 000000000042e379
  DW_CFA_def_cfa_offset: 16
  DW_CFA_advance_loc: 2 to 000000000042e37b
  DW_CFA_def_cfa_offset: 8
  DW_CFA_advance_loc: 5 to 000000000042e380
  DW_CFA_restore_state
  DW_CFA_advance_loc: 56 to 000000000042e3b8
  DW_CFA_remember_state
  DW_CFA_def_cfa_offset: 56
  DW_CFA_advance_loc: 8 to 000000000042e3c0
  DW_CFA_def_cfa_offset: 48
  DW_CFA_advance_loc: 1 to 000000000042e3c1
  DW_CFA_def_cfa_offset: 40
  DW_CFA_advance_loc: 2 to 000000000042e3c3
  DW_CFA_def_cfa_offset: 32
  DW_CFA_advance_loc: 2 to 000000000042e3c5
  DW_CFA_def_cfa_offset: 24
  DW_CFA_advance_loc: 2 to 000000000042e3c7
  DW_CFA_def_cfa_offset: 16
  DW_CFA_advance_loc: 2 to 000000000042e3c9
  DW_CFA_def_cfa_offset: 8
  DW_CFA_advance_loc: 5 to 000000000042e3ce
  DW_CFA_restore_state
  DW_CFA_advance_loc: 46 to 000000000042e3fc
  DW_CFA_remember_state
  DW_CFA_def_cfa_offset: 56
  DW_CFA_advance_loc: 8 to 000000000042e404
  DW_CFA_def_cfa_offset: 48
  DW_CFA_advance_loc: 1 to 000000000042e405
  DW_CFA_def_cfa_offset: 40
  DW_CFA_advance_loc: 2 to 000000000042e407
  DW_CFA_def_cfa_offset: 32
  DW_CFA_advance_loc: 2 to 000000000042e409
  DW_CFA_def_cfa_offset: 24
  DW_CFA_advance_loc: 2 to 000000000042e40b
  DW_CFA_def_cfa_offset: 16
  DW_CFA_advance_loc: 2 to 000000000042e40d
  DW_CFA_def_cfa_offset: 8
  DW_CFA_advance_loc: 5 to 000000000042e412
  DW_CFA_restore_state
  DW_CFA_advance_loc: 56 to 000000000042e44a
  DW_CFA_remember_state
  DW_CFA_def_cfa_offset: 56
  DW_CFA_advance_loc: 8 to 000000000042e452
  DW_CFA_def_cfa_offset: 48
  DW_CFA_advance_loc: 1 to 000000000042e453
  DW_CFA_def_cfa_offset: 40
  DW_CFA_advance_loc: 2 to 000000000042e455
  DW_CFA_def_cfa_offset: 32
  DW_CFA_advance_loc: 2 to 000000000042e457
  DW_CFA_def_cfa_offset: 24
  DW_CFA_advance_loc: 2 to 000000000042e459
  DW_CFA_def_cfa_offset: 16
  DW_CFA_advance_loc: 2 to 000000000042e45b
  DW_CFA_def_cfa_offset: 8
  DW_CFA_advance_loc: 5 to 000000000042e460
  DW_CFA_restore_state
  DW_CFA_advance_loc: 46 to 000000000042e48e
  DW_CFA_remember_state
  DW_CFA_def_cfa_offset: 56
  DW_CFA_advance_loc: 8 to 000000000042e496
  DW_CFA_def_cfa_offset: 48
  DW_CFA_advance_loc: 1 to 000000000042e497
  DW_CFA_def_cfa_offset: 40
  DW_CFA_advance_loc: 2 to 000000000042e499
  DW_CFA_def_cfa_offset: 32
  DW_CFA_advance_loc: 2 to 000000000042e49b
  DW_CFA_def_cfa_offset: 24
  DW_CFA_advance_loc: 2 to 000000000042e49d
  DW_CFA_def_cfa_offset: 16
  DW_CFA_advance_loc: 2 to 000000000042e49f
  DW_CFA_def_cfa_offset: 8
  DW_CFA_advance_loc: 5 to 000000000042e4a4
  DW_CFA_restore_state
  DW_CFA_advance_loc: 56 to 000000000042e4dc
  DW_CFA_remember_state
  DW_CFA_def_cfa_offset: 56
  DW_CFA_advance_loc: 8 to 000000000042e4e4
  DW_CFA_def_cfa_offset: 48
  DW_CFA_advance_loc: 1 to 000000000042e4e5
  DW_CFA_def_cfa_offset: 40
  DW_CFA_advance_loc: 2 to 000000000042e4e7
  DW_CFA_def_cfa_offset: 32
  DW_CFA_advance_loc: 2 to 000000000042e4e9
  DW_CFA_def_cfa_offset: 24
  DW_CFA_advance_loc: 2 to 000000000042e4eb
  DW_CFA_def_cfa_offset: 16
  DW_CFA_advance_loc: 2 to 000000000042e4ed
  DW_CFA_def_cfa_offset: 8
  DW_CFA_advance_loc: 5 to 000000000042e4f2
  DW_CFA_restore_state
  DW_CFA_advance_loc: 46 to 000000000042e520
  DW_CFA_remember_state
  DW_CFA_def_cfa_offset: 56
  DW_CFA_advance_loc: 8 to 000000000042e528
  DW_CFA_def_cfa_offset: 48
  DW_CFA_advance_loc: 1 to 000000000042e529
  DW_CFA_def_cfa_offset: 40
  DW_CFA_advance_loc: 2 to 000000000042e52b
  DW_CFA_def_cfa_offset: 32
  DW_CFA_advance_loc: 2 to 000000000042e52d
  DW_CFA_def_cfa_offset: 24
  DW_CFA_advance_loc: 2 to 000000000042e52f
  DW_CFA_def_cfa_offset: 16
  DW_CFA_advance_loc: 2 to 000000000042e531
  DW_CFA_def_cfa_offset: 8
  DW_CFA_advance_loc: 5 to 000000000042e536
  DW_CFA_restore_state
  DW_CFA_advance_loc: 56 to 000000000042e56e
  DW_CFA_remember_state
  DW_CFA_def_cfa_offset: 56
  DW_CFA_advance_loc: 8 to 000000000042e576
  DW_CFA_def_cfa_offset: 48
  DW_CFA_advance_loc: 1 to 000000000042e577
  DW_CFA_def_cfa_offset: 40
  DW_CFA_advance_loc: 2 to 000000000042e579
  DW_CFA_def_cfa_offset: 32
  DW_CFA_advance_loc: 2 to 000000000042e57b
  DW_CFA_def_cfa_offset: 24
  DW_CFA_advance_loc: 2 to 000000000042e57d
  DW_CFA_def_cfa_offset: 16
  DW_CFA_advance_loc: 2 to 000000000042e57f
  DW_CFA_def_cfa_offset: 8
  DW_CFA_advance_loc: 5 to 000000000042e584
  DW_CFA_restore_state
  DW_CFA_advance_loc: 46 to 000000000042e5b2
  DW_CFA_remember_state
  DW_CFA_def_cfa_offset: 56
  DW_CFA_advance_loc: 8 to 000000000042e5ba
  DW_CFA_def_cfa_offset: 48
  DW_CFA_advance_loc: 1 to 000000000042e5bb
  DW_CFA_def_cfa_offset: 40
  DW_CFA_advance_loc: 2 to 000000000042e5bd
  DW_CFA_def_cfa_offset: 32
  DW_CFA_advance_loc: 2 to 000000000042e5bf
  DW_CFA_def_cfa_offset: 24
  DW_CFA_advance_loc: 2 to 000000000042e5c1
  DW_CFA_def_cfa_offset: 16
  DW_CFA_advance_loc: 2 to 000000000042e5c3
  DW_CFA_def_cfa_offset: 8
  DW_CFA_advance_loc: 5 to 000000000042e5c8
  DW_CFA_restore_state
  DW_CFA_advance_loc: 56 to 000000000042e600
  DW_CFA_remember_state
  DW_CFA_def_cfa_offset: 56
  DW_CFA_advance_loc: 8 to 000000000042e608
  DW_CFA_def_cfa_offset: 48
  DW_CFA_advance_loc: 1 to 000000000042e609
  DW_CFA_def_cfa_offset: 40
  DW_CFA_advance_loc: 2 to 000000000042e60b
  DW_CFA_def_cfa_offset: 32
  DW_CFA_advance_loc: 2 to 000000000042e60d
  DW_CFA_def_cfa_offset: 24
  DW_CFA_advance_loc: 2 to 000000000042e60f
  DW_CFA_def_cfa_offset: 16
  DW_CFA_advance_loc: 2 to 000000000042e611
  DW_CFA_def_cfa_offset: 8
  DW_CFA_advance_loc: 5 to 000000000042e616
  DW_CFA_restore_state
  DW_CFA_advance_loc: 46 to 000000000042e644
  DW_CFA_remember_state
  DW_CFA_def_cfa_offset: 56
  DW_CFA_advance_loc: 8 to 000000000042e64c
  DW_CFA_def_cfa_offset: 48
  DW_CFA_advance_loc: 1 to 000000000042e64d
  DW_CFA_def_cfa_offset: 40
  DW_CFA_advance_loc: 2 to 000000000042e64f
  DW_CFA_def_cfa_offset: 32
  DW_CFA_advance_loc: 2 to 000000000042e651
  DW_CFA_def_cfa_offset: 24
  DW_CFA_advance_loc: 2 to 000000000042e653
  DW_CFA_def_cfa_offset: 16
  DW_CFA_advance_loc: 2 to 000000000042e655
  DW_CFA_def_cfa_offset: 8
  DW_CFA_advance_loc: 5 to 000000000042e65a
  DW_CFA_restore_state
  DW_CFA_advance_loc: 56 to 000000000042e692
  DW_CFA_remember_state
  DW_CFA_def_cfa_offset: 56
  DW_CFA_advance_loc: 8 to 000000000042e69a
  DW_CFA_def_cfa_offset: 48
  DW_CFA_advance_loc: 1 to 000000000042e69b
  DW_CFA_def_cfa_offset: 40
  DW_CFA_advance_loc: 2 to 000000000042e69d
  DW_CFA_def_cfa_offset: 32
  DW_CFA_advance_loc: 2 to 000000000042e69f
  DW_CFA_def_cfa_offset: 24
  DW_CFA_advance_loc: 2 to 000000000042e6a1
  DW_CFA_def_cfa_offset: 16
  DW_CFA_advance_loc: 2 to 000000000042e6a3
  DW_CFA_def_cfa_offset: 8
  DW_CFA_advance_loc: 5 to 000000000042e6a8
  DW_CFA_restore_state
  DW_CFA_advance_loc: 46 to 000000000042e6d6
  DW_CFA_remember_state
  DW_CFA_def_cfa_offset: 56
  DW_CFA_advance_loc: 8 to 000000000042e6de
  DW_CFA_def_cfa_offset: 48
  DW_CFA_advance_loc: 1 to 000000000042e6df
  DW_CFA_def_cfa_offset: 40
  DW_CFA_advance_loc: 2 to 000000000042e6e1
  DW_CFA_def_cfa_offset: 32
  DW_CFA_advance_loc: 2 to 000000000042e6e3
  DW_CFA_def_cfa_offset: 24
  DW_CFA_advance_loc: 2 to 000000000042e6e5
  DW_CFA_def_cfa_offset: 16
  DW_CFA_advance_loc: 2 to 000000000042e6e7
  DW_CFA_def_cfa_offset: 8
  DW_CFA_advance_loc: 5 to 000000000042e6ec
  DW_CFA_restore_state
  DW_CFA_advance_loc: 56 to 000000000042e724
  DW_CFA_remember_state
  DW_CFA_def_cfa_offset: 56
  DW_CFA_advance_loc: 8 to 000000000042e72c
  DW_CFA_def_cfa_offset: 48
  DW_CFA_advance_loc: 1 to 000000000042e72d
  DW_CFA_def_cfa_offset: 40
  DW_CFA_advance_loc: 2 to 000000000042e72f
  DW_CFA_def_cfa_offset: 32
  DW_CFA_advance_loc: 2 to 000000000042e731
  DW_CFA_def_cfa_offset: 24
  DW_CFA_advance_loc: 2 to 000000000042e733
  DW_CFA_def_cfa_offset: 16
  DW_CFA_advance_loc: 2 to 000000000042e735
  DW_CFA_def_cfa_offset: 8
  DW_CFA_advance_loc: 5 to 000000000042e73a
  DW_CFA_restore_state
  DW_CFA_advance_loc: 46 to 000000000042e768
  DW_CFA_remember_state
  DW_CFA_def_cfa_offset: 56
  DW_CFA_advance_loc: 8 to 000000000042e770
  DW_CFA_def_cfa_offset: 48
  DW_CFA_advance_loc: 1 to 000000000042e771
  DW_CFA_def_cfa_offset: 40
  DW_CFA_advance_loc: 2 to 000000000042e773
  DW_CFA_def_cfa_offset: 32
  DW_CFA_advance_loc: 2 to 000000000042e775
  DW_CFA_def_cfa_offset: 24
  DW_CFA_advance_loc: 2 to 000000000042e777
  DW_CFA_def_cfa_offset: 16
  DW_CFA_advance_loc: 2 to 000000000042e779
  DW_CFA_def_cfa_offset: 8
  DW_CFA_advance_loc: 5 to 000000000042e77e
  DW_CFA_restore_state
  DW_CFA_advance_loc: 56 to 000000000042e7b6
  DW_CFA_remember_state
  DW_CFA_def_cfa_offset: 56
  DW_CFA_advance_loc: 8 to 000000000042e7be
  DW_CFA_def_cfa_offset: 48
  DW_CFA_advance_loc: 1 to 000000000042e7bf
  DW_CFA_def_cfa_offset: 40
  DW_CFA_advance_loc: 2 to 000000000042e7c1
  DW_CFA_def_cfa_offset: 32
  DW_CFA_advance_loc: 2 to 000000000042e7c3
  DW_CFA_def_cfa_offset: 24
  DW_CFA_advance_loc: 2 to 000000000042e7c5
  DW_CFA_def_cfa_offset: 16
  DW_CFA_advance_loc: 2 to 000000000042e7c7
  DW_CFA_def_cfa_offset: 8
  DW_CFA_advance_loc: 5 to 000000000042e7cc
  DW_CFA_restore_state
  DW_CFA_advance_loc: 46 to 000000000042e7fa
  DW_CFA_remember_state
  DW_CFA_def_cfa_offset: 56
  DW_CFA_advance_loc: 8 to 000000000042e802
  DW_CFA_def_cfa_offset: 48
  DW_CFA_advance_loc: 1 to 000000000042e803
  DW_CFA_def_cfa_offset: 40
  DW_CFA_advance_loc: 2 to 000000000042e805
  DW_CFA_def_cfa_offset: 32
  DW_CFA_advance_loc: 2 to 000000000042e807
  DW_CFA_def_cfa_offset: 24
  DW_CFA_advance_loc: 2 to 000000000042e809
  DW_CFA_def_cfa_offset: 16
  DW_CFA_advance_loc: 2 to 000000000042e80b
  DW_CFA_def_cfa_offset: 8
  DW_CFA_advance_loc: 5 to 000000000042e810
  DW_CFA_restore_state
  DW_CFA_advance_loc: 56 to 000000000042e848
  DW_CFA_remember_state
  DW_CFA_def_cfa_offset: 56
  DW_CFA_advance_loc: 8 to 000000000042e850
  DW_CFA_def_cfa_offset: 48
  DW_CFA_advance_loc: 1 to 000000000042e851
  DW_CFA_def_cfa_offset: 40
  DW_CFA_advance_loc: 2 to 000000000042e853
  DW_CFA_def_cfa_offset: 32
  DW_CFA_advance_loc: 2 to 000000000042e855
  DW_CFA_def_cfa_offset: 24
  DW_CFA_advance_loc: 2 to 000000000042e857
  DW_CFA_def_cfa_offset: 16
  DW_CFA_advance_loc: 2 to 000000000042e859
  DW_CFA_def_cfa_offset: 8
  DW_CFA_advance_loc: 5 to 000000000042e85e
  DW_CFA_restore_state
  DW_CFA_advance_loc: 46 to 000000000042e88c
  DW_CFA_remember_state
  DW_CFA_def_cfa_offset: 56
  DW_CFA_advance_loc: 8 to 000000000042e894
  DW_CFA_def_cfa_offset: 48
  DW_CFA_advance_loc: 1 to 000000000042e895
  DW_CFA_def_cfa_offset: 40
  DW_CFA_advance_loc: 2 to 000000000042e897
  DW_CFA_def_cfa_offset: 32
  DW_CFA_advance_loc: 2 to 000000000042e899
  DW_CFA_def_cfa_offset: 24
  DW_CFA_advance_loc: 2 to 000000000042e89b
  DW_CFA_def_cfa_offset: 16
  DW_CFA_advance_loc: 2 to 000000000042e89d
  DW_CFA_def_cfa_offset: 8
  DW_CFA_advance_loc: 5 to 000000000042e8a2
  DW_CFA_restore_state
  DW_CFA_advance_loc: 56 to 000000000042e8da
  DW_CFA_remember_state
  DW_CFA_def_cfa_offset: 56
  DW_CFA_advance_loc: 8 to 000000000042e8e2
  DW_CFA_def_cfa_offset: 48
  DW_CFA_advance_loc: 1 to 000000000042e8e3
  DW_CFA_def_cfa_offset: 40
  DW_CFA_advance_loc: 2 to 000000000042e8e5
  DW_CFA_def_cfa_offset: 32
  DW_CFA_advance_loc: 2 to 000000000042e8e7
  DW_CFA_def_cfa_offset: 24
  DW_CFA_advance_loc: 2 to 000000000042e8e9
  DW_CFA_def_cfa_offset: 16
  DW_CFA_advance_loc: 2 to 000000000042e8eb
  DW_CFA_def_cfa_offset: 8
  DW_CFA_advance_loc: 5 to 000000000042e8f0
  DW_CFA_restore_state
  DW_CFA_advance_loc: 46 to 000000000042e91e
  DW_CFA_remember_state
  DW_CFA_def_cfa_offset: 56
  DW_CFA_advance_loc: 8 to 000000000042e926
  DW_CFA_def_cfa_offset: 48
  DW_CFA_advance_loc: 1 to 000000000042e927
  DW_CFA_def_cfa_offset: 40
  DW_CFA_advance_loc: 2 to 000000000042e929
  DW_CFA_def_cfa_offset: 32
  DW_CFA_advance_loc: 2 to 000000000042e92b
  DW_CFA_def_cfa_offset: 24
  DW_CFA_advance_loc: 2 to 000000000042e92d
  DW_CFA_def_cfa_offset: 16
  DW_CFA_advance_loc: 2 to 000000000042e92f
  DW_CFA_def_cfa_offset: 8
  DW_CFA_advance_loc: 5 to 000000000042e934
  DW_CFA_restore_state
  DW_CFA_advance_loc: 56 to 000000000042e96c
  DW_CFA_remember_state
  DW_CFA_def_cfa_offset: 56
  DW_CFA_advance_loc: 8 to 000000000042e974
  DW_CFA_def_cfa_offset: 48
  DW_CFA_advance_loc: 1 to 000000000042e975
  DW_CFA_def_cfa_offset: 40
  DW_CFA_advance_loc: 2 to 000000000042e977
  DW_CFA_def_cfa_offset: 32
  DW_CFA_advance_loc: 2 to 000000000042e979
  DW_CFA_def_cfa_offset: 24
  DW_CFA_advance_loc: 2 to 000000000042e97b
  DW_CFA_def_cfa_offset: 16
  DW_CFA_advance_loc: 2 to 000000000042e97d
  DW_CFA_def_cfa_offset: 8
  DW_CFA_advance_loc: 5 to 000000000042e982
  DW_CFA_restore_state
  DW_CFA_advance_loc: 46 to 000000000042e9b0
  DW_CFA_remember_state
  DW_CFA_def_cfa_offset: 56
  DW_CFA_advance_loc: 8 to 000000000042e9b8
  DW_CFA_def_cfa_offset: 48
  DW_CFA_advance_loc: 1 to 000000000042e9b9
  DW_CFA_def_cfa_offset: 40
  DW_CFA_advance_loc: 2 to 000000000042e9bb
  DW_CFA_def_cfa_offset: 32
  DW_CFA_advance_loc: 2 to 000000000042e9bd
  DW_CFA_def_cfa_offset: 24
  DW_CFA_advance_loc: 2 to 000000000042e9bf
  DW_CFA_def_cfa_offset: 16
  DW_CFA_advance_loc: 2 to 000000000042e9c1
  DW_CFA_def_cfa_offset: 8
  DW_CFA_advance_loc: 5 to 000000000042e9c6
  DW_CFA_restore_state
  DW_CFA_advance_loc: 56 to 000000000042e9fe
  DW_CFA_remember_state
  DW_CFA_def_cfa_offset: 56
  DW_CFA_advance_loc: 8 to 000000000042ea06
  DW_CFA_def_cfa_offset: 48
  DW_CFA_advance_loc: 1 to 000000000042ea07
  DW_CFA_def_cfa_offset: 40
  DW_CFA_advance_loc: 2 to 000000000042ea09
  DW_CFA_def_cfa_offset: 32
  DW_CFA_advance_loc: 2 to 000000000042ea0b
  DW_CFA_def_cfa_offset: 24
  DW_CFA_advance_loc: 2 to 000000000042ea0d
  DW_CFA_def_cfa_offset: 16
  DW_CFA_advance_loc: 2 to 000000000042ea0f
  DW_CFA_def_cfa_offset: 8
  DW_CFA_advance_loc: 5 to 000000000042ea14
  DW_CFA_restore_state
  DW_CFA_advance_loc: 46 to 000000000042ea42
  DW_CFA_remember_state
  DW_CFA_def_cfa_offset: 56
  DW_CFA_advance_loc: 8 to 000000000042ea4a
  DW_CFA_def_cfa_offset: 48
  DW_CFA_advance_loc: 1 to 000000000042ea4b
  DW_CFA_def_cfa_offset: 40
  DW_CFA_advance_loc: 2 to 000000000042ea4d
  DW_CFA_def_cfa_offset: 32
  DW_CFA_advance_loc: 2 to 000000000042ea4f
  DW_CFA_def_cfa_offset: 24
  DW_CFA_advance_loc: 2 to 000000000042ea51
  DW_CFA_def_cfa_offset: 16
  DW_CFA_advance_loc: 2 to 000000000042ea53
  DW_CFA_def_cfa_offset: 8
  DW_CFA_advance_loc: 5 to 000000000042ea58
  DW_CFA_restore_state
  DW_CFA_advance_loc: 56 to 000000000042ea90
  DW_CFA_remember_state
  DW_CFA_def_cfa_offset: 56
  DW_CFA_advance_loc: 8 to 000000000042ea98
  DW_CFA_def_cfa_offset: 48
  DW_CFA_advance_loc: 1 to 000000000042ea99
  DW_CFA_def_cfa_offset: 40
  DW_CFA_advance_loc: 2 to 000000000042ea9b
  DW_CFA_def_cfa_offset: 32
  DW_CFA_advance_loc: 2 to 000000000042ea9d
  DW_CFA_def_cfa_offset: 24
  DW_CFA_advance_loc: 2 to 000000000042ea9f
  DW_CFA_def_cfa_offset: 16
  DW_CFA_advance_loc: 2 to 000000000042eaa1
  DW_CFA_def_cfa_offset: 8
  DW_CFA_advance_loc: 5 to 000000000042eaa6
  DW_CFA_restore_state
  DW_CFA_advance_loc: 46 to 000000000042ead4
  DW_CFA_remember_state
  DW_CFA_def_cfa_offset: 56
  DW_CFA_advance_loc: 8 to 000000000042eadc
  DW_CFA_def_cfa_offset: 48
  DW_CFA_advance_loc: 1 to 000000000042eadd
  DW_CFA_def_cfa_offset: 40
  DW_CFA_advance_loc: 2 to 000000000042eadf
  DW_CFA_def_cfa_offset: 32
  DW_CFA_advance_loc: 2 to 000000000042eae1
  DW_CFA_def_cfa_offset: 24
  DW_CFA_advance_loc: 2 to 000000000042eae3
  DW_CFA_def_cfa_offset: 16
  DW_CFA_advance_loc: 2 to 000000000042eae5
  DW_CFA_def_cfa_offset: 8
  DW_CFA_advance_loc: 5 to 000000000042eaea
  DW_CFA_restore_state
  DW_CFA_advance_loc: 56 to 000000000042eb22
  DW_CFA_remember_state
  DW_CFA_def_cfa_offset: 56
  DW_CFA_advance_loc: 8 to 000000000042eb2a
  DW_CFA_def_cfa_offset: 48
  DW_CFA_advance_loc: 1 to 000000000042eb2b
  DW_CFA_def_cfa_offset: 40
  DW_CFA_advance_loc: 2 to 000000000042eb2d
  DW_CFA_def_cfa_offset: 32
  DW_CFA_advance_loc: 2 to 000000000042eb2f
  DW_CFA_def_cfa_offset: 24
  DW_CFA_advance_loc: 2 to 000000000042eb31
  DW_CFA_def_cfa_offset: 16
  DW_CFA_advance_loc: 2 to 000000000042eb33
  DW_CFA_def_cfa_offset: 8
  DW_CFA_advance_loc: 5 to 000000000042eb38
  DW_CFA_restore_state
  DW_CFA_advance_loc: 46 to 000000000042eb66
  DW_CFA_remember_state
  DW_CFA_def_cfa_offset: 56
  DW_CFA_advance_loc: 8 to 000000000042eb6e
  DW_CFA_def_cfa_offset: 48
  DW_CFA_advance_loc: 1 to 000000000042eb6f
  DW_CFA_def_cfa_offset: 40
  DW_CFA_advance_loc: 2 to 000000000042eb71
  DW_CFA_def_cfa_offset: 32
  DW_CFA_advance_loc: 2 to 000000000042eb73
  DW_CFA_def_cfa_offset: 24
  DW_CFA_advance_loc: 2 to 000000000042eb75
  DW_CFA_def_cfa_offset: 16
  DW_CFA_advance_loc: 2 to 000000000042eb77
  DW_CFA_def_cfa_offset: 8
  DW_CFA_advance_loc: 5 to 000000000042eb7c
  DW_CFA_restore_state
  DW_CFA_advance_loc: 56 to 000000000042ebb4
  DW_CFA_remember_state
  DW_CFA_def_cfa_offset: 56
  DW_CFA_advance_loc: 8 to 000000000042ebbc
  DW_CFA_def_cfa_offset: 48
  DW_CFA_advance_loc: 1 to 000000000042ebbd
  DW_CFA_def_cfa_offset: 40
  DW_CFA_advance_loc: 2 to 000000000042ebbf
  DW_CFA_def_cfa_offset: 32
  DW_CFA_advance_loc: 2 to 000000000042ebc1
  DW_CFA_def_cfa_offset: 24
  DW_CFA_advance_loc: 2 to 000000000042ebc3
  DW_CFA_def_cfa_offset: 16
  DW_CFA_advance_loc: 2 to 000000000042ebc5
  DW_CFA_def_cfa_offset: 8
  DW_CFA_advance_loc: 5 to 000000000042ebca
  DW_CFA_restore_state
  DW_CFA_advance_loc: 46 to 000000000042ebf8
  DW_CFA_remember_state
  DW_CFA_def_cfa_offset: 56
  DW_CFA_advance_loc: 8 to 000000000042ec00
  DW_CFA_def_cfa_offset: 48
  DW_CFA_advance_loc: 1 to 000000000042ec01
  DW_CFA_def_cfa_offset: 40
  DW_CFA_advance_loc: 2 to 000000000042ec03
  DW_CFA_def_cfa_offset: 32
  DW_CFA_advance_loc: 2 to 000000000042ec05
  DW_CFA_def_cfa_offset: 24
  DW_CFA_advance_loc: 2 to 000000000042ec07
  DW_CFA_def_cfa_offset: 16
  DW_CFA_advance_loc: 2 to 000000000042ec09
  DW_CFA_def_cfa_offset: 8
  DW_CFA_advance_loc: 5 to 000000000042ec0e
  DW_CFA_restore_state
  DW_CFA_advance_loc: 56 to 000000000042ec46
  DW_CFA_remember_state
  DW_CFA_def_cfa_offset: 56
  DW_CFA_advance_loc: 8 to 000000000042ec4e
  DW_CFA_def_cfa_offset: 48
  DW_CFA_advance_loc: 1 to 000000000042ec4f
  DW_CFA_def_cfa_offset: 40
  DW_CFA_advance_loc: 2 to 000000000042ec51
  DW_CFA_def_cfa_offset: 32
  DW_CFA_advance_loc: 2 to 000000000042ec53
  DW_CFA_def_cfa_offset: 24
  DW_CFA_advance_loc: 2 to 000000000042ec55
  DW_CFA_def_cfa_offset: 16
  DW_CFA_advance_loc: 2 to 000000000042ec57
  DW_CFA_def_cfa_offset: 8
  DW_CFA_advance_loc: 5 to 000000000042ec5c
  DW_CFA_restore_state
  DW_CFA_advance_loc: 46 to 000000000042ec8a
  DW_CFA_remember_state
  DW_CFA_def_cfa_offset: 56
  DW_CFA_advance_loc: 8 to 000000000042ec92
  DW_CFA_def_cfa_offset: 48
  DW_CFA_advance_loc: 1 to 000000000042ec93
  DW_CFA_def_cfa_offset: 40
  DW_CFA_advance_loc: 2 to 000000000042ec95
  DW_CFA_def_cfa_offset: 32
  DW_CFA_advance_loc: 2 to 000000000042ec97
  DW_CFA_def_cfa_offset: 24
  DW_CFA_advance_loc: 2 to 000000000042ec99
  DW_CFA_def_cfa_offset: 16
  DW_CFA_advance_loc: 2 to 000000000042ec9b
  DW_CFA_def_cfa_offset: 8
  DW_CFA_advance_loc: 5 to 000000000042eca0
  DW_CFA_restore_state
  DW_CFA_advance_loc: 56 to 000000000042ecd8
  DW_CFA_remember_state
  DW_CFA_def_cfa_offset: 56
  DW_CFA_advance_loc: 8 to 000000000042ece0
  DW_CFA_def_cfa_offset: 48
  DW_CFA_advance_loc: 1 to 000000000042ece1
  DW_CFA_def_cfa_offset: 40
  DW_CFA_advance_loc: 2 to 000000000042ece3
  DW_CFA_def_cfa_offset: 32
  DW_CFA_advance_loc: 2 to 000000000042ece5
  DW_CFA_def_cfa_offset: 24
  DW_CFA_advance_loc: 2 to 000000000042ece7
  DW_CFA_def_cfa_offset: 16
  DW_CFA_advance_loc: 2 to 000000000042ece9
  DW_CFA_def_cfa_offset: 8
  DW_CFA_advance_loc: 5 to 000000000042ecee
  DW_CFA_restore_state
  DW_CFA_advance_loc: 46 to 000000000042ed1c
  DW_CFA_remember_state
  DW_CFA_def_cfa_offset: 56
  DW_CFA_advance_loc: 8 to 000000000042ed24
  DW_CFA_def_cfa_offset: 48
  DW_CFA_advance_loc: 1 to 000000000042ed25
  DW_CFA_def_cfa_offset: 40
  DW_CFA_advance_loc: 2 to 000000000042ed27
  DW_CFA_def_cfa_offset: 32
  DW_CFA_advance_loc: 2 to 000000000042ed29
  DW_CFA_def_cfa_offset: 24
  DW_CFA_advance_loc: 2 to 000000000042ed2b
  DW_CFA_def_cfa_offset: 16
  DW_CFA_advance_loc: 2 to 000000000042ed2d
  DW_CFA_def_cfa_offset: 8
  DW_CFA_advance_loc: 5 to 000000000042ed32
  DW_CFA_restore_state
  DW_CFA_advance_loc: 56 to 000000000042ed6a
  DW_CFA_remember_state
  DW_CFA_def_cfa_offset: 56
  DW_CFA_advance_loc: 8 to 000000000042ed72
  DW_CFA_def_cfa_offset: 48
  DW_CFA_advance_loc: 1 to 000000000042ed73
  DW_CFA_def_cfa_offset: 40
  DW_CFA_advance_loc: 2 to 000000000042ed75
  DW_CFA_def_cfa_offset: 32
  DW_CFA_advance_loc: 2 to 000000000042ed77
  DW_CFA_def_cfa_offset: 24
  DW_CFA_advance_loc: 2 to 000000000042ed79
  DW_CFA_def_cfa_offset: 16
  DW_CFA_advance_loc: 2 to 000000000042ed7b
  DW_CFA_def_cfa_offset: 8
  DW_CFA_advance_loc: 5 to 000000000042ed80
  DW_CFA_restore_state
  DW_CFA_advance_loc: 46 to 000000000042edae
  DW_CFA_remember_state
  DW_CFA_def_cfa_offset: 56
  DW_CFA_advance_loc: 8 to 000000000042edb6
  DW_CFA_def_cfa_offset: 48
  DW_CFA_advance_loc: 1 to 000000000042edb7
  DW_CFA_def_cfa_offset: 40
  DW_CFA_advance_loc: 2 to 000000000042edb9
  DW_CFA_def_cfa_offset: 32
  DW_CFA_advance_loc: 2 to 000000000042edbb
  DW_CFA_def_cfa_offset: 24
  DW_CFA_advance_loc: 2 to 000000000042edbd
  DW_CFA_def_cfa_offset: 16
  DW_CFA_advance_loc: 2 to 000000000042edbf
  DW_CFA_def_cfa_offset: 8
  DW_CFA_advance_loc: 5 to 000000000042edc4
  DW_CFA_restore_state
  DW_CFA_advance_loc: 56 to 000000000042edfc
  DW_CFA_remember_state
  DW_CFA_def_cfa_offset: 56
  DW_CFA_advance_loc: 8 to 000000000042ee04
  DW_CFA_def_cfa_offset: 48
  DW_CFA_advance_loc: 1 to 000000000042ee05
  DW_CFA_def_cfa_offset: 40
  DW_CFA_advance_loc: 2 to 000000000042ee07
  DW_CFA_def_cfa_offset: 32
  DW_CFA_advance_loc: 2 to 000000000042ee09
  DW_CFA_def_cfa_offset: 24
  DW_CFA_advance_loc: 2 to 000000000042ee0b
  DW_CFA_def_cfa_offset: 16
  DW_CFA_advance_loc: 2 to 000000000042ee0d
  DW_CFA_def_cfa_offset: 8
  DW_CFA_advance_loc: 5 to 000000000042ee12
  DW_CFA_restore_state
  DW_CFA_advance_loc: 46 to 000000000042ee40
  DW_CFA_remember_state
  DW_CFA_def_cfa_offset: 56
  DW_CFA_advance_loc: 8 to 000000000042ee48
  DW_CFA_def_cfa_offset: 48
  DW_CFA_advance_loc: 1 to 000000000042ee49
  DW_CFA_def_cfa_offset: 40
  DW_CFA_advance_loc: 2 to 000000000042ee4b
  DW_CFA_def_cfa_offset: 32
  DW_CFA_advance_loc: 2 to 000000000042ee4d
  DW_CFA_def_cfa_offset: 24
  DW_CFA_advance_loc: 2 to 000000000042ee4f
  DW_CFA_def_cfa_offset: 16
  DW_CFA_advance_loc: 2 to 000000000042ee51
  DW_CFA_def_cfa_offset: 8
  DW_CFA_advance_loc: 5 to 000000000042ee56
  DW_CFA_restore_state
  DW_CFA_advance_loc: 56 to 000000000042ee8e
  DW_CFA_remember_state
  DW_CFA_def_cfa_offset: 56
  DW_CFA_advance_loc: 8 to 000000000042ee96
  DW_CFA_def_cfa_offset: 48
  DW_CFA_advance_loc: 1 to 000000000042ee97
  DW_CFA_def_cfa_offset: 40
  DW_CFA_advance_loc: 2 to 000000000042ee99
  DW_CFA_def_cfa_offset: 32
  DW_CFA_advance_loc: 2 to 000000000042ee9b
  DW_CFA_def_cfa_offset: 24
  DW_CFA_advance_loc: 2 to 000000000042ee9d
  DW_CFA_def_cfa_offset: 16
  DW_CFA_advance_loc: 2 to 000000000042ee9f
  DW_CFA_def_cfa_offset: 8
  DW_CFA_advance_loc: 5 to 000000000042eea4
  DW_CFA_restore_state
  DW_CFA_advance_loc: 46 to 000000000042eed2
  DW_CFA_remember_state
  DW_CFA_def_cfa_offset: 56
  DW_CFA_advance_loc: 8 to 000000000042eeda
  DW_CFA_def_cfa_offset: 48
  DW_CFA_advance_loc: 1 to 000000000042eedb
  DW_CFA_def_cfa_offset: 40
  DW_CFA_advance_loc: 2 to 000000000042eedd
  DW_CFA_def_cfa_offset: 32
  DW_CFA_advance_loc: 2 to 000000000042eedf
  DW_CFA_def_cfa_offset: 24
  DW_CFA_advance_loc: 2 to 000000000042eee1
  DW_CFA_def_cfa_offset: 16
  DW_CFA_advance_loc: 2 to 000000000042eee3
  DW_CFA_def_cfa_offset: 8
  DW_CFA_advance_loc: 5 to 000000000042eee8
  DW_CFA_restore_state
  DW_CFA_advance_loc: 56 to 000000000042ef20
  DW_CFA_remember_state
  DW_CFA_def_cfa_offset: 56
  DW_CFA_advance_loc: 8 to 000000000042ef28
  DW_CFA_def_cfa_offset: 48
  DW_CFA_advance_loc: 1 to 000000000042ef29
  DW_CFA_def_cfa_offset: 40
  DW_CFA_advance_loc: 2 to 000000000042ef2b
  DW_CFA_def_cfa_offset: 32
  DW_CFA_advance_loc: 2 to 000000000042ef2d
  DW_CFA_def_cfa_offset: 24
  DW_CFA_advance_loc: 2 to 000000000042ef2f
  DW_CFA_def_cfa_offset: 16
  DW_CFA_advance_loc: 2 to 000000000042ef31
  DW_CFA_def_cfa_offset: 8
  DW_CFA_advance_loc: 5 to 000000000042ef36
  DW_CFA_restore_state
  DW_CFA_advance_loc: 46 to 000000000042ef64
  DW_CFA_remember_state
  DW_CFA_def_cfa_offset: 56
  DW_CFA_advance_loc: 8 to 000000000042ef6c
  DW_CFA_def_cfa_offset: 48
  DW_CFA_advance_loc: 1 to 000000000042ef6d
  DW_CFA_def_cfa_offset: 40
  DW_CFA_advance_loc: 2 to 000000000042ef6f
  DW_CFA_def_cfa_offset: 32
  DW_CFA_advance_loc: 2 to 000000000042ef71
  DW_CFA_def_cfa_offset: 24
  DW_CFA_advance_loc: 2 to 000000000042ef73
  DW_CFA_def_cfa_offset: 16
  DW_CFA_advance_loc: 2 to 000000000042ef75
  DW_CFA_def_cfa_offset: 8
  DW_CFA_advance_loc: 5 to 000000000042ef7a
  DW_CFA_restore_state
  DW_CFA_advance_loc: 56 to 000000000042efb2
  DW_CFA_remember_state
  DW_CFA_def_cfa_offset: 56
  DW_CFA_advance_loc: 8 to 000000000042efba
  DW_CFA_def_cfa_offset: 48
  DW_CFA_advance_loc: 1 to 000000000042efbb
  DW_CFA_def_cfa_offset: 40
  DW_CFA_advance_loc: 2 to 000000000042efbd
  DW_CFA_def_cfa_offset: 32
  DW_CFA_advance_loc: 2 to 000000000042efbf
  DW_CFA_def_cfa_offset: 24
  DW_CFA_advance_loc: 2 to 000000000042efc1
  DW_CFA_def_cfa_offset: 16
  DW_CFA_advance_loc: 2 to 000000000042efc3
  DW_CFA_def_cfa_offset: 8
  DW_CFA_advance_loc: 5 to 000000000042efc8
  DW_CFA_restore_state
  DW_CFA_advance_loc: 46 to 000000000042eff6
  DW_CFA_remember_state
  DW_CFA_def_cfa_offset: 56
  DW_CFA_advance_loc: 8 to 000000000042effe
  DW_CFA_def_cfa_offset: 48
  DW_CFA_advance_loc: 1 to 000000000042efff
  DW_CFA_def_cfa_offset: 40
  DW_CFA_advance_loc: 2 to 000000000042f001
  DW_CFA_def_cfa_offset: 32
  DW_CFA_advance_loc: 2 to 000000000042f003
  DW_CFA_def_cfa_offset: 24
  DW_CFA_advance_loc: 2 to 000000000042f005
  DW_CFA_def_cfa_offset: 16
  DW_CFA_advance_loc: 2 to 000000000042f007
  DW_CFA_def_cfa_offset: 8
  DW_CFA_advance_loc: 5 to 000000000042f00c
  DW_CFA_restore_state
  DW_CFA_advance_loc: 56 to 000000000042f044
  DW_CFA_remember_state
  DW_CFA_def_cfa_offset: 56
  DW_CFA_advance_loc: 8 to 000000000042f04c
  DW_CFA_def_cfa_offset: 48
  DW_CFA_advance_loc: 1 to 000000000042f04d
  DW_CFA_def_cfa_offset: 40
  DW_CFA_advance_loc: 2 to 000000000042f04f
  DW_CFA_def_cfa_offset: 32
  DW_CFA_advance_loc: 2 to 000000000042f051
  DW_CFA_def_cfa_offset: 24
  DW_CFA_advance_loc: 2 to 000000000042f053
  DW_CFA_def_cfa_offset: 16
  DW_CFA_advance_loc: 2 to 000000000042f055
  DW_CFA_def_cfa_offset: 8
  DW_CFA_advance_loc: 5 to 000000000042f05a
  DW_CFA_restore_state
  DW_CFA_advance_loc: 46 to 000000000042f088
  DW_CFA_remember_state
  DW_CFA_def_cfa_offset: 56
  DW_CFA_advance_loc: 8 to 000000000042f090
  DW_CFA_def_cfa_offset: 48
  DW_CFA_advance_loc: 1 to 000000000042f091
  DW_CFA_def_cfa_offset: 40
  DW_CFA_advance_loc: 2 to 000000000042f093
  DW_CFA_def_cfa_offset: 32
  DW_CFA_advance_loc: 2 to 000000000042f095
  DW_CFA_def_cfa_offset: 24
  DW_CFA_advance_loc: 2 to 000000000042f097
  DW_CFA_def_cfa_offset: 16
  DW_CFA_advance_loc: 2 to 000000000042f099
  DW_CFA_def_cfa_offset: 8
