  400796:	00 00                	add    BYTE PTR [rax],al
  400798:	4e 00 00             	rex.WRX add BYTE PTR [rax],r8b
  40079b:	00 31                	add    BYTE PTR [rcx],dh
  40079d:	00 00                	add    BYTE PTR [rax],al
  40079f:	00 00                	add    BYTE PTR [rax],al
  4007a1:	00 00                	add    BYTE PTR [rax],al
  4007a3:	00 d9                	add    cl,bl
  4007a5:	00 00                	add    BYTE PTR [rax],al
  4007a7:	00 00                	add    BYTE PTR [rax],al
  4007a9:	00 00                	add    BYTE PTR [rax],al
  4007ab:	00 1a                	add    BYTE PTR [rdx],bl
	...
  4007c5:	00 00                	add    BYTE PTR [rax],al
  4007c7:	00 d8                	add    al,bl
	...
  4007d5:	00 00                	add    BYTE PTR [rax],al
  4007d7:	00 57 00             	add    BYTE PTR [rdi+0x0],dl
	...
  4007e6:	00 00                	add    BYTE PTR [rax],al
  4007e8:	3e 00 00             	ds add BYTE PTR [rax],al
  4007eb:	00 5e 00             	add    BYTE PTR [rsi+0x0],bl
	...
  4007f6:	00 00                	add    BYTE PTR [rax],al
  4007f8:	45 00 00             	add    BYTE PTR [r8],r8b
  4007fb:	00 63 00             	add    BYTE PTR [rbx+0x0],ah
	...
  400806:	00 00                	add    BYTE PTR [rax],al
  400808:	1d 00 00 00 58       	sbb    eax,0x58000000
	...
  400825:	00 00                	add    BYTE PTR [rax],al
  400827:	00 67 00             	add    BYTE PTR [rdi+0x0],ah
  40082a:	00 00                	add    BYTE PTR [rax],al
  40082c:	65 00 00             	add    BYTE PTR gs:[rax],al
	...
  400837:	00 40 00             	add    BYTE PTR [rax+0x0],al
  40083a:	00 00                	add    BYTE PTR [rax],al
  40083c:	43 00 00             	rex.XB add BYTE PTR [r8],al
  40083f:	00 10                	add    BYTE PTR [rax],dl
  400841:	00 00                	add    BYTE PTR [rax],al
  400843:	00 5b 00             	add    BYTE PTR [rbx+0x0],bl
	...
  400852:	00 00                	add    BYTE PTR [rax],al
  400854:	79 00                	jns    400856 <__abi_tag+0x536>
  400856:	00 00                	add    BYTE PTR [rax],al
  400858:	0f 00 00             	sldt   WORD PTR [rax]
  40085b:	00 1c 00             	add    BYTE PTR [rax+rax*1],bl
  40085e:	00 00                	add    BYTE PTR [rax],al
  400860:	44 00 00             	add    BYTE PTR [rax],r8b
	...
  400873:	00 6a 00             	add    BYTE PTR [rdx+0x0],ch
  400876:	00 00                	add    BYTE PTR [rax],al
  400878:	00 00                	add    BYTE PTR [rax],al
  40087a:	00 00                	add    BYTE PTR [rax],al
  40087c:	0b 00                	or     eax,DWORD PTR [rax]
  40087e:	00 00                	add    BYTE PTR [rax],al
  400880:	69 00 00 00 00 00    	imul   eax,DWORD PTR [rax],0x0
	...
  40088e:	00 00                	add    BYTE PTR [rax],al
  400890:	72 00                	jb     400892 <__abi_tag+0x572>
  400892:	00 00                	add    BYTE PTR [rax],al
  400894:	00 00                	add    BYTE PTR [rax],al
  400896:	00 00                	add    BYTE PTR [rax],al
  400898:	07                   	(bad)  
  400899:	00 00                	add    BYTE PTR [rax],al
  40089b:	00 7d 00             	add    BYTE PTR [rbp+0x0],bh
  40089e:	00 00                	add    BYTE PTR [rax],al
  4008a0:	36 00 00             	ss add BYTE PTR [rax],al
  4008a3:	00 00                	add    BYTE PTR [rax],al
  4008a5:	00 00                	add    BYTE PTR [rax],al
  4008a7:	00 7a 00             	add    BYTE PTR [rdx+0x0],bh
  4008aa:	00 00                	add    BYTE PTR [rax],al
  4008ac:	2d 00 00 00 00       	sub    eax,0x0
  4008b1:	00 00                	add    BYTE PTR [rax],al
  4008b3:	00 00                	add    BYTE PTR [rax],al
  4008b5:	00 00                	add    BYTE PTR [rax],al
  4008b7:	00 73 00             	add    BYTE PTR [rbx+0x0],dh
  4008ba:	00 00                	add    BYTE PTR [rax],al
  4008bc:	28 00                	sub    BYTE PTR [rax],al
  4008be:	00 00                	add    BYTE PTR [rax],al
  4008c0:	00 00                	add    BYTE PTR [rax],al
  4008c2:	00 00                	add    BYTE PTR [rax],al
  4008c4:	3b 00                	cmp    eax,DWORD PTR [rax]
  4008c6:	00 00                	add    BYTE PTR [rax],al
  4008c8:	94                   	xchg   esp,eax
  4008c9:	00 00                	add    BYTE PTR [rax],al
  4008cb:	00 00                	add    BYTE PTR [rax],al
  4008cd:	00 00                	add    BYTE PTR [rax],al
  4008cf:	00 da                	add    dl,bl
  4008d1:	00 00                	add    BYTE PTR [rax],al
  4008d3:	00 6f 00             	add    BYTE PTR [rdi+0x0],ch
  4008d6:	00 00                	add    BYTE PTR [rax],al
  4008d8:	00 00                	add    BYTE PTR [rax],al
  4008da:	00 00                	add    BYTE PTR [rax],al
  4008dc:	48 00 00             	rex.W add BYTE PTR [rax],al
  4008df:	00 74 00 00          	add    BYTE PTR [rax+rax*1+0x0],dh
	...
  4008eb:	00 80 00 00 00 00    	add    BYTE PTR [rax+0x0],al
  4008f1:	00 00                	add    BYTE PTR [rax],al
  4008f3:	00 75 00             	add    BYTE PTR [rbp+0x0],dh
  4008f6:	00 00                	add    BYTE PTR [rax],al
  4008f8:	17                   	(bad)  
  4008f9:	00 00                	add    BYTE PTR [rax],al
  4008fb:	00 00                	add    BYTE PTR [rax],al
  4008fd:	00 00                	add    BYTE PTR [rax],al
  4008ff:	00 53 00             	add    BYTE PTR [rbx+0x0],dl
  400902:	00 00                	add    BYTE PTR [rax],al
  400904:	49 00 00             	rex.WB add BYTE PTR [r8],al
  400907:	00 93 00 00 00 95    	add    BYTE PTR [rbx-0x6b000000],dl
  40090d:	00 00                	add    BYTE PTR [rax],al
  40090f:	00 97 00 00 00 98    	add    BYTE PTR [rdi-0x68000000],dl
	...
  400929:	00 00                	add    BYTE PTR [rax],al
  40092b:	00 7f 00             	add    BYTE PTR [rdi+0x0],bh
  40092e:	00 00                	add    BYTE PTR [rax],al
  400930:	15 00 00 00 00       	adc    eax,0x0
  400935:	00 00                	add    BYTE PTR [rax],al
  400937:	00 00                	add    BYTE PTR [rax],al
  400939:	00 00                	add    BYTE PTR [rax],al
  40093b:	00 86 00 00 00 00    	add    BYTE PTR [rsi+0x0],al
  400941:	00 00                	add    BYTE PTR [rax],al
  400943:	00 00                	add    BYTE PTR [rax],al
  400945:	00 00                	add    BYTE PTR [rax],al
  400947:	00 39                	add    BYTE PTR [rcx],bh
	...
  400951:	00 00                	add    BYTE PTR [rax],al
  400953:	00 4a 00             	add    BYTE PTR [rdx+0x0],cl
	...
  40095e:	00 00                	add    BYTE PTR [rax],al
  400960:	29 00                	sub    DWORD PTR [rax],eax
  400962:	00 00                	add    BYTE PTR [rax],al
  400964:	00 00                	add    BYTE PTR [rax],al
  400966:	00 00                	add    BYTE PTR [rax],al
  400968:	9a                   	(bad)  
	...
  400971:	00 00                	add    BYTE PTR [rax],al
  400973:	00 41 00             	add    BYTE PTR [rcx+0x0],al
  400976:	00 00                	add    BYTE PTR [rax],al
  400978:	1f                   	(bad)  
  400979:	00 00                	add    BYTE PTR [rax],al
  40097b:	00 89 00 00 00 0d    	add    BYTE PTR [rcx+0xd000000],cl
  400981:	00 00                	add    BYTE PTR [rax],al
  400983:	00 12                	add    BYTE PTR [rdx],dl
  400985:	00 00                	add    BYTE PTR [rax],al
  400987:	00 00                	add    BYTE PTR [rax],al
  400989:	00 00                	add    BYTE PTR [rax],al
  40098b:	00 df                	add    bh,bl
  40098d:	00 00                	add    BYTE PTR [rax],al
  40098f:	00 00                	add    BYTE PTR [rax],al
  400991:	00 00                	add    BYTE PTR [rax],al
  400993:	00 91 00 00 00 00    	add    BYTE PTR [rcx+0x0],dl
  400999:	00 00                	add    BYTE PTR [rax],al
  40099b:	00 6d 00             	add    BYTE PTR [rbp+0x0],ch
  40099e:	00 00                	add    BYTE PTR [rax],al
  4009a0:	3c 00                	cmp    al,0x0
	...
  4009ae:	00 00                	add    BYTE PTR [rax],al
  4009b0:	87 00                	xchg   DWORD PTR [rax],eax
	...
  4009c2:	00 00                	add    BYTE PTR [rax],al
  4009c4:	2a 00                	sub    al,BYTE PTR [rax]
	...
  4009ce:	00 00                	add    BYTE PTR [rax],al
  4009d0:	09 00                	or     DWORD PTR [rax],eax
	...
  4009da:	00 00                	add    BYTE PTR [rax],al
  4009dc:	d5                   	(bad)  
  4009dd:	00 00                	add    BYTE PTR [rax],al
	...

Disassembly of section .init:

0000000000405000 <_init>:
  405000:	f3 0f 1e fa          	endbr64 
  405004:	48 83 ec 08          	sub    rsp,0x8
  405008:	48 8b 05 89 6f 07 00 	mov    rax,QWORD PTR [rip+0x76f89]        # 47bf98 <__gmon_start__>
  40500f:	48 85 c0             	test   rax,rax
  405012:	74 02                	je     405016 <_init+0x16>
  405014:	ff d0                	call   rax
  405016:	48 83 c4 08          	add    rsp,0x8
  40501a:	c3                   	ret    

Disassembly of section .plt:

0000000000405020 <tcsetattr@plt-0x10>:
  405020:	ff 35 e2 6f 07 00    	push   QWORD PTR [rip+0x76fe2]        # 47c008 <_GLOBAL_OFFSET_TABLE_+0x8>
  405026:	ff 25 e4 6f 07 00    	jmp    QWORD PTR [rip+0x76fe4]        # 47c010 <_GLOBAL_OFFSET_TABLE_+0x10>
  40502c:	0f 1f 40 00          	nop    DWORD PTR [rax+0x0]

0000000000405030 <tcsetattr@plt>:
  405030:	ff 25 e2 6f 07 00    	jmp    QWORD PTR [rip+0x76fe2]        # 47c018 <tcsetattr@GLIBC_2.2.5>
  405036:	68 00 00 00 00       	push   0x0
  40503b:	e9 e0 ff ff ff       	jmp    405020 <_init+0x20>

0000000000405040 <XRRFreeScreenConfigInfo@plt>:
  405040:	ff 25 da 6f 07 00    	jmp    QWORD PTR [rip+0x76fda]        # 47c020 <XRRFreeScreenConfigInfo>
  405046:	68 01 00 00 00       	push   0x1
  40504b:	e9 d0 ff ff ff       	jmp    405020 <_init+0x20>

0000000000405050 <fileno@plt>:
  405050:	ff 25 d2 6f 07 00    	jmp    QWORD PTR [rip+0x76fd2]        # 47c028 <fileno@GLIBC_2.2.5>
  405056:	68 02 00 00 00       	push   0x2
  40505b:	e9 c0 ff ff ff       	jmp    405020 <_init+0x20>

0000000000405060 <XUnlockDisplay@plt>:
  405060:	ff 25 ca 6f 07 00    	jmp    QWORD PTR [rip+0x76fca]        # 47c030 <XUnlockDisplay>
  405066:	68 03 00 00 00       	push   0x3
  40506b:	e9 b0 ff ff ff       	jmp    405020 <_init+0x20>

0000000000405070 <XCreateFontCursor@plt>:
  405070:	ff 25 c2 6f 07 00    	jmp    QWORD PTR [rip+0x76fc2]        # 47c038 <XCreateFontCursor>
  405076:	68 04 00 00 00       	push   0x4
  40507b:	e9 a0 ff ff ff       	jmp    405020 <_init+0x20>

0000000000405080 <pthread_cond_destroy@plt>:
  405080:	ff 25 ba 6f 07 00    	jmp    QWORD PTR [rip+0x76fba]        # 47c040 <pthread_cond_destroy@GLIBC_2.3.2>
  405086:	68 05 00 00 00       	push   0x5
  40508b:	e9 90 ff ff ff       	jmp    405020 <_init+0x20>

0000000000405090 <XMoveWindow@plt>:
  405090:	ff 25 b2 6f 07 00    	jmp    QWORD PTR [rip+0x76fb2]        # 47c048 <XMoveWindow>
  405096:	68 06 00 00 00       	push   0x6
  40509b:	e9 80 ff ff ff       	jmp    405020 <_init+0x20>

00000000004050a0 <XFreeCursor@plt>:
  4050a0:	ff 25 aa 6f 07 00    	jmp    QWORD PTR [rip+0x76faa]        # 47c050 <XFreeCursor>
  4050a6:	68 07 00 00 00       	push   0x7
  4050ab:	e9 70 ff ff ff       	jmp    405020 <_init+0x20>

00000000004050b0 <fseeko64@plt>:
  4050b0:	ff 25 a2 6f 07 00    	jmp    QWORD PTR [rip+0x76fa2]        # 47c058 <fseeko64@GLIBC_2.2.5>
  4050b6:	68 08 00 00 00       	push   0x8
  4050bb:	e9 60 ff ff ff       	jmp    405020 <_init+0x20>

00000000004050c0 <memset@plt>:
  4050c0:	ff 25 9a 6f 07 00    	jmp    QWORD PTR [rip+0x76f9a]        # 47c060 <memset@GLIBC_2.2.5>
  4050c6:	68 09 00 00 00       	push   0x9
  4050cb:	e9 50 ff ff ff       	jmp    405020 <_init+0x20>

00000000004050d0 <XClearWindow@plt>:
  4050d0:	ff 25 92 6f 07 00    	jmp    QWORD PTR [rip+0x76f92]        # 47c068 <XClearWindow>
  4050d6:	68 0a 00 00 00       	push   0xa
  4050db:	e9 40 ff ff ff       	jmp    405020 <_init+0x20>

00000000004050e0 <snprintf@plt>:
  4050e0:	ff 25 8a 6f 07 00    	jmp    QWORD PTR [rip+0x76f8a]        # 47c070 <snprintf@GLIBC_2.2.5>
  4050e6:	68 0b 00 00 00       	push   0xb
  4050eb:	e9 30 ff ff ff       	jmp    405020 <_init+0x20>

00000000004050f0 <mmap64@plt>:
  4050f0:	ff 25 82 6f 07 00    	jmp    QWORD PTR [rip+0x76f82]        # 47c078 <mmap64@GLIBC_2.2.5>
  4050f6:	68 0c 00 00 00       	push   0xc
  4050fb:	e9 20 ff ff ff       	jmp    405020 <_init+0x20>

0000000000405100 <wcslen@plt>:
  405100:	ff 25 7a 6f 07 00    	jmp    QWORD PTR [rip+0x76f7a]        # 47c080 <wcslen@GLIBC_2.2.5>
  405106:	68 0d 00 00 00       	push   0xd
  40510b:	e9 10 ff ff ff       	jmp    405020 <_init+0x20>

0000000000405110 <close@plt>:
  405110:	ff 25 72 6f 07 00    	jmp    QWORD PTR [rip+0x76f72]        # 47c088 <close@GLIBC_2.2.5>
  405116:	68 0e 00 00 00       	push   0xe
  40511b:	e9 00 ff ff ff       	jmp    405020 <_init+0x20>

0000000000405120 <XListPixmapFormats@plt>:
  405120:	ff 25 6a 6f 07 00    	jmp    QWORD PTR [rip+0x76f6a]        # 47c090 <XListPixmapFormats>
  405126:	68 0f 00 00 00       	push   0xf
  40512b:	e9 f0 fe ff ff       	jmp    405020 <_init+0x20>

0000000000405130 <ioctl@plt>:
  405130:	ff 25 62 6f 07 00    	jmp    QWORD PTR [rip+0x76f62]        # 47c098 <ioctl@GLIBC_2.2.5>
  405136:	68 10 00 00 00       	push   0x10
  40513b:	e9 e0 fe ff ff       	jmp    405020 <_init+0x20>

0000000000405140 <shmdt@plt>:
  405140:	ff 25 5a 6f 07 00    	jmp    QWORD PTR [rip+0x76f5a]        # 47c0a0 <shmdt@GLIBC_2.2.5>
  405146:	68 11 00 00 00       	push   0x11
  40514b:	e9 d0 fe ff ff       	jmp    405020 <_init+0x20>

0000000000405150 <XRRSetScreenConfigAndRate@plt>:
  405150:	ff 25 52 6f 07 00    	jmp    QWORD PTR [rip+0x76f52]        # 47c0a8 <XRRSetScreenConfigAndRate>
  405156:	68 12 00 00 00       	push   0x12
  40515b:	e9 c0 fe ff ff       	jmp    405020 <_init+0x20>

0000000000405160 <tgetflag@plt>:
  405160:	ff 25 4a 6f 07 00    	jmp    QWORD PTR [rip+0x76f4a]        # 47c0b0 <tgetflag>
  405166:	68 13 00 00 00       	push   0x13
  40516b:	e9 b0 fe ff ff       	jmp    405020 <_init+0x20>

0000000000405170 <XStoreName@plt>:
  405170:	ff 25 42 6f 07 00    	jmp    QWORD PTR [rip+0x76f42]        # 47c0b8 <XStoreName>
  405176:	68 14 00 00 00       	push   0x14
  40517b:	e9 a0 fe ff ff       	jmp    405020 <_init+0x20>

0000000000405180 <get_avphys_pages@plt>:
  405180:	ff 25 3a 6f 07 00    	jmp    QWORD PTR [rip+0x76f3a]        # 47c0c0 <get_avphys_pages@GLIBC_2.2.5>
  405186:	68 15 00 00 00       	push   0x15
  40518b:	e9 90 fe ff ff       	jmp    405020 <_init+0x20>

0000000000405190 <__fprintf_chk@plt>:
  405190:	ff 25 32 6f 07 00    	jmp    QWORD PTR [rip+0x76f32]        # 47c0c8 <__fprintf_chk@GLIBC_2.3.4>
  405196:	68 16 00 00 00       	push   0x16
  40519b:	e9 80 fe ff ff       	jmp    405020 <_init+0x20>

00000000004051a0 <isatty@plt>:
  4051a0:	ff 25 2a 6f 07 00    	jmp    QWORD PTR [rip+0x76f2a]        # 47c0d0 <isatty@GLIBC_2.2.5>
  4051a6:	68 17 00 00 00       	push   0x17
  4051ab:	e9 70 fe ff ff       	jmp    405020 <_init+0x20>

00000000004051b0 <XFreeColormap@plt>:
  4051b0:	ff 25 22 6f 07 00    	jmp    QWORD PTR [rip+0x76f22]        # 47c0d8 <XFreeColormap>
  4051b6:	68 18 00 00 00       	push   0x18
  4051bb:	e9 60 fe ff ff       	jmp    405020 <_init+0x20>

00000000004051c0 <XLookupString@plt>:
  4051c0:	ff 25 1a 6f 07 00    	jmp    QWORD PTR [rip+0x76f1a]        # 47c0e0 <XLookupString>
  4051c6:	68 19 00 00 00       	push   0x19
  4051cb:	e9 50 fe ff ff       	jmp    405020 <_init+0x20>

00000000004051d0 <fseek@plt>:
  4051d0:	ff 25 12 6f 07 00    	jmp    QWORD PTR [rip+0x76f12]        # 47c0e8 <fseek@GLIBC_2.2.5>
  4051d6:	68 1a 00 00 00       	push   0x1a
  4051db:	e9 40 fe ff ff       	jmp    405020 <_init+0x20>

00000000004051e0 <pthread_cond_signal@plt>:
  4051e0:	ff 25 0a 6f 07 00    	jmp    QWORD PTR [rip+0x76f0a]        # 47c0f0 <pthread_cond_signal@GLIBC_2.3.2>
  4051e6:	68 1b 00 00 00       	push   0x1b
  4051eb:	e9 30 fe ff ff       	jmp    405020 <_init+0x20>

00000000004051f0 <select@plt>:
  4051f0:	ff 25 02 6f 07 00    	jmp    QWORD PTR [rip+0x76f02]        # 47c0f8 <select@GLIBC_2.2.5>
  4051f6:	68 1c 00 00 00       	push   0x1c
  4051fb:	e9 20 fe ff ff       	jmp    405020 <_init+0x20>

0000000000405200 <execvp@plt>:
  405200:	ff 25 fa 6e 07 00    	jmp    QWORD PTR [rip+0x76efa]        # 47c100 <execvp@GLIBC_2.2.5>
  405206:	68 1d 00 00 00       	push   0x1d
  40520b:	e9 10 fe ff ff       	jmp    405020 <_init+0x20>

0000000000405210 <exit@plt>:
  405210:	ff 25 f2 6e 07 00    	jmp    QWORD PTR [rip+0x76ef2]        # 47c108 <exit@GLIBC_2.2.5>
  405216:	68 1e 00 00 00       	push   0x1e
  40521b:	e9 00 fe ff ff       	jmp    405020 <_init+0x20>

0000000000405220 <XCreateImage@plt>:
  405220:	ff 25 ea 6e 07 00    	jmp    QWORD PTR [rip+0x76eea]        # 47c110 <XCreateImage>
  405226:	68 1f 00 00 00       	push   0x1f
  40522b:	e9 f0 fd ff ff       	jmp    405020 <_init+0x20>

0000000000405230 <strcasecmp@plt>:
  405230:	ff 25 e2 6e 07 00    	jmp    QWORD PTR [rip+0x76ee2]        # 47c118 <strcasecmp@GLIBC_2.2.5>
  405236:	68 20 00 00 00       	push   0x20
  40523b:	e9 e0 fd ff ff       	jmp    405020 <_init+0x20>

0000000000405240 <XRaiseWindow@plt>:
  405240:	ff 25 da 6e 07 00    	jmp    QWORD PTR [rip+0x76eda]        # 47c120 <XRaiseWindow>
  405246:	68 21 00 00 00       	push   0x21
  40524b:	e9 d0 fd ff ff       	jmp    405020 <_init+0x20>

0000000000405250 <gettimeofday@plt>:
  405250:	ff 25 d2 6e 07 00    	jmp    QWORD PTR [rip+0x76ed2]        # 47c128 <gettimeofday@GLIBC_2.2.5>
  405256:	68 22 00 00 00       	push   0x22
  40525b:	e9 c0 fd ff ff       	jmp    405020 <_init+0x20>

0000000000405260 <setvbuf@plt>:
  405260:	ff 25 ca 6e 07 00    	jmp    QWORD PTR [rip+0x76eca]        # 47c130 <setvbuf@GLIBC_2.2.5>
  405266:	68 23 00 00 00       	push   0x23
  40526b:	e9 b0 fd ff ff       	jmp    405020 <_init+0x20>

0000000000405270 <XRRSetScreenConfig@plt>:
  405270:	ff 25 c2 6e 07 00    	jmp    QWORD PTR [rip+0x76ec2]        # 47c138 <XRRSetScreenConfig>
  405276:	68 24 00 00 00       	push   0x24
  40527b:	e9 a0 fd ff ff       	jmp    405020 <_init+0x20>

0000000000405280 <XUngrabPointer@plt>:
  405280:	ff 25 ba 6e 07 00    	jmp    QWORD PTR [rip+0x76eba]        # 47c140 <XUngrabPointer>
  405286:	68 25 00 00 00       	push   0x25
  40528b:	e9 90 fd ff ff       	jmp    405020 <_init+0x20>

0000000000405290 <XDisplayWidth@plt>:
  405290:	ff 25 b2 6e 07 00    	jmp    QWORD PTR [rip+0x76eb2]        # 47c148 <XDisplayWidth>
  405296:	68 26 00 00 00       	push   0x26
  40529b:	e9 80 fd ff ff       	jmp    405020 <_init+0x20>

00000000004052a0 <read@plt>:
  4052a0:	ff 25 aa 6e 07 00    	jmp    QWORD PTR [rip+0x76eaa]        # 47c150 <read@GLIBC_2.2.5>
  4052a6:	68 27 00 00 00       	push   0x27
  4052ab:	e9 70 fd ff ff       	jmp    405020 <_init+0x20>

00000000004052b0 <malloc@plt>:
  4052b0:	ff 25 a2 6e 07 00    	jmp    QWORD PTR [rip+0x76ea2]        # 47c158 <malloc@GLIBC_2.2.5>
  4052b6:	68 28 00 00 00       	push   0x28
  4052bb:	e9 60 fd ff ff       	jmp    405020 <_init+0x20>

00000000004052c0 <dup@plt>:
  4052c0:	ff 25 9a 6e 07 00    	jmp    QWORD PTR [rip+0x76e9a]        # 47c160 <dup@GLIBC_2.2.5>
  4052c6:	68 29 00 00 00       	push   0x29
  4052cb:	e9 50 fd ff ff       	jmp    405020 <_init+0x20>

00000000004052d0 <system@plt>:
  4052d0:	ff 25 92 6e 07 00    	jmp    QWORD PTR [rip+0x76e92]        # 47c168 <system@GLIBC_2.2.5>
  4052d6:	68 2a 00 00 00       	push   0x2a
  4052db:	e9 40 fd ff ff       	jmp    405020 <_init+0x20>

00000000004052e0 <XpmCreatePixmapFromData@plt>:
  4052e0:	ff 25 8a 6e 07 00    	jmp    QWORD PTR [rip+0x76e8a]        # 47c170 <XpmCreatePixmapFromData>
  4052e6:	68 2b 00 00 00       	push   0x2b
  4052eb:	e9 30 fd ff ff       	jmp    405020 <_init+0x20>

00000000004052f0 <XRRQueryExtension@plt>:
  4052f0:	ff 25 82 6e 07 00    	jmp    QWORD PTR [rip+0x76e82]        # 47c178 <XRRQueryExtension>
  4052f6:	68 2c 00 00 00       	push   0x2c
  4052fb:	e9 20 fd ff ff       	jmp    405020 <_init+0x20>

0000000000405300 <XSetWMNormalHints@plt>:
  405300:	ff 25 7a 6e 07 00    	jmp    QWORD PTR [rip+0x76e7a]        # 47c180 <XSetWMNormalHints>
  405306:	68 2d 00 00 00       	push   0x2d
  40530b:	e9 10 fd ff ff       	jmp    405020 <_init+0x20>

0000000000405310 <XGrabPointer@plt>:
  405310:	ff 25 72 6e 07 00    	jmp    QWORD PTR [rip+0x76e72]        # 47c188 <XGrabPointer>
  405316:	68 2e 00 00 00       	push   0x2e
  40531b:	e9 00 fd ff ff       	jmp    405020 <_init+0x20>

0000000000405320 <XRRQueryVersion@plt>:
  405320:	ff 25 6a 6e 07 00    	jmp    QWORD PTR [rip+0x76e6a]        # 47c190 <XRRQueryVersion>
  405326:	68 2f 00 00 00       	push   0x2f
  40532b:	e9 f0 fc ff ff       	jmp    405020 <_init+0x20>

0000000000405330 <XCreateWindow@plt>:
  405330:	ff 25 62 6e 07 00    	jmp    QWORD PTR [rip+0x76e62]        # 47c198 <XCreateWindow>
  405336:	68 30 00 00 00       	push   0x30
  40533b:	e9 e0 fc ff ff       	jmp    405020 <_init+0x20>

0000000000405340 <cos@plt>:
  405340:	ff 25 5a 6e 07 00    	jmp    QWORD PTR [rip+0x76e5a]        # 47c1a0 <cos@GLIBC_2.2.5>
  405346:	68 31 00 00 00       	push   0x31
  40534b:	e9 d0 fc ff ff       	jmp    405020 <_init+0x20>

0000000000405350 <nearbyint@plt>:
  405350:	ff 25 52 6e 07 00    	jmp    QWORD PTR [rip+0x76e52]        # 47c1a8 <nearbyint@GLIBC_2.2.5>
  405356:	68 32 00 00 00       	push   0x32
  40535b:	e9 c0 fc ff ff       	jmp    405020 <_init+0x20>

0000000000405360 <XCreateColormap@plt>:
  405360:	ff 25 4a 6e 07 00    	jmp    QWORD PTR [rip+0x76e4a]        # 47c1b0 <XCreateColormap>
  405366:	68 33 00 00 00       	push   0x33
  40536b:	e9 b0 fc ff ff       	jmp    405020 <_init+0x20>

0000000000405370 <sysconf@plt>:
  405370:	ff 25 42 6e 07 00    	jmp    QWORD PTR [rip+0x76e42]        # 47c1b8 <sysconf@GLIBC_2.2.5>
  405376:	68 34 00 00 00       	push   0x34
  40537b:	e9 a0 fc ff ff       	jmp    405020 <_init+0x20>

0000000000405380 <getpid@plt>:
  405380:	ff 25 3a 6e 07 00    	jmp    QWORD PTR [rip+0x76e3a]        # 47c1c0 <getpid@GLIBC_2.2.5>
  405386:	68 35 00 00 00       	push   0x35
  40538b:	e9 90 fc ff ff       	jmp    405020 <_init+0x20>

0000000000405390 <XDefaultVisual@plt>:
  405390:	ff 25 32 6e 07 00    	jmp    QWORD PTR [rip+0x76e32]        # 47c1c8 <XDefaultVisual>
  405396:	68 36 00 00 00       	push   0x36
  40539b:	e9 80 fc ff ff       	jmp    405020 <_init+0x20>

00000000004053a0 <pthread_mutex_init@plt>:
  4053a0:	ff 25 2a 6e 07 00    	jmp    QWORD PTR [rip+0x76e2a]        # 47c1d0 <pthread_mutex_init@GLIBC_2.2.5>
  4053a6:	68 37 00 00 00       	push   0x37
  4053ab:	e9 70 fc ff ff       	jmp    405020 <_init+0x20>

00000000004053b0 <fgets@plt>:
  4053b0:	ff 25 22 6e 07 00    	jmp    QWORD PTR [rip+0x76e22]        # 47c1d8 <fgets@GLIBC_2.2.5>
  4053b6:	68 38 00 00 00       	push   0x38
  4053bb:	e9 60 fc ff ff       	jmp    405020 <_init+0x20>

00000000004053c0 <freopen64@plt>:
  4053c0:	ff 25 1a 6e 07 00    	jmp    QWORD PTR [rip+0x76e1a]        # 47c1e0 <freopen64@GLIBC_2.2.5>
  4053c6:	68 39 00 00 00       	push   0x39
  4053cb:	e9 50 fc ff ff       	jmp    405020 <_init+0x20>

00000000004053d0 <XRRConfigRates@plt>:
  4053d0:	ff 25 12 6e 07 00    	jmp    QWORD PTR [rip+0x76e12]        # 47c1e8 <XRRConfigRates>
  4053d6:	68 3a 00 00 00       	push   0x3a
  4053db:	e9 40 fc ff ff       	jmp    405020 <_init+0x20>

00000000004053e0 <XOpenDisplay@plt>:
  4053e0:	ff 25 0a 6e 07 00    	jmp    QWORD PTR [rip+0x76e0a]        # 47c1f0 <XOpenDisplay>
  4053e6:	68 3b 00 00 00       	push   0x3b
  4053eb:	e9 30 fc ff ff       	jmp    405020 <_init+0x20>

00000000004053f0 <ioperm@plt>:
  4053f0:	ff 25 02 6e 07 00    	jmp    QWORD PTR [rip+0x76e02]        # 47c1f8 <ioperm@GLIBC_2.2.5>
  4053f6:	68 3c 00 00 00       	push   0x3c
  4053fb:	e9 20 fc ff ff       	jmp    405020 <_init+0x20>

0000000000405400 <ungetc@plt>:
  405400:	ff 25 fa 6d 07 00    	jmp    QWORD PTR [rip+0x76dfa]        # 47c200 <ungetc@GLIBC_2.2.5>
  405406:	68 3d 00 00 00       	push   0x3d
  40540b:	e9 10 fc ff ff       	jmp    405020 <_init+0x20>

0000000000405410 <fputc@plt>:
  405410:	ff 25 f2 6d 07 00    	jmp    QWORD PTR [rip+0x76df2]        # 47c208 <fputc@GLIBC_2.2.5>
  405416:	68 3e 00 00 00       	push   0x3e
  40541b:	e9 00 fc ff ff       	jmp    405020 <_init+0x20>

0000000000405420 <scanf@plt>:
  405420:	ff 25 ea 6d 07 00    	jmp    QWORD PTR [rip+0x76dea]        # 47c210 <scanf@GLIBC_2.2.5>
  405426:	68 3f 00 00 00       	push   0x3f
  40542b:	e9 f0 fb ff ff       	jmp    405020 <_init+0x20>

0000000000405430 <XDrawPoint@plt>:
  405430:	ff 25 e2 6d 07 00    	jmp    QWORD PTR [rip+0x76de2]        # 47c218 <XDrawPoint>
  405436:	68 40 00 00 00       	push   0x40
  40543b:	e9 e0 fb ff ff       	jmp    405020 <_init+0x20>

0000000000405440 <free@plt>:
  405440:	ff 25 da 6d 07 00    	jmp    QWORD PTR [rip+0x76dda]        # 47c220 <free@GLIBC_2.2.5>
  405446:	68 41 00 00 00       	push   0x41
  40544b:	e9 d0 fb ff ff       	jmp    405020 <_init+0x20>

0000000000405450 <_IO_getc@plt>:
  405450:	ff 25 d2 6d 07 00    	jmp    QWORD PTR [rip+0x76dd2]        # 47c228 <_IO_getc@GLIBC_2.2.5>
  405456:	68 42 00 00 00       	push   0x42
  40545b:	e9 c0 fb ff ff       	jmp    405020 <_init+0x20>

0000000000405460 <XDeleteProperty@plt>:
  405460:	ff 25 ca 6d 07 00    	jmp    QWORD PTR [rip+0x76dca]        # 47c230 <XDeleteProperty>
  405466:	68 43 00 00 00       	push   0x43
  40546b:	e9 b0 fb ff ff       	jmp    405020 <_init+0x20>

0000000000405470 <strlen@plt>:
  405470:	ff 25 c2 6d 07 00    	jmp    QWORD PTR [rip+0x76dc2]        # 47c238 <strlen@GLIBC_2.2.5>
  405476:	68 44 00 00 00       	push   0x44
  40547b:	e9 a0 fb ff ff       	jmp    405020 <_init+0x20>

0000000000405480 <XDestroyWindow@plt>:
  405480:	ff 25 ba 6d 07 00    	jmp    QWORD PTR [rip+0x76dba]        # 47c240 <XDestroyWindow>
  405486:	68 45 00 00 00       	push   0x45
  40548b:	e9 90 fb ff ff       	jmp    405020 <_init+0x20>

0000000000405490 <glActiveTexture@plt>:
  405490:	ff 25 b2 6d 07 00    	jmp    QWORD PTR [rip+0x76db2]        # 47c248 <glActiveTexture>
  405496:	68 46 00 00 00       	push   0x46
  40549b:	e9 80 fb ff ff       	jmp    405020 <_init+0x20>

00000000004054a0 <tgetent@plt>:
  4054a0:	ff 25 aa 6d 07 00    	jmp    QWORD PTR [rip+0x76daa]        # 47c250 <tgetent>
  4054a6:	68 47 00 00 00       	push   0x47
  4054ab:	e9 70 fb ff ff       	jmp    405020 <_init+0x20>

00000000004054b0 <XCloseDisplay@plt>:
  4054b0:	ff 25 a2 6d 07 00    	jmp    QWORD PTR [rip+0x76da2]        # 47c258 <XCloseDisplay>
  4054b6:	68 48 00 00 00       	push   0x48
  4054bb:	e9 60 fb ff ff       	jmp    405020 <_init+0x20>

00000000004054c0 <pthread_create@plt>:
  4054c0:	ff 25 9a 6d 07 00    	jmp    QWORD PTR [rip+0x76d9a]        # 47c260 <pthread_create@GLIBC_2.2.5>
  4054c6:	68 49 00 00 00       	push   0x49
  4054cb:	e9 50 fb ff ff       	jmp    405020 <_init+0x20>

00000000004054d0 <pthread_cond_init@plt>:
  4054d0:	ff 25 92 6d 07 00    	jmp    QWORD PTR [rip+0x76d92]        # 47c268 <pthread_cond_init@GLIBC_2.3.2>
  4054d6:	68 4a 00 00 00       	push   0x4a
  4054db:	e9 40 fb ff ff       	jmp    405020 <_init+0x20>

00000000004054e0 <__ctype_b_loc@plt>:
  4054e0:	ff 25 8a 6d 07 00    	jmp    QWORD PTR [rip+0x76d8a]        # 47c270 <__ctype_b_loc@GLIBC_2.3>
  4054e6:	68 4b 00 00 00       	push   0x4b
  4054eb:	e9 30 fb ff ff       	jmp    405020 <_init+0x20>

00000000004054f0 <XShmCreateImage@plt>:
  4054f0:	ff 25 82 6d 07 00    	jmp    QWORD PTR [rip+0x76d82]        # 47c278 <XShmCreateImage>
  4054f6:	68 4c 00 00 00       	push   0x4c
  4054fb:	e9 20 fb ff ff       	jmp    405020 <_init+0x20>

0000000000405500 <XRRConfigCurrentRate@plt>:
  405500:	ff 25 7a 6d 07 00    	jmp    QWORD PTR [rip+0x76d7a]        # 47c280 <XRRConfigCurrentRate>
  405506:	68 4d 00 00 00       	push   0x4d
  40550b:	e9 10 fb ff ff       	jmp    405020 <_init+0x20>

0000000000405510 <wcstoull@plt>:
  405510:	ff 25 72 6d 07 00    	jmp    QWORD PTR [rip+0x76d72]        # 47c288 <wcstoull@GLIBC_2.2.5>
  405516:	68 4e 00 00 00       	push   0x4e
  40551b:	e9 00 fb ff ff       	jmp    405020 <_init+0x20>

0000000000405520 <XUnmapWindow@plt>:
  405520:	ff 25 6a 6d 07 00    	jmp    QWORD PTR [rip+0x76d6a]        # 47c290 <XUnmapWindow>
  405526:	68 4f 00 00 00       	push   0x4f
  40552b:	e9 f0 fa ff ff       	jmp    405020 <_init+0x20>

0000000000405530 <mbstowcs@plt>:
  405530:	ff 25 62 6d 07 00    	jmp    QWORD PTR [rip+0x76d62]        # 47c298 <mbstowcs@GLIBC_2.2.5>
  405536:	68 50 00 00 00       	push   0x50
  40553b:	e9 e0 fa ff ff       	jmp    405020 <_init+0x20>

0000000000405540 <XCreatePixmapCursor@plt>:
  405540:	ff 25 5a 6d 07 00    	jmp    QWORD PTR [rip+0x76d5a]        # 47c2a0 <XCreatePixmapCursor>
  405546:	68 51 00 00 00       	push   0x51
  40554b:	e9 d0 fa ff ff       	jmp    405020 <_init+0x20>

0000000000405550 <fgetc@plt>:
  405550:	ff 25 52 6d 07 00    	jmp    QWORD PTR [rip+0x76d52]        # 47c2a8 <fgetc@GLIBC_2.2.5>
  405556:	68 52 00 00 00       	push   0x52
  40555b:	e9 c0 fa ff ff       	jmp    405020 <_init+0x20>

0000000000405560 <strrchr@plt>:
  405560:	ff 25 4a 6d 07 00    	jmp    QWORD PTR [rip+0x76d4a]        # 47c2b0 <strrchr@GLIBC_2.2.5>
  405566:	68 53 00 00 00       	push   0x53
  40556b:	e9 b0 fa ff ff       	jmp    405020 <_init+0x20>

0000000000405570 <XFreeGC@plt>:
  405570:	ff 25 42 6d 07 00    	jmp    QWORD PTR [rip+0x76d42]        # 47c2b8 <XFreeGC>
  405576:	68 54 00 00 00       	push   0x54
  40557b:	e9 a0 fa ff ff       	jmp    405020 <_init+0x20>

0000000000405580 <glRectf@plt>:
  405580:	ff 25 3a 6d 07 00    	jmp    QWORD PTR [rip+0x76d3a]        # 47c2c0 <glRectf>
  405586:	68 55 00 00 00       	push   0x55
  40558b:	e9 90 fa ff ff       	jmp    405020 <_init+0x20>

0000000000405590 <XDisplayName@plt>:
  405590:	ff 25 32 6d 07 00    	jmp    QWORD PTR [rip+0x76d32]        # 47c2c8 <XDisplayName>
  405596:	68 56 00 00 00       	push   0x56
  40559b:	e9 80 fa ff ff       	jmp    405020 <_init+0x20>

00000000004055a0 <glBindTexture@plt>:
  4055a0:	ff 25 2a 6d 07 00    	jmp    QWORD PTR [rip+0x76d2a]        # 47c2d0 <glBindTexture>
  4055a6:	68 57 00 00 00       	push   0x57
  4055ab:	e9 70 fa ff ff       	jmp    405020 <_init+0x20>

00000000004055b0 <XMoveResizeWindow@plt>:
  4055b0:	ff 25 22 6d 07 00    	jmp    QWORD PTR [rip+0x76d22]        # 47c2d8 <XMoveResizeWindow>
  4055b6:	68 58 00 00 00       	push   0x58
  4055bb:	e9 60 fa ff ff       	jmp    405020 <_init+0x20>

00000000004055c0 <XLockDisplay@plt>:
  4055c0:	ff 25 1a 6d 07 00    	jmp    QWORD PTR [rip+0x76d1a]        # 47c2e0 <XLockDisplay>
  4055c6:	68 59 00 00 00       	push   0x59
  4055cb:	e9 50 fa ff ff       	jmp    405020 <_init+0x20>

00000000004055d0 <dlclose@plt>:
  4055d0:	ff 25 12 6d 07 00    	jmp    QWORD PTR [rip+0x76d12]        # 47c2e8 <dlclose@GLIBC_2.2.5>
  4055d6:	68 5a 00 00 00       	push   0x5a
  4055db:	e9 40 fa ff ff       	jmp    405020 <_init+0x20>

00000000004055e0 <pthread_join@plt>:
  4055e0:	ff 25 0a 6d 07 00    	jmp    QWORD PTR [rip+0x76d0a]        # 47c2f0 <pthread_join@GLIBC_2.2.5>
  4055e6:	68 5b 00 00 00       	push   0x5b
  4055eb:	e9 30 fa ff ff       	jmp    405020 <_init+0x20>

00000000004055f0 <XNextEvent@plt>:
  4055f0:	ff 25 02 6d 07 00    	jmp    QWORD PTR [rip+0x76d02]        # 47c2f8 <XNextEvent>
  4055f6:	68 5c 00 00 00       	push   0x5c
  4055fb:	e9 20 fa ff ff       	jmp    405020 <_init+0x20>

0000000000405600 <XDefaultRootWindow@plt>:
  405600:	ff 25 fa 6c 07 00    	jmp    QWORD PTR [rip+0x76cfa]        # 47c300 <XDefaultRootWindow>
  405606:	68 5d 00 00 00       	push   0x5d
  40560b:	e9 10 fa ff ff       	jmp    405020 <_init+0x20>

0000000000405610 <XSetWMProtocols@plt>:
  405610:	ff 25 f2 6c 07 00    	jmp    QWORD PTR [rip+0x76cf2]        # 47c308 <XSetWMProtocols>
  405616:	68 5e 00 00 00       	push   0x5e
  40561b:	e9 00 fa ff ff       	jmp    405020 <_init+0x20>

0000000000405620 <kill@plt>:
  405620:	ff 25 ea 6c 07 00    	jmp    QWORD PTR [rip+0x76cea]        # 47c310 <kill@GLIBC_2.2.5>
  405626:	68 5f 00 00 00       	push   0x5f
  40562b:	e9 f0 f9 ff ff       	jmp    405020 <_init+0x20>

0000000000405630 <usleep@plt>:
  405630:	ff 25 e2 6c 07 00    	jmp    QWORD PTR [rip+0x76ce2]        # 47c318 <usleep@GLIBC_2.2.5>
  405636:	68 60 00 00 00       	push   0x60
  40563b:	e9 e0 f9 ff ff       	jmp    405020 <_init+0x20>

0000000000405640 <open64@plt>:
  405640:	ff 25 da 6c 07 00    	jmp    QWORD PTR [rip+0x76cda]        # 47c320 <open64@GLIBC_2.2.5>
  405646:	68 61 00 00 00       	push   0x61
  40564b:	e9 d0 f9 ff ff       	jmp    405020 <_init+0x20>

0000000000405650 <strstr@plt>:
  405650:	ff 25 d2 6c 07 00    	jmp    QWORD PTR [rip+0x76cd2]        # 47c328 <strstr@GLIBC_2.2.5>
  405656:	68 62 00 00 00       	push   0x62
  40565b:	e9 c0 f9 ff ff       	jmp    405020 <_init+0x20>

0000000000405660 <XDefaultScreen@plt>:
  405660:	ff 25 ca 6c 07 00    	jmp    QWORD PTR [rip+0x76cca]        # 47c330 <XDefaultScreen>
  405666:	68 63 00 00 00       	push   0x63
  40566b:	e9 b0 f9 ff ff       	jmp    405020 <_init+0x20>

0000000000405670 <XDisplayHeight@plt>:
  405670:	ff 25 c2 6c 07 00    	jmp    QWORD PTR [rip+0x76cc2]        # 47c338 <XDisplayHeight>
  405676:	68 64 00 00 00       	push   0x64
  40567b:	e9 a0 f9 ff ff       	jmp    405020 <_init+0x20>

0000000000405680 <rewind@plt>:
  405680:	ff 25 ba 6c 07 00    	jmp    QWORD PTR [rip+0x76cba]        # 47c340 <rewind@GLIBC_2.2.5>
  405686:	68 65 00 00 00       	push   0x65
  40568b:	e9 90 f9 ff ff       	jmp    405020 <_init+0x20>

0000000000405690 <fputs@plt>:
  405690:	ff 25 b2 6c 07 00    	jmp    QWORD PTR [rip+0x76cb2]        # 47c348 <fputs@GLIBC_2.2.5>
  405696:	68 66 00 00 00       	push   0x66
  40569b:	e9 80 f9 ff ff       	jmp    405020 <_init+0x20>

00000000004056a0 <readlink@plt>:
  4056a0:	ff 25 aa 6c 07 00    	jmp    QWORD PTR [rip+0x76caa]        # 47c350 <readlink@GLIBC_2.2.5>
  4056a6:	68 67 00 00 00       	push   0x67
  4056ab:	e9 70 f9 ff ff       	jmp    405020 <_init+0x20>

00000000004056b0 <XResizeWindow@plt>:
  4056b0:	ff 25 a2 6c 07 00    	jmp    QWORD PTR [rip+0x76ca2]        # 47c358 <XResizeWindow>
  4056b6:	68 68 00 00 00       	push   0x68
  4056bb:	e9 60 f9 ff ff       	jmp    405020 <_init+0x20>

00000000004056c0 <tputs@plt>:
  4056c0:	ff 25 9a 6c 07 00    	jmp    QWORD PTR [rip+0x76c9a]        # 47c360 <tputs>
  4056c6:	68 69 00 00 00       	push   0x69
  4056cb:	e9 50 f9 ff ff       	jmp    405020 <_init+0x20>

00000000004056d0 <XUngrabKeyboard@plt>:
  4056d0:	ff 25 92 6c 07 00    	jmp    QWORD PTR [rip+0x76c92]        # 47c368 <XUngrabKeyboard>
  4056d6:	68 6a 00 00 00       	push   0x6a
  4056db:	e9 40 f9 ff ff       	jmp    405020 <_init+0x20>

00000000004056e0 <getpgid@plt>:
  4056e0:	ff 25 8a 6c 07 00    	jmp    QWORD PTR [rip+0x76c8a]        # 47c370 <getpgid@GLIBC_2.2.5>
  4056e6:	68 6b 00 00 00       	push   0x6b
  4056eb:	e9 30 f9 ff ff       	jmp    405020 <_init+0x20>

00000000004056f0 <XCreateBitmapFromData@plt>:
  4056f0:	ff 25 82 6c 07 00    	jmp    QWORD PTR [rip+0x76c82]        # 47c378 <XCreateBitmapFromData>
  4056f6:	68 6c 00 00 00       	push   0x6c
  4056fb:	e9 20 f9 ff ff       	jmp    405020 <_init+0x20>

0000000000405700 <tcgetattr@plt>:
  405700:	ff 25 7a 6c 07 00    	jmp    QWORD PTR [rip+0x76c7a]        # 47c380 <tcgetattr@GLIBC_2.2.5>
  405706:	68 6d 00 00 00       	push   0x6d
  40570b:	e9 10 f9 ff ff       	jmp    405020 <_init+0x20>

0000000000405710 <raise@plt>:
  405710:	ff 25 72 6c 07 00    	jmp    QWORD PTR [rip+0x76c72]        # 47c388 <raise@GLIBC_2.2.5>
  405716:	68 6e 00 00 00       	push   0x6e
  40571b:	e9 00 f9 ff ff       	jmp    405020 <_init+0x20>

0000000000405720 <_Exit@plt>:
  405720:	ff 25 6a 6c 07 00    	jmp    QWORD PTR [rip+0x76c6a]        # 47c390 <_Exit@GLIBC_2.2.5>
  405726:	68 6f 00 00 00       	push   0x6f
  40572b:	e9 f0 f8 ff ff       	jmp    405020 <_init+0x20>

0000000000405730 <signal@plt>:
  405730:	ff 25 62 6c 07 00    	jmp    QWORD PTR [rip+0x76c62]        # 47c398 <signal@GLIBC_2.2.5>
  405736:	68 70 00 00 00       	push   0x70
  40573b:	e9 e0 f8 ff ff       	jmp    405020 <_init+0x20>

0000000000405740 <memmove@plt>:
  405740:	ff 25 5a 6c 07 00    	jmp    QWORD PTR [rip+0x76c5a]        # 47c3a0 <memmove@GLIBC_2.2.5>
  405746:	68 71 00 00 00       	push   0x71
  40574b:	e9 d0 f8 ff ff       	jmp    405020 <_init+0x20>

0000000000405750 <XShmQueryExtension@plt>:
  405750:	ff 25 52 6c 07 00    	jmp    QWORD PTR [rip+0x76c52]        # 47c3a8 <XShmQueryExtension>
  405756:	68 72 00 00 00       	push   0x72
  40575b:	e9 c0 f8 ff ff       	jmp    405020 <_init+0x20>

0000000000405760 <waitpid@plt>:
  405760:	ff 25 4a 6c 07 00    	jmp    QWORD PTR [rip+0x76c4a]        # 47c3b0 <waitpid@GLIBC_2.2.5>
  405766:	68 73 00 00 00       	push   0x73
  40576b:	e9 b0 f8 ff ff       	jmp    405020 <_init+0x20>

0000000000405770 <fread@plt>:
  405770:	ff 25 42 6c 07 00    	jmp    QWORD PTR [rip+0x76c42]        # 47c3b8 <fread@GLIBC_2.2.5>
  405776:	68 74 00 00 00       	push   0x74
  40577b:	e9 a0 f8 ff ff       	jmp    405020 <_init+0x20>

0000000000405780 <XCreateGC@plt>:
  405780:	ff 25 3a 6c 07 00    	jmp    QWORD PTR [rip+0x76c3a]        # 47c3c0 <XCreateGC>
  405786:	68 75 00 00 00       	push   0x75
  40578b:	e9 90 f8 ff ff       	jmp    405020 <_init+0x20>

0000000000405790 <getenv@plt>:
  405790:	ff 25 32 6c 07 00    	jmp    QWORD PTR [rip+0x76c32]        # 47c3c8 <getenv@GLIBC_2.2.5>
  405796:	68 76 00 00 00       	push   0x76
  40579b:	e9 80 f8 ff ff       	jmp    405020 <_init+0x20>

00000000004057a0 <cfgetospeed@plt>:
  4057a0:	ff 25 2a 6c 07 00    	jmp    QWORD PTR [rip+0x76c2a]        # 47c3d0 <cfgetospeed@GLIBC_2.2.5>
  4057a6:	68 77 00 00 00       	push   0x77
  4057ab:	e9 70 f8 ff ff       	jmp    405020 <_init+0x20>

00000000004057b0 <qsort@plt>:
  4057b0:	ff 25 22 6c 07 00    	jmp    QWORD PTR [rip+0x76c22]        # 47c3d8 <qsort@GLIBC_2.2.5>
  4057b6:	68 78 00 00 00       	push   0x78
  4057bb:	e9 60 f8 ff ff       	jmp    405020 <_init+0x20>

00000000004057c0 <strdup@plt>:
  4057c0:	ff 25 1a 6c 07 00    	jmp    QWORD PTR [rip+0x76c1a]        # 47c3e0 <strdup@GLIBC_2.2.5>
  4057c6:	68 79 00 00 00       	push   0x79
  4057cb:	e9 50 f8 ff ff       	jmp    405020 <_init+0x20>

00000000004057d0 <XBlackPixel@plt>:
  4057d0:	ff 25 12 6c 07 00    	jmp    QWORD PTR [rip+0x76c12]        # 47c3e8 <XBlackPixel>
  4057d6:	68 7a 00 00 00       	push   0x7a
