  DW_CFA_advance_loc: 2 to 000000000041cedc
  DW_CFA_def_cfa_offset: 24
  DW_CFA_advance_loc: 2 to 000000000041cede
  DW_CFA_def_cfa_offset: 16
  DW_CFA_advance_loc: 2 to 000000000041cee0
  DW_CFA_def_cfa_offset: 8
  DW_CFA_advance_loc: 5 to 000000000041cee5
  DW_CFA_restore_state
  DW_CFA_advance_loc: 46 to 000000000041cf13
  DW_CFA_remember_state
  DW_CFA_def_cfa_offset: 56
  DW_CFA_advance_loc: 8 to 000000000041cf1b
  DW_CFA_def_cfa_offset: 48
  DW_CFA_advance_loc: 1 to 000000000041cf1c
  DW_CFA_def_cfa_offset: 40
  DW_CFA_advance_loc: 2 to 000000000041cf1e
  DW_CFA_def_cfa_offset: 32
  DW_CFA_advance_loc: 2 to 000000000041cf20
  DW_CFA_def_cfa_offset: 24
  DW_CFA_advance_loc: 2 to 000000000041cf22
  DW_CFA_def_cfa_offset: 16
  DW_CFA_advance_loc: 2 to 000000000041cf24
  DW_CFA_def_cfa_offset: 8
  DW_CFA_advance_loc: 5 to 000000000041cf29
  DW_CFA_restore_state
  DW_CFA_advance_loc: 56 to 000000000041cf61
  DW_CFA_remember_state
  DW_CFA_def_cfa_offset: 56
  DW_CFA_advance_loc: 8 to 000000000041cf69
  DW_CFA_def_cfa_offset: 48
  DW_CFA_advance_loc: 1 to 000000000041cf6a
  DW_CFA_def_cfa_offset: 40
  DW_CFA_advance_loc: 2 to 000000000041cf6c
  DW_CFA_def_cfa_offset: 32
  DW_CFA_advance_loc: 2 to 000000000041cf6e
  DW_CFA_def_cfa_offset: 24
  DW_CFA_advance_loc: 2 to 000000000041cf70
  DW_CFA_def_cfa_offset: 16
  DW_CFA_advance_loc: 2 to 000000000041cf72
  DW_CFA_def_cfa_offset: 8
  DW_CFA_advance_loc: 5 to 000000000041cf77
  DW_CFA_restore_state
  DW_CFA_advance_loc: 46 to 000000000041cfa5
  DW_CFA_remember_state
  DW_CFA_def_cfa_offset: 56
  DW_CFA_advance_loc: 8 to 000000000041cfad
  DW_CFA_def_cfa_offset: 48
  DW_CFA_advance_loc: 1 to 000000000041cfae
  DW_CFA_def_cfa_offset: 40
  DW_CFA_advance_loc: 2 to 000000000041cfb0
  DW_CFA_def_cfa_offset: 32
  DW_CFA_advance_loc: 2 to 000000000041cfb2
  DW_CFA_def_cfa_offset: 24
  DW_CFA_advance_loc: 2 to 000000000041cfb4
  DW_CFA_def_cfa_offset: 16
  DW_CFA_advance_loc: 2 to 000000000041cfb6
  DW_CFA_def_cfa_offset: 8
  DW_CFA_advance_loc: 5 to 000000000041cfbb
  DW_CFA_restore_state
  DW_CFA_advance_loc: 56 to 000000000041cff3
  DW_CFA_remember_state
  DW_CFA_def_cfa_offset: 56
  DW_CFA_advance_loc: 8 to 000000000041cffb
  DW_CFA_def_cfa_offset: 48
  DW_CFA_advance_loc: 1 to 000000000041cffc
  DW_CFA_def_cfa_offset: 40
  DW_CFA_advance_loc: 2 to 000000000041cffe
  DW_CFA_def_cfa_offset: 32
  DW_CFA_advance_loc: 2 to 000000000041d000
  DW_CFA_def_cfa_offset: 24
  DW_CFA_advance_loc: 2 to 000000000041d002
  DW_CFA_def_cfa_offset: 16
  DW_CFA_advance_loc: 2 to 000000000041d004
  DW_CFA_def_cfa_offset: 8
  DW_CFA_advance_loc: 5 to 000000000041d009
  DW_CFA_restore_state
  DW_CFA_advance_loc: 46 to 000000000041d037
  DW_CFA_remember_state
  DW_CFA_def_cfa_offset: 56
  DW_CFA_advance_loc: 8 to 000000000041d03f
  DW_CFA_def_cfa_offset: 48
  DW_CFA_advance_loc: 1 to 000000000041d040
  DW_CFA_def_cfa_offset: 40
  DW_CFA_advance_loc: 2 to 000000000041d042
  DW_CFA_def_cfa_offset: 32
  DW_CFA_advance_loc: 2 to 000000000041d044
  DW_CFA_def_cfa_offset: 24
  DW_CFA_advance_loc: 2 to 000000000041d046
  DW_CFA_def_cfa_offset: 16
  DW_CFA_advance_loc: 2 to 000000000041d048
  DW_CFA_def_cfa_offset: 8
  DW_CFA_advance_loc: 5 to 000000000041d04d
  DW_CFA_restore_state
  DW_CFA_advance_loc: 56 to 000000000041d085
  DW_CFA_remember_state
  DW_CFA_def_cfa_offset: 56
  DW_CFA_advance_loc: 8 to 000000000041d08d
  DW_CFA_def_cfa_offset: 48
  DW_CFA_advance_loc: 1 to 000000000041d08e
  DW_CFA_def_cfa_offset: 40
  DW_CFA_advance_loc: 2 to 000000000041d090
  DW_CFA_def_cfa_offset: 32
  DW_CFA_advance_loc: 2 to 000000000041d092
  DW_CFA_def_cfa_offset: 24
  DW_CFA_advance_loc: 2 to 000000000041d094
  DW_CFA_def_cfa_offset: 16
  DW_CFA_advance_loc: 2 to 000000000041d096
  DW_CFA_def_cfa_offset: 8
  DW_CFA_advance_loc: 5 to 000000000041d09b
  DW_CFA_restore_state
  DW_CFA_advance_loc: 46 to 000000000041d0c9
  DW_CFA_remember_state
  DW_CFA_def_cfa_offset: 56
  DW_CFA_advance_loc: 8 to 000000000041d0d1
  DW_CFA_def_cfa_offset: 48
  DW_CFA_advance_loc: 1 to 000000000041d0d2
  DW_CFA_def_cfa_offset: 40
  DW_CFA_advance_loc: 2 to 000000000041d0d4
  DW_CFA_def_cfa_offset: 32
  DW_CFA_advance_loc: 2 to 000000000041d0d6
  DW_CFA_def_cfa_offset: 24
  DW_CFA_advance_loc: 2 to 000000000041d0d8
  DW_CFA_def_cfa_offset: 16
  DW_CFA_advance_loc: 2 to 000000000041d0da
  DW_CFA_def_cfa_offset: 8
  DW_CFA_advance_loc: 5 to 000000000041d0df
  DW_CFA_restore_state
  DW_CFA_advance_loc: 56 to 000000000041d117
  DW_CFA_remember_state
  DW_CFA_def_cfa_offset: 56
  DW_CFA_advance_loc: 8 to 000000000041d11f
  DW_CFA_def_cfa_offset: 48
  DW_CFA_advance_loc: 1 to 000000000041d120
  DW_CFA_def_cfa_offset: 40
  DW_CFA_advance_loc: 2 to 000000000041d122
  DW_CFA_def_cfa_offset: 32
  DW_CFA_advance_loc: 2 to 000000000041d124
  DW_CFA_def_cfa_offset: 24
  DW_CFA_advance_loc: 2 to 000000000041d126
  DW_CFA_def_cfa_offset: 16
  DW_CFA_advance_loc: 2 to 000000000041d128
  DW_CFA_def_cfa_offset: 8
  DW_CFA_advance_loc: 5 to 000000000041d12d
  DW_CFA_restore_state
  DW_CFA_advance_loc: 46 to 000000000041d15b
  DW_CFA_remember_state
  DW_CFA_def_cfa_offset: 56
  DW_CFA_advance_loc: 8 to 000000000041d163
  DW_CFA_def_cfa_offset: 48
  DW_CFA_advance_loc: 1 to 000000000041d164
  DW_CFA_def_cfa_offset: 40
  DW_CFA_advance_loc: 2 to 000000000041d166
  DW_CFA_def_cfa_offset: 32
  DW_CFA_advance_loc: 2 to 000000000041d168
  DW_CFA_def_cfa_offset: 24
  DW_CFA_advance_loc: 2 to 000000000041d16a
  DW_CFA_def_cfa_offset: 16
  DW_CFA_advance_loc: 2 to 000000000041d16c
  DW_CFA_def_cfa_offset: 8
  DW_CFA_advance_loc: 5 to 000000000041d171
  DW_CFA_restore_state
  DW_CFA_advance_loc: 56 to 000000000041d1a9
  DW_CFA_remember_state
  DW_CFA_def_cfa_offset: 56
  DW_CFA_advance_loc: 8 to 000000000041d1b1
  DW_CFA_def_cfa_offset: 48
  DW_CFA_advance_loc: 1 to 000000000041d1b2
  DW_CFA_def_cfa_offset: 40
  DW_CFA_advance_loc: 2 to 000000000041d1b4
  DW_CFA_def_cfa_offset: 32
  DW_CFA_advance_loc: 2 to 000000000041d1b6
  DW_CFA_def_cfa_offset: 24
  DW_CFA_advance_loc: 2 to 000000000041d1b8
  DW_CFA_def_cfa_offset: 16
  DW_CFA_advance_loc: 2 to 000000000041d1ba
  DW_CFA_def_cfa_offset: 8
  DW_CFA_advance_loc: 5 to 000000000041d1bf
  DW_CFA_restore_state
  DW_CFA_advance_loc: 46 to 000000000041d1ed
  DW_CFA_remember_state
  DW_CFA_def_cfa_offset: 56
  DW_CFA_advance_loc: 8 to 000000000041d1f5
  DW_CFA_def_cfa_offset: 48
  DW_CFA_advance_loc: 1 to 000000000041d1f6
  DW_CFA_def_cfa_offset: 40
  DW_CFA_advance_loc: 2 to 000000000041d1f8
  DW_CFA_def_cfa_offset: 32
  DW_CFA_advance_loc: 2 to 000000000041d1fa
  DW_CFA_def_cfa_offset: 24
  DW_CFA_advance_loc: 2 to 000000000041d1fc
  DW_CFA_def_cfa_offset: 16
  DW_CFA_advance_loc: 2 to 000000000041d1fe
  DW_CFA_def_cfa_offset: 8
  DW_CFA_advance_loc: 5 to 000000000041d203
  DW_CFA_restore_state
  DW_CFA_advance_loc: 56 to 000000000041d23b
  DW_CFA_remember_state
  DW_CFA_def_cfa_offset: 56
  DW_CFA_advance_loc: 8 to 000000000041d243
  DW_CFA_def_cfa_offset: 48
  DW_CFA_advance_loc: 1 to 000000000041d244
  DW_CFA_def_cfa_offset: 40
  DW_CFA_advance_loc: 2 to 000000000041d246
  DW_CFA_def_cfa_offset: 32
  DW_CFA_advance_loc: 2 to 000000000041d248
  DW_CFA_def_cfa_offset: 24
  DW_CFA_advance_loc: 2 to 000000000041d24a
  DW_CFA_def_cfa_offset: 16
  DW_CFA_advance_loc: 2 to 000000000041d24c
  DW_CFA_def_cfa_offset: 8
  DW_CFA_advance_loc: 5 to 000000000041d251
  DW_CFA_restore_state
  DW_CFA_advance_loc: 46 to 000000000041d27f
  DW_CFA_remember_state
  DW_CFA_def_cfa_offset: 56
  DW_CFA_advance_loc: 8 to 000000000041d287
  DW_CFA_def_cfa_offset: 48
  DW_CFA_advance_loc: 1 to 000000000041d288
  DW_CFA_def_cfa_offset: 40
  DW_CFA_advance_loc: 2 to 000000000041d28a
  DW_CFA_def_cfa_offset: 32
  DW_CFA_advance_loc: 2 to 000000000041d28c
  DW_CFA_def_cfa_offset: 24
  DW_CFA_advance_loc: 2 to 000000000041d28e
  DW_CFA_def_cfa_offset: 16
  DW_CFA_advance_loc: 2 to 000000000041d290
  DW_CFA_def_cfa_offset: 8
  DW_CFA_advance_loc: 5 to 000000000041d295
  DW_CFA_restore_state
  DW_CFA_advance_loc: 56 to 000000000041d2cd
  DW_CFA_remember_state
  DW_CFA_def_cfa_offset: 56
  DW_CFA_advance_loc: 8 to 000000000041d2d5
  DW_CFA_def_cfa_offset: 48
  DW_CFA_advance_loc: 1 to 000000000041d2d6
  DW_CFA_def_cfa_offset: 40
  DW_CFA_advance_loc: 2 to 000000000041d2d8
  DW_CFA_def_cfa_offset: 32
  DW_CFA_advance_loc: 2 to 000000000041d2da
  DW_CFA_def_cfa_offset: 24
  DW_CFA_advance_loc: 2 to 000000000041d2dc
  DW_CFA_def_cfa_offset: 16
  DW_CFA_advance_loc: 2 to 000000000041d2de
  DW_CFA_def_cfa_offset: 8
  DW_CFA_advance_loc: 5 to 000000000041d2e3
  DW_CFA_restore_state
  DW_CFA_advance_loc: 46 to 000000000041d311
  DW_CFA_remember_state
  DW_CFA_def_cfa_offset: 56
  DW_CFA_advance_loc: 8 to 000000000041d319
  DW_CFA_def_cfa_offset: 48
  DW_CFA_advance_loc: 1 to 000000000041d31a
  DW_CFA_def_cfa_offset: 40
  DW_CFA_advance_loc: 2 to 000000000041d31c
  DW_CFA_def_cfa_offset: 32
  DW_CFA_advance_loc: 2 to 000000000041d31e
  DW_CFA_def_cfa_offset: 24
  DW_CFA_advance_loc: 2 to 000000000041d320
  DW_CFA_def_cfa_offset: 16
  DW_CFA_advance_loc: 2 to 000000000041d322
  DW_CFA_def_cfa_offset: 8
  DW_CFA_advance_loc: 5 to 000000000041d327
  DW_CFA_restore_state
  DW_CFA_advance_loc: 56 to 000000000041d35f
  DW_CFA_remember_state
  DW_CFA_def_cfa_offset: 56
  DW_CFA_advance_loc: 8 to 000000000041d367
  DW_CFA_def_cfa_offset: 48
  DW_CFA_advance_loc: 1 to 000000000041d368
  DW_CFA_def_cfa_offset: 40
  DW_CFA_advance_loc: 2 to 000000000041d36a
  DW_CFA_def_cfa_offset: 32
  DW_CFA_advance_loc: 2 to 000000000041d36c
  DW_CFA_def_cfa_offset: 24
  DW_CFA_advance_loc: 2 to 000000000041d36e
  DW_CFA_def_cfa_offset: 16
  DW_CFA_advance_loc: 2 to 000000000041d370
  DW_CFA_def_cfa_offset: 8
  DW_CFA_advance_loc: 5 to 000000000041d375
  DW_CFA_restore_state
  DW_CFA_advance_loc: 46 to 000000000041d3a3
  DW_CFA_remember_state
  DW_CFA_def_cfa_offset: 56
  DW_CFA_advance_loc: 8 to 000000000041d3ab
  DW_CFA_def_cfa_offset: 48
  DW_CFA_advance_loc: 1 to 000000000041d3ac
  DW_CFA_def_cfa_offset: 40
  DW_CFA_advance_loc: 2 to 000000000041d3ae
  DW_CFA_def_cfa_offset: 32
  DW_CFA_advance_loc: 2 to 000000000041d3b0
  DW_CFA_def_cfa_offset: 24
  DW_CFA_advance_loc: 2 to 000000000041d3b2
  DW_CFA_def_cfa_offset: 16
  DW_CFA_advance_loc: 2 to 000000000041d3b4
  DW_CFA_def_cfa_offset: 8
  DW_CFA_advance_loc: 5 to 000000000041d3b9
  DW_CFA_restore_state
  DW_CFA_advance_loc: 56 to 000000000041d3f1
  DW_CFA_remember_state
  DW_CFA_def_cfa_offset: 56
  DW_CFA_advance_loc: 8 to 000000000041d3f9
  DW_CFA_def_cfa_offset: 48
  DW_CFA_advance_loc: 1 to 000000000041d3fa
  DW_CFA_def_cfa_offset: 40
  DW_CFA_advance_loc: 2 to 000000000041d3fc
  DW_CFA_def_cfa_offset: 32
  DW_CFA_advance_loc: 2 to 000000000041d3fe
  DW_CFA_def_cfa_offset: 24
  DW_CFA_advance_loc: 2 to 000000000041d400
  DW_CFA_def_cfa_offset: 16
  DW_CFA_advance_loc: 2 to 000000000041d402
  DW_CFA_def_cfa_offset: 8
  DW_CFA_advance_loc: 5 to 000000000041d407
  DW_CFA_restore_state
  DW_CFA_advance_loc: 46 to 000000000041d435
  DW_CFA_remember_state
  DW_CFA_def_cfa_offset: 56
  DW_CFA_advance_loc: 8 to 000000000041d43d
  DW_CFA_def_cfa_offset: 48
  DW_CFA_advance_loc: 1 to 000000000041d43e
  DW_CFA_def_cfa_offset: 40
  DW_CFA_advance_loc: 2 to 000000000041d440
  DW_CFA_def_cfa_offset: 32
  DW_CFA_advance_loc: 2 to 000000000041d442
  DW_CFA_def_cfa_offset: 24
  DW_CFA_advance_loc: 2 to 000000000041d444
  DW_CFA_def_cfa_offset: 16
  DW_CFA_advance_loc: 2 to 000000000041d446
  DW_CFA_def_cfa_offset: 8
  DW_CFA_advance_loc: 5 to 000000000041d44b
  DW_CFA_restore_state
  DW_CFA_advance_loc: 56 to 000000000041d483
  DW_CFA_remember_state
  DW_CFA_def_cfa_offset: 56
  DW_CFA_advance_loc: 8 to 000000000041d48b
  DW_CFA_def_cfa_offset: 48
  DW_CFA_advance_loc: 1 to 000000000041d48c
  DW_CFA_def_cfa_offset: 40
  DW_CFA_advance_loc: 2 to 000000000041d48e
  DW_CFA_def_cfa_offset: 32
  DW_CFA_advance_loc: 2 to 000000000041d490
  DW_CFA_def_cfa_offset: 24
  DW_CFA_advance_loc: 2 to 000000000041d492
  DW_CFA_def_cfa_offset: 16
  DW_CFA_advance_loc: 2 to 000000000041d494
  DW_CFA_def_cfa_offset: 8
  DW_CFA_advance_loc: 5 to 000000000041d499
  DW_CFA_restore_state
  DW_CFA_advance_loc: 46 to 000000000041d4c7
  DW_CFA_remember_state
  DW_CFA_def_cfa_offset: 56
  DW_CFA_advance_loc: 8 to 000000000041d4cf
  DW_CFA_def_cfa_offset: 48
  DW_CFA_advance_loc: 1 to 000000000041d4d0
  DW_CFA_def_cfa_offset: 40
  DW_CFA_advance_loc: 2 to 000000000041d4d2
  DW_CFA_def_cfa_offset: 32
  DW_CFA_advance_loc: 2 to 000000000041d4d4
  DW_CFA_def_cfa_offset: 24
  DW_CFA_advance_loc: 2 to 000000000041d4d6
  DW_CFA_def_cfa_offset: 16
  DW_CFA_advance_loc: 2 to 000000000041d4d8
  DW_CFA_def_cfa_offset: 8
  DW_CFA_advance_loc: 5 to 000000000041d4dd
  DW_CFA_restore_state
  DW_CFA_advance_loc: 56 to 000000000041d515
  DW_CFA_remember_state
  DW_CFA_def_cfa_offset: 56
  DW_CFA_advance_loc: 8 to 000000000041d51d
  DW_CFA_def_cfa_offset: 48
  DW_CFA_advance_loc: 1 to 000000000041d51e
  DW_CFA_def_cfa_offset: 40
  DW_CFA_advance_loc: 2 to 000000000041d520
  DW_CFA_def_cfa_offset: 32
  DW_CFA_advance_loc: 2 to 000000000041d522
  DW_CFA_def_cfa_offset: 24
  DW_CFA_advance_loc: 2 to 000000000041d524
  DW_CFA_def_cfa_offset: 16
  DW_CFA_advance_loc: 2 to 000000000041d526
  DW_CFA_def_cfa_offset: 8
  DW_CFA_advance_loc: 5 to 000000000041d52b
  DW_CFA_restore_state
  DW_CFA_advance_loc: 46 to 000000000041d559
  DW_CFA_remember_state
  DW_CFA_def_cfa_offset: 56
  DW_CFA_advance_loc: 8 to 000000000041d561
  DW_CFA_def_cfa_offset: 48
  DW_CFA_advance_loc: 1 to 000000000041d562
  DW_CFA_def_cfa_offset: 40
  DW_CFA_advance_loc: 2 to 000000000041d564
  DW_CFA_def_cfa_offset: 32
  DW_CFA_advance_loc: 2 to 000000000041d566
  DW_CFA_def_cfa_offset: 24
  DW_CFA_advance_loc: 2 to 000000000041d568
  DW_CFA_def_cfa_offset: 16
  DW_CFA_advance_loc: 2 to 000000000041d56a
  DW_CFA_def_cfa_offset: 8
  DW_CFA_advance_loc: 5 to 000000000041d56f
  DW_CFA_restore_state
  DW_CFA_advance_loc: 56 to 000000000041d5a7
  DW_CFA_remember_state
  DW_CFA_def_cfa_offset: 56
  DW_CFA_advance_loc: 8 to 000000000041d5af
  DW_CFA_def_cfa_offset: 48
  DW_CFA_advance_loc: 1 to 000000000041d5b0
  DW_CFA_def_cfa_offset: 40
  DW_CFA_advance_loc: 2 to 000000000041d5b2
  DW_CFA_def_cfa_offset: 32
  DW_CFA_advance_loc: 2 to 000000000041d5b4
  DW_CFA_def_cfa_offset: 24
  DW_CFA_advance_loc: 2 to 000000000041d5b6
  DW_CFA_def_cfa_offset: 16
  DW_CFA_advance_loc: 2 to 000000000041d5b8
  DW_CFA_def_cfa_offset: 8
  DW_CFA_advance_loc: 5 to 000000000041d5bd
  DW_CFA_restore_state
  DW_CFA_advance_loc: 46 to 000000000041d5eb
  DW_CFA_remember_state
  DW_CFA_def_cfa_offset: 56
  DW_CFA_advance_loc: 8 to 000000000041d5f3
  DW_CFA_def_cfa_offset: 48
  DW_CFA_advance_loc: 1 to 000000000041d5f4
  DW_CFA_def_cfa_offset: 40
  DW_CFA_advance_loc: 2 to 000000000041d5f6
  DW_CFA_def_cfa_offset: 32
  DW_CFA_advance_loc: 2 to 000000000041d5f8
  DW_CFA_def_cfa_offset: 24
  DW_CFA_advance_loc: 2 to 000000000041d5fa
  DW_CFA_def_cfa_offset: 16
  DW_CFA_advance_loc: 2 to 000000000041d5fc
  DW_CFA_def_cfa_offset: 8
  DW_CFA_advance_loc: 5 to 000000000041d601
  DW_CFA_restore_state
  DW_CFA_advance_loc: 56 to 000000000041d639
  DW_CFA_remember_state
  DW_CFA_def_cfa_offset: 56
  DW_CFA_advance_loc: 8 to 000000000041d641
  DW_CFA_def_cfa_offset: 48
  DW_CFA_advance_loc: 1 to 000000000041d642
  DW_CFA_def_cfa_offset: 40
  DW_CFA_advance_loc: 2 to 000000000041d644
  DW_CFA_def_cfa_offset: 32
  DW_CFA_advance_loc: 2 to 000000000041d646
  DW_CFA_def_cfa_offset: 24
  DW_CFA_advance_loc: 2 to 000000000041d648
  DW_CFA_def_cfa_offset: 16
  DW_CFA_advance_loc: 2 to 000000000041d64a
  DW_CFA_def_cfa_offset: 8
  DW_CFA_advance_loc: 5 to 000000000041d64f
  DW_CFA_restore_state
  DW_CFA_advance_loc: 46 to 000000000041d67d
  DW_CFA_remember_state
  DW_CFA_def_cfa_offset: 56
  DW_CFA_advance_loc: 8 to 000000000041d685
  DW_CFA_def_cfa_offset: 48
  DW_CFA_advance_loc: 1 to 000000000041d686
  DW_CFA_def_cfa_offset: 40
  DW_CFA_advance_loc: 2 to 000000000041d688
  DW_CFA_def_cfa_offset: 32
  DW_CFA_advance_loc: 2 to 000000000041d68a
  DW_CFA_def_cfa_offset: 24
  DW_CFA_advance_loc: 2 to 000000000041d68c
  DW_CFA_def_cfa_offset: 16
  DW_CFA_advance_loc: 2 to 000000000041d68e
  DW_CFA_def_cfa_offset: 8
  DW_CFA_advance_loc: 5 to 000000000041d693
  DW_CFA_restore_state
  DW_CFA_advance_loc: 56 to 000000000041d6cb
  DW_CFA_remember_state
  DW_CFA_def_cfa_offset: 56
  DW_CFA_advance_loc: 8 to 000000000041d6d3
  DW_CFA_def_cfa_offset: 48
  DW_CFA_advance_loc: 1 to 000000000041d6d4
  DW_CFA_def_cfa_offset: 40
  DW_CFA_advance_loc: 2 to 000000000041d6d6
  DW_CFA_def_cfa_offset: 32
  DW_CFA_advance_loc: 2 to 000000000041d6d8
  DW_CFA_def_cfa_offset: 24
  DW_CFA_advance_loc: 2 to 000000000041d6da
  DW_CFA_def_cfa_offset: 16
  DW_CFA_advance_loc: 2 to 000000000041d6dc
  DW_CFA_def_cfa_offset: 8
  DW_CFA_advance_loc: 5 to 000000000041d6e1
  DW_CFA_restore_state
  DW_CFA_advance_loc: 46 to 000000000041d70f
  DW_CFA_remember_state
  DW_CFA_def_cfa_offset: 56
  DW_CFA_advance_loc: 8 to 000000000041d717
  DW_CFA_def_cfa_offset: 48
  DW_CFA_advance_loc: 1 to 000000000041d718
  DW_CFA_def_cfa_offset: 40
  DW_CFA_advance_loc: 2 to 000000000041d71a
  DW_CFA_def_cfa_offset: 32
  DW_CFA_advance_loc: 2 to 000000000041d71c
  DW_CFA_def_cfa_offset: 24
  DW_CFA_advance_loc: 2 to 000000000041d71e
  DW_CFA_def_cfa_offset: 16
  DW_CFA_advance_loc: 2 to 000000000041d720
  DW_CFA_def_cfa_offset: 8
  DW_CFA_advance_loc: 5 to 000000000041d725
  DW_CFA_restore_state
  DW_CFA_advance_loc: 56 to 000000000041d75d
  DW_CFA_remember_state
  DW_CFA_def_cfa_offset: 56
  DW_CFA_advance_loc: 8 to 000000000041d765
  DW_CFA_def_cfa_offset: 48
  DW_CFA_advance_loc: 1 to 000000000041d766
  DW_CFA_def_cfa_offset: 40
  DW_CFA_advance_loc: 2 to 000000000041d768
  DW_CFA_def_cfa_offset: 32
  DW_CFA_advance_loc: 2 to 000000000041d76a
  DW_CFA_def_cfa_offset: 24
  DW_CFA_advance_loc: 2 to 000000000041d76c
  DW_CFA_def_cfa_offset: 16
  DW_CFA_advance_loc: 2 to 000000000041d76e
  DW_CFA_def_cfa_offset: 8
  DW_CFA_advance_loc: 5 to 000000000041d773
  DW_CFA_restore_state
  DW_CFA_advance_loc: 46 to 000000000041d7a1
  DW_CFA_remember_state
  DW_CFA_def_cfa_offset: 56
  DW_CFA_advance_loc: 8 to 000000000041d7a9
  DW_CFA_def_cfa_offset: 48
  DW_CFA_advance_loc: 1 to 000000000041d7aa
  DW_CFA_def_cfa_offset: 40
  DW_CFA_advance_loc: 2 to 000000000041d7ac
  DW_CFA_def_cfa_offset: 32
  DW_CFA_advance_loc: 2 to 000000000041d7ae
  DW_CFA_def_cfa_offset: 24
  DW_CFA_advance_loc: 2 to 000000000041d7b0
  DW_CFA_def_cfa_offset: 16
  DW_CFA_advance_loc: 2 to 000000000041d7b2
  DW_CFA_def_cfa_offset: 8
  DW_CFA_advance_loc: 5 to 000000000041d7b7
  DW_CFA_restore_state
  DW_CFA_advance_loc: 56 to 000000000041d7ef
  DW_CFA_remember_state
  DW_CFA_def_cfa_offset: 56
  DW_CFA_advance_loc: 8 to 000000000041d7f7
  DW_CFA_def_cfa_offset: 48
  DW_CFA_advance_loc: 1 to 000000000041d7f8
  DW_CFA_def_cfa_offset: 40
  DW_CFA_advance_loc: 2 to 000000000041d7fa
  DW_CFA_def_cfa_offset: 32
  DW_CFA_advance_loc: 2 to 000000000041d7fc
  DW_CFA_def_cfa_offset: 24
  DW_CFA_advance_loc: 2 to 000000000041d7fe
  DW_CFA_def_cfa_offset: 16
  DW_CFA_advance_loc: 2 to 000000000041d800
  DW_CFA_def_cfa_offset: 8
  DW_CFA_advance_loc: 5 to 000000000041d805
  DW_CFA_restore_state
  DW_CFA_advance_loc: 46 to 000000000041d833
  DW_CFA_remember_state
  DW_CFA_def_cfa_offset: 56
  DW_CFA_advance_loc: 8 to 000000000041d83b
  DW_CFA_def_cfa_offset: 48
  DW_CFA_advance_loc: 1 to 000000000041d83c
  DW_CFA_def_cfa_offset: 40
  DW_CFA_advance_loc: 2 to 000000000041d83e
  DW_CFA_def_cfa_offset: 32
  DW_CFA_advance_loc: 2 to 000000000041d840
  DW_CFA_def_cfa_offset: 24
  DW_CFA_advance_loc: 2 to 000000000041d842
  DW_CFA_def_cfa_offset: 16
  DW_CFA_advance_loc: 2 to 000000000041d844
  DW_CFA_def_cfa_offset: 8
  DW_CFA_advance_loc: 5 to 000000000041d849
  DW_CFA_restore_state
  DW_CFA_advance_loc: 56 to 000000000041d881
  DW_CFA_remember_state
  DW_CFA_def_cfa_offset: 56
  DW_CFA_advance_loc: 8 to 000000000041d889
  DW_CFA_def_cfa_offset: 48
  DW_CFA_advance_loc: 1 to 000000000041d88a
  DW_CFA_def_cfa_offset: 40
  DW_CFA_advance_loc: 2 to 000000000041d88c
  DW_CFA_def_cfa_offset: 32
  DW_CFA_advance_loc: 2 to 000000000041d88e
  DW_CFA_def_cfa_offset: 24
  DW_CFA_advance_loc: 2 to 000000000041d890
  DW_CFA_def_cfa_offset: 16
  DW_CFA_advance_loc: 2 to 000000000041d892
  DW_CFA_def_cfa_offset: 8
  DW_CFA_advance_loc: 5 to 000000000041d897
  DW_CFA_restore_state
  DW_CFA_advance_loc: 46 to 000000000041d8c5
  DW_CFA_remember_state
  DW_CFA_def_cfa_offset: 56
  DW_CFA_advance_loc: 8 to 000000000041d8cd
  DW_CFA_def_cfa_offset: 48
  DW_CFA_advance_loc: 1 to 000000000041d8ce
  DW_CFA_def_cfa_offset: 40
  DW_CFA_advance_loc: 2 to 000000000041d8d0
  DW_CFA_def_cfa_offset: 32
  DW_CFA_advance_loc: 2 to 000000000041d8d2
  DW_CFA_def_cfa_offset: 24
  DW_CFA_advance_loc: 2 to 000000000041d8d4
  DW_CFA_def_cfa_offset: 16
  DW_CFA_advance_loc: 2 to 000000000041d8d6
  DW_CFA_def_cfa_offset: 8
  DW_CFA_advance_loc: 5 to 000000000041d8db
  DW_CFA_restore_state
  DW_CFA_advance_loc: 56 to 000000000041d913
  DW_CFA_remember_state
  DW_CFA_def_cfa_offset: 56
  DW_CFA_advance_loc: 8 to 000000000041d91b
  DW_CFA_def_cfa_offset: 48
  DW_CFA_advance_loc: 1 to 000000000041d91c
  DW_CFA_def_cfa_offset: 40
  DW_CFA_advance_loc: 2 to 000000000041d91e
  DW_CFA_def_cfa_offset: 32
  DW_CFA_advance_loc: 2 to 000000000041d920
  DW_CFA_def_cfa_offset: 24
  DW_CFA_advance_loc: 2 to 000000000041d922
  DW_CFA_def_cfa_offset: 16
  DW_CFA_advance_loc: 2 to 000000000041d924
  DW_CFA_def_cfa_offset: 8
  DW_CFA_advance_loc: 5 to 000000000041d929
  DW_CFA_restore_state
  DW_CFA_advance_loc: 46 to 000000000041d957
  DW_CFA_remember_state
  DW_CFA_def_cfa_offset: 56
  DW_CFA_advance_loc: 8 to 000000000041d95f
  DW_CFA_def_cfa_offset: 48
  DW_CFA_advance_loc: 1 to 000000000041d960
  DW_CFA_def_cfa_offset: 40
  DW_CFA_advance_loc: 2 to 000000000041d962
  DW_CFA_def_cfa_offset: 32
  DW_CFA_advance_loc: 2 to 000000000041d964
  DW_CFA_def_cfa_offset: 24
  DW_CFA_advance_loc: 2 to 000000000041d966
  DW_CFA_def_cfa_offset: 16
  DW_CFA_advance_loc: 2 to 000000000041d968
  DW_CFA_def_cfa_offset: 8
  DW_CFA_advance_loc: 5 to 000000000041d96d
  DW_CFA_restore_state
  DW_CFA_advance_loc: 56 to 000000000041d9a5
  DW_CFA_remember_state
  DW_CFA_def_cfa_offset: 56
  DW_CFA_advance_loc: 8 to 000000000041d9ad
  DW_CFA_def_cfa_offset: 48
  DW_CFA_advance_loc: 1 to 000000000041d9ae
  DW_CFA_def_cfa_offset: 40
  DW_CFA_advance_loc: 2 to 000000000041d9b0
  DW_CFA_def_cfa_offset: 32
  DW_CFA_advance_loc: 2 to 000000000041d9b2
  DW_CFA_def_cfa_offset: 24
  DW_CFA_advance_loc: 2 to 000000000041d9b4
  DW_CFA_def_cfa_offset: 16
  DW_CFA_advance_loc: 2 to 000000000041d9b6
  DW_CFA_def_cfa_offset: 8
  DW_CFA_advance_loc: 5 to 000000000041d9bb
  DW_CFA_restore_state
  DW_CFA_advance_loc: 46 to 000000000041d9e9
  DW_CFA_remember_state
  DW_CFA_def_cfa_offset: 56
  DW_CFA_advance_loc: 8 to 000000000041d9f1
  DW_CFA_def_cfa_offset: 48
  DW_CFA_advance_loc: 1 to 000000000041d9f2
  DW_CFA_def_cfa_offset: 40
  DW_CFA_advance_loc: 2 to 000000000041d9f4
  DW_CFA_def_cfa_offset: 32
  DW_CFA_advance_loc: 2 to 000000000041d9f6
  DW_CFA_def_cfa_offset: 24
  DW_CFA_advance_loc: 2 to 000000000041d9f8
  DW_CFA_def_cfa_offset: 16
  DW_CFA_advance_loc: 2 to 000000000041d9fa
  DW_CFA_def_cfa_offset: 8
  DW_CFA_advance_loc: 5 to 000000000041d9ff
  DW_CFA_restore_state
  DW_CFA_advance_loc: 56 to 000000000041da37
  DW_CFA_remember_state
  DW_CFA_def_cfa_offset: 56
  DW_CFA_advance_loc: 8 to 000000000041da3f
  DW_CFA_def_cfa_offset: 48
  DW_CFA_advance_loc: 1 to 000000000041da40
  DW_CFA_def_cfa_offset: 40
  DW_CFA_advance_loc: 2 to 000000000041da42
  DW_CFA_def_cfa_offset: 32
  DW_CFA_advance_loc: 2 to 000000000041da44
  DW_CFA_def_cfa_offset: 24
  DW_CFA_advance_loc: 2 to 000000000041da46
  DW_CFA_def_cfa_offset: 16
  DW_CFA_advance_loc: 2 to 000000000041da48
  DW_CFA_def_cfa_offset: 8
  DW_CFA_advance_loc: 5 to 000000000041da4d
  DW_CFA_restore_state
  DW_CFA_advance_loc: 46 to 000000000041da7b
  DW_CFA_remember_state
  DW_CFA_def_cfa_offset: 56
  DW_CFA_advance_loc: 8 to 000000000041da83
  DW_CFA_def_cfa_offset: 48
  DW_CFA_advance_loc: 1 to 000000000041da84
  DW_CFA_def_cfa_offset: 40
  DW_CFA_advance_loc: 2 to 000000000041da86
  DW_CFA_def_cfa_offset: 32
  DW_CFA_advance_loc: 2 to 000000000041da88
  DW_CFA_def_cfa_offset: 24
  DW_CFA_advance_loc: 2 to 000000000041da8a
  DW_CFA_def_cfa_offset: 16
  DW_CFA_advance_loc: 2 to 000000000041da8c
  DW_CFA_def_cfa_offset: 8
  DW_CFA_advance_loc: 5 to 000000000041da91
  DW_CFA_restore_state
  DW_CFA_advance_loc: 56 to 000000000041dac9
  DW_CFA_remember_state
  DW_CFA_def_cfa_offset: 56
  DW_CFA_advance_loc: 8 to 000000000041dad1
  DW_CFA_def_cfa_offset: 48
  DW_CFA_advance_loc: 1 to 000000000041dad2
  DW_CFA_def_cfa_offset: 40
  DW_CFA_advance_loc: 2 to 000000000041dad4
  DW_CFA_def_cfa_offset: 32
  DW_CFA_advance_loc: 2 to 000000000041dad6
  DW_CFA_def_cfa_offset: 24
  DW_CFA_advance_loc: 2 to 000000000041dad8
  DW_CFA_def_cfa_offset: 16
  DW_CFA_advance_loc: 2 to 000000000041dada
  DW_CFA_def_cfa_offset: 8
  DW_CFA_advance_loc: 5 to 000000000041dadf
  DW_CFA_restore_state
  DW_CFA_advance_loc: 46 to 000000000041db0d
  DW_CFA_remember_state
  DW_CFA_def_cfa_offset: 56
  DW_CFA_advance_loc: 8 to 000000000041db15
  DW_CFA_def_cfa_offset: 48
  DW_CFA_advance_loc: 1 to 000000000041db16
  DW_CFA_def_cfa_offset: 40
  DW_CFA_advance_loc: 2 to 000000000041db18
  DW_CFA_def_cfa_offset: 32
  DW_CFA_advance_loc: 2 to 000000000041db1a
  DW_CFA_def_cfa_offset: 24
  DW_CFA_advance_loc: 2 to 000000000041db1c
  DW_CFA_def_cfa_offset: 16
  DW_CFA_advance_loc: 2 to 000000000041db1e
  DW_CFA_def_cfa_offset: 8
  DW_CFA_advance_loc: 5 to 000000000041db23
  DW_CFA_restore_state
  DW_CFA_advance_loc: 56 to 000000000041db5b
  DW_CFA_remember_state
  DW_CFA_def_cfa_offset: 56
  DW_CFA_advance_loc: 8 to 000000000041db63
  DW_CFA_def_cfa_offset: 48
  DW_CFA_advance_loc: 1 to 000000000041db64
  DW_CFA_def_cfa_offset: 40
  DW_CFA_advance_loc: 2 to 000000000041db66
  DW_CFA_def_cfa_offset: 32
  DW_CFA_advance_loc: 2 to 000000000041db68
  DW_CFA_def_cfa_offset: 24
  DW_CFA_advance_loc: 2 to 000000000041db6a
  DW_CFA_def_cfa_offset: 16
  DW_CFA_advance_loc: 2 to 000000000041db6c
  DW_CFA_def_cfa_offset: 8
  DW_CFA_advance_loc: 5 to 000000000041db71
  DW_CFA_restore_state
  DW_CFA_advance_loc: 46 to 000000000041db9f
  DW_CFA_remember_state
  DW_CFA_def_cfa_offset: 56
  DW_CFA_advance_loc: 8 to 000000000041dba7
  DW_CFA_def_cfa_offset: 48
  DW_CFA_advance_loc: 1 to 000000000041dba8
  DW_CFA_def_cfa_offset: 40
  DW_CFA_advance_loc: 2 to 000000000041dbaa
  DW_CFA_def_cfa_offset: 32
  DW_CFA_advance_loc: 2 to 000000000041dbac
  DW_CFA_def_cfa_offset: 24
  DW_CFA_advance_loc: 2 to 000000000041dbae
  DW_CFA_def_cfa_offset: 16
  DW_CFA_advance_loc: 2 to 000000000041dbb0
  DW_CFA_def_cfa_offset: 8
  DW_CFA_advance_loc: 5 to 000000000041dbb5
  DW_CFA_restore_state
  DW_CFA_advance_loc: 56 to 000000000041dbed
  DW_CFA_remember_state
  DW_CFA_def_cfa_offset: 56
  DW_CFA_advance_loc: 8 to 000000000041dbf5
  DW_CFA_def_cfa_offset: 48
  DW_CFA_advance_loc: 1 to 000000000041dbf6
  DW_CFA_def_cfa_offset: 40
  DW_CFA_advance_loc: 2 to 000000000041dbf8
  DW_CFA_def_cfa_offset: 32
  DW_CFA_advance_loc: 2 to 000000000041dbfa
  DW_CFA_def_cfa_offset: 24
  DW_CFA_advance_loc: 2 to 000000000041dbfc
  DW_CFA_def_cfa_offset: 16
  DW_CFA_advance_loc: 2 to 000000000041dbfe
  DW_CFA_def_cfa_offset: 8
  DW_CFA_advance_loc: 5 to 000000000041dc03
  DW_CFA_restore_state
  DW_CFA_advance_loc: 46 to 000000000041dc31
  DW_CFA_remember_state
  DW_CFA_def_cfa_offset: 56
  DW_CFA_advance_loc: 8 to 000000000041dc39
  DW_CFA_def_cfa_offset: 48
  DW_CFA_advance_loc: 1 to 000000000041dc3a
  DW_CFA_def_cfa_offset: 40
  DW_CFA_advance_loc: 2 to 000000000041dc3c
  DW_CFA_def_cfa_offset: 32
  DW_CFA_advance_loc: 2 to 000000000041dc3e
  DW_CFA_def_cfa_offset: 24
  DW_CFA_advance_loc: 2 to 000000000041dc40
  DW_CFA_def_cfa_offset: 16
  DW_CFA_advance_loc: 2 to 000000000041dc42
  DW_CFA_def_cfa_offset: 8
  DW_CFA_advance_loc: 5 to 000000000041dc47
  DW_CFA_restore_state
  DW_CFA_advance_loc: 56 to 000000000041dc7f
  DW_CFA_remember_state
  DW_CFA_def_cfa_offset: 56
  DW_CFA_advance_loc: 8 to 000000000041dc87
  DW_CFA_def_cfa_offset: 48
  DW_CFA_advance_loc: 1 to 000000000041dc88
  DW_CFA_def_cfa_offset: 40
  DW_CFA_advance_loc: 2 to 000000000041dc8a
  DW_CFA_def_cfa_offset: 32
  DW_CFA_advance_loc: 2 to 000000000041dc8c
  DW_CFA_def_cfa_offset: 24
  DW_CFA_advance_loc: 2 to 000000000041dc8e
  DW_CFA_def_cfa_offset: 16
  DW_CFA_advance_loc: 2 to 000000000041dc90
  DW_CFA_def_cfa_offset: 8
  DW_CFA_advance_loc: 5 to 000000000041dc95
  DW_CFA_restore_state
  DW_CFA_advance_loc: 46 to 000000000041dcc3
  DW_CFA_remember_state
  DW_CFA_def_cfa_offset: 56
  DW_CFA_advance_loc: 8 to 000000000041dccb
  DW_CFA_def_cfa_offset: 48
  DW_CFA_advance_loc: 1 to 000000000041dccc
  DW_CFA_def_cfa_offset: 40
  DW_CFA_advance_loc: 2 to 000000000041dcce
  DW_CFA_def_cfa_offset: 32
  DW_CFA_advance_loc: 2 to 000000000041dcd0
  DW_CFA_def_cfa_offset: 24
  DW_CFA_advance_loc: 2 to 000000000041dcd2
  DW_CFA_def_cfa_offset: 16
  DW_CFA_advance_loc: 2 to 000000000041dcd4
  DW_CFA_def_cfa_offset: 8
  DW_CFA_advance_loc: 5 to 000000000041dcd9
  DW_CFA_restore_state
  DW_CFA_advance_loc: 56 to 000000000041dd11
  DW_CFA_remember_state
  DW_CFA_def_cfa_offset: 56
  DW_CFA_advance_loc: 8 to 000000000041dd19
  DW_CFA_def_cfa_offset: 48
  DW_CFA_advance_loc: 1 to 000000000041dd1a
  DW_CFA_def_cfa_offset: 40
  DW_CFA_advance_loc: 2 to 000000000041dd1c
  DW_CFA_def_cfa_offset: 32
  DW_CFA_advance_loc: 2 to 000000000041dd1e
  DW_CFA_def_cfa_offset: 24
  DW_CFA_advance_loc: 2 to 000000000041dd20
  DW_CFA_def_cfa_offset: 16
  DW_CFA_advance_loc: 2 to 000000000041dd22
  DW_CFA_def_cfa_offset: 8
  DW_CFA_advance_loc: 5 to 000000000041dd27
  DW_CFA_restore_state
  DW_CFA_advance_loc: 46 to 000000000041dd55
  DW_CFA_remember_state
  DW_CFA_def_cfa_offset: 56
  DW_CFA_advance_loc: 8 to 000000000041dd5d
  DW_CFA_def_cfa_offset: 48
  DW_CFA_advance_loc: 1 to 000000000041dd5e
  DW_CFA_def_cfa_offset: 40
  DW_CFA_advance_loc: 2 to 000000000041dd60
  DW_CFA_def_cfa_offset: 32
  DW_CFA_advance_loc: 2 to 000000000041dd62
  DW_CFA_def_cfa_offset: 24
  DW_CFA_advance_loc: 2 to 000000000041dd64
  DW_CFA_def_cfa_offset: 16
  DW_CFA_advance_loc: 2 to 000000000041dd66
  DW_CFA_def_cfa_offset: 8
  DW_CFA_advance_loc: 5 to 000000000041dd6b
  DW_CFA_restore_state
  DW_CFA_advance_loc: 56 to 000000000041dda3
  DW_CFA_remember_state
  DW_CFA_def_cfa_offset: 56
  DW_CFA_advance_loc: 8 to 000000000041ddab
  DW_CFA_def_cfa_offset: 48
  DW_CFA_advance_loc: 1 to 000000000041ddac
  DW_CFA_def_cfa_offset: 40
  DW_CFA_advance_loc: 2 to 000000000041ddae
  DW_CFA_def_cfa_offset: 32
  DW_CFA_advance_loc: 2 to 000000000041ddb0
  DW_CFA_def_cfa_offset: 24
  DW_CFA_advance_loc: 2 to 000000000041ddb2
  DW_CFA_def_cfa_offset: 16
  DW_CFA_advance_loc: 2 to 000000000041ddb4
  DW_CFA_def_cfa_offset: 8
  DW_CFA_advance_loc: 5 to 000000000041ddb9
  DW_CFA_restore_state
  DW_CFA_advance_loc: 46 to 000000000041dde7
  DW_CFA_remember_state
  DW_CFA_def_cfa_offset: 56
  DW_CFA_advance_loc: 8 to 000000000041ddef
  DW_CFA_def_cfa_offset: 48
  DW_CFA_advance_loc: 1 to 000000000041ddf0
  DW_CFA_def_cfa_offset: 40
  DW_CFA_advance_loc: 2 to 000000000041ddf2
  DW_CFA_def_cfa_offset: 32
  DW_CFA_advance_loc: 2 to 000000000041ddf4
  DW_CFA_def_cfa_offset: 24
  DW_CFA_advance_loc: 2 to 000000000041ddf6
  DW_CFA_def_cfa_offset: 16
  DW_CFA_advance_loc: 2 to 000000000041ddf8
  DW_CFA_def_cfa_offset: 8
  DW_CFA_advance_loc: 5 to 000000000041ddfd
  DW_CFA_restore_state
  DW_CFA_advance_loc: 56 to 000000000041de35
  DW_CFA_remember_state
  DW_CFA_def_cfa_offset: 56
  DW_CFA_advance_loc: 8 to 000000000041de3d
  DW_CFA_def_cfa_offset: 48
  DW_CFA_advance_loc: 1 to 000000000041de3e
  DW_CFA_def_cfa_offset: 40
  DW_CFA_advance_loc: 2 to 000000000041de40
  DW_CFA_def_cfa_offset: 32
  DW_CFA_advance_loc: 2 to 000000000041de42
  DW_CFA_def_cfa_offset: 24
  DW_CFA_advance_loc: 2 to 000000000041de44
  DW_CFA_def_cfa_offset: 16
  DW_CFA_advance_loc: 2 to 000000000041de46
  DW_CFA_def_cfa_offset: 8
  DW_CFA_advance_loc: 5 to 000000000041de4b
  DW_CFA_restore_state
  DW_CFA_advance_loc: 46 to 000000000041de79
  DW_CFA_remember_state
  DW_CFA_def_cfa_offset: 56
  DW_CFA_advance_loc: 8 to 000000000041de81
  DW_CFA_def_cfa_offset: 48
  DW_CFA_advance_loc: 1 to 000000000041de82
  DW_CFA_def_cfa_offset: 40
  DW_CFA_advance_loc: 2 to 000000000041de84
  DW_CFA_def_cfa_offset: 32
  DW_CFA_advance_loc: 2 to 000000000041de86
  DW_CFA_def_cfa_offset: 24
  DW_CFA_advance_loc: 2 to 000000000041de88
  DW_CFA_def_cfa_offset: 16
  DW_CFA_advance_loc: 2 to 000000000041de8a
  DW_CFA_def_cfa_offset: 8
  DW_CFA_advance_loc: 5 to 000000000041de8f
  DW_CFA_restore_state
  DW_CFA_advance_loc: 56 to 000000000041dec7
  DW_CFA_remember_state
  DW_CFA_def_cfa_offset: 56
  DW_CFA_advance_loc: 8 to 000000000041decf
  DW_CFA_def_cfa_offset: 48
  DW_CFA_advance_loc: 1 to 000000000041ded0
  DW_CFA_def_cfa_offset: 40
  DW_CFA_advance_loc: 2 to 000000000041ded2
  DW_CFA_def_cfa_offset: 32
  DW_CFA_advance_loc: 2 to 000000000041ded4
  DW_CFA_def_cfa_offset: 24
  DW_CFA_advance_loc: 2 to 000000000041ded6
  DW_CFA_def_cfa_offset: 16
  DW_CFA_advance_loc: 2 to 000000000041ded8
  DW_CFA_def_cfa_offset: 8
  DW_CFA_advance_loc: 5 to 000000000041dedd
  DW_CFA_restore_state
  DW_CFA_advance_loc: 46 to 000000000041df0b
  DW_CFA_remember_state
  DW_CFA_def_cfa_offset: 56
  DW_CFA_advance_loc: 8 to 000000000041df13
  DW_CFA_def_cfa_offset: 48
  DW_CFA_advance_loc: 1 to 000000000041df14
  DW_CFA_def_cfa_offset: 40
  DW_CFA_advance_loc: 2 to 000000000041df16
  DW_CFA_def_cfa_offset: 32
  DW_CFA_advance_loc: 2 to 000000000041df18
  DW_CFA_def_cfa_offset: 24
  DW_CFA_advance_loc: 2 to 000000000041df1a
  DW_CFA_def_cfa_offset: 16
  DW_CFA_advance_loc: 2 to 000000000041df1c
  DW_CFA_def_cfa_offset: 8
  DW_CFA_advance_loc: 5 to 000000000041df21
  DW_CFA_restore_state
  DW_CFA_advance_loc: 56 to 000000000041df59
  DW_CFA_remember_state
  DW_CFA_def_cfa_offset: 56
  DW_CFA_advance_loc: 8 to 000000000041df61
  DW_CFA_def_cfa_offset: 48
  DW_CFA_advance_loc: 1 to 000000000041df62
  DW_CFA_def_cfa_offset: 40
  DW_CFA_advance_loc: 2 to 000000000041df64
  DW_CFA_def_cfa_offset: 32
  DW_CFA_advance_loc: 2 to 000000000041df66
  DW_CFA_def_cfa_offset: 24
  DW_CFA_advance_loc: 2 to 000000000041df68
  DW_CFA_def_cfa_offset: 16
  DW_CFA_advance_loc: 2 to 000000000041df6a
  DW_CFA_def_cfa_offset: 8
  DW_CFA_advance_loc: 5 to 000000000041df6f
  DW_CFA_restore_state
  DW_CFA_advance_loc: 46 to 000000000041df9d
  DW_CFA_remember_state
  DW_CFA_def_cfa_offset: 56
  DW_CFA_advance_loc: 8 to 000000000041dfa5
  DW_CFA_def_cfa_offset: 48
  DW_CFA_advance_loc: 1 to 000000000041dfa6
  DW_CFA_def_cfa_offset: 40
  DW_CFA_advance_loc: 2 to 000000000041dfa8
  DW_CFA_def_cfa_offset: 32
  DW_CFA_advance_loc: 2 to 000000000041dfaa
  DW_CFA_def_cfa_offset: 24
  DW_CFA_advance_loc: 2 to 000000000041dfac
  DW_CFA_def_cfa_offset: 16
  DW_CFA_advance_loc: 2 to 000000000041dfae
  DW_CFA_def_cfa_offset: 8
  DW_CFA_advance_loc: 5 to 000000000041dfb3
  DW_CFA_restore_state
  DW_CFA_advance_loc: 56 to 000000000041dfeb
  DW_CFA_remember_state
  DW_CFA_def_cfa_offset: 56
  DW_CFA_advance_loc: 8 to 000000000041dff3
  DW_CFA_def_cfa_offset: 48
  DW_CFA_advance_loc: 1 to 000000000041dff4
  DW_CFA_def_cfa_offset: 40
  DW_CFA_advance_loc: 2 to 000000000041dff6
  DW_CFA_def_cfa_offset: 32
  DW_CFA_advance_loc: 2 to 000000000041dff8
  DW_CFA_def_cfa_offset: 24
  DW_CFA_advance_loc: 2 to 000000000041dffa
  DW_CFA_def_cfa_offset: 16
  DW_CFA_advance_loc: 2 to 000000000041dffc
  DW_CFA_def_cfa_offset: 8
  DW_CFA_advance_loc: 5 to 000000000041e001
  DW_CFA_restore_state
  DW_CFA_advance_loc: 46 to 000000000041e02f
  DW_CFA_remember_state
  DW_CFA_def_cfa_offset: 56
  DW_CFA_advance_loc: 8 to 000000000041e037
  DW_CFA_def_cfa_offset: 48
  DW_CFA_advance_loc: 1 to 000000000041e038
  DW_CFA_def_cfa_offset: 40
  DW_CFA_advance_loc: 2 to 000000000041e03a
  DW_CFA_def_cfa_offset: 32
  DW_CFA_advance_loc: 2 to 000000000041e03c
  DW_CFA_def_cfa_offset: 24
  DW_CFA_advance_loc: 2 to 000000000041e03e
  DW_CFA_def_cfa_offset: 16
  DW_CFA_advance_loc: 2 to 000000000041e040
  DW_CFA_def_cfa_offset: 8
  DW_CFA_advance_loc: 5 to 000000000041e045
  DW_CFA_restore_state
  DW_CFA_advance_loc: 56 to 000000000041e07d
  DW_CFA_remember_state
  DW_CFA_def_cfa_offset: 56
  DW_CFA_advance_loc: 8 to 000000000041e085
  DW_CFA_def_cfa_offset: 48
  DW_CFA_advance_loc: 1 to 000000000041e086
  DW_CFA_def_cfa_offset: 40
  DW_CFA_advance_loc: 2 to 000000000041e088
  DW_CFA_def_cfa_offset: 32
  DW_CFA_advance_loc: 2 to 000000000041e08a
  DW_CFA_def_cfa_offset: 24
  DW_CFA_advance_loc: 2 to 000000000041e08c
  DW_CFA_def_cfa_offset: 16
  DW_CFA_advance_loc: 2 to 000000000041e08e
  DW_CFA_def_cfa_offset: 8
  DW_CFA_advance_loc: 5 to 000000000041e093
  DW_CFA_restore_state
  DW_CFA_advance_loc: 46 to 000000000041e0c1
  DW_CFA_remember_state
  DW_CFA_def_cfa_offset: 56
  DW_CFA_advance_loc: 8 to 000000000041e0c9
  DW_CFA_def_cfa_offset: 48
  DW_CFA_advance_loc: 1 to 000000000041e0ca
  DW_CFA_def_cfa_offset: 40
  DW_CFA_advance_loc: 2 to 000000000041e0cc
  DW_CFA_def_cfa_offset: 32
  DW_CFA_advance_loc: 2 to 000000000041e0ce
  DW_CFA_def_cfa_offset: 24
  DW_CFA_advance_loc: 2 to 000000000041e0d0
  DW_CFA_def_cfa_offset: 16
  DW_CFA_advance_loc: 2 to 000000000041e0d2
  DW_CFA_def_cfa_offset: 8
  DW_CFA_advance_loc: 5 to 000000000041e0d7
  DW_CFA_restore_state
  DW_CFA_advance_loc: 56 to 000000000041e10f
  DW_CFA_remember_state
  DW_CFA_def_cfa_offset: 56
  DW_CFA_advance_loc: 8 to 000000000041e117
  DW_CFA_def_cfa_offset: 48
  DW_CFA_advance_loc: 1 to 000000000041e118
  DW_CFA_def_cfa_offset: 40
  DW_CFA_advance_loc: 2 to 000000000041e11a
  DW_CFA_def_cfa_offset: 32
  DW_CFA_advance_loc: 2 to 000000000041e11c
  DW_CFA_def_cfa_offset: 24
  DW_CFA_advance_loc: 2 to 000000000041e11e
  DW_CFA_def_cfa_offset: 16
  DW_CFA_advance_loc: 2 to 000000000041e120
  DW_CFA_def_cfa_offset: 8
  DW_CFA_advance_loc: 5 to 000000000041e125
  DW_CFA_restore_state
  DW_CFA_advance_loc: 46 to 000000000041e153
  DW_CFA_remember_state
  DW_CFA_def_cfa_offset: 56
  DW_CFA_advance_loc: 8 to 000000000041e15b
  DW_CFA_def_cfa_offset: 48
  DW_CFA_advance_loc: 1 to 000000000041e15c
  DW_CFA_def_cfa_offset: 40
  DW_CFA_advance_loc: 2 to 000000000041e15e
  DW_CFA_def_cfa_offset: 32
  DW_CFA_advance_loc: 2 to 000000000041e160
  DW_CFA_def_cfa_offset: 24
  DW_CFA_advance_loc: 2 to 000000000041e162
  DW_CFA_def_cfa_offset: 16
  DW_CFA_advance_loc: 2 to 000000000041e164
  DW_CFA_def_cfa_offset: 8
  DW_CFA_advance_loc: 5 to 000000000041e169
  DW_CFA_restore_state
  DW_CFA_advance_loc: 56 to 000000000041e1a1
  DW_CFA_remember_state
  DW_CFA_def_cfa_offset: 56
  DW_CFA_advance_loc: 8 to 000000000041e1a9
  DW_CFA_def_cfa_offset: 48
  DW_CFA_advance_loc: 1 to 000000000041e1aa
  DW_CFA_def_cfa_offset: 40
  DW_CFA_advance_loc: 2 to 000000000041e1ac
  DW_CFA_def_cfa_offset: 32
  DW_CFA_advance_loc: 2 to 000000000041e1ae
  DW_CFA_def_cfa_offset: 24
  DW_CFA_advance_loc: 2 to 000000000041e1b0
  DW_CFA_def_cfa_offset: 16
  DW_CFA_advance_loc: 2 to 000000000041e1b2
  DW_CFA_def_cfa_offset: 8
  DW_CFA_advance_loc: 5 to 000000000041e1b7
  DW_CFA_restore_state
  DW_CFA_advance_loc: 46 to 000000000041e1e5
  DW_CFA_remember_state
  DW_CFA_def_cfa_offset: 56
  DW_CFA_advance_loc: 8 to 000000000041e1ed
  DW_CFA_def_cfa_offset: 48
  DW_CFA_advance_loc: 1 to 000000000041e1ee
  DW_CFA_def_cfa_offset: 40
  DW_CFA_advance_loc: 2 to 000000000041e1f0
  DW_CFA_def_cfa_offset: 32
  DW_CFA_advance_loc: 2 to 000000000041e1f2
  DW_CFA_def_cfa_offset: 24
  DW_CFA_advance_loc: 2 to 000000000041e1f4
  DW_CFA_def_cfa_offset: 16
  DW_CFA_advance_loc: 2 to 000000000041e1f6
  DW_CFA_def_cfa_offset: 8
  DW_CFA_advance_loc: 5 to 000000000041e1fb
  DW_CFA_restore_state
  DW_CFA_advance_loc: 56 to 000000000041e233
  DW_CFA_remember_state
  DW_CFA_def_cfa_offset: 56
  DW_CFA_advance_loc: 8 to 000000000041e23b
  DW_CFA_def_cfa_offset: 48
  DW_CFA_advance_loc: 1 to 000000000041e23c
  DW_CFA_def_cfa_offset: 40
  DW_CFA_advance_loc: 2 to 000000000041e23e
  DW_CFA_def_cfa_offset: 32
  DW_CFA_advance_loc: 2 to 000000000041e240
  DW_CFA_def_cfa_offset: 24
  DW_CFA_advance_loc: 2 to 000000000041e242
  DW_CFA_def_cfa_offset: 16
  DW_CFA_advance_loc: 2 to 000000000041e244
  DW_CFA_def_cfa_offset: 8
  DW_CFA_advance_loc: 5 to 000000000041e249
  DW_CFA_restore_state
  DW_CFA_advance_loc: 46 to 000000000041e277
  DW_CFA_remember_state
  DW_CFA_def_cfa_offset: 56
  DW_CFA_advance_loc: 8 to 000000000041e27f
  DW_CFA_def_cfa_offset: 48
  DW_CFA_advance_loc: 1 to 000000000041e280
  DW_CFA_def_cfa_offset: 40
  DW_CFA_advance_loc: 2 to 000000000041e282
  DW_CFA_def_cfa_offset: 32
  DW_CFA_advance_loc: 2 to 000000000041e284
  DW_CFA_def_cfa_offset: 24
  DW_CFA_advance_loc: 2 to 000000000041e286
  DW_CFA_def_cfa_offset: 16
  DW_CFA_advance_loc: 2 to 000000000041e288
  DW_CFA_def_cfa_offset: 8
  DW_CFA_advance_loc: 5 to 000000000041e28d
  DW_CFA_restore_state
  DW_CFA_advance_loc: 56 to 000000000041e2c5
  DW_CFA_remember_state
  DW_CFA_def_cfa_offset: 56
  DW_CFA_advance_loc: 8 to 000000000041e2cd
  DW_CFA_def_cfa_offset: 48
  DW_CFA_advance_loc: 1 to 000000000041e2ce
  DW_CFA_def_cfa_offset: 40
  DW_CFA_advance_loc: 2 to 000000000041e2d0
  DW_CFA_def_cfa_offset: 32
  DW_CFA_advance_loc: 2 to 000000000041e2d2
  DW_CFA_def_cfa_offset: 24
  DW_CFA_advance_loc: 2 to 000000000041e2d4
  DW_CFA_def_cfa_offset: 16
  DW_CFA_advance_loc: 2 to 000000000041e2d6
  DW_CFA_def_cfa_offset: 8
  DW_CFA_advance_loc: 5 to 000000000041e2db
  DW_CFA_restore_state
  DW_CFA_advance_loc: 46 to 000000000041e309
  DW_CFA_remember_state
  DW_CFA_def_cfa_offset: 56
  DW_CFA_advance_loc: 8 to 000000000041e311
  DW_CFA_def_cfa_offset: 48
  DW_CFA_advance_loc: 1 to 000000000041e312
  DW_CFA_def_cfa_offset: 40
  DW_CFA_advance_loc: 2 to 000000000041e314
  DW_CFA_def_cfa_offset: 32
  DW_CFA_advance_loc: 2 to 000000000041e316
  DW_CFA_def_cfa_offset: 24
  DW_CFA_advance_loc: 2 to 000000000041e318
  DW_CFA_def_cfa_offset: 16
  DW_CFA_advance_loc: 2 to 000000000041e31a
  DW_CFA_def_cfa_offset: 8
  DW_CFA_advance_loc: 5 to 000000000041e31f
  DW_CFA_restore_state
  DW_CFA_advance_loc: 56 to 000000000041e357
  DW_CFA_remember_state
  DW_CFA_def_cfa_offset: 56
  DW_CFA_advance_loc: 8 to 000000000041e35f
  DW_CFA_def_cfa_offset: 48
  DW_CFA_advance_loc: 1 to 000000000041e360
  DW_CFA_def_cfa_offset: 40
  DW_CFA_advance_loc: 2 to 000000000041e362
  DW_CFA_def_cfa_offset: 32
  DW_CFA_advance_loc: 2 to 000000000041e364
  DW_CFA_def_cfa_offset: 24
  DW_CFA_advance_loc: 2 to 000000000041e366
  DW_CFA_def_cfa_offset: 16
  DW_CFA_advance_loc: 2 to 000000000041e368
  DW_CFA_def_cfa_offset: 8
  DW_CFA_advance_loc: 5 to 000000000041e36d
  DW_CFA_restore_state
  DW_CFA_advance_loc: 46 to 000000000041e39b
  DW_CFA_remember_state
  DW_CFA_def_cfa_offset: 56
  DW_CFA_advance_loc: 8 to 000000000041e3a3
  DW_CFA_def_cfa_offset: 48
  DW_CFA_advance_loc: 1 to 000000000041e3a4
  DW_CFA_def_cfa_offset: 40
  DW_CFA_advance_loc: 2 to 000000000041e3a6
  DW_CFA_def_cfa_offset: 32
  DW_CFA_advance_loc: 2 to 000000000041e3a8
  DW_CFA_def_cfa_offset: 24
  DW_CFA_advance_loc: 2 to 000000000041e3aa
  DW_CFA_def_cfa_offset: 16
  DW_CFA_advance_loc: 2 to 000000000041e3ac
  DW_CFA_def_cfa_offset: 8
  DW_CFA_advance_loc: 5 to 000000000041e3b1
  DW_CFA_restore_state
  DW_CFA_advance_loc: 56 to 000000000041e3e9
  DW_CFA_remember_state
  DW_CFA_def_cfa_offset: 56
  DW_CFA_advance_loc: 8 to 000000000041e3f1
  DW_CFA_def_cfa_offset: 48
  DW_CFA_advance_loc: 1 to 000000000041e3f2
  DW_CFA_def_cfa_offset: 40
  DW_CFA_advance_loc: 2 to 000000000041e3f4
  DW_CFA_def_cfa_offset: 32
  DW_CFA_advance_loc: 2 to 000000000041e3f6
  DW_CFA_def_cfa_offset: 24
  DW_CFA_advance_loc: 2 to 000000000041e3f8
  DW_CFA_def_cfa_offset: 16
  DW_CFA_advance_loc: 2 to 000000000041e3fa
  DW_CFA_def_cfa_offset: 8
  DW_CFA_advance_loc: 5 to 000000000041e3ff
  DW_CFA_restore_state
  DW_CFA_advance_loc: 46 to 000000000041e42d
  DW_CFA_remember_state
  DW_CFA_def_cfa_offset: 56
  DW_CFA_advance_loc: 8 to 000000000041e435
  DW_CFA_def_cfa_offset: 48
  DW_CFA_advance_loc: 1 to 000000000041e436
  DW_CFA_def_cfa_offset: 40
  DW_CFA_advance_loc: 2 to 000000000041e438
  DW_CFA_def_cfa_offset: 32
  DW_CFA_advance_loc: 2 to 000000000041e43a
  DW_CFA_def_cfa_offset: 24
  DW_CFA_advance_loc: 2 to 000000000041e43c
  DW_CFA_def_cfa_offset: 16
  DW_CFA_advance_loc: 2 to 000000000041e43e
  DW_CFA_def_cfa_offset: 8
  DW_CFA_advance_loc: 5 to 000000000041e443
  DW_CFA_restore_state
  DW_CFA_advance_loc: 56 to 000000000041e47b
  DW_CFA_remember_state
  DW_CFA_def_cfa_offset: 56
  DW_CFA_advance_loc: 8 to 000000000041e483
  DW_CFA_def_cfa_offset: 48
  DW_CFA_advance_loc: 1 to 000000000041e484
  DW_CFA_def_cfa_offset: 40
  DW_CFA_advance_loc: 2 to 000000000041e486
  DW_CFA_def_cfa_offset: 32
  DW_CFA_advance_loc: 2 to 000000000041e488
  DW_CFA_def_cfa_offset: 24
  DW_CFA_advance_loc: 2 to 000000000041e48a
  DW_CFA_def_cfa_offset: 16
  DW_CFA_advance_loc: 2 to 000000000041e48c
  DW_CFA_def_cfa_offset: 8
  DW_CFA_advance_loc: 5 to 000000000041e491
  DW_CFA_restore_state
  DW_CFA_advance_loc: 46 to 000000000041e4bf
  DW_CFA_remember_state
  DW_CFA_def_cfa_offset: 56
  DW_CFA_advance_loc: 8 to 000000000041e4c7
  DW_CFA_def_cfa_offset: 48
  DW_CFA_advance_loc: 1 to 000000000041e4c8
  DW_CFA_def_cfa_offset: 40
  DW_CFA_advance_loc: 2 to 000000000041e4ca
  DW_CFA_def_cfa_offset: 32
  DW_CFA_advance_loc: 2 to 000000000041e4cc
  DW_CFA_def_cfa_offset: 24
  DW_CFA_advance_loc: 2 to 000000000041e4ce
  DW_CFA_def_cfa_offset: 16
  DW_CFA_advance_loc: 2 to 000000000041e4d0
  DW_CFA_def_cfa_offset: 8
  DW_CFA_advance_loc: 5 to 000000000041e4d5
  DW_CFA_restore_state
  DW_CFA_advance_loc2: 573 to 000000000041e712
  DW_CFA_def_cfa_offset: 536
  DW_CFA_advance_loc: 16 to 000000000041e722
  DW_CFA_def_cfa_offset: 544
  DW_CFA_advance_loc: 24 to 000000000041e73a
  DW_CFA_def_cfa_offset: 536
  DW_CFA_advance_loc: 7 to 000000000041e741
  DW_CFA_def_cfa_offset: 544
  DW_CFA_advance_loc: 7 to 000000000041e748
  DW_CFA_def_cfa_offset: 552
  DW_CFA_advance_loc: 18 to 000000000041e75a
  DW_CFA_def_cfa_offset: 560
  DW_CFA_advance_loc: 24 to 000000000041e772
  DW_CFA_def_cfa_offset: 528
  DW_CFA_advance_loc2: 895 to 000000000041eaf1
  DW_CFA_def_cfa_offset: 536
  DW_CFA_advance_loc: 12 to 000000000041eafd
  DW_CFA_def_cfa_offset: 544
  DW_CFA_advance_loc: 7 to 000000000041eb04
  DW_CFA_def_cfa_offset: 552
  DW_CFA_advance_loc: 2 to 000000000041eb06
  DW_CFA_def_cfa_offset: 560
  DW_CFA_advance_loc: 9 to 000000000041eb0f
  DW_CFA_def_cfa_offset: 528
  DW_CFA_advance_loc2: 680 to 000000000041edb7
  DW_CFA_remember_state
  DW_CFA_def_cfa_offset: 56
  DW_CFA_advance_loc: 1 to 000000000041edb8
  DW_CFA_def_cfa_offset: 48
  DW_CFA_advance_loc: 1 to 000000000041edb9
  DW_CFA_def_cfa_offset: 40
  DW_CFA_advance_loc: 2 to 000000000041edbb
  DW_CFA_def_cfa_offset: 32
  DW_CFA_advance_loc: 2 to 000000000041edbd
  DW_CFA_def_cfa_offset: 24
  DW_CFA_advance_loc: 2 to 000000000041edbf
  DW_CFA_def_cfa_offset: 16
  DW_CFA_advance_loc: 2 to 000000000041edc1
  DW_CFA_def_cfa_offset: 8
  DW_CFA_advance_loc: 5 to 000000000041edc6
  DW_CFA_restore_state
  DW_CFA_advance_loc1: 88 to 000000000041ee1e
  DW_CFA_remember_state
  DW_CFA_def_cfa_offset: 56
  DW_CFA_advance_loc: 1 to 000000000041ee1f
  DW_CFA_def_cfa_offset: 48
  DW_CFA_advance_loc: 1 to 000000000041ee20
  DW_CFA_def_cfa_offset: 40
  DW_CFA_advance_loc: 2 to 000000000041ee22
  DW_CFA_def_cfa_offset: 32
  DW_CFA_advance_loc: 2 to 000000000041ee24
  DW_CFA_def_cfa_offset: 24
  DW_CFA_advance_loc: 2 to 000000000041ee26
  DW_CFA_def_cfa_offset: 16
  DW_CFA_advance_loc: 2 to 000000000041ee28
  DW_CFA_def_cfa_offset: 8
  DW_CFA_advance_loc: 5 to 000000000041ee2d
  DW_CFA_restore_state
  DW_CFA_advance_loc1: 183 to 000000000041eee4
  DW_CFA_remember_state
  DW_CFA_def_cfa_offset: 56
  DW_CFA_advance_loc: 7 to 000000000041eeeb
  DW_CFA_def_cfa_offset: 48
  DW_CFA_advance_loc: 1 to 000000000041eeec
  DW_CFA_def_cfa_offset: 40
  DW_CFA_advance_loc: 5 to 000000000041eef1
  DW_CFA_def_cfa_offset: 32
  DW_CFA_advance_loc: 2 to 000000000041eef3
  DW_CFA_def_cfa_offset: 24
  DW_CFA_advance_loc: 10 to 000000000041eefd
  DW_CFA_def_cfa_offset: 16
  DW_CFA_advance_loc: 9 to 000000000041ef06
  DW_CFA_def_cfa_offset: 8
  DW_CFA_advance_loc: 5 to 000000000041ef0b
  DW_CFA_restore_state
  DW_CFA_advance_loc1: 241 to 000000000041effc
  DW_CFA_remember_state
  DW_CFA_def_cfa_offset: 56
  DW_CFA_advance_loc: 1 to 000000000041effd
  DW_CFA_def_cfa_offset: 48
  DW_CFA_advance_loc: 1 to 000000000041effe
  DW_CFA_def_cfa_offset: 40
  DW_CFA_advance_loc: 2 to 000000000041f000
  DW_CFA_def_cfa_offset: 32
  DW_CFA_advance_loc: 2 to 000000000041f002
  DW_CFA_def_cfa_offset: 24
  DW_CFA_advance_loc: 5 to 000000000041f007
  DW_CFA_def_cfa_offset: 16
  DW_CFA_advance_loc: 2 to 000000000041f009
  DW_CFA_def_cfa_offset: 8
  DW_CFA_advance_loc: 10 to 000000000041f013
  DW_CFA_restore_state
  DW_CFA_advance_loc1: 194 to 000000000041f0d5
  DW_CFA_remember_state
  DW_CFA_def_cfa_offset: 56
  DW_CFA_advance_loc: 1 to 000000000041f0d6
  DW_CFA_def_cfa_offset: 48
  DW_CFA_advance_loc: 1 to 000000000041f0d7
  DW_CFA_def_cfa_offset: 40
  DW_CFA_advance_loc: 2 to 000000000041f0d9
  DW_CFA_def_cfa_offset: 32
  DW_CFA_advance_loc: 2 to 000000000041f0db
  DW_CFA_def_cfa_offset: 24
  DW_CFA_advance_loc: 5 to 000000000041f0e0
  DW_CFA_def_cfa_offset: 16
  DW_CFA_advance_loc: 2 to 000000000041f0e2
  DW_CFA_def_cfa_offset: 8
  DW_CFA_advance_loc: 10 to 000000000041f0ec
  DW_CFA_restore_state
  DW_CFA_advance_loc1: 180 to 000000000041f1a0
  DW_CFA_remember_state
  DW_CFA_def_cfa_offset: 56
  DW_CFA_advance_loc: 1 to 000000000041f1a1
  DW_CFA_def_cfa_offset: 48
  DW_CFA_advance_loc: 1 to 000000000041f1a2
  DW_CFA_def_cfa_offset: 40
  DW_CFA_advance_loc: 2 to 000000000041f1a4
  DW_CFA_def_cfa_offset: 32
  DW_CFA_advance_loc: 2 to 000000000041f1a6
  DW_CFA_def_cfa_offset: 24
  DW_CFA_advance_loc: 5 to 000000000041f1ab
  DW_CFA_def_cfa_offset: 16
  DW_CFA_advance_loc: 2 to 000000000041f1ad
  DW_CFA_def_cfa_offset: 8
  DW_CFA_advance_loc: 10 to 000000000041f1b7
  DW_CFA_restore_state
  DW_CFA_advance_loc1: 191 to 000000000041f276
  DW_CFA_remember_state
  DW_CFA_def_cfa_offset: 56
  DW_CFA_advance_loc: 1 to 000000000041f277
  DW_CFA_def_cfa_offset: 48
  DW_CFA_advance_loc: 1 to 000000000041f278
  DW_CFA_def_cfa_offset: 40
  DW_CFA_advance_loc: 2 to 000000000041f27a
  DW_CFA_def_cfa_offset: 32
  DW_CFA_advance_loc: 2 to 000000000041f27c
  DW_CFA_def_cfa_offset: 24
  DW_CFA_advance_loc: 5 to 000000000041f281
  DW_CFA_def_cfa_offset: 16
  DW_CFA_advance_loc: 2 to 000000000041f283
  DW_CFA_def_cfa_offset: 8
  DW_CFA_advance_loc: 10 to 000000000041f28d
  DW_CFA_restore_state
  DW_CFA_advance_loc1: 183 to 000000000041f344
  DW_CFA_remember_state
  DW_CFA_def_cfa_offset: 56
  DW_CFA_advance_loc: 4 to 000000000041f348
  DW_CFA_def_cfa_offset: 48
  DW_CFA_advance_loc: 1 to 000000000041f349
  DW_CFA_def_cfa_offset: 40
  DW_CFA_advance_loc: 10 to 000000000041f353
  DW_CFA_def_cfa_offset: 32
  DW_CFA_advance_loc: 9 to 000000000041f35c
  DW_CFA_def_cfa_offset: 24
  DW_CFA_advance_loc: 2 to 000000000041f35e
  DW_CFA_def_cfa_offset: 16
  DW_CFA_advance_loc: 2 to 000000000041f360
  DW_CFA_def_cfa_offset: 8
  DW_CFA_advance_loc: 5 to 000000000041f365
  DW_CFA_restore_state
  DW_CFA_advance_loc1: 71 to 000000000041f3ac
  DW_CFA_remember_state
  DW_CFA_def_cfa_offset: 56
  DW_CFA_advance_loc: 13 to 000000000041f3b9
  DW_CFA_def_cfa_offset: 48
  DW_CFA_advance_loc: 15 to 000000000041f3c8
  DW_CFA_def_cfa_offset: 40
  DW_CFA_advance_loc: 2 to 000000000041f3ca
  DW_CFA_def_cfa_offset: 32
  DW_CFA_advance_loc: 2 to 000000000041f3cc
  DW_CFA_def_cfa_offset: 24
  DW_CFA_advance_loc: 2 to 000000000041f3ce
  DW_CFA_def_cfa_offset: 16
  DW_CFA_advance_loc: 2 to 000000000041f3d0
  DW_CFA_def_cfa_offset: 8
  DW_CFA_advance_loc: 5 to 000000000041f3d5
  DW_CFA_restore_state
  DW_CFA_advance_loc: 57 to 000000000041f40e
  DW_CFA_remember_state
  DW_CFA_def_cfa_offset: 56
  DW_CFA_advance_loc: 13 to 000000000041f41b
  DW_CFA_def_cfa_offset: 48
  DW_CFA_advance_loc: 15 to 000000000041f42a
  DW_CFA_def_cfa_offset: 40
  DW_CFA_advance_loc: 2 to 000000000041f42c
  DW_CFA_def_cfa_offset: 32
  DW_CFA_advance_loc: 2 to 000000000041f42e
  DW_CFA_def_cfa_offset: 24
  DW_CFA_advance_loc: 2 to 000000000041f430
  DW_CFA_def_cfa_offset: 16
  DW_CFA_advance_loc: 2 to 000000000041f432
  DW_CFA_def_cfa_offset: 8
  DW_CFA_advance_loc: 5 to 000000000041f437
  DW_CFA_restore_state
  DW_CFA_advance_loc1: 67 to 000000000041f47a
  DW_CFA_remember_state
  DW_CFA_def_cfa_offset: 56
  DW_CFA_advance_loc: 13 to 000000000041f487
  DW_CFA_def_cfa_offset: 48
  DW_CFA_advance_loc: 15 to 000000000041f496
  DW_CFA_def_cfa_offset: 40
  DW_CFA_advance_loc: 2 to 000000000041f498
  DW_CFA_def_cfa_offset: 32
  DW_CFA_advance_loc: 2 to 000000000041f49a
  DW_CFA_def_cfa_offset: 24
  DW_CFA_advance_loc: 2 to 000000000041f49c
  DW_CFA_def_cfa_offset: 16
  DW_CFA_advance_loc: 2 to 000000000041f49e
  DW_CFA_def_cfa_offset: 8
  DW_CFA_advance_loc: 5 to 000000000041f4a3
  DW_CFA_restore_state
  DW_CFA_advance_loc: 26 to 000000000041f4bd
  DW_CFA_remember_state
  DW_CFA_def_cfa_offset: 56
  DW_CFA_advance_loc: 8 to 000000000041f4c5
  DW_CFA_def_cfa_offset: 48
  DW_CFA_advance_loc: 7 to 000000000041f4cc
  DW_CFA_def_cfa_offset: 40
  DW_CFA_advance_loc: 7 to 000000000041f4d3
  DW_CFA_def_cfa_offset: 32
  DW_CFA_advance_loc: 9 to 000000000041f4dc
  DW_CFA_def_cfa_offset: 24
  DW_CFA_advance_loc: 2 to 000000000041f4de
  DW_CFA_def_cfa_offset: 16
  DW_CFA_advance_loc: 2 to 000000000041f4e0
  DW_CFA_def_cfa_offset: 8
  DW_CFA_advance_loc: 5 to 000000000041f4e5
  DW_CFA_restore_state
  DW_CFA_advance_loc2: 306 to 000000000041f617
  DW_CFA_remember_state
  DW_CFA_def_cfa_offset: 56
  DW_CFA_advance_loc: 8 to 000000000041f61f
  DW_CFA_def_cfa_offset: 48
  DW_CFA_advance_loc: 1 to 000000000041f620
  DW_CFA_def_cfa_offset: 40
  DW_CFA_advance_loc: 2 to 000000000041f622
  DW_CFA_def_cfa_offset: 32
  DW_CFA_advance_loc: 2 to 000000000041f624
  DW_CFA_def_cfa_offset: 24
  DW_CFA_advance_loc: 2 to 000000000041f626
  DW_CFA_def_cfa_offset: 16
  DW_CFA_advance_loc: 2 to 000000000041f628
  DW_CFA_def_cfa_offset: 8
  DW_CFA_advance_loc: 5 to 000000000041f62d
  DW_CFA_restore_state
  DW_CFA_advance_loc: 46 to 000000000041f65b
  DW_CFA_remember_state
  DW_CFA_def_cfa_offset: 56
  DW_CFA_advance_loc: 8 to 000000000041f663
  DW_CFA_def_cfa_offset: 48
  DW_CFA_advance_loc: 1 to 000000000041f664
  DW_CFA_def_cfa_offset: 40
  DW_CFA_advance_loc: 2 to 000000000041f666
  DW_CFA_def_cfa_offset: 32
  DW_CFA_advance_loc: 2 to 000000000041f668
  DW_CFA_def_cfa_offset: 24
  DW_CFA_advance_loc: 2 to 000000000041f66a
  DW_CFA_def_cfa_offset: 16
  DW_CFA_advance_loc: 2 to 000000000041f66c
  DW_CFA_def_cfa_offset: 8
  DW_CFA_advance_loc: 5 to 000000000041f671
  DW_CFA_restore_state
  DW_CFA_advance_loc: 56 to 000000000041f6a9
  DW_CFA_remember_state
  DW_CFA_def_cfa_offset: 56
  DW_CFA_advance_loc: 8 to 000000000041f6b1
  DW_CFA_def_cfa_offset: 48
  DW_CFA_advance_loc: 1 to 000000000041f6b2
  DW_CFA_def_cfa_offset: 40
  DW_CFA_advance_loc: 2 to 000000000041f6b4
  DW_CFA_def_cfa_offset: 32
  DW_CFA_advance_loc: 2 to 000000000041f6b6
  DW_CFA_def_cfa_offset: 24
  DW_CFA_advance_loc: 2 to 000000000041f6b8
  DW_CFA_def_cfa_offset: 16
  DW_CFA_advance_loc: 2 to 000000000041f6ba
  DW_CFA_def_cfa_offset: 8
  DW_CFA_advance_loc: 5 to 000000000041f6bf
  DW_CFA_restore_state
  DW_CFA_advance_loc: 46 to 000000000041f6ed
  DW_CFA_remember_state
  DW_CFA_def_cfa_offset: 56
  DW_CFA_advance_loc: 8 to 000000000041f6f5
  DW_CFA_def_cfa_offset: 48
  DW_CFA_advance_loc: 1 to 000000000041f6f6
  DW_CFA_def_cfa_offset: 40
  DW_CFA_advance_loc: 2 to 000000000041f6f8
  DW_CFA_def_cfa_offset: 32
  DW_CFA_advance_loc: 2 to 000000000041f6fa
  DW_CFA_def_cfa_offset: 24
  DW_CFA_advance_loc: 2 to 000000000041f6fc
  DW_CFA_def_cfa_offset: 16
  DW_CFA_advance_loc: 2 to 000000000041f6fe
  DW_CFA_def_cfa_offset: 8
  DW_CFA_advance_loc: 5 to 000000000041f703
  DW_CFA_restore_state
  DW_CFA_advance_loc: 56 to 000000000041f73b
  DW_CFA_remember_state
  DW_CFA_def_cfa_offset: 56
  DW_CFA_advance_loc: 8 to 000000000041f743
  DW_CFA_def_cfa_offset: 48
  DW_CFA_advance_loc: 1 to 000000000041f744
  DW_CFA_def_cfa_offset: 40
  DW_CFA_advance_loc: 2 to 000000000041f746
  DW_CFA_def_cfa_offset: 32
  DW_CFA_advance_loc: 2 to 000000000041f748
  DW_CFA_def_cfa_offset: 24
  DW_CFA_advance_loc: 2 to 000000000041f74a
  DW_CFA_def_cfa_offset: 16
  DW_CFA_advance_loc: 2 to 000000000041f74c
  DW_CFA_def_cfa_offset: 8
  DW_CFA_advance_loc: 5 to 000000000041f751
  DW_CFA_restore_state
  DW_CFA_advance_loc: 46 to 000000000041f77f
  DW_CFA_remember_state
  DW_CFA_def_cfa_offset: 56
  DW_CFA_advance_loc: 8 to 000000000041f787
  DW_CFA_def_cfa_offset: 48
  DW_CFA_advance_loc: 1 to 000000000041f788
  DW_CFA_def_cfa_offset: 40
  DW_CFA_advance_loc: 2 to 000000000041f78a
  DW_CFA_def_cfa_offset: 32
  DW_CFA_advance_loc: 2 to 000000000041f78c
  DW_CFA_def_cfa_offset: 24
  DW_CFA_advance_loc: 2 to 000000000041f78e
  DW_CFA_def_cfa_offset: 16
  DW_CFA_advance_loc: 2 to 000000000041f790
  DW_CFA_def_cfa_offset: 8
  DW_CFA_advance_loc: 5 to 000000000041f795
  DW_CFA_restore_state
  DW_CFA_advance_loc: 56 to 000000000041f7cd
  DW_CFA_remember_state
  DW_CFA_def_cfa_offset: 56
  DW_CFA_advance_loc: 8 to 000000000041f7d5
  DW_CFA_def_cfa_offset: 48
  DW_CFA_advance_loc: 1 to 000000000041f7d6
  DW_CFA_def_cfa_offset: 40
  DW_CFA_advance_loc: 2 to 000000000041f7d8
  DW_CFA_def_cfa_offset: 32
  DW_CFA_advance_loc: 2 to 000000000041f7da
  DW_CFA_def_cfa_offset: 24
  DW_CFA_advance_loc: 2 to 000000000041f7dc
  DW_CFA_def_cfa_offset: 16
  DW_CFA_advance_loc: 2 to 000000000041f7de
  DW_CFA_def_cfa_offset: 8
  DW_CFA_advance_loc: 5 to 000000000041f7e3
  DW_CFA_restore_state
  DW_CFA_advance_loc: 46 to 000000000041f811
  DW_CFA_remember_state
  DW_CFA_def_cfa_offset: 56
  DW_CFA_advance_loc: 8 to 000000000041f819
  DW_CFA_def_cfa_offset: 48
  DW_CFA_advance_loc: 1 to 000000000041f81a
  DW_CFA_def_cfa_offset: 40
  DW_CFA_advance_loc: 2 to 000000000041f81c
  DW_CFA_def_cfa_offset: 32
  DW_CFA_advance_loc: 2 to 000000000041f81e
  DW_CFA_def_cfa_offset: 24
  DW_CFA_advance_loc: 2 to 000000000041f820
  DW_CFA_def_cfa_offset: 16
  DW_CFA_advance_loc: 2 to 000000000041f822
  DW_CFA_def_cfa_offset: 8
  DW_CFA_advance_loc: 5 to 000000000041f827
  DW_CFA_restore_state
  DW_CFA_advance_loc: 56 to 000000000041f85f
  DW_CFA_remember_state
  DW_CFA_def_cfa_offset: 56
  DW_CFA_advance_loc: 8 to 000000000041f867
  DW_CFA_def_cfa_offset: 48
  DW_CFA_advance_loc: 1 to 000000000041f868
  DW_CFA_def_cfa_offset: 40
  DW_CFA_advance_loc: 2 to 000000000041f86a
  DW_CFA_def_cfa_offset: 32
  DW_CFA_advance_loc: 2 to 000000000041f86c
  DW_CFA_def_cfa_offset: 24
  DW_CFA_advance_loc: 2 to 000000000041f86e
  DW_CFA_def_cfa_offset: 16
  DW_CFA_advance_loc: 2 to 000000000041f870
  DW_CFA_def_cfa_offset: 8
  DW_CFA_advance_loc: 5 to 000000000041f875
  DW_CFA_restore_state
  DW_CFA_advance_loc: 46 to 000000000041f8a3
  DW_CFA_remember_state
  DW_CFA_def_cfa_offset: 56
  DW_CFA_advance_loc: 8 to 000000000041f8ab
  DW_CFA_def_cfa_offset: 48
  DW_CFA_advance_loc: 1 to 000000000041f8ac
  DW_CFA_def_cfa_offset: 40
  DW_CFA_advance_loc: 2 to 000000000041f8ae
  DW_CFA_def_cfa_offset: 32
  DW_CFA_advance_loc: 2 to 000000000041f8b0
  DW_CFA_def_cfa_offset: 24
  DW_CFA_advance_loc: 2 to 000000000041f8b2
  DW_CFA_def_cfa_offset: 16
  DW_CFA_advance_loc: 2 to 000000000041f8b4
  DW_CFA_def_cfa_offset: 8
  DW_CFA_advance_loc: 5 to 000000000041f8b9
  DW_CFA_restore_state
  DW_CFA_advance_loc: 56 to 000000000041f8f1
  DW_CFA_remember_state
  DW_CFA_def_cfa_offset: 56
  DW_CFA_advance_loc: 8 to 000000000041f8f9
  DW_CFA_def_cfa_offset: 48
  DW_CFA_advance_loc: 1 to 000000000041f8fa
  DW_CFA_def_cfa_offset: 40
  DW_CFA_advance_loc: 2 to 000000000041f8fc
  DW_CFA_def_cfa_offset: 32
  DW_CFA_advance_loc: 2 to 000000000041f8fe
  DW_CFA_def_cfa_offset: 24
  DW_CFA_advance_loc: 2 to 000000000041f900
  DW_CFA_def_cfa_offset: 16
  DW_CFA_advance_loc: 2 to 000000000041f902
  DW_CFA_def_cfa_offset: 8
  DW_CFA_advance_loc: 5 to 000000000041f907
  DW_CFA_restore_state
  DW_CFA_advance_loc: 46 to 000000000041f935
  DW_CFA_remember_state
  DW_CFA_def_cfa_offset: 56
  DW_CFA_advance_loc: 8 to 000000000041f93d
  DW_CFA_def_cfa_offset: 48
  DW_CFA_advance_loc: 1 to 000000000041f93e
  DW_CFA_def_cfa_offset: 40
  DW_CFA_advance_loc: 2 to 000000000041f940
  DW_CFA_def_cfa_offset: 32
  DW_CFA_advance_loc: 2 to 000000000041f942
  DW_CFA_def_cfa_offset: 24
  DW_CFA_advance_loc: 2 to 000000000041f944
  DW_CFA_def_cfa_offset: 16
  DW_CFA_advance_loc: 2 to 000000000041f946
  DW_CFA_def_cfa_offset: 8
  DW_CFA_advance_loc: 5 to 000000000041f94b
  DW_CFA_restore_state
  DW_CFA_advance_loc1: 65 to 000000000041f98c
  DW_CFA_remember_state
  DW_CFA_def_cfa_offset: 56
  DW_CFA_advance_loc: 8 to 000000000041f994
  DW_CFA_def_cfa_offset: 48
  DW_CFA_advance_loc: 1 to 000000000041f995
  DW_CFA_def_cfa_offset: 40
  DW_CFA_advance_loc: 2 to 000000000041f997
  DW_CFA_def_cfa_offset: 32
  DW_CFA_advance_loc: 2 to 000000000041f999
  DW_CFA_def_cfa_offset: 24
  DW_CFA_advance_loc: 2 to 000000000041f99b
  DW_CFA_def_cfa_offset: 16
  DW_CFA_advance_loc: 2 to 000000000041f99d
  DW_CFA_def_cfa_offset: 8
  DW_CFA_advance_loc: 5 to 000000000041f9a2
  DW_CFA_restore_state
  DW_CFA_advance_loc1: 152 to 000000000041fa3a
  DW_CFA_remember_state
  DW_CFA_def_cfa_offset: 56
  DW_CFA_advance_loc: 1 to 000000000041fa3b
  DW_CFA_def_cfa_offset: 48
  DW_CFA_advance_loc: 1 to 000000000041fa3c
  DW_CFA_def_cfa_offset: 40
  DW_CFA_advance_loc: 5 to 000000000041fa41
  DW_CFA_def_cfa_offset: 32
  DW_CFA_advance_loc: 2 to 000000000041fa43
  DW_CFA_def_cfa_offset: 24
  DW_CFA_advance_loc: 10 to 000000000041fa4d
  DW_CFA_def_cfa_offset: 16
  DW_CFA_advance_loc: 12 to 000000000041fa59
  DW_CFA_def_cfa_offset: 8
  DW_CFA_advance_loc: 5 to 000000000041fa5e
  DW_CFA_restore_state
  DW_CFA_advance_loc1: 225 to 000000000041fb3f
  DW_CFA_def_cfa_offset: 536
  DW_CFA_advance_loc: 11 to 000000000041fb4a
  DW_CFA_def_cfa_offset: 544
  DW_CFA_advance_loc: 12 to 000000000041fb56
  DW_CFA_def_cfa_offset: 552
  DW_CFA_advance_loc: 2 to 000000000041fb58
  DW_CFA_def_cfa_offset: 560
  DW_CFA_advance_loc: 9 to 000000000041fb61
  DW_CFA_def_cfa_offset: 528
  DW_CFA_advance_loc: 38 to 000000000041fb87
  DW_CFA_def_cfa_offset: 536
  DW_CFA_advance_loc: 10 to 000000000041fb91
  DW_CFA_def_cfa_offset: 544
  DW_CFA_advance_loc: 9 to 000000000041fb9a
  DW_CFA_def_cfa_offset: 552
  DW_CFA_advance_loc: 5 to 000000000041fb9f
  DW_CFA_def_cfa_offset: 560
  DW_CFA_advance_loc: 9 to 000000000041fba8
  DW_CFA_def_cfa_offset: 528
  DW_CFA_advance_loc: 61 to 000000000041fbe5
  DW_CFA_remember_state
  DW_CFA_def_cfa_offset: 56
  DW_CFA_advance_loc: 8 to 000000000041fbed
  DW_CFA_def_cfa_offset: 48
  DW_CFA_advance_loc: 1 to 000000000041fbee
  DW_CFA_def_cfa_offset: 40
  DW_CFA_advance_loc: 2 to 000000000041fbf0
  DW_CFA_def_cfa_offset: 32
  DW_CFA_advance_loc: 2 to 000000000041fbf2
  DW_CFA_def_cfa_offset: 24
  DW_CFA_advance_loc: 2 to 000000000041fbf4
  DW_CFA_def_cfa_offset: 16
  DW_CFA_advance_loc: 2 to 000000000041fbf6
  DW_CFA_def_cfa_offset: 8
  DW_CFA_advance_loc: 5 to 000000000041fbfb
  DW_CFA_restore_state
  DW_CFA_advance_loc: 46 to 000000000041fc29
  DW_CFA_remember_state
  DW_CFA_def_cfa_offset: 56
  DW_CFA_advance_loc: 8 to 000000000041fc31
  DW_CFA_def_cfa_offset: 48
  DW_CFA_advance_loc: 1 to 000000000041fc32
  DW_CFA_def_cfa_offset: 40
  DW_CFA_advance_loc: 2 to 000000000041fc34
  DW_CFA_def_cfa_offset: 32
  DW_CFA_advance_loc: 2 to 000000000041fc36
  DW_CFA_def_cfa_offset: 24
  DW_CFA_advance_loc: 2 to 000000000041fc38
  DW_CFA_def_cfa_offset: 16
  DW_CFA_advance_loc: 2 to 000000000041fc3a
  DW_CFA_def_cfa_offset: 8
  DW_CFA_advance_loc: 5 to 000000000041fc3f
  DW_CFA_restore_state
  DW_CFA_advance_loc: 56 to 000000000041fc77
  DW_CFA_remember_state
  DW_CFA_def_cfa_offset: 56
  DW_CFA_advance_loc: 8 to 000000000041fc7f
  DW_CFA_def_cfa_offset: 48
  DW_CFA_advance_loc: 1 to 000000000041fc80
  DW_CFA_def_cfa_offset: 40
  DW_CFA_advance_loc: 2 to 000000000041fc82
  DW_CFA_def_cfa_offset: 32
  DW_CFA_advance_loc: 2 to 000000000041fc84
  DW_CFA_def_cfa_offset: 24
  DW_CFA_advance_loc: 2 to 000000000041fc86
  DW_CFA_def_cfa_offset: 16
  DW_CFA_advance_loc: 2 to 000000000041fc88
  DW_CFA_def_cfa_offset: 8
  DW_CFA_advance_loc: 5 to 000000000041fc8d
  DW_CFA_restore_state
  DW_CFA_advance_loc: 46 to 000000000041fcbb
  DW_CFA_remember_state
  DW_CFA_def_cfa_offset: 56
  DW_CFA_advance_loc: 8 to 000000000041fcc3
  DW_CFA_def_cfa_offset: 48
  DW_CFA_advance_loc: 1 to 000000000041fcc4
  DW_CFA_def_cfa_offset: 40
  DW_CFA_advance_loc: 2 to 000000000041fcc6
  DW_CFA_def_cfa_offset: 32
  DW_CFA_advance_loc: 2 to 000000000041fcc8
  DW_CFA_def_cfa_offset: 24
  DW_CFA_advance_loc: 2 to 000000000041fcca
  DW_CFA_def_cfa_offset: 16
  DW_CFA_advance_loc: 2 to 000000000041fccc
  DW_CFA_def_cfa_offset: 8
  DW_CFA_advance_loc: 5 to 000000000041fcd1
  DW_CFA_restore_state
  DW_CFA_advance_loc: 56 to 000000000041fd09
  DW_CFA_remember_state
  DW_CFA_def_cfa_offset: 56
  DW_CFA_advance_loc: 8 to 000000000041fd11
  DW_CFA_def_cfa_offset: 48
  DW_CFA_advance_loc: 1 to 000000000041fd12
  DW_CFA_def_cfa_offset: 40
  DW_CFA_advance_loc: 2 to 000000000041fd14
  DW_CFA_def_cfa_offset: 32
  DW_CFA_advance_loc: 2 to 000000000041fd16
  DW_CFA_def_cfa_offset: 24
  DW_CFA_advance_loc: 2 to 000000000041fd18
  DW_CFA_def_cfa_offset: 16
  DW_CFA_advance_loc: 2 to 000000000041fd1a
  DW_CFA_def_cfa_offset: 8
  DW_CFA_advance_loc: 5 to 000000000041fd1f
  DW_CFA_restore_state
  DW_CFA_advance_loc: 46 to 000000000041fd4d
  DW_CFA_remember_state
  DW_CFA_def_cfa_offset: 56
  DW_CFA_advance_loc: 8 to 000000000041fd55
  DW_CFA_def_cfa_offset: 48
  DW_CFA_advance_loc: 1 to 000000000041fd56
  DW_CFA_def_cfa_offset: 40
  DW_CFA_advance_loc: 2 to 000000000041fd58
  DW_CFA_def_cfa_offset: 32
  DW_CFA_advance_loc: 2 to 000000000041fd5a
  DW_CFA_def_cfa_offset: 24
  DW_CFA_advance_loc: 2 to 000000000041fd5c
  DW_CFA_def_cfa_offset: 16
  DW_CFA_advance_loc: 2 to 000000000041fd5e
  DW_CFA_def_cfa_offset: 8
  DW_CFA_advance_loc: 5 to 000000000041fd63
  DW_CFA_restore_state
  DW_CFA_advance_loc: 56 to 000000000041fd9b
  DW_CFA_remember_state
  DW_CFA_def_cfa_offset: 56
  DW_CFA_advance_loc: 8 to 000000000041fda3
  DW_CFA_def_cfa_offset: 48
  DW_CFA_advance_loc: 1 to 000000000041fda4
  DW_CFA_def_cfa_offset: 40
  DW_CFA_advance_loc: 2 to 000000000041fda6
  DW_CFA_def_cfa_offset: 32
  DW_CFA_advance_loc: 2 to 000000000041fda8
  DW_CFA_def_cfa_offset: 24
  DW_CFA_advance_loc: 2 to 000000000041fdaa
  DW_CFA_def_cfa_offset: 16
  DW_CFA_advance_loc: 2 to 000000000041fdac
  DW_CFA_def_cfa_offset: 8
  DW_CFA_advance_loc: 5 to 000000000041fdb1
  DW_CFA_restore_state
  DW_CFA_advance_loc: 46 to 000000000041fddf
  DW_CFA_remember_state
  DW_CFA_def_cfa_offset: 56
  DW_CFA_advance_loc: 8 to 000000000041fde7
  DW_CFA_def_cfa_offset: 48
  DW_CFA_advance_loc: 1 to 000000000041fde8
  DW_CFA_def_cfa_offset: 40
  DW_CFA_advance_loc: 2 to 000000000041fdea
  DW_CFA_def_cfa_offset: 32
  DW_CFA_advance_loc: 2 to 000000000041fdec
  DW_CFA_def_cfa_offset: 24
  DW_CFA_advance_loc: 2 to 000000000041fdee
  DW_CFA_def_cfa_offset: 16
  DW_CFA_advance_loc: 2 to 000000000041fdf0
  DW_CFA_def_cfa_offset: 8
  DW_CFA_advance_loc: 5 to 000000000041fdf5
  DW_CFA_restore_state
  DW_CFA_advance_loc: 56 to 000000000041fe2d
  DW_CFA_remember_state
  DW_CFA_def_cfa_offset: 56
  DW_CFA_advance_loc: 8 to 000000000041fe35
  DW_CFA_def_cfa_offset: 48
  DW_CFA_advance_loc: 1 to 000000000041fe36
  DW_CFA_def_cfa_offset: 40
  DW_CFA_advance_loc: 2 to 000000000041fe38
  DW_CFA_def_cfa_offset: 32
  DW_CFA_advance_loc: 2 to 000000000041fe3a
  DW_CFA_def_cfa_offset: 24
  DW_CFA_advance_loc: 2 to 000000000041fe3c
  DW_CFA_def_cfa_offset: 16
  DW_CFA_advance_loc: 2 to 000000000041fe3e
  DW_CFA_def_cfa_offset: 8
  DW_CFA_advance_loc: 5 to 000000000041fe43
  DW_CFA_restore_state
  DW_CFA_advance_loc: 46 to 000000000041fe71
  DW_CFA_remember_state
  DW_CFA_def_cfa_offset: 56
  DW_CFA_advance_loc: 8 to 000000000041fe79
  DW_CFA_def_cfa_offset: 48
  DW_CFA_advance_loc: 1 to 000000000041fe7a
  DW_CFA_def_cfa_offset: 40
  DW_CFA_advance_loc: 2 to 000000000041fe7c
  DW_CFA_def_cfa_offset: 32
  DW_CFA_advance_loc: 2 to 000000000041fe7e
  DW_CFA_def_cfa_offset: 24
  DW_CFA_advance_loc: 2 to 000000000041fe80
  DW_CFA_def_cfa_offset: 16
  DW_CFA_advance_loc: 2 to 000000000041fe82
  DW_CFA_def_cfa_offset: 8
  DW_CFA_advance_loc: 5 to 000000000041fe87
  DW_CFA_restore_state
  DW_CFA_advance_loc: 56 to 000000000041febf
  DW_CFA_remember_state
  DW_CFA_def_cfa_offset: 56
  DW_CFA_advance_loc: 8 to 000000000041fec7
  DW_CFA_def_cfa_offset: 48
  DW_CFA_advance_loc: 1 to 000000000041fec8
  DW_CFA_def_cfa_offset: 40
  DW_CFA_advance_loc: 2 to 000000000041feca
  DW_CFA_def_cfa_offset: 32
  DW_CFA_advance_loc: 2 to 000000000041fecc
  DW_CFA_def_cfa_offset: 24
  DW_CFA_advance_loc: 2 to 000000000041fece
  DW_CFA_def_cfa_offset: 16
  DW_CFA_advance_loc: 2 to 000000000041fed0
  DW_CFA_def_cfa_offset: 8
  DW_CFA_advance_loc: 5 to 000000000041fed5
  DW_CFA_restore_state
  DW_CFA_advance_loc: 46 to 000000000041ff03
  DW_CFA_remember_state
  DW_CFA_def_cfa_offset: 56
  DW_CFA_advance_loc: 8 to 000000000041ff0b
  DW_CFA_def_cfa_offset: 48
  DW_CFA_advance_loc: 1 to 000000000041ff0c
  DW_CFA_def_cfa_offset: 40
  DW_CFA_advance_loc: 2 to 000000000041ff0e
  DW_CFA_def_cfa_offset: 32
  DW_CFA_advance_loc: 2 to 000000000041ff10
  DW_CFA_def_cfa_offset: 24
  DW_CFA_advance_loc: 2 to 000000000041ff12
  DW_CFA_def_cfa_offset: 16
  DW_CFA_advance_loc: 2 to 000000000041ff14
  DW_CFA_def_cfa_offset: 8
  DW_CFA_advance_loc: 5 to 000000000041ff19
  DW_CFA_restore_state
  DW_CFA_advance_loc: 56 to 000000000041ff51
  DW_CFA_remember_state
  DW_CFA_def_cfa_offset: 56
  DW_CFA_advance_loc: 8 to 000000000041ff59
  DW_CFA_def_cfa_offset: 48
  DW_CFA_advance_loc: 1 to 000000000041ff5a
  DW_CFA_def_cfa_offset: 40
  DW_CFA_advance_loc: 2 to 000000000041ff5c
  DW_CFA_def_cfa_offset: 32
  DW_CFA_advance_loc: 2 to 000000000041ff5e
  DW_CFA_def_cfa_offset: 24
  DW_CFA_advance_loc: 2 to 000000000041ff60
  DW_CFA_def_cfa_offset: 16
  DW_CFA_advance_loc: 2 to 000000000041ff62
  DW_CFA_def_cfa_offset: 8
  DW_CFA_advance_loc: 5 to 000000000041ff67
  DW_CFA_restore_state
  DW_CFA_advance_loc: 46 to 000000000041ff95
  DW_CFA_remember_state
  DW_CFA_def_cfa_offset: 56
  DW_CFA_advance_loc: 8 to 000000000041ff9d
  DW_CFA_def_cfa_offset: 48
  DW_CFA_advance_loc: 1 to 000000000041ff9e
  DW_CFA_def_cfa_offset: 40
  DW_CFA_advance_loc: 2 to 000000000041ffa0
  DW_CFA_def_cfa_offset: 32
  DW_CFA_advance_loc: 2 to 000000000041ffa2
  DW_CFA_def_cfa_offset: 24
  DW_CFA_advance_loc: 2 to 000000000041ffa4
  DW_CFA_def_cfa_offset: 16
  DW_CFA_advance_loc: 2 to 000000000041ffa6
  DW_CFA_def_cfa_offset: 8
  DW_CFA_advance_loc: 5 to 000000000041ffab
  DW_CFA_restore_state
  DW_CFA_advance_loc: 56 to 000000000041ffe3
  DW_CFA_remember_state
  DW_CFA_def_cfa_offset: 56
  DW_CFA_advance_loc: 8 to 000000000041ffeb
  DW_CFA_def_cfa_offset: 48
  DW_CFA_advance_loc: 1 to 000000000041ffec
  DW_CFA_def_cfa_offset: 40
  DW_CFA_advance_loc: 2 to 000000000041ffee
  DW_CFA_def_cfa_offset: 32
  DW_CFA_advance_loc: 2 to 000000000041fff0
  DW_CFA_def_cfa_offset: 24
  DW_CFA_advance_loc: 2 to 000000000041fff2
  DW_CFA_def_cfa_offset: 16
  DW_CFA_advance_loc: 2 to 000000000041fff4
  DW_CFA_def_cfa_offset: 8
  DW_CFA_advance_loc: 5 to 000000000041fff9
  DW_CFA_restore_state
  DW_CFA_advance_loc: 46 to 0000000000420027
  DW_CFA_remember_state
  DW_CFA_def_cfa_offset: 56
  DW_CFA_advance_loc: 8 to 000000000042002f
  DW_CFA_def_cfa_offset: 48
  DW_CFA_advance_loc: 1 to 0000000000420030
  DW_CFA_def_cfa_offset: 40
  DW_CFA_advance_loc: 2 to 0000000000420032
  DW_CFA_def_cfa_offset: 32
  DW_CFA_advance_loc: 2 to 0000000000420034
  DW_CFA_def_cfa_offset: 24
  DW_CFA_advance_loc: 2 to 0000000000420036
  DW_CFA_def_cfa_offset: 16
  DW_CFA_advance_loc: 2 to 0000000000420038
  DW_CFA_def_cfa_offset: 8
  DW_CFA_advance_loc: 5 to 000000000042003d
  DW_CFA_restore_state
  DW_CFA_advance_loc: 56 to 0000000000420075
  DW_CFA_remember_state
  DW_CFA_def_cfa_offset: 56
  DW_CFA_advance_loc: 8 to 000000000042007d
  DW_CFA_def_cfa_offset: 48
  DW_CFA_advance_loc: 1 to 000000000042007e
  DW_CFA_def_cfa_offset: 40
  DW_CFA_advance_loc: 2 to 0000000000420080
  DW_CFA_def_cfa_offset: 32
  DW_CFA_advance_loc: 2 to 0000000000420082
  DW_CFA_def_cfa_offset: 24
  DW_CFA_advance_loc: 2 to 0000000000420084
  DW_CFA_def_cfa_offset: 16
  DW_CFA_advance_loc: 2 to 0000000000420086
  DW_CFA_def_cfa_offset: 8
  DW_CFA_advance_loc: 5 to 000000000042008b
  DW_CFA_restore_state
  DW_CFA_advance_loc: 46 to 00000000004200b9
  DW_CFA_remember_state
  DW_CFA_def_cfa_offset: 56
  DW_CFA_advance_loc: 11 to 00000000004200c4
  DW_CFA_def_cfa_offset: 48
  DW_CFA_advance_loc: 1 to 00000000004200c5
  DW_CFA_def_cfa_offset: 40
  DW_CFA_advance_loc: 2 to 00000000004200c7
  DW_CFA_def_cfa_offset: 32
  DW_CFA_advance_loc: 2 to 00000000004200c9
  DW_CFA_def_cfa_offset: 24
  DW_CFA_advance_loc: 2 to 00000000004200cb
  DW_CFA_def_cfa_offset: 16
  DW_CFA_advance_loc: 2 to 00000000004200cd
  DW_CFA_def_cfa_offset: 8
  DW_CFA_advance_loc: 5 to 00000000004200d2
  DW_CFA_restore_state
  DW_CFA_advance_loc: 56 to 000000000042010a
  DW_CFA_remember_state
  DW_CFA_def_cfa_offset: 56
  DW_CFA_advance_loc: 8 to 0000000000420112
  DW_CFA_def_cfa_offset: 48
  DW_CFA_advance_loc: 1 to 0000000000420113
  DW_CFA_def_cfa_offset: 40
  DW_CFA_advance_loc: 2 to 0000000000420115
  DW_CFA_def_cfa_offset: 32
  DW_CFA_advance_loc: 2 to 0000000000420117
  DW_CFA_def_cfa_offset: 24
  DW_CFA_advance_loc: 2 to 0000000000420119
  DW_CFA_def_cfa_offset: 16
  DW_CFA_advance_loc: 2 to 000000000042011b
  DW_CFA_def_cfa_offset: 8
  DW_CFA_advance_loc: 5 to 0000000000420120
  DW_CFA_restore_state
  DW_CFA_advance_loc: 46 to 000000000042014e
  DW_CFA_remember_state
  DW_CFA_def_cfa_offset: 56
  DW_CFA_advance_loc: 8 to 0000000000420156
  DW_CFA_def_cfa_offset: 48
  DW_CFA_advance_loc: 1 to 0000000000420157
  DW_CFA_def_cfa_offset: 40
  DW_CFA_advance_loc: 2 to 0000000000420159
  DW_CFA_def_cfa_offset: 32
  DW_CFA_advance_loc: 2 to 000000000042015b
  DW_CFA_def_cfa_offset: 24
  DW_CFA_advance_loc: 2 to 000000000042015d
  DW_CFA_def_cfa_offset: 16
  DW_CFA_advance_loc: 2 to 000000000042015f
  DW_CFA_def_cfa_offset: 8
  DW_CFA_advance_loc: 5 to 0000000000420164
  DW_CFA_restore_state
  DW_CFA_advance_loc: 56 to 000000000042019c
  DW_CFA_remember_state
  DW_CFA_def_cfa_offset: 56
  DW_CFA_advance_loc: 8 to 00000000004201a4
  DW_CFA_def_cfa_offset: 48
  DW_CFA_advance_loc: 1 to 00000000004201a5
  DW_CFA_def_cfa_offset: 40
  DW_CFA_advance_loc: 2 to 00000000004201a7
  DW_CFA_def_cfa_offset: 32
  DW_CFA_advance_loc: 2 to 00000000004201a9
  DW_CFA_def_cfa_offset: 24
  DW_CFA_advance_loc: 2 to 00000000004201ab
  DW_CFA_def_cfa_offset: 16
  DW_CFA_advance_loc: 2 to 00000000004201ad
  DW_CFA_def_cfa_offset: 8
  DW_CFA_advance_loc: 5 to 00000000004201b2
  DW_CFA_restore_state
  DW_CFA_advance_loc: 46 to 00000000004201e0
  DW_CFA_remember_state
  DW_CFA_def_cfa_offset: 56
  DW_CFA_advance_loc: 8 to 00000000004201e8
  DW_CFA_def_cfa_offset: 48
  DW_CFA_advance_loc: 1 to 00000000004201e9
  DW_CFA_def_cfa_offset: 40
  DW_CFA_advance_loc: 2 to 00000000004201eb
  DW_CFA_def_cfa_offset: 32
  DW_CFA_advance_loc: 2 to 00000000004201ed
  DW_CFA_def_cfa_offset: 24
  DW_CFA_advance_loc: 2 to 00000000004201ef
  DW_CFA_def_cfa_offset: 16
  DW_CFA_advance_loc: 2 to 00000000004201f1
  DW_CFA_def_cfa_offset: 8
  DW_CFA_advance_loc: 5 to 00000000004201f6
  DW_CFA_restore_state
  DW_CFA_advance_loc: 56 to 000000000042022e
  DW_CFA_remember_state
  DW_CFA_def_cfa_offset: 56
  DW_CFA_advance_loc: 8 to 0000000000420236
  DW_CFA_def_cfa_offset: 48
  DW_CFA_advance_loc: 1 to 0000000000420237
  DW_CFA_def_cfa_offset: 40
  DW_CFA_advance_loc: 2 to 0000000000420239
  DW_CFA_def_cfa_offset: 32
  DW_CFA_advance_loc: 2 to 000000000042023b
  DW_CFA_def_cfa_offset: 24
  DW_CFA_advance_loc: 2 to 000000000042023d
  DW_CFA_def_cfa_offset: 16
  DW_CFA_advance_loc: 2 to 000000000042023f
  DW_CFA_def_cfa_offset: 8
  DW_CFA_advance_loc: 5 to 0000000000420244
  DW_CFA_restore_state
  DW_CFA_advance_loc: 46 to 0000000000420272
  DW_CFA_remember_state
  DW_CFA_def_cfa_offset: 56
  DW_CFA_advance_loc: 8 to 000000000042027a
  DW_CFA_def_cfa_offset: 48
  DW_CFA_advance_loc: 1 to 000000000042027b
  DW_CFA_def_cfa_offset: 40
  DW_CFA_advance_loc: 2 to 000000000042027d
  DW_CFA_def_cfa_offset: 32
  DW_CFA_advance_loc: 2 to 000000000042027f
  DW_CFA_def_cfa_offset: 24
  DW_CFA_advance_loc: 2 to 0000000000420281
  DW_CFA_def_cfa_offset: 16
  DW_CFA_advance_loc: 2 to 0000000000420283
  DW_CFA_def_cfa_offset: 8
  DW_CFA_advance_loc: 5 to 0000000000420288
  DW_CFA_restore_state
  DW_CFA_advance_loc: 56 to 00000000004202c0
  DW_CFA_remember_state
  DW_CFA_def_cfa_offset: 56
  DW_CFA_advance_loc: 11 to 00000000004202cb
  DW_CFA_def_cfa_offset: 48
  DW_CFA_advance_loc: 1 to 00000000004202cc
  DW_CFA_def_cfa_offset: 40
  DW_CFA_advance_loc: 2 to 00000000004202ce
  DW_CFA_def_cfa_offset: 32
  DW_CFA_advance_loc: 2 to 00000000004202d0
  DW_CFA_def_cfa_offset: 24
  DW_CFA_advance_loc: 2 to 00000000004202d2
  DW_CFA_def_cfa_offset: 16
  DW_CFA_advance_loc: 2 to 00000000004202d4
  DW_CFA_def_cfa_offset: 8
  DW_CFA_advance_loc: 5 to 00000000004202d9
  DW_CFA_restore_state
  DW_CFA_advance_loc: 46 to 0000000000420307
  DW_CFA_remember_state
  DW_CFA_def_cfa_offset: 56
  DW_CFA_advance_loc: 8 to 000000000042030f
  DW_CFA_def_cfa_offset: 48
  DW_CFA_advance_loc: 1 to 0000000000420310
  DW_CFA_def_cfa_offset: 40
  DW_CFA_advance_loc: 2 to 0000000000420312
  DW_CFA_def_cfa_offset: 32
  DW_CFA_advance_loc: 2 to 0000000000420314
  DW_CFA_def_cfa_offset: 24
  DW_CFA_advance_loc: 2 to 0000000000420316
  DW_CFA_def_cfa_offset: 16
  DW_CFA_advance_loc: 2 to 0000000000420318
  DW_CFA_def_cfa_offset: 8
  DW_CFA_advance_loc: 5 to 000000000042031d
  DW_CFA_restore_state
  DW_CFA_advance_loc: 56 to 0000000000420355
  DW_CFA_remember_state
  DW_CFA_def_cfa_offset: 56
  DW_CFA_advance_loc: 8 to 000000000042035d
  DW_CFA_def_cfa_offset: 48
  DW_CFA_advance_loc: 1 to 000000000042035e
  DW_CFA_def_cfa_offset: 40
  DW_CFA_advance_loc: 2 to 0000000000420360
  DW_CFA_def_cfa_offset: 32
  DW_CFA_advance_loc: 2 to 0000000000420362
  DW_CFA_def_cfa_offset: 24
  DW_CFA_advance_loc: 2 to 0000000000420364
  DW_CFA_def_cfa_offset: 16
  DW_CFA_advance_loc: 2 to 0000000000420366
  DW_CFA_def_cfa_offset: 8
  DW_CFA_advance_loc: 5 to 000000000042036b
  DW_CFA_restore_state
  DW_CFA_advance_loc: 46 to 0000000000420399
  DW_CFA_remember_state
  DW_CFA_def_cfa_offset: 56
  DW_CFA_advance_loc: 8 to 00000000004203a1
  DW_CFA_def_cfa_offset: 48
  DW_CFA_advance_loc: 1 to 00000000004203a2
  DW_CFA_def_cfa_offset: 40
  DW_CFA_advance_loc: 2 to 00000000004203a4
  DW_CFA_def_cfa_offset: 32
  DW_CFA_advance_loc: 2 to 00000000004203a6
  DW_CFA_def_cfa_offset: 24
  DW_CFA_advance_loc: 2 to 00000000004203a8
  DW_CFA_def_cfa_offset: 16
  DW_CFA_advance_loc: 2 to 00000000004203aa
  DW_CFA_def_cfa_offset: 8
  DW_CFA_advance_loc: 5 to 00000000004203af
  DW_CFA_restore_state
  DW_CFA_advance_loc: 56 to 00000000004203e7
  DW_CFA_remember_state
  DW_CFA_def_cfa_offset: 56
  DW_CFA_advance_loc: 8 to 00000000004203ef
  DW_CFA_def_cfa_offset: 48
  DW_CFA_advance_loc: 1 to 00000000004203f0
  DW_CFA_def_cfa_offset: 40
  DW_CFA_advance_loc: 2 to 00000000004203f2
  DW_CFA_def_cfa_offset: 32
  DW_CFA_advance_loc: 2 to 00000000004203f4
  DW_CFA_def_cfa_offset: 24
  DW_CFA_advance_loc: 2 to 00000000004203f6
  DW_CFA_def_cfa_offset: 16
  DW_CFA_advance_loc: 2 to 00000000004203f8
  DW_CFA_def_cfa_offset: 8
  DW_CFA_advance_loc: 5 to 00000000004203fd
  DW_CFA_restore_state
  DW_CFA_advance_loc: 46 to 000000000042042b
  DW_CFA_remember_state
  DW_CFA_def_cfa_offset: 56
  DW_CFA_advance_loc: 8 to 0000000000420433
  DW_CFA_def_cfa_offset: 48
  DW_CFA_advance_loc: 1 to 0000000000420434
  DW_CFA_def_cfa_offset: 40
  DW_CFA_advance_loc: 2 to 0000000000420436
  DW_CFA_def_cfa_offset: 32
  DW_CFA_advance_loc: 2 to 0000000000420438
  DW_CFA_def_cfa_offset: 24
  DW_CFA_advance_loc: 2 to 000000000042043a
  DW_CFA_def_cfa_offset: 16
  DW_CFA_advance_loc: 2 to 000000000042043c
  DW_CFA_def_cfa_offset: 8
  DW_CFA_advance_loc: 5 to 0000000000420441
  DW_CFA_restore_state
  DW_CFA_advance_loc: 56 to 0000000000420479
  DW_CFA_remember_state
  DW_CFA_def_cfa_offset: 56
  DW_CFA_advance_loc: 8 to 0000000000420481
  DW_CFA_def_cfa_offset: 48
  DW_CFA_advance_loc: 1 to 0000000000420482
  DW_CFA_def_cfa_offset: 40
  DW_CFA_advance_loc: 2 to 0000000000420484
  DW_CFA_def_cfa_offset: 32
  DW_CFA_advance_loc: 2 to 0000000000420486
  DW_CFA_def_cfa_offset: 24
  DW_CFA_advance_loc: 2 to 0000000000420488
  DW_CFA_def_cfa_offset: 16
  DW_CFA_advance_loc: 2 to 000000000042048a
  DW_CFA_def_cfa_offset: 8
  DW_CFA_advance_loc: 5 to 000000000042048f
  DW_CFA_restore_state
  DW_CFA_advance_loc: 46 to 00000000004204bd
  DW_CFA_remember_state
  DW_CFA_def_cfa_offset: 56
  DW_CFA_advance_loc: 8 to 00000000004204c5
  DW_CFA_def_cfa_offset: 48
  DW_CFA_advance_loc: 1 to 00000000004204c6
  DW_CFA_def_cfa_offset: 40
  DW_CFA_advance_loc: 2 to 00000000004204c8
  DW_CFA_def_cfa_offset: 32
  DW_CFA_advance_loc: 2 to 00000000004204ca
  DW_CFA_def_cfa_offset: 24
  DW_CFA_advance_loc: 2 to 00000000004204cc
  DW_CFA_def_cfa_offset: 16
  DW_CFA_advance_loc: 2 to 00000000004204ce
  DW_CFA_def_cfa_offset: 8
  DW_CFA_advance_loc: 5 to 00000000004204d3
  DW_CFA_restore_state
  DW_CFA_advance_loc: 56 to 000000000042050b
  DW_CFA_remember_state
  DW_CFA_def_cfa_offset: 56
  DW_CFA_advance_loc: 8 to 0000000000420513
  DW_CFA_def_cfa_offset: 48
  DW_CFA_advance_loc: 1 to 0000000000420514
  DW_CFA_def_cfa_offset: 40
  DW_CFA_advance_loc: 2 to 0000000000420516
  DW_CFA_def_cfa_offset: 32
  DW_CFA_advance_loc: 2 to 0000000000420518
  DW_CFA_def_cfa_offset: 24
  DW_CFA_advance_loc: 2 to 000000000042051a
  DW_CFA_def_cfa_offset: 16
  DW_CFA_advance_loc: 2 to 000000000042051c
  DW_CFA_def_cfa_offset: 8
  DW_CFA_advance_loc: 5 to 0000000000420521
  DW_CFA_restore_state
  DW_CFA_advance_loc: 46 to 000000000042054f
  DW_CFA_remember_state
  DW_CFA_def_cfa_offset: 56
  DW_CFA_advance_loc: 8 to 0000000000420557
  DW_CFA_def_cfa_offset: 48
  DW_CFA_advance_loc: 1 to 0000000000420558
  DW_CFA_def_cfa_offset: 40
  DW_CFA_advance_loc: 2 to 000000000042055a
  DW_CFA_def_cfa_offset: 32
  DW_CFA_advance_loc: 2 to 000000000042055c
  DW_CFA_def_cfa_offset: 24
  DW_CFA_advance_loc: 2 to 000000000042055e
  DW_CFA_def_cfa_offset: 16
  DW_CFA_advance_loc: 2 to 0000000000420560
  DW_CFA_def_cfa_offset: 8
  DW_CFA_advance_loc: 5 to 0000000000420565
  DW_CFA_restore_state
  DW_CFA_advance_loc: 56 to 000000000042059d
  DW_CFA_remember_state
  DW_CFA_def_cfa_offset: 56
  DW_CFA_advance_loc: 8 to 00000000004205a5
  DW_CFA_def_cfa_offset: 48
  DW_CFA_advance_loc: 1 to 00000000004205a6
  DW_CFA_def_cfa_offset: 40
  DW_CFA_advance_loc: 2 to 00000000004205a8
  DW_CFA_def_cfa_offset: 32
  DW_CFA_advance_loc: 2 to 00000000004205aa
  DW_CFA_def_cfa_offset: 24
  DW_CFA_advance_loc: 2 to 00000000004205ac
  DW_CFA_def_cfa_offset: 16
  DW_CFA_advance_loc: 2 to 00000000004205ae
  DW_CFA_def_cfa_offset: 8
  DW_CFA_advance_loc: 5 to 00000000004205b3
  DW_CFA_restore_state
  DW_CFA_advance_loc: 46 to 00000000004205e1
  DW_CFA_remember_state
  DW_CFA_def_cfa_offset: 56
  DW_CFA_advance_loc: 8 to 00000000004205e9
  DW_CFA_def_cfa_offset: 48
  DW_CFA_advance_loc: 1 to 00000000004205ea
  DW_CFA_def_cfa_offset: 40
  DW_CFA_advance_loc: 2 to 00000000004205ec
  DW_CFA_def_cfa_offset: 32
  DW_CFA_advance_loc: 2 to 00000000004205ee
  DW_CFA_def_cfa_offset: 24
  DW_CFA_advance_loc: 2 to 00000000004205f0
  DW_CFA_def_cfa_offset: 16
  DW_CFA_advance_loc: 2 to 00000000004205f2
  DW_CFA_def_cfa_offset: 8
  DW_CFA_advance_loc: 5 to 00000000004205f7
  DW_CFA_restore_state
  DW_CFA_advance_loc: 56 to 000000000042062f
  DW_CFA_remember_state
  DW_CFA_def_cfa_offset: 56
  DW_CFA_advance_loc: 8 to 0000000000420637
  DW_CFA_def_cfa_offset: 48
  DW_CFA_advance_loc: 1 to 0000000000420638
  DW_CFA_def_cfa_offset: 40
  DW_CFA_advance_loc: 2 to 000000000042063a
  DW_CFA_def_cfa_offset: 32
  DW_CFA_advance_loc: 2 to 000000000042063c
  DW_CFA_def_cfa_offset: 24
  DW_CFA_advance_loc: 2 to 000000000042063e
  DW_CFA_def_cfa_offset: 16
  DW_CFA_advance_loc: 2 to 0000000000420640
  DW_CFA_def_cfa_offset: 8
  DW_CFA_advance_loc: 5 to 0000000000420645
  DW_CFA_restore_state
  DW_CFA_advance_loc: 46 to 0000000000420673
  DW_CFA_remember_state
  DW_CFA_def_cfa_offset: 56
  DW_CFA_advance_loc: 8 to 000000000042067b
  DW_CFA_def_cfa_offset: 48
  DW_CFA_advance_loc: 1 to 000000000042067c
  DW_CFA_def_cfa_offset: 40
  DW_CFA_advance_loc: 2 to 000000000042067e
  DW_CFA_def_cfa_offset: 32
  DW_CFA_advance_loc: 2 to 0000000000420680
  DW_CFA_def_cfa_offset: 24
  DW_CFA_advance_loc: 2 to 0000000000420682
  DW_CFA_def_cfa_offset: 16
  DW_CFA_advance_loc: 2 to 0000000000420684
  DW_CFA_def_cfa_offset: 8
  DW_CFA_advance_loc: 5 to 0000000000420689
  DW_CFA_restore_state
  DW_CFA_advance_loc: 56 to 00000000004206c1
  DW_CFA_remember_state
  DW_CFA_def_cfa_offset: 56
  DW_CFA_advance_loc: 8 to 00000000004206c9
  DW_CFA_def_cfa_offset: 48
  DW_CFA_advance_loc: 1 to 00000000004206ca
  DW_CFA_def_cfa_offset: 40
  DW_CFA_advance_loc: 2 to 00000000004206cc
  DW_CFA_def_cfa_offset: 32
  DW_CFA_advance_loc: 2 to 00000000004206ce
  DW_CFA_def_cfa_offset: 24
  DW_CFA_advance_loc: 2 to 00000000004206d0
  DW_CFA_def_cfa_offset: 16
  DW_CFA_advance_loc: 2 to 00000000004206d2
  DW_CFA_def_cfa_offset: 8
  DW_CFA_advance_loc: 5 to 00000000004206d7
  DW_CFA_restore_state
  DW_CFA_advance_loc: 46 to 0000000000420705
  DW_CFA_remember_state
  DW_CFA_def_cfa_offset: 56
  DW_CFA_advance_loc: 8 to 000000000042070d
  DW_CFA_def_cfa_offset: 48
  DW_CFA_advance_loc: 1 to 000000000042070e
  DW_CFA_def_cfa_offset: 40
  DW_CFA_advance_loc: 2 to 0000000000420710
  DW_CFA_def_cfa_offset: 32
  DW_CFA_advance_loc: 2 to 0000000000420712
  DW_CFA_def_cfa_offset: 24
  DW_CFA_advance_loc: 2 to 0000000000420714
  DW_CFA_def_cfa_offset: 16
  DW_CFA_advance_loc: 2 to 0000000000420716
  DW_CFA_def_cfa_offset: 8
  DW_CFA_advance_loc: 5 to 000000000042071b
  DW_CFA_restore_state
  DW_CFA_advance_loc: 56 to 0000000000420753
  DW_CFA_remember_state
  DW_CFA_def_cfa_offset: 56
  DW_CFA_advance_loc: 8 to 000000000042075b
  DW_CFA_def_cfa_offset: 48
  DW_CFA_advance_loc: 1 to 000000000042075c
  DW_CFA_def_cfa_offset: 40
  DW_CFA_advance_loc: 2 to 000000000042075e
  DW_CFA_def_cfa_offset: 32
  DW_CFA_advance_loc: 2 to 0000000000420760
  DW_CFA_def_cfa_offset: 24
  DW_CFA_advance_loc: 2 to 0000000000420762
  DW_CFA_def_cfa_offset: 16
  DW_CFA_advance_loc: 2 to 0000000000420764
  DW_CFA_def_cfa_offset: 8
  DW_CFA_advance_loc: 5 to 0000000000420769
  DW_CFA_restore_state
  DW_CFA_advance_loc1: 127 to 00000000004207e8
  DW_CFA_remember_state
  DW_CFA_def_cfa_offset: 56
  DW_CFA_advance_loc: 8 to 00000000004207f0
  DW_CFA_def_cfa_offset: 48
  DW_CFA_advance_loc: 1 to 00000000004207f1
  DW_CFA_def_cfa_offset: 40
  DW_CFA_advance_loc: 2 to 00000000004207f3
  DW_CFA_def_cfa_offset: 32
  DW_CFA_advance_loc: 2 to 00000000004207f5
  DW_CFA_def_cfa_offset: 24
  DW_CFA_advance_loc: 2 to 00000000004207f7
  DW_CFA_def_cfa_offset: 16
  DW_CFA_advance_loc: 2 to 00000000004207f9
  DW_CFA_def_cfa_offset: 8
  DW_CFA_advance_loc: 5 to 00000000004207fe
  DW_CFA_restore_state
  DW_CFA_advance_loc: 50 to 0000000000420830
  DW_CFA_remember_state
  DW_CFA_def_cfa_offset: 56
  DW_CFA_advance_loc: 8 to 0000000000420838
  DW_CFA_def_cfa_offset: 48
  DW_CFA_advance_loc: 1 to 0000000000420839
  DW_CFA_def_cfa_offset: 40
  DW_CFA_advance_loc: 2 to 000000000042083b
  DW_CFA_def_cfa_offset: 32
  DW_CFA_advance_loc: 2 to 000000000042083d
  DW_CFA_def_cfa_offset: 24
  DW_CFA_advance_loc: 2 to 000000000042083f
  DW_CFA_def_cfa_offset: 16
  DW_CFA_advance_loc: 2 to 0000000000420841
  DW_CFA_def_cfa_offset: 8
  DW_CFA_advance_loc: 5 to 0000000000420846
  DW_CFA_restore_state
  DW_CFA_advance_loc: 50 to 0000000000420878
  DW_CFA_remember_state
  DW_CFA_def_cfa_offset: 56
  DW_CFA_advance_loc: 8 to 0000000000420880
  DW_CFA_def_cfa_offset: 48
  DW_CFA_advance_loc: 1 to 0000000000420881
  DW_CFA_def_cfa_offset: 40
  DW_CFA_advance_loc: 2 to 0000000000420883
  DW_CFA_def_cfa_offset: 32
  DW_CFA_advance_loc: 2 to 0000000000420885
  DW_CFA_def_cfa_offset: 24
  DW_CFA_advance_loc: 2 to 0000000000420887
  DW_CFA_def_cfa_offset: 16
  DW_CFA_advance_loc: 2 to 0000000000420889
  DW_CFA_def_cfa_offset: 8
  DW_CFA_advance_loc: 5 to 000000000042088e
  DW_CFA_restore_state
  DW_CFA_advance_loc: 46 to 00000000004208bc
  DW_CFA_remember_state
  DW_CFA_def_cfa_offset: 56
  DW_CFA_advance_loc: 8 to 00000000004208c4
  DW_CFA_def_cfa_offset: 48
  DW_CFA_advance_loc: 1 to 00000000004208c5
  DW_CFA_def_cfa_offset: 40
  DW_CFA_advance_loc: 2 to 00000000004208c7
  DW_CFA_def_cfa_offset: 32
  DW_CFA_advance_loc: 2 to 00000000004208c9
  DW_CFA_def_cfa_offset: 24
  DW_CFA_advance_loc: 2 to 00000000004208cb
  DW_CFA_def_cfa_offset: 16
  DW_CFA_advance_loc: 2 to 00000000004208cd
  DW_CFA_def_cfa_offset: 8
  DW_CFA_advance_loc: 5 to 00000000004208d2
  DW_CFA_restore_state
  DW_CFA_advance_loc: 46 to 0000000000420900
  DW_CFA_remember_state
  DW_CFA_def_cfa_offset: 56
  DW_CFA_advance_loc: 8 to 0000000000420908
  DW_CFA_def_cfa_offset: 48
  DW_CFA_advance_loc: 1 to 0000000000420909
  DW_CFA_def_cfa_offset: 40
  DW_CFA_advance_loc: 2 to 000000000042090b
  DW_CFA_def_cfa_offset: 32
  DW_CFA_advance_loc: 2 to 000000000042090d
  DW_CFA_def_cfa_offset: 24
  DW_CFA_advance_loc: 2 to 000000000042090f
  DW_CFA_def_cfa_offset: 16
  DW_CFA_advance_loc: 2 to 0000000000420911
  DW_CFA_def_cfa_offset: 8
  DW_CFA_advance_loc: 5 to 0000000000420916
  DW_CFA_restore_state
  DW_CFA_advance_loc1: 71 to 000000000042095d
  DW_CFA_remember_state
  DW_CFA_def_cfa_offset: 56
  DW_CFA_advance_loc: 8 to 0000000000420965
  DW_CFA_def_cfa_offset: 48
  DW_CFA_advance_loc: 1 to 0000000000420966
  DW_CFA_def_cfa_offset: 40
  DW_CFA_advance_loc: 2 to 0000000000420968
  DW_CFA_def_cfa_offset: 32
  DW_CFA_advance_loc: 2 to 000000000042096a
  DW_CFA_def_cfa_offset: 24
  DW_CFA_advance_loc: 2 to 000000000042096c
  DW_CFA_def_cfa_offset: 16
  DW_CFA_advance_loc: 2 to 000000000042096e
  DW_CFA_def_cfa_offset: 8
  DW_CFA_advance_loc: 5 to 0000000000420973
  DW_CFA_restore_state
  DW_CFA_advance_loc: 46 to 00000000004209a1
  DW_CFA_remember_state
  DW_CFA_def_cfa_offset: 56
  DW_CFA_advance_loc: 8 to 00000000004209a9
  DW_CFA_def_cfa_offset: 48
  DW_CFA_advance_loc: 1 to 00000000004209aa
  DW_CFA_def_cfa_offset: 40
  DW_CFA_advance_loc: 2 to 00000000004209ac
  DW_CFA_def_cfa_offset: 32
  DW_CFA_advance_loc: 2 to 00000000004209ae
  DW_CFA_def_cfa_offset: 24
  DW_CFA_advance_loc: 2 to 00000000004209b0
  DW_CFA_def_cfa_offset: 16
  DW_CFA_advance_loc: 2 to 00000000004209b2
  DW_CFA_def_cfa_offset: 8
  DW_CFA_advance_loc: 5 to 00000000004209b7
  DW_CFA_restore_state
  DW_CFA_advance_loc: 56 to 00000000004209ef
  DW_CFA_remember_state
  DW_CFA_def_cfa_offset: 56
  DW_CFA_advance_loc: 8 to 00000000004209f7
  DW_CFA_def_cfa_offset: 48
  DW_CFA_advance_loc: 1 to 00000000004209f8
  DW_CFA_def_cfa_offset: 40
  DW_CFA_advance_loc: 2 to 00000000004209fa
  DW_CFA_def_cfa_offset: 32
  DW_CFA_advance_loc: 2 to 00000000004209fc
  DW_CFA_def_cfa_offset: 24
  DW_CFA_advance_loc: 2 to 00000000004209fe
  DW_CFA_def_cfa_offset: 16
  DW_CFA_advance_loc: 2 to 0000000000420a00
  DW_CFA_def_cfa_offset: 8
  DW_CFA_advance_loc: 5 to 0000000000420a05
  DW_CFA_restore_state
  DW_CFA_advance_loc: 46 to 0000000000420a33
  DW_CFA_remember_state
  DW_CFA_def_cfa_offset: 56
  DW_CFA_advance_loc: 8 to 0000000000420a3b
  DW_CFA_def_cfa_offset: 48
  DW_CFA_advance_loc: 1 to 0000000000420a3c
  DW_CFA_def_cfa_offset: 40
  DW_CFA_advance_loc: 2 to 0000000000420a3e
  DW_CFA_def_cfa_offset: 32
  DW_CFA_advance_loc: 2 to 0000000000420a40
  DW_CFA_def_cfa_offset: 24
  DW_CFA_advance_loc: 2 to 0000000000420a42
  DW_CFA_def_cfa_offset: 16
  DW_CFA_advance_loc: 2 to 0000000000420a44
  DW_CFA_def_cfa_offset: 8
  DW_CFA_advance_loc: 5 to 0000000000420a49
  DW_CFA_restore_state
  DW_CFA_advance_loc: 56 to 0000000000420a81
  DW_CFA_remember_state
  DW_CFA_def_cfa_offset: 56
  DW_CFA_advance_loc: 8 to 0000000000420a89
  DW_CFA_def_cfa_offset: 48
  DW_CFA_advance_loc: 1 to 0000000000420a8a
  DW_CFA_def_cfa_offset: 40
  DW_CFA_advance_loc: 2 to 0000000000420a8c
  DW_CFA_def_cfa_offset: 32
  DW_CFA_advance_loc: 2 to 0000000000420a8e
  DW_CFA_def_cfa_offset: 24
  DW_CFA_advance_loc: 2 to 0000000000420a90
  DW_CFA_def_cfa_offset: 16
  DW_CFA_advance_loc: 2 to 0000000000420a92
  DW_CFA_def_cfa_offset: 8
  DW_CFA_advance_loc: 5 to 0000000000420a97
  DW_CFA_restore_state
  DW_CFA_advance_loc: 46 to 0000000000420ac5
  DW_CFA_remember_state
  DW_CFA_def_cfa_offset: 56
  DW_CFA_advance_loc: 8 to 0000000000420acd
  DW_CFA_def_cfa_offset: 48
  DW_CFA_advance_loc: 1 to 0000000000420ace
  DW_CFA_def_cfa_offset: 40
  DW_CFA_advance_loc: 2 to 0000000000420ad0
  DW_CFA_def_cfa_offset: 32
  DW_CFA_advance_loc: 2 to 0000000000420ad2
  DW_CFA_def_cfa_offset: 24
  DW_CFA_advance_loc: 2 to 0000000000420ad4
  DW_CFA_def_cfa_offset: 16
  DW_CFA_advance_loc: 2 to 0000000000420ad6
  DW_CFA_def_cfa_offset: 8
  DW_CFA_advance_loc: 5 to 0000000000420adb
  DW_CFA_restore_state
  DW_CFA_advance_loc: 56 to 0000000000420b13
  DW_CFA_remember_state
  DW_CFA_def_cfa_offset: 56
  DW_CFA_advance_loc: 8 to 0000000000420b1b
  DW_CFA_def_cfa_offset: 48
  DW_CFA_advance_loc: 1 to 0000000000420b1c
  DW_CFA_def_cfa_offset: 40
  DW_CFA_advance_loc: 2 to 0000000000420b1e
  DW_CFA_def_cfa_offset: 32
  DW_CFA_advance_loc: 2 to 0000000000420b20
  DW_CFA_def_cfa_offset: 24
  DW_CFA_advance_loc: 2 to 0000000000420b22
  DW_CFA_def_cfa_offset: 16
  DW_CFA_advance_loc: 2 to 0000000000420b24
  DW_CFA_def_cfa_offset: 8
  DW_CFA_advance_loc: 5 to 0000000000420b29
  DW_CFA_restore_state
  DW_CFA_advance_loc: 46 to 0000000000420b57
  DW_CFA_remember_state
  DW_CFA_def_cfa_offset: 56
  DW_CFA_advance_loc: 8 to 0000000000420b5f
  DW_CFA_def_cfa_offset: 48
  DW_CFA_advance_loc: 1 to 0000000000420b60
  DW_CFA_def_cfa_offset: 40
  DW_CFA_advance_loc: 2 to 0000000000420b62
  DW_CFA_def_cfa_offset: 32
  DW_CFA_advance_loc: 2 to 0000000000420b64
  DW_CFA_def_cfa_offset: 24
  DW_CFA_advance_loc: 2 to 0000000000420b66
  DW_CFA_def_cfa_offset: 16
  DW_CFA_advance_loc: 2 to 0000000000420b68
  DW_CFA_def_cfa_offset: 8
  DW_CFA_advance_loc: 5 to 0000000000420b6d
  DW_CFA_restore_state
  DW_CFA_advance_loc: 56 to 0000000000420ba5
  DW_CFA_remember_state
  DW_CFA_def_cfa_offset: 56
  DW_CFA_advance_loc: 8 to 0000000000420bad
  DW_CFA_def_cfa_offset: 48
  DW_CFA_advance_loc: 1 to 0000000000420bae
  DW_CFA_def_cfa_offset: 40
  DW_CFA_advance_loc: 2 to 0000000000420bb0
  DW_CFA_def_cfa_offset: 32
  DW_CFA_advance_loc: 2 to 0000000000420bb2
  DW_CFA_def_cfa_offset: 24
  DW_CFA_advance_loc: 2 to 0000000000420bb4
  DW_CFA_def_cfa_offset: 16
  DW_CFA_advance_loc: 2 to 0000000000420bb6
  DW_CFA_def_cfa_offset: 8
  DW_CFA_advance_loc: 5 to 0000000000420bbb
  DW_CFA_restore_state
  DW_CFA_advance_loc: 46 to 0000000000420be9
  DW_CFA_remember_state
  DW_CFA_def_cfa_offset: 56
  DW_CFA_advance_loc: 8 to 0000000000420bf1
  DW_CFA_def_cfa_offset: 48
  DW_CFA_advance_loc: 1 to 0000000000420bf2
  DW_CFA_def_cfa_offset: 40
  DW_CFA_advance_loc: 2 to 0000000000420bf4
  DW_CFA_def_cfa_offset: 32
  DW_CFA_advance_loc: 2 to 0000000000420bf6
  DW_CFA_def_cfa_offset: 24
  DW_CFA_advance_loc: 2 to 0000000000420bf8
  DW_CFA_def_cfa_offset: 16
  DW_CFA_advance_loc: 2 to 0000000000420bfa
  DW_CFA_def_cfa_offset: 8
  DW_CFA_advance_loc: 5 to 0000000000420bff
  DW_CFA_restore_state
  DW_CFA_advance_loc: 56 to 0000000000420c37
  DW_CFA_remember_state
  DW_CFA_def_cfa_offset: 56
  DW_CFA_advance_loc: 8 to 0000000000420c3f
  DW_CFA_def_cfa_offset: 48
  DW_CFA_advance_loc: 1 to 0000000000420c40
  DW_CFA_def_cfa_offset: 40
  DW_CFA_advance_loc: 2 to 0000000000420c42
  DW_CFA_def_cfa_offset: 32
  DW_CFA_advance_loc: 2 to 0000000000420c44
  DW_CFA_def_cfa_offset: 24
  DW_CFA_advance_loc: 2 to 0000000000420c46
  DW_CFA_def_cfa_offset: 16
  DW_CFA_advance_loc: 2 to 0000000000420c48
  DW_CFA_def_cfa_offset: 8
  DW_CFA_advance_loc: 5 to 0000000000420c4d
  DW_CFA_restore_state
  DW_CFA_advance_loc: 46 to 0000000000420c7b
  DW_CFA_remember_state
  DW_CFA_def_cfa_offset: 56
  DW_CFA_advance_loc: 8 to 0000000000420c83
  DW_CFA_def_cfa_offset: 48
  DW_CFA_advance_loc: 1 to 0000000000420c84
  DW_CFA_def_cfa_offset: 40
  DW_CFA_advance_loc: 2 to 0000000000420c86
  DW_CFA_def_cfa_offset: 32
  DW_CFA_advance_loc: 2 to 0000000000420c88
  DW_CFA_def_cfa_offset: 24
  DW_CFA_advance_loc: 2 to 0000000000420c8a
  DW_CFA_def_cfa_offset: 16
  DW_CFA_advance_loc: 2 to 0000000000420c8c
  DW_CFA_def_cfa_offset: 8
  DW_CFA_advance_loc: 5 to 0000000000420c91
  DW_CFA_restore_state
  DW_CFA_advance_loc: 56 to 0000000000420cc9
  DW_CFA_remember_state
  DW_CFA_def_cfa_offset: 56
  DW_CFA_advance_loc: 8 to 0000000000420cd1
  DW_CFA_def_cfa_offset: 48
  DW_CFA_advance_loc: 1 to 0000000000420cd2
  DW_CFA_def_cfa_offset: 40
  DW_CFA_advance_loc: 2 to 0000000000420cd4
  DW_CFA_def_cfa_offset: 32
  DW_CFA_advance_loc: 2 to 0000000000420cd6
  DW_CFA_def_cfa_offset: 24
  DW_CFA_advance_loc: 2 to 0000000000420cd8
  DW_CFA_def_cfa_offset: 16
  DW_CFA_advance_loc: 2 to 0000000000420cda
  DW_CFA_def_cfa_offset: 8
  DW_CFA_advance_loc: 5 to 0000000000420cdf
  DW_CFA_restore_state
  DW_CFA_advance_loc: 46 to 0000000000420d0d
  DW_CFA_remember_state
  DW_CFA_def_cfa_offset: 56
  DW_CFA_advance_loc: 8 to 0000000000420d15
  DW_CFA_def_cfa_offset: 48
  DW_CFA_advance_loc: 1 to 0000000000420d16
  DW_CFA_def_cfa_offset: 40
  DW_CFA_advance_loc: 2 to 0000000000420d18
  DW_CFA_def_cfa_offset: 32
  DW_CFA_advance_loc: 2 to 0000000000420d1a
  DW_CFA_def_cfa_offset: 24
  DW_CFA_advance_loc: 2 to 0000000000420d1c
  DW_CFA_def_cfa_offset: 16
  DW_CFA_advance_loc: 2 to 0000000000420d1e
  DW_CFA_def_cfa_offset: 8
  DW_CFA_advance_loc: 5 to 0000000000420d23
  DW_CFA_restore_state
  DW_CFA_advance_loc: 56 to 0000000000420d5b
  DW_CFA_remember_state
  DW_CFA_def_cfa_offset: 56
  DW_CFA_advance_loc: 8 to 0000000000420d63
  DW_CFA_def_cfa_offset: 48
  DW_CFA_advance_loc: 1 to 0000000000420d64
  DW_CFA_def_cfa_offset: 40
  DW_CFA_advance_loc: 2 to 0000000000420d66
  DW_CFA_def_cfa_offset: 32
  DW_CFA_advance_loc: 2 to 0000000000420d68
  DW_CFA_def_cfa_offset: 24
  DW_CFA_advance_loc: 2 to 0000000000420d6a
  DW_CFA_def_cfa_offset: 16
  DW_CFA_advance_loc: 2 to 0000000000420d6c
  DW_CFA_def_cfa_offset: 8
  DW_CFA_advance_loc: 5 to 0000000000420d71
  DW_CFA_restore_state
  DW_CFA_advance_loc: 46 to 0000000000420d9f
  DW_CFA_remember_state
  DW_CFA_def_cfa_offset: 56
  DW_CFA_advance_loc: 8 to 0000000000420da7
  DW_CFA_def_cfa_offset: 48
  DW_CFA_advance_loc: 1 to 0000000000420da8
  DW_CFA_def_cfa_offset: 40
  DW_CFA_advance_loc: 2 to 0000000000420daa
  DW_CFA_def_cfa_offset: 32
  DW_CFA_advance_loc: 2 to 0000000000420dac
  DW_CFA_def_cfa_offset: 24
  DW_CFA_advance_loc: 2 to 0000000000420dae
  DW_CFA_def_cfa_offset: 16
  DW_CFA_advance_loc: 2 to 0000000000420db0
  DW_CFA_def_cfa_offset: 8
  DW_CFA_advance_loc: 5 to 0000000000420db5
  DW_CFA_restore_state
  DW_CFA_advance_loc: 56 to 0000000000420ded
  DW_CFA_remember_state
  DW_CFA_def_cfa_offset: 56
  DW_CFA_advance_loc: 8 to 0000000000420df5
  DW_CFA_def_cfa_offset: 48
  DW_CFA_advance_loc: 1 to 0000000000420df6
  DW_CFA_def_cfa_offset: 40
  DW_CFA_advance_loc: 2 to 0000000000420df8
  DW_CFA_def_cfa_offset: 32
  DW_CFA_advance_loc: 2 to 0000000000420dfa
  DW_CFA_def_cfa_offset: 24
  DW_CFA_advance_loc: 2 to 0000000000420dfc
  DW_CFA_def_cfa_offset: 16
  DW_CFA_advance_loc: 2 to 0000000000420dfe
  DW_CFA_def_cfa_offset: 8
  DW_CFA_advance_loc: 5 to 0000000000420e03
  DW_CFA_restore_state
  DW_CFA_advance_loc: 46 to 0000000000420e31
  DW_CFA_remember_state
  DW_CFA_def_cfa_offset: 56
  DW_CFA_advance_loc: 8 to 0000000000420e39
  DW_CFA_def_cfa_offset: 48
  DW_CFA_advance_loc: 1 to 0000000000420e3a
  DW_CFA_def_cfa_offset: 40
  DW_CFA_advance_loc: 2 to 0000000000420e3c
  DW_CFA_def_cfa_offset: 32
  DW_CFA_advance_loc: 2 to 0000000000420e3e
  DW_CFA_def_cfa_offset: 24
  DW_CFA_advance_loc: 2 to 0000000000420e40
  DW_CFA_def_cfa_offset: 16
  DW_CFA_advance_loc: 2 to 0000000000420e42
  DW_CFA_def_cfa_offset: 8
  DW_CFA_advance_loc: 5 to 0000000000420e47
  DW_CFA_restore_state
  DW_CFA_advance_loc: 56 to 0000000000420e7f
  DW_CFA_remember_state
  DW_CFA_def_cfa_offset: 56
  DW_CFA_advance_loc: 8 to 0000000000420e87
  DW_CFA_def_cfa_offset: 48
  DW_CFA_advance_loc: 1 to 0000000000420e88
  DW_CFA_def_cfa_offset: 40
  DW_CFA_advance_loc: 2 to 0000000000420e8a
  DW_CFA_def_cfa_offset: 32
  DW_CFA_advance_loc: 2 to 0000000000420e8c
  DW_CFA_def_cfa_offset: 24
  DW_CFA_advance_loc: 2 to 0000000000420e8e
  DW_CFA_def_cfa_offset: 16
  DW_CFA_advance_loc: 2 to 0000000000420e90
  DW_CFA_def_cfa_offset: 8
  DW_CFA_advance_loc: 5 to 0000000000420e95
  DW_CFA_restore_state
  DW_CFA_advance_loc: 46 to 0000000000420ec3
  DW_CFA_remember_state
  DW_CFA_def_cfa_offset: 56
  DW_CFA_advance_loc: 8 to 0000000000420ecb
  DW_CFA_def_cfa_offset: 48
  DW_CFA_advance_loc: 1 to 0000000000420ecc
  DW_CFA_def_cfa_offset: 40
  DW_CFA_advance_loc: 2 to 0000000000420ece
  DW_CFA_def_cfa_offset: 32
  DW_CFA_advance_loc: 2 to 0000000000420ed0
  DW_CFA_def_cfa_offset: 24
  DW_CFA_advance_loc: 2 to 0000000000420ed2
  DW_CFA_def_cfa_offset: 16
  DW_CFA_advance_loc: 2 to 0000000000420ed4
  DW_CFA_def_cfa_offset: 8
  DW_CFA_advance_loc: 5 to 0000000000420ed9
  DW_CFA_restore_state
  DW_CFA_advance_loc: 56 to 0000000000420f11
  DW_CFA_remember_state
  DW_CFA_def_cfa_offset: 56
  DW_CFA_advance_loc: 8 to 0000000000420f19
  DW_CFA_def_cfa_offset: 48
  DW_CFA_advance_loc: 1 to 0000000000420f1a
  DW_CFA_def_cfa_offset: 40
  DW_CFA_advance_loc: 2 to 0000000000420f1c
  DW_CFA_def_cfa_offset: 32
  DW_CFA_advance_loc: 2 to 0000000000420f1e
  DW_CFA_def_cfa_offset: 24
  DW_CFA_advance_loc: 2 to 0000000000420f20
  DW_CFA_def_cfa_offset: 16
  DW_CFA_advance_loc: 2 to 0000000000420f22
  DW_CFA_def_cfa_offset: 8
  DW_CFA_advance_loc: 5 to 0000000000420f27
  DW_CFA_restore_state
  DW_CFA_advance_loc: 46 to 0000000000420f55
  DW_CFA_remember_state
  DW_CFA_def_cfa_offset: 56
  DW_CFA_advance_loc: 8 to 0000000000420f5d
  DW_CFA_def_cfa_offset: 48
  DW_CFA_advance_loc: 1 to 0000000000420f5e
  DW_CFA_def_cfa_offset: 40
  DW_CFA_advance_loc: 2 to 0000000000420f60
  DW_CFA_def_cfa_offset: 32
  DW_CFA_advance_loc: 2 to 0000000000420f62
  DW_CFA_def_cfa_offset: 24
  DW_CFA_advance_loc: 2 to 0000000000420f64
  DW_CFA_def_cfa_offset: 16
  DW_CFA_advance_loc: 2 to 0000000000420f66
  DW_CFA_def_cfa_offset: 8
  DW_CFA_advance_loc: 5 to 0000000000420f6b
  DW_CFA_restore_state
  DW_CFA_advance_loc: 56 to 0000000000420fa3
  DW_CFA_remember_state
  DW_CFA_def_cfa_offset: 56
  DW_CFA_advance_loc: 8 to 0000000000420fab
  DW_CFA_def_cfa_offset: 48
  DW_CFA_advance_loc: 1 to 0000000000420fac
  DW_CFA_def_cfa_offset: 40
  DW_CFA_advance_loc: 2 to 0000000000420fae
  DW_CFA_def_cfa_offset: 32
  DW_CFA_advance_loc: 2 to 0000000000420fb0
  DW_CFA_def_cfa_offset: 24
  DW_CFA_advance_loc: 2 to 0000000000420fb2
  DW_CFA_def_cfa_offset: 16
  DW_CFA_advance_loc: 2 to 0000000000420fb4
  DW_CFA_def_cfa_offset: 8
  DW_CFA_advance_loc: 5 to 0000000000420fb9
  DW_CFA_restore_state
  DW_CFA_advance_loc: 46 to 0000000000420fe7
  DW_CFA_remember_state
  DW_CFA_def_cfa_offset: 56
  DW_CFA_advance_loc: 8 to 0000000000420fef
  DW_CFA_def_cfa_offset: 48
  DW_CFA_advance_loc: 1 to 0000000000420ff0
  DW_CFA_def_cfa_offset: 40
  DW_CFA_advance_loc: 2 to 0000000000420ff2
  DW_CFA_def_cfa_offset: 32
  DW_CFA_advance_loc: 2 to 0000000000420ff4
  DW_CFA_def_cfa_offset: 24
  DW_CFA_advance_loc: 2 to 0000000000420ff6
  DW_CFA_def_cfa_offset: 16
  DW_CFA_advance_loc: 2 to 0000000000420ff8
  DW_CFA_def_cfa_offset: 8
  DW_CFA_advance_loc: 5 to 0000000000420ffd
  DW_CFA_restore_state
  DW_CFA_advance_loc: 56 to 0000000000421035
  DW_CFA_remember_state
  DW_CFA_def_cfa_offset: 56
  DW_CFA_advance_loc: 8 to 000000000042103d
  DW_CFA_def_cfa_offset: 48
  DW_CFA_advance_loc: 1 to 000000000042103e
  DW_CFA_def_cfa_offset: 40
  DW_CFA_advance_loc: 2 to 0000000000421040
  DW_CFA_def_cfa_offset: 32
  DW_CFA_advance_loc: 2 to 0000000000421042
  DW_CFA_def_cfa_offset: 24
  DW_CFA_advance_loc: 2 to 0000000000421044
  DW_CFA_def_cfa_offset: 16
  DW_CFA_advance_loc: 2 to 0000000000421046
  DW_CFA_def_cfa_offset: 8
  DW_CFA_advance_loc: 5 to 000000000042104b
  DW_CFA_restore_state
  DW_CFA_advance_loc: 46 to 0000000000421079
  DW_CFA_remember_state
  DW_CFA_def_cfa_offset: 56
  DW_CFA_advance_loc: 8 to 0000000000421081
  DW_CFA_def_cfa_offset: 48
  DW_CFA_advance_loc: 1 to 0000000000421082
  DW_CFA_def_cfa_offset: 40
  DW_CFA_advance_loc: 2 to 0000000000421084
  DW_CFA_def_cfa_offset: 32
  DW_CFA_advance_loc: 2 to 0000000000421086
  DW_CFA_def_cfa_offset: 24
  DW_CFA_advance_loc: 2 to 0000000000421088
  DW_CFA_def_cfa_offset: 16
  DW_CFA_advance_loc: 2 to 000000000042108a
  DW_CFA_def_cfa_offset: 8
  DW_CFA_advance_loc: 5 to 000000000042108f
  DW_CFA_restore_state
  DW_CFA_advance_loc: 56 to 00000000004210c7
  DW_CFA_remember_state
  DW_CFA_def_cfa_offset: 56
  DW_CFA_advance_loc: 8 to 00000000004210cf
  DW_CFA_def_cfa_offset: 48
  DW_CFA_advance_loc: 1 to 00000000004210d0
  DW_CFA_def_cfa_offset: 40
  DW_CFA_advance_loc: 2 to 00000000004210d2
  DW_CFA_def_cfa_offset: 32
  DW_CFA_advance_loc: 2 to 00000000004210d4
  DW_CFA_def_cfa_offset: 24
  DW_CFA_advance_loc: 2 to 00000000004210d6
  DW_CFA_def_cfa_offset: 16
  DW_CFA_advance_loc: 2 to 00000000004210d8
  DW_CFA_def_cfa_offset: 8
  DW_CFA_advance_loc: 5 to 00000000004210dd
  DW_CFA_restore_state
  DW_CFA_advance_loc: 46 to 000000000042110b
  DW_CFA_remember_state
  DW_CFA_def_cfa_offset: 56
  DW_CFA_advance_loc: 8 to 0000000000421113
  DW_CFA_def_cfa_offset: 48
  DW_CFA_advance_loc: 1 to 0000000000421114
  DW_CFA_def_cfa_offset: 40
  DW_CFA_advance_loc: 2 to 0000000000421116
  DW_CFA_def_cfa_offset: 32
  DW_CFA_advance_loc: 2 to 0000000000421118
  DW_CFA_def_cfa_offset: 24
  DW_CFA_advance_loc: 2 to 000000000042111a
  DW_CFA_def_cfa_offset: 16
  DW_CFA_advance_loc: 2 to 000000000042111c
  DW_CFA_def_cfa_offset: 8
  DW_CFA_advance_loc: 5 to 0000000000421121
  DW_CFA_restore_state
  DW_CFA_advance_loc: 56 to 0000000000421159
  DW_CFA_remember_state
  DW_CFA_def_cfa_offset: 56
  DW_CFA_advance_loc: 8 to 0000000000421161
  DW_CFA_def_cfa_offset: 48
  DW_CFA_advance_loc: 1 to 0000000000421162
  DW_CFA_def_cfa_offset: 40
  DW_CFA_advance_loc: 2 to 0000000000421164
  DW_CFA_def_cfa_offset: 32
  DW_CFA_advance_loc: 2 to 0000000000421166
  DW_CFA_def_cfa_offset: 24
  DW_CFA_advance_loc: 2 to 0000000000421168
  DW_CFA_def_cfa_offset: 16
  DW_CFA_advance_loc: 2 to 000000000042116a
  DW_CFA_def_cfa_offset: 8
  DW_CFA_advance_loc: 5 to 000000000042116f
  DW_CFA_restore_state
  DW_CFA_advance_loc: 46 to 000000000042119d
  DW_CFA_remember_state
  DW_CFA_def_cfa_offset: 56
  DW_CFA_advance_loc: 11 to 00000000004211a8
  DW_CFA_def_cfa_offset: 48
  DW_CFA_advance_loc: 1 to 00000000004211a9
  DW_CFA_def_cfa_offset: 40
  DW_CFA_advance_loc: 2 to 00000000004211ab
  DW_CFA_def_cfa_offset: 32
  DW_CFA_advance_loc: 2 to 00000000004211ad
  DW_CFA_def_cfa_offset: 24
  DW_CFA_advance_loc: 2 to 00000000004211af
  DW_CFA_def_cfa_offset: 16
  DW_CFA_advance_loc: 2 to 00000000004211b1
  DW_CFA_def_cfa_offset: 8
  DW_CFA_advance_loc: 5 to 00000000004211b6
  DW_CFA_restore_state
  DW_CFA_advance_loc: 56 to 00000000004211ee
  DW_CFA_remember_state
  DW_CFA_def_cfa_offset: 56
  DW_CFA_advance_loc: 8 to 00000000004211f6
  DW_CFA_def_cfa_offset: 48
  DW_CFA_advance_loc: 1 to 00000000004211f7
  DW_CFA_def_cfa_offset: 40
  DW_CFA_advance_loc: 2 to 00000000004211f9
  DW_CFA_def_cfa_offset: 32
  DW_CFA_advance_loc: 2 to 00000000004211fb
  DW_CFA_def_cfa_offset: 24
  DW_CFA_advance_loc: 2 to 00000000004211fd
  DW_CFA_def_cfa_offset: 16
  DW_CFA_advance_loc: 2 to 00000000004211ff
  DW_CFA_def_cfa_offset: 8
  DW_CFA_advance_loc: 5 to 0000000000421204
  DW_CFA_restore_state
  DW_CFA_advance_loc: 46 to 0000000000421232
  DW_CFA_remember_state
  DW_CFA_def_cfa_offset: 56
  DW_CFA_advance_loc: 8 to 000000000042123a
  DW_CFA_def_cfa_offset: 48
  DW_CFA_advance_loc: 1 to 000000000042123b
  DW_CFA_def_cfa_offset: 40
  DW_CFA_advance_loc: 2 to 000000000042123d
  DW_CFA_def_cfa_offset: 32
  DW_CFA_advance_loc: 2 to 000000000042123f
  DW_CFA_def_cfa_offset: 24
  DW_CFA_advance_loc: 2 to 0000000000421241
  DW_CFA_def_cfa_offset: 16
  DW_CFA_advance_loc: 2 to 0000000000421243
  DW_CFA_def_cfa_offset: 8
  DW_CFA_advance_loc: 5 to 0000000000421248
  DW_CFA_restore_state
  DW_CFA_advance_loc: 56 to 0000000000421280
  DW_CFA_remember_state
  DW_CFA_def_cfa_offset: 56
  DW_CFA_advance_loc: 8 to 0000000000421288
  DW_CFA_def_cfa_offset: 48
  DW_CFA_advance_loc: 1 to 0000000000421289
  DW_CFA_def_cfa_offset: 40
  DW_CFA_advance_loc: 2 to 000000000042128b
  DW_CFA_def_cfa_offset: 32
  DW_CFA_advance_loc: 2 to 000000000042128d
  DW_CFA_def_cfa_offset: 24
  DW_CFA_advance_loc: 2 to 000000000042128f
  DW_CFA_def_cfa_offset: 16
  DW_CFA_advance_loc: 2 to 0000000000421291
  DW_CFA_def_cfa_offset: 8
  DW_CFA_advance_loc: 5 to 0000000000421296
  DW_CFA_restore_state
  DW_CFA_advance_loc: 46 to 00000000004212c4
  DW_CFA_remember_state
  DW_CFA_def_cfa_offset: 56
  DW_CFA_advance_loc: 8 to 00000000004212cc
  DW_CFA_def_cfa_offset: 48
  DW_CFA_advance_loc: 1 to 00000000004212cd
  DW_CFA_def_cfa_offset: 40
  DW_CFA_advance_loc: 2 to 00000000004212cf
  DW_CFA_def_cfa_offset: 32
  DW_CFA_advance_loc: 2 to 00000000004212d1
  DW_CFA_def_cfa_offset: 24
  DW_CFA_advance_loc: 2 to 00000000004212d3
  DW_CFA_def_cfa_offset: 16
  DW_CFA_advance_loc: 2 to 00000000004212d5
  DW_CFA_def_cfa_offset: 8
  DW_CFA_advance_loc: 5 to 00000000004212da
  DW_CFA_restore_state
  DW_CFA_advance_loc: 56 to 0000000000421312
  DW_CFA_remember_state
  DW_CFA_def_cfa_offset: 56
  DW_CFA_advance_loc: 8 to 000000000042131a
  DW_CFA_def_cfa_offset: 48
  DW_CFA_advance_loc: 1 to 000000000042131b
  DW_CFA_def_cfa_offset: 40
  DW_CFA_advance_loc: 2 to 000000000042131d
  DW_CFA_def_cfa_offset: 32
  DW_CFA_advance_loc: 2 to 000000000042131f
  DW_CFA_def_cfa_offset: 24
  DW_CFA_advance_loc: 2 to 0000000000421321
  DW_CFA_def_cfa_offset: 16
  DW_CFA_advance_loc: 2 to 0000000000421323
  DW_CFA_def_cfa_offset: 8
  DW_CFA_advance_loc: 5 to 0000000000421328
  DW_CFA_restore_state
  DW_CFA_advance_loc: 46 to 0000000000421356
  DW_CFA_remember_state
  DW_CFA_def_cfa_offset: 56
  DW_CFA_advance_loc: 8 to 000000000042135e
  DW_CFA_def_cfa_offset: 48
  DW_CFA_advance_loc: 1 to 000000000042135f
  DW_CFA_def_cfa_offset: 40
  DW_CFA_advance_loc: 2 to 0000000000421361
  DW_CFA_def_cfa_offset: 32
  DW_CFA_advance_loc: 2 to 0000000000421363
  DW_CFA_def_cfa_offset: 24
  DW_CFA_advance_loc: 2 to 0000000000421365
  DW_CFA_def_cfa_offset: 16
  DW_CFA_advance_loc: 2 to 0000000000421367
  DW_CFA_def_cfa_offset: 8
  DW_CFA_advance_loc: 5 to 000000000042136c
  DW_CFA_restore_state
  DW_CFA_advance_loc: 56 to 00000000004213a4
  DW_CFA_remember_state
  DW_CFA_def_cfa_offset: 56
  DW_CFA_advance_loc: 8 to 00000000004213ac
  DW_CFA_def_cfa_offset: 48
  DW_CFA_advance_loc: 1 to 00000000004213ad
  DW_CFA_def_cfa_offset: 40
  DW_CFA_advance_loc: 2 to 00000000004213af
  DW_CFA_def_cfa_offset: 32
  DW_CFA_advance_loc: 2 to 00000000004213b1
  DW_CFA_def_cfa_offset: 24
  DW_CFA_advance_loc: 2 to 00000000004213b3
  DW_CFA_def_cfa_offset: 16
  DW_CFA_advance_loc: 2 to 00000000004213b5
  DW_CFA_def_cfa_offset: 8
  DW_CFA_advance_loc: 5 to 00000000004213ba
  DW_CFA_restore_state
  DW_CFA_advance_loc: 46 to 00000000004213e8
  DW_CFA_remember_state
  DW_CFA_def_cfa_offset: 56
  DW_CFA_advance_loc: 8 to 00000000004213f0
  DW_CFA_def_cfa_offset: 48
  DW_CFA_advance_loc: 1 to 00000000004213f1
  DW_CFA_def_cfa_offset: 40
  DW_CFA_advance_loc: 2 to 00000000004213f3
  DW_CFA_def_cfa_offset: 32
  DW_CFA_advance_loc: 2 to 00000000004213f5
  DW_CFA_def_cfa_offset: 24
  DW_CFA_advance_loc: 2 to 00000000004213f7
  DW_CFA_def_cfa_offset: 16
  DW_CFA_advance_loc: 2 to 00000000004213f9
  DW_CFA_def_cfa_offset: 8
  DW_CFA_advance_loc: 5 to 00000000004213fe
  DW_CFA_restore_state
  DW_CFA_advance_loc: 56 to 0000000000421436
  DW_CFA_remember_state
  DW_CFA_def_cfa_offset: 56
  DW_CFA_advance_loc: 8 to 000000000042143e
  DW_CFA_def_cfa_offset: 48
  DW_CFA_advance_loc: 1 to 000000000042143f
  DW_CFA_def_cfa_offset: 40
  DW_CFA_advance_loc: 2 to 0000000000421441
  DW_CFA_def_cfa_offset: 32
  DW_CFA_advance_loc: 2 to 0000000000421443
  DW_CFA_def_cfa_offset: 24
  DW_CFA_advance_loc: 2 to 0000000000421445
  DW_CFA_def_cfa_offset: 16
  DW_CFA_advance_loc: 2 to 0000000000421447
  DW_CFA_def_cfa_offset: 8
  DW_CFA_advance_loc: 5 to 000000000042144c
  DW_CFA_restore_state
  DW_CFA_advance_loc: 46 to 000000000042147a
  DW_CFA_remember_state
  DW_CFA_def_cfa_offset: 56
  DW_CFA_advance_loc: 8 to 0000000000421482
  DW_CFA_def_cfa_offset: 48
  DW_CFA_advance_loc: 1 to 0000000000421483
  DW_CFA_def_cfa_offset: 40
  DW_CFA_advance_loc: 2 to 0000000000421485
  DW_CFA_def_cfa_offset: 32
  DW_CFA_advance_loc: 2 to 0000000000421487
  DW_CFA_def_cfa_offset: 24
  DW_CFA_advance_loc: 2 to 0000000000421489
  DW_CFA_def_cfa_offset: 16
  DW_CFA_advance_loc: 2 to 000000000042148b
  DW_CFA_def_cfa_offset: 8
  DW_CFA_advance_loc: 5 to 0000000000421490
  DW_CFA_restore_state
  DW_CFA_advance_loc: 56 to 00000000004214c8
  DW_CFA_remember_state
  DW_CFA_def_cfa_offset: 56
  DW_CFA_advance_loc: 8 to 00000000004214d0
  DW_CFA_def_cfa_offset: 48
  DW_CFA_advance_loc: 1 to 00000000004214d1
  DW_CFA_def_cfa_offset: 40
  DW_CFA_advance_loc: 2 to 00000000004214d3
  DW_CFA_def_cfa_offset: 32
  DW_CFA_advance_loc: 2 to 00000000004214d5
  DW_CFA_def_cfa_offset: 24
  DW_CFA_advance_loc: 2 to 00000000004214d7
  DW_CFA_def_cfa_offset: 16
  DW_CFA_advance_loc: 2 to 00000000004214d9
  DW_CFA_def_cfa_offset: 8
  DW_CFA_advance_loc: 5 to 00000000004214de
  DW_CFA_restore_state
  DW_CFA_advance_loc: 46 to 000000000042150c
  DW_CFA_remember_state
  DW_CFA_def_cfa_offset: 56
  DW_CFA_advance_loc: 8 to 0000000000421514
  DW_CFA_def_cfa_offset: 48
  DW_CFA_advance_loc: 1 to 0000000000421515
  DW_CFA_def_cfa_offset: 40
  DW_CFA_advance_loc: 2 to 0000000000421517
  DW_CFA_def_cfa_offset: 32
  DW_CFA_advance_loc: 2 to 0000000000421519
  DW_CFA_def_cfa_offset: 24
  DW_CFA_advance_loc: 2 to 000000000042151b
  DW_CFA_def_cfa_offset: 16
  DW_CFA_advance_loc: 2 to 000000000042151d
  DW_CFA_def_cfa_offset: 8
  DW_CFA_advance_loc: 5 to 0000000000421522
  DW_CFA_restore_state
  DW_CFA_advance_loc: 56 to 000000000042155a
  DW_CFA_remember_state
  DW_CFA_def_cfa_offset: 56
  DW_CFA_advance_loc: 8 to 0000000000421562
  DW_CFA_def_cfa_offset: 48
  DW_CFA_advance_loc: 1 to 0000000000421563
  DW_CFA_def_cfa_offset: 40
  DW_CFA_advance_loc: 2 to 0000000000421565
  DW_CFA_def_cfa_offset: 32
  DW_CFA_advance_loc: 2 to 0000000000421567
  DW_CFA_def_cfa_offset: 24
  DW_CFA_advance_loc: 2 to 0000000000421569
  DW_CFA_def_cfa_offset: 16
  DW_CFA_advance_loc: 2 to 000000000042156b
  DW_CFA_def_cfa_offset: 8
  DW_CFA_advance_loc: 5 to 0000000000421570
  DW_CFA_restore_state
  DW_CFA_advance_loc: 46 to 000000000042159e
  DW_CFA_remember_state
  DW_CFA_def_cfa_offset: 56
  DW_CFA_advance_loc: 8 to 00000000004215a6
  DW_CFA_def_cfa_offset: 48
  DW_CFA_advance_loc: 1 to 00000000004215a7
  DW_CFA_def_cfa_offset: 40
  DW_CFA_advance_loc: 2 to 00000000004215a9
  DW_CFA_def_cfa_offset: 32
  DW_CFA_advance_loc: 2 to 00000000004215ab
  DW_CFA_def_cfa_offset: 24
  DW_CFA_advance_loc: 2 to 00000000004215ad
  DW_CFA_def_cfa_offset: 16
  DW_CFA_advance_loc: 2 to 00000000004215af
  DW_CFA_def_cfa_offset: 8
  DW_CFA_advance_loc: 5 to 00000000004215b4
  DW_CFA_restore_state
  DW_CFA_advance_loc: 56 to 00000000004215ec
  DW_CFA_remember_state
  DW_CFA_def_cfa_offset: 56
  DW_CFA_advance_loc: 8 to 00000000004215f4
  DW_CFA_def_cfa_offset: 48
  DW_CFA_advance_loc: 1 to 00000000004215f5
  DW_CFA_def_cfa_offset: 40
  DW_CFA_advance_loc: 2 to 00000000004215f7
  DW_CFA_def_cfa_offset: 32
  DW_CFA_advance_loc: 2 to 00000000004215f9
  DW_CFA_def_cfa_offset: 24
  DW_CFA_advance_loc: 2 to 00000000004215fb
  DW_CFA_def_cfa_offset: 16
  DW_CFA_advance_loc: 2 to 00000000004215fd
  DW_CFA_def_cfa_offset: 8
  DW_CFA_advance_loc: 5 to 0000000000421602
  DW_CFA_restore_state
  DW_CFA_advance_loc: 46 to 0000000000421630
  DW_CFA_remember_state
  DW_CFA_def_cfa_offset: 56
  DW_CFA_advance_loc: 8 to 0000000000421638
  DW_CFA_def_cfa_offset: 48
  DW_CFA_advance_loc: 1 to 0000000000421639
  DW_CFA_def_cfa_offset: 40
  DW_CFA_advance_loc: 2 to 000000000042163b
  DW_CFA_def_cfa_offset: 32
  DW_CFA_advance_loc: 2 to 000000000042163d
  DW_CFA_def_cfa_offset: 24
  DW_CFA_advance_loc: 2 to 000000000042163f
  DW_CFA_def_cfa_offset: 16
  DW_CFA_advance_loc: 2 to 0000000000421641
  DW_CFA_def_cfa_offset: 8
  DW_CFA_advance_loc: 5 to 0000000000421646
  DW_CFA_restore_state
  DW_CFA_advance_loc: 56 to 000000000042167e
  DW_CFA_remember_state
  DW_CFA_def_cfa_offset: 56
  DW_CFA_advance_loc: 8 to 0000000000421686
  DW_CFA_def_cfa_offset: 48
  DW_CFA_advance_loc: 1 to 0000000000421687
  DW_CFA_def_cfa_offset: 40
  DW_CFA_advance_loc: 2 to 0000000000421689
  DW_CFA_def_cfa_offset: 32
  DW_CFA_advance_loc: 2 to 000000000042168b
  DW_CFA_def_cfa_offset: 24
  DW_CFA_advance_loc: 2 to 000000000042168d
  DW_CFA_def_cfa_offset: 16
  DW_CFA_advance_loc: 2 to 000000000042168f
  DW_CFA_def_cfa_offset: 8
  DW_CFA_advance_loc: 5 to 0000000000421694
  DW_CFA_restore_state
  DW_CFA_advance_loc: 46 to 00000000004216c2
  DW_CFA_remember_state
  DW_CFA_def_cfa_offset: 56
  DW_CFA_advance_loc: 8 to 00000000004216ca
  DW_CFA_def_cfa_offset: 48
  DW_CFA_advance_loc: 1 to 00000000004216cb
  DW_CFA_def_cfa_offset: 40
  DW_CFA_advance_loc: 2 to 00000000004216cd
  DW_CFA_def_cfa_offset: 32
  DW_CFA_advance_loc: 2 to 00000000004216cf
  DW_CFA_def_cfa_offset: 24
  DW_CFA_advance_loc: 2 to 00000000004216d1
  DW_CFA_def_cfa_offset: 16
  DW_CFA_advance_loc: 2 to 00000000004216d3
  DW_CFA_def_cfa_offset: 8
  DW_CFA_advance_loc: 5 to 00000000004216d8
  DW_CFA_restore_state
  DW_CFA_advance_loc: 56 to 0000000000421710
  DW_CFA_remember_state
  DW_CFA_def_cfa_offset: 56
  DW_CFA_advance_loc: 8 to 0000000000421718
  DW_CFA_def_cfa_offset: 48
  DW_CFA_advance_loc: 1 to 0000000000421719
  DW_CFA_def_cfa_offset: 40
  DW_CFA_advance_loc: 2 to 000000000042171b
  DW_CFA_def_cfa_offset: 32
  DW_CFA_advance_loc: 2 to 000000000042171d
  DW_CFA_def_cfa_offset: 24
  DW_CFA_advance_loc: 2 to 000000000042171f
  DW_CFA_def_cfa_offset: 16
  DW_CFA_advance_loc: 2 to 0000000000421721
  DW_CFA_def_cfa_offset: 8
  DW_CFA_advance_loc: 5 to 0000000000421726
  DW_CFA_restore_state
  DW_CFA_advance_loc: 46 to 0000000000421754
  DW_CFA_remember_state
  DW_CFA_def_cfa_offset: 56
  DW_CFA_advance_loc: 8 to 000000000042175c
  DW_CFA_def_cfa_offset: 48
  DW_CFA_advance_loc: 1 to 000000000042175d
  DW_CFA_def_cfa_offset: 40
  DW_CFA_advance_loc: 2 to 000000000042175f
  DW_CFA_def_cfa_offset: 32
  DW_CFA_advance_loc: 2 to 0000000000421761
  DW_CFA_def_cfa_offset: 24
  DW_CFA_advance_loc: 2 to 0000000000421763
  DW_CFA_def_cfa_offset: 16
  DW_CFA_advance_loc: 2 to 0000000000421765
  DW_CFA_def_cfa_offset: 8
  DW_CFA_advance_loc: 5 to 000000000042176a
  DW_CFA_restore_state
  DW_CFA_advance_loc: 56 to 00000000004217a2
  DW_CFA_remember_state
  DW_CFA_def_cfa_offset: 56
  DW_CFA_advance_loc: 8 to 00000000004217aa
  DW_CFA_def_cfa_offset: 48
  DW_CFA_advance_loc: 1 to 00000000004217ab
  DW_CFA_def_cfa_offset: 40
  DW_CFA_advance_loc: 2 to 00000000004217ad
  DW_CFA_def_cfa_offset: 32
  DW_CFA_advance_loc: 2 to 00000000004217af
  DW_CFA_def_cfa_offset: 24
  DW_CFA_advance_loc: 2 to 00000000004217b1
  DW_CFA_def_cfa_offset: 16
  DW_CFA_advance_loc: 2 to 00000000004217b3
  DW_CFA_def_cfa_offset: 8
  DW_CFA_advance_loc: 5 to 00000000004217b8
  DW_CFA_restore_state
  DW_CFA_advance_loc: 46 to 00000000004217e6
  DW_CFA_remember_state
  DW_CFA_def_cfa_offset: 56
  DW_CFA_advance_loc: 8 to 00000000004217ee
  DW_CFA_def_cfa_offset: 48
  DW_CFA_advance_loc: 1 to 00000000004217ef
  DW_CFA_def_cfa_offset: 40
  DW_CFA_advance_loc: 2 to 00000000004217f1
  DW_CFA_def_cfa_offset: 32
  DW_CFA_advance_loc: 2 to 00000000004217f3
  DW_CFA_def_cfa_offset: 24
  DW_CFA_advance_loc: 2 to 00000000004217f5
  DW_CFA_def_cfa_offset: 16
  DW_CFA_advance_loc: 2 to 00000000004217f7
  DW_CFA_def_cfa_offset: 8
  DW_CFA_advance_loc: 5 to 00000000004217fc
  DW_CFA_restore_state
  DW_CFA_advance_loc: 56 to 0000000000421834
  DW_CFA_remember_state
  DW_CFA_def_cfa_offset: 56
  DW_CFA_advance_loc: 8 to 000000000042183c
  DW_CFA_def_cfa_offset: 48
  DW_CFA_advance_loc: 1 to 000000000042183d
  DW_CFA_def_cfa_offset: 40
  DW_CFA_advance_loc: 2 to 000000000042183f
  DW_CFA_def_cfa_offset: 32
  DW_CFA_advance_loc: 2 to 0000000000421841
  DW_CFA_def_cfa_offset: 24
  DW_CFA_advance_loc: 2 to 0000000000421843
  DW_CFA_def_cfa_offset: 16
  DW_CFA_advance_loc: 2 to 0000000000421845
  DW_CFA_def_cfa_offset: 8
  DW_CFA_advance_loc: 5 to 000000000042184a
  DW_CFA_restore_state
  DW_CFA_advance_loc: 46 to 0000000000421878
  DW_CFA_remember_state
  DW_CFA_def_cfa_offset: 56
  DW_CFA_advance_loc: 8 to 0000000000421880
  DW_CFA_def_cfa_offset: 48
  DW_CFA_advance_loc: 1 to 0000000000421881
  DW_CFA_def_cfa_offset: 40
  DW_CFA_advance_loc: 2 to 0000000000421883
  DW_CFA_def_cfa_offset: 32
  DW_CFA_advance_loc: 2 to 0000000000421885
  DW_CFA_def_cfa_offset: 24
  DW_CFA_advance_loc: 2 to 0000000000421887
  DW_CFA_def_cfa_offset: 16
  DW_CFA_advance_loc: 2 to 0000000000421889
  DW_CFA_def_cfa_offset: 8
  DW_CFA_advance_loc: 5 to 000000000042188e
  DW_CFA_restore_state
  DW_CFA_advance_loc: 56 to 00000000004218c6
  DW_CFA_remember_state
  DW_CFA_def_cfa_offset: 56
  DW_CFA_advance_loc: 8 to 00000000004218ce
  DW_CFA_def_cfa_offset: 48
  DW_CFA_advance_loc: 1 to 00000000004218cf
  DW_CFA_def_cfa_offset: 40
  DW_CFA_advance_loc: 2 to 00000000004218d1
  DW_CFA_def_cfa_offset: 32
  DW_CFA_advance_loc: 2 to 00000000004218d3
  DW_CFA_def_cfa_offset: 24
  DW_CFA_advance_loc: 2 to 00000000004218d5
  DW_CFA_def_cfa_offset: 16
  DW_CFA_advance_loc: 2 to 00000000004218d7
  DW_CFA_def_cfa_offset: 8
  DW_CFA_advance_loc: 5 to 00000000004218dc
  DW_CFA_restore_state
  DW_CFA_advance_loc: 46 to 000000000042190a
  DW_CFA_remember_state
  DW_CFA_def_cfa_offset: 56
  DW_CFA_advance_loc: 8 to 0000000000421912
  DW_CFA_def_cfa_offset: 48
  DW_CFA_advance_loc: 1 to 0000000000421913
  DW_CFA_def_cfa_offset: 40
  DW_CFA_advance_loc: 2 to 0000000000421915
  DW_CFA_def_cfa_offset: 32
  DW_CFA_advance_loc: 2 to 0000000000421917
  DW_CFA_def_cfa_offset: 24
  DW_CFA_advance_loc: 2 to 0000000000421919
  DW_CFA_def_cfa_offset: 16
  DW_CFA_advance_loc: 2 to 000000000042191b
  DW_CFA_def_cfa_offset: 8
  DW_CFA_advance_loc: 5 to 0000000000421920
  DW_CFA_restore_state
  DW_CFA_advance_loc: 56 to 0000000000421958
  DW_CFA_remember_state
  DW_CFA_def_cfa_offset: 56
  DW_CFA_advance_loc: 8 to 0000000000421960
  DW_CFA_def_cfa_offset: 48
  DW_CFA_advance_loc: 1 to 0000000000421961
  DW_CFA_def_cfa_offset: 40
  DW_CFA_advance_loc: 2 to 0000000000421963
  DW_CFA_def_cfa_offset: 32
  DW_CFA_advance_loc: 2 to 0000000000421965
  DW_CFA_def_cfa_offset: 24
  DW_CFA_advance_loc: 2 to 0000000000421967
  DW_CFA_def_cfa_offset: 16
  DW_CFA_advance_loc: 2 to 0000000000421969
  DW_CFA_def_cfa_offset: 8
  DW_CFA_advance_loc: 5 to 000000000042196e
  DW_CFA_restore_state
  DW_CFA_advance_loc: 46 to 000000000042199c
  DW_CFA_remember_state
  DW_CFA_def_cfa_offset: 56
  DW_CFA_advance_loc: 8 to 00000000004219a4
  DW_CFA_def_cfa_offset: 48
  DW_CFA_advance_loc: 1 to 00000000004219a5
  DW_CFA_def_cfa_offset: 40
  DW_CFA_advance_loc: 2 to 00000000004219a7
  DW_CFA_def_cfa_offset: 32
  DW_CFA_advance_loc: 2 to 00000000004219a9
  DW_CFA_def_cfa_offset: 24
  DW_CFA_advance_loc: 2 to 00000000004219ab
  DW_CFA_def_cfa_offset: 16
  DW_CFA_advance_loc: 2 to 00000000004219ad
  DW_CFA_def_cfa_offset: 8
  DW_CFA_advance_loc: 5 to 00000000004219b2
  DW_CFA_restore_state
  DW_CFA_advance_loc: 56 to 00000000004219ea
  DW_CFA_remember_state
  DW_CFA_def_cfa_offset: 56
  DW_CFA_advance_loc: 8 to 00000000004219f2
  DW_CFA_def_cfa_offset: 48
  DW_CFA_advance_loc: 1 to 00000000004219f3
  DW_CFA_def_cfa_offset: 40
  DW_CFA_advance_loc: 2 to 00000000004219f5
  DW_CFA_def_cfa_offset: 32
  DW_CFA_advance_loc: 2 to 00000000004219f7
  DW_CFA_def_cfa_offset: 24
  DW_CFA_advance_loc: 2 to 00000000004219f9
  DW_CFA_def_cfa_offset: 16
  DW_CFA_advance_loc: 2 to 00000000004219fb
  DW_CFA_def_cfa_offset: 8
  DW_CFA_advance_loc: 5 to 0000000000421a00
  DW_CFA_restore_state
  DW_CFA_advance_loc: 46 to 0000000000421a2e
  DW_CFA_remember_state
  DW_CFA_def_cfa_offset: 56
  DW_CFA_advance_loc: 8 to 0000000000421a36
  DW_CFA_def_cfa_offset: 48
  DW_CFA_advance_loc: 1 to 0000000000421a37
  DW_CFA_def_cfa_offset: 40
  DW_CFA_advance_loc: 2 to 0000000000421a39
  DW_CFA_def_cfa_offset: 32
  DW_CFA_advance_loc: 2 to 0000000000421a3b
  DW_CFA_def_cfa_offset: 24
  DW_CFA_advance_loc: 2 to 0000000000421a3d
  DW_CFA_def_cfa_offset: 16
  DW_CFA_advance_loc: 2 to 0000000000421a3f
  DW_CFA_def_cfa_offset: 8
  DW_CFA_advance_loc: 5 to 0000000000421a44
  DW_CFA_restore_state
  DW_CFA_advance_loc: 56 to 0000000000421a7c
  DW_CFA_remember_state
  DW_CFA_def_cfa_offset: 56
  DW_CFA_advance_loc: 8 to 0000000000421a84
  DW_CFA_def_cfa_offset: 48
  DW_CFA_advance_loc: 1 to 0000000000421a85
  DW_CFA_def_cfa_offset: 40
  DW_CFA_advance_loc: 2 to 0000000000421a87
  DW_CFA_def_cfa_offset: 32
  DW_CFA_advance_loc: 2 to 0000000000421a89
  DW_CFA_def_cfa_offset: 24
  DW_CFA_advance_loc: 2 to 0000000000421a8b
  DW_CFA_def_cfa_offset: 16
  DW_CFA_advance_loc: 2 to 0000000000421a8d
  DW_CFA_def_cfa_offset: 8
  DW_CFA_advance_loc: 5 to 0000000000421a92
  DW_CFA_restore_state
  DW_CFA_advance_loc: 46 to 0000000000421ac0
  DW_CFA_remember_state
  DW_CFA_def_cfa_offset: 56
  DW_CFA_advance_loc: 8 to 0000000000421ac8
  DW_CFA_def_cfa_offset: 48
  DW_CFA_advance_loc: 1 to 0000000000421ac9
  DW_CFA_def_cfa_offset: 40
  DW_CFA_advance_loc: 2 to 0000000000421acb
  DW_CFA_def_cfa_offset: 32
  DW_CFA_advance_loc: 2 to 0000000000421acd
  DW_CFA_def_cfa_offset: 24
  DW_CFA_advance_loc: 2 to 0000000000421acf
  DW_CFA_def_cfa_offset: 16
  DW_CFA_advance_loc: 2 to 0000000000421ad1
  DW_CFA_def_cfa_offset: 8
  DW_CFA_advance_loc: 5 to 0000000000421ad6
  DW_CFA_restore_state
  DW_CFA_advance_loc: 56 to 0000000000421b0e
  DW_CFA_remember_state
  DW_CFA_def_cfa_offset: 56
  DW_CFA_advance_loc: 8 to 0000000000421b16
  DW_CFA_def_cfa_offset: 48
  DW_CFA_advance_loc: 1 to 0000000000421b17
  DW_CFA_def_cfa_offset: 40
  DW_CFA_advance_loc: 2 to 0000000000421b19
  DW_CFA_def_cfa_offset: 32
  DW_CFA_advance_loc: 2 to 0000000000421b1b
  DW_CFA_def_cfa_offset: 24
  DW_CFA_advance_loc: 2 to 0000000000421b1d
  DW_CFA_def_cfa_offset: 16
  DW_CFA_advance_loc: 2 to 0000000000421b1f
  DW_CFA_def_cfa_offset: 8
  DW_CFA_advance_loc: 5 to 0000000000421b24
  DW_CFA_restore_state
  DW_CFA_advance_loc: 46 to 0000000000421b52
  DW_CFA_remember_state
  DW_CFA_def_cfa_offset: 56
  DW_CFA_advance_loc: 8 to 0000000000421b5a
  DW_CFA_def_cfa_offset: 48
  DW_CFA_advance_loc: 1 to 0000000000421b5b
  DW_CFA_def_cfa_offset: 40
  DW_CFA_advance_loc: 2 to 0000000000421b5d
  DW_CFA_def_cfa_offset: 32
  DW_CFA_advance_loc: 2 to 0000000000421b5f
  DW_CFA_def_cfa_offset: 24
  DW_CFA_advance_loc: 2 to 0000000000421b61
  DW_CFA_def_cfa_offset: 16
  DW_CFA_advance_loc: 2 to 0000000000421b63
  DW_CFA_def_cfa_offset: 8
  DW_CFA_advance_loc: 5 to 0000000000421b68
  DW_CFA_restore_state
  DW_CFA_advance_loc: 56 to 0000000000421ba0
  DW_CFA_remember_state
  DW_CFA_def_cfa_offset: 56
  DW_CFA_advance_loc: 8 to 0000000000421ba8
  DW_CFA_def_cfa_offset: 48
  DW_CFA_advance_loc: 1 to 0000000000421ba9
  DW_CFA_def_cfa_offset: 40
  DW_CFA_advance_loc: 2 to 0000000000421bab
  DW_CFA_def_cfa_offset: 32
  DW_CFA_advance_loc: 2 to 0000000000421bad
  DW_CFA_def_cfa_offset: 24
  DW_CFA_advance_loc: 2 to 0000000000421baf
  DW_CFA_def_cfa_offset: 16
  DW_CFA_advance_loc: 2 to 0000000000421bb1
  DW_CFA_def_cfa_offset: 8
  DW_CFA_advance_loc: 5 to 0000000000421bb6
  DW_CFA_restore_state
  DW_CFA_advance_loc: 46 to 0000000000421be4
  DW_CFA_remember_state
  DW_CFA_def_cfa_offset: 56
  DW_CFA_advance_loc: 8 to 0000000000421bec
  DW_CFA_def_cfa_offset: 48
  DW_CFA_advance_loc: 1 to 0000000000421bed
  DW_CFA_def_cfa_offset: 40
  DW_CFA_advance_loc: 2 to 0000000000421bef
  DW_CFA_def_cfa_offset: 32
  DW_CFA_advance_loc: 2 to 0000000000421bf1
  DW_CFA_def_cfa_offset: 24
  DW_CFA_advance_loc: 2 to 0000000000421bf3
  DW_CFA_def_cfa_offset: 16
  DW_CFA_advance_loc: 2 to 0000000000421bf5
  DW_CFA_def_cfa_offset: 8
  DW_CFA_advance_loc: 5 to 0000000000421bfa
  DW_CFA_restore_state
  DW_CFA_advance_loc: 56 to 0000000000421c32
  DW_CFA_remember_state
  DW_CFA_def_cfa_offset: 56
  DW_CFA_advance_loc: 8 to 0000000000421c3a
  DW_CFA_def_cfa_offset: 48
  DW_CFA_advance_loc: 1 to 0000000000421c3b
  DW_CFA_def_cfa_offset: 40
  DW_CFA_advance_loc: 2 to 0000000000421c3d
  DW_CFA_def_cfa_offset: 32
  DW_CFA_advance_loc: 2 to 0000000000421c3f
  DW_CFA_def_cfa_offset: 24
  DW_CFA_advance_loc: 2 to 0000000000421c41
  DW_CFA_def_cfa_offset: 16
  DW_CFA_advance_loc: 2 to 0000000000421c43
  DW_CFA_def_cfa_offset: 8
  DW_CFA_advance_loc: 5 to 0000000000421c48
  DW_CFA_restore_state
  DW_CFA_advance_loc: 46 to 0000000000421c76
  DW_CFA_remember_state
  DW_CFA_def_cfa_offset: 56
  DW_CFA_advance_loc: 8 to 0000000000421c7e
  DW_CFA_def_cfa_offset: 48
  DW_CFA_advance_loc: 1 to 0000000000421c7f
  DW_CFA_def_cfa_offset: 40
  DW_CFA_advance_loc: 2 to 0000000000421c81
  DW_CFA_def_cfa_offset: 32
  DW_CFA_advance_loc: 2 to 0000000000421c83
  DW_CFA_def_cfa_offset: 24
  DW_CFA_advance_loc: 2 to 0000000000421c85
  DW_CFA_def_cfa_offset: 16
  DW_CFA_advance_loc: 2 to 0000000000421c87
  DW_CFA_def_cfa_offset: 8
  DW_CFA_advance_loc: 5 to 0000000000421c8c
  DW_CFA_restore_state
  DW_CFA_advance_loc: 56 to 0000000000421cc4
  DW_CFA_remember_state
  DW_CFA_def_cfa_offset: 56
  DW_CFA_advance_loc: 8 to 0000000000421ccc
  DW_CFA_def_cfa_offset: 48
  DW_CFA_advance_loc: 1 to 0000000000421ccd
  DW_CFA_def_cfa_offset: 40
  DW_CFA_advance_loc: 2 to 0000000000421ccf
  DW_CFA_def_cfa_offset: 32
  DW_CFA_advance_loc: 2 to 0000000000421cd1
  DW_CFA_def_cfa_offset: 24
  DW_CFA_advance_loc: 2 to 0000000000421cd3
  DW_CFA_def_cfa_offset: 16
  DW_CFA_advance_loc: 2 to 0000000000421cd5
  DW_CFA_def_cfa_offset: 8
  DW_CFA_advance_loc: 5 to 0000000000421cda
  DW_CFA_restore_state
  DW_CFA_advance_loc: 46 to 0000000000421d08
  DW_CFA_remember_state
  DW_CFA_def_cfa_offset: 56
  DW_CFA_advance_loc: 8 to 0000000000421d10
  DW_CFA_def_cfa_offset: 48
  DW_CFA_advance_loc: 1 to 0000000000421d11
  DW_CFA_def_cfa_offset: 40
  DW_CFA_advance_loc: 2 to 0000000000421d13
  DW_CFA_def_cfa_offset: 32
  DW_CFA_advance_loc: 2 to 0000000000421d15
  DW_CFA_def_cfa_offset: 24
  DW_CFA_advance_loc: 2 to 0000000000421d17
  DW_CFA_def_cfa_offset: 16
  DW_CFA_advance_loc: 2 to 0000000000421d19
  DW_CFA_def_cfa_offset: 8
  DW_CFA_advance_loc: 5 to 0000000000421d1e
  DW_CFA_restore_state
  DW_CFA_advance_loc: 56 to 0000000000421d56
  DW_CFA_remember_state
  DW_CFA_def_cfa_offset: 56
  DW_CFA_advance_loc: 8 to 0000000000421d5e
  DW_CFA_def_cfa_offset: 48
  DW_CFA_advance_loc: 1 to 0000000000421d5f
  DW_CFA_def_cfa_offset: 40
  DW_CFA_advance_loc: 2 to 0000000000421d61
  DW_CFA_def_cfa_offset: 32
  DW_CFA_advance_loc: 2 to 0000000000421d63
  DW_CFA_def_cfa_offset: 24
  DW_CFA_advance_loc: 2 to 0000000000421d65
  DW_CFA_def_cfa_offset: 16
  DW_CFA_advance_loc: 2 to 0000000000421d67
  DW_CFA_def_cfa_offset: 8
  DW_CFA_advance_loc: 5 to 0000000000421d6c
  DW_CFA_restore_state
  DW_CFA_advance_loc: 46 to 0000000000421d9a
  DW_CFA_remember_state
  DW_CFA_def_cfa_offset: 56
  DW_CFA_advance_loc: 8 to 0000000000421da2
  DW_CFA_def_cfa_offset: 48
  DW_CFA_advance_loc: 1 to 0000000000421da3
  DW_CFA_def_cfa_offset: 40
  DW_CFA_advance_loc: 2 to 0000000000421da5
  DW_CFA_def_cfa_offset: 32
  DW_CFA_advance_loc: 2 to 0000000000421da7
  DW_CFA_def_cfa_offset: 24
  DW_CFA_advance_loc: 2 to 0000000000421da9
  DW_CFA_def_cfa_offset: 16
  DW_CFA_advance_loc: 2 to 0000000000421dab
  DW_CFA_def_cfa_offset: 8
  DW_CFA_advance_loc: 5 to 0000000000421db0
  DW_CFA_restore_state
  DW_CFA_advance_loc: 56 to 0000000000421de8
  DW_CFA_remember_state
  DW_CFA_def_cfa_offset: 56
  DW_CFA_advance_loc: 8 to 0000000000421df0
  DW_CFA_def_cfa_offset: 48
  DW_CFA_advance_loc: 1 to 0000000000421df1
  DW_CFA_def_cfa_offset: 40
  DW_CFA_advance_loc: 2 to 0000000000421df3
  DW_CFA_def_cfa_offset: 32
  DW_CFA_advance_loc: 2 to 0000000000421df5
  DW_CFA_def_cfa_offset: 24
  DW_CFA_advance_loc: 2 to 0000000000421df7
  DW_CFA_def_cfa_offset: 16
  DW_CFA_advance_loc: 2 to 0000000000421df9
  DW_CFA_def_cfa_offset: 8
  DW_CFA_advance_loc: 5 to 0000000000421dfe
  DW_CFA_restore_state
  DW_CFA_advance_loc: 46 to 0000000000421e2c
  DW_CFA_remember_state
  DW_CFA_def_cfa_offset: 56
  DW_CFA_advance_loc: 8 to 0000000000421e34
  DW_CFA_def_cfa_offset: 48
  DW_CFA_advance_loc: 1 to 0000000000421e35
  DW_CFA_def_cfa_offset: 40
  DW_CFA_advance_loc: 2 to 0000000000421e37
  DW_CFA_def_cfa_offset: 32
  DW_CFA_advance_loc: 2 to 0000000000421e39
  DW_CFA_def_cfa_offset: 24
  DW_CFA_advance_loc: 2 to 0000000000421e3b
  DW_CFA_def_cfa_offset: 16
  DW_CFA_advance_loc: 2 to 0000000000421e3d
  DW_CFA_def_cfa_offset: 8
  DW_CFA_advance_loc: 5 to 0000000000421e42
  DW_CFA_restore_state
  DW_CFA_advance_loc: 56 to 0000000000421e7a
  DW_CFA_remember_state
  DW_CFA_def_cfa_offset: 56
  DW_CFA_advance_loc: 8 to 0000000000421e82
  DW_CFA_def_cfa_offset: 48
  DW_CFA_advance_loc: 1 to 0000000000421e83
  DW_CFA_def_cfa_offset: 40
  DW_CFA_advance_loc: 2 to 0000000000421e85
  DW_CFA_def_cfa_offset: 32
  DW_CFA_advance_loc: 2 to 0000000000421e87
  DW_CFA_def_cfa_offset: 24
  DW_CFA_advance_loc: 2 to 0000000000421e89
  DW_CFA_def_cfa_offset: 16
  DW_CFA_advance_loc: 2 to 0000000000421e8b
  DW_CFA_def_cfa_offset: 8
  DW_CFA_advance_loc: 5 to 0000000000421e90
  DW_CFA_restore_state
  DW_CFA_advance_loc: 46 to 0000000000421ebe
  DW_CFA_remember_state
  DW_CFA_def_cfa_offset: 56
  DW_CFA_advance_loc: 8 to 0000000000421ec6
  DW_CFA_def_cfa_offset: 48
  DW_CFA_advance_loc: 1 to 0000000000421ec7
  DW_CFA_def_cfa_offset: 40
  DW_CFA_advance_loc: 2 to 0000000000421ec9
  DW_CFA_def_cfa_offset: 32
  DW_CFA_advance_loc: 2 to 0000000000421ecb
  DW_CFA_def_cfa_offset: 24
  DW_CFA_advance_loc: 2 to 0000000000421ecd
  DW_CFA_def_cfa_offset: 16
  DW_CFA_advance_loc: 2 to 0000000000421ecf
  DW_CFA_def_cfa_offset: 8
  DW_CFA_advance_loc: 5 to 0000000000421ed4
  DW_CFA_restore_state
  DW_CFA_advance_loc: 56 to 0000000000421f0c
  DW_CFA_remember_state
  DW_CFA_def_cfa_offset: 56
  DW_CFA_advance_loc: 8 to 0000000000421f14
  DW_CFA_def_cfa_offset: 48
  DW_CFA_advance_loc: 1 to 0000000000421f15
  DW_CFA_def_cfa_offset: 40
  DW_CFA_advance_loc: 2 to 0000000000421f17
  DW_CFA_def_cfa_offset: 32
  DW_CFA_advance_loc: 2 to 0000000000421f19
  DW_CFA_def_cfa_offset: 24
  DW_CFA_advance_loc: 2 to 0000000000421f1b
  DW_CFA_def_cfa_offset: 16
  DW_CFA_advance_loc: 2 to 0000000000421f1d
  DW_CFA_def_cfa_offset: 8
  DW_CFA_advance_loc: 5 to 0000000000421f22
  DW_CFA_restore_state
  DW_CFA_advance_loc: 46 to 0000000000421f50
  DW_CFA_remember_state
  DW_CFA_def_cfa_offset: 56
  DW_CFA_advance_loc: 8 to 0000000000421f58
  DW_CFA_def_cfa_offset: 48
  DW_CFA_advance_loc: 1 to 0000000000421f59
  DW_CFA_def_cfa_offset: 40
  DW_CFA_advance_loc: 2 to 0000000000421f5b
  DW_CFA_def_cfa_offset: 32
  DW_CFA_advance_loc: 2 to 0000000000421f5d
  DW_CFA_def_cfa_offset: 24
  DW_CFA_advance_loc: 2 to 0000000000421f5f
  DW_CFA_def_cfa_offset: 16
  DW_CFA_advance_loc: 2 to 0000000000421f61
  DW_CFA_def_cfa_offset: 8
  DW_CFA_advance_loc: 5 to 0000000000421f66
  DW_CFA_restore_state
  DW_CFA_advance_loc: 56 to 0000000000421f9e
  DW_CFA_remember_state
  DW_CFA_def_cfa_offset: 56
  DW_CFA_advance_loc: 8 to 0000000000421fa6
  DW_CFA_def_cfa_offset: 48
  DW_CFA_advance_loc: 1 to 0000000000421fa7
  DW_CFA_def_cfa_offset: 40
  DW_CFA_advance_loc: 2 to 0000000000421fa9
  DW_CFA_def_cfa_offset: 32
  DW_CFA_advance_loc: 2 to 0000000000421fab
  DW_CFA_def_cfa_offset: 24
  DW_CFA_advance_loc: 2 to 0000000000421fad
  DW_CFA_def_cfa_offset: 16
  DW_CFA_advance_loc: 2 to 0000000000421faf
  DW_CFA_def_cfa_offset: 8
  DW_CFA_advance_loc: 5 to 0000000000421fb4
  DW_CFA_restore_state
  DW_CFA_advance_loc: 46 to 0000000000421fe2
  DW_CFA_remember_state
  DW_CFA_def_cfa_offset: 56
  DW_CFA_advance_loc: 8 to 0000000000421fea
  DW_CFA_def_cfa_offset: 48
  DW_CFA_advance_loc: 1 to 0000000000421feb
  DW_CFA_def_cfa_offset: 40
  DW_CFA_advance_loc: 2 to 0000000000421fed
  DW_CFA_def_cfa_offset: 32
  DW_CFA_advance_loc: 2 to 0000000000421fef
  DW_CFA_def_cfa_offset: 24
  DW_CFA_advance_loc: 2 to 0000000000421ff1
  DW_CFA_def_cfa_offset: 16
  DW_CFA_advance_loc: 2 to 0000000000421ff3
  DW_CFA_def_cfa_offset: 8
  DW_CFA_advance_loc: 5 to 0000000000421ff8
  DW_CFA_restore_state
  DW_CFA_advance_loc: 56 to 0000000000422030
  DW_CFA_remember_state
  DW_CFA_def_cfa_offset: 56
  DW_CFA_advance_loc: 8 to 0000000000422038
  DW_CFA_def_cfa_offset: 48
  DW_CFA_advance_loc: 1 to 0000000000422039
  DW_CFA_def_cfa_offset: 40
  DW_CFA_advance_loc: 2 to 000000000042203b
  DW_CFA_def_cfa_offset: 32
  DW_CFA_advance_loc: 2 to 000000000042203d
  DW_CFA_def_cfa_offset: 24
  DW_CFA_advance_loc: 2 to 000000000042203f
  DW_CFA_def_cfa_offset: 16
  DW_CFA_advance_loc: 2 to 0000000000422041
  DW_CFA_def_cfa_offset: 8
  DW_CFA_advance_loc: 5 to 0000000000422046
  DW_CFA_restore_state
  DW_CFA_advance_loc: 46 to 0000000000422074
  DW_CFA_remember_state
  DW_CFA_def_cfa_offset: 56
  DW_CFA_advance_loc: 8 to 000000000042207c
  DW_CFA_def_cfa_offset: 48
  DW_CFA_advance_loc: 1 to 000000000042207d
  DW_CFA_def_cfa_offset: 40
  DW_CFA_advance_loc: 2 to 000000000042207f
  DW_CFA_def_cfa_offset: 32
  DW_CFA_advance_loc: 2 to 0000000000422081
  DW_CFA_def_cfa_offset: 24
  DW_CFA_advance_loc: 2 to 0000000000422083
  DW_CFA_def_cfa_offset: 16
  DW_CFA_advance_loc: 2 to 0000000000422085
  DW_CFA_def_cfa_offset: 8
  DW_CFA_advance_loc: 5 to 000000000042208a
  DW_CFA_restore_state
  DW_CFA_advance_loc: 56 to 00000000004220c2
  DW_CFA_remember_state
  DW_CFA_def_cfa_offset: 56
  DW_CFA_advance_loc: 8 to 00000000004220ca
  DW_CFA_def_cfa_offset: 48
  DW_CFA_advance_loc: 1 to 00000000004220cb
  DW_CFA_def_cfa_offset: 40
  DW_CFA_advance_loc: 2 to 00000000004220cd
  DW_CFA_def_cfa_offset: 32
  DW_CFA_advance_loc: 2 to 00000000004220cf
  DW_CFA_def_cfa_offset: 24
  DW_CFA_advance_loc: 2 to 00000000004220d1
  DW_CFA_def_cfa_offset: 16
  DW_CFA_advance_loc: 2 to 00000000004220d3
  DW_CFA_def_cfa_offset: 8
  DW_CFA_advance_loc: 5 to 00000000004220d8
  DW_CFA_restore_state
  DW_CFA_advance_loc: 46 to 0000000000422106
  DW_CFA_remember_state
  DW_CFA_def_cfa_offset: 56
  DW_CFA_advance_loc: 8 to 000000000042210e
  DW_CFA_def_cfa_offset: 48
  DW_CFA_advance_loc: 1 to 000000000042210f
  DW_CFA_def_cfa_offset: 40
  DW_CFA_advance_loc: 2 to 0000000000422111
  DW_CFA_def_cfa_offset: 32
  DW_CFA_advance_loc: 2 to 0000000000422113
  DW_CFA_def_cfa_offset: 24
  DW_CFA_advance_loc: 2 to 0000000000422115
  DW_CFA_def_cfa_offset: 16
  DW_CFA_advance_loc: 2 to 0000000000422117
  DW_CFA_def_cfa_offset: 8
  DW_CFA_advance_loc: 5 to 000000000042211c
  DW_CFA_restore_state
  DW_CFA_advance_loc: 56 to 0000000000422154
  DW_CFA_remember_state
  DW_CFA_def_cfa_offset: 56
  DW_CFA_advance_loc: 8 to 000000000042215c
  DW_CFA_def_cfa_offset: 48
  DW_CFA_advance_loc: 1 to 000000000042215d
  DW_CFA_def_cfa_offset: 40
  DW_CFA_advance_loc: 2 to 000000000042215f
  DW_CFA_def_cfa_offset: 32
  DW_CFA_advance_loc: 2 to 0000000000422161
  DW_CFA_def_cfa_offset: 24
  DW_CFA_advance_loc: 2 to 0000000000422163
  DW_CFA_def_cfa_offset: 16
  DW_CFA_advance_loc: 2 to 0000000000422165
  DW_CFA_def_cfa_offset: 8
  DW_CFA_advance_loc: 5 to 000000000042216a
  DW_CFA_restore_state
  DW_CFA_advance_loc: 46 to 0000000000422198
  DW_CFA_remember_state
  DW_CFA_def_cfa_offset: 56
  DW_CFA_advance_loc: 8 to 00000000004221a0
  DW_CFA_def_cfa_offset: 48
  DW_CFA_advance_loc: 1 to 00000000004221a1
  DW_CFA_def_cfa_offset: 40
  DW_CFA_advance_loc: 2 to 00000000004221a3
  DW_CFA_def_cfa_offset: 32
  DW_CFA_advance_loc: 2 to 00000000004221a5
  DW_CFA_def_cfa_offset: 24
  DW_CFA_advance_loc: 2 to 00000000004221a7
  DW_CFA_def_cfa_offset: 16
  DW_CFA_advance_loc: 2 to 00000000004221a9
  DW_CFA_def_cfa_offset: 8
  DW_CFA_advance_loc: 5 to 00000000004221ae
  DW_CFA_restore_state
  DW_CFA_advance_loc: 56 to 00000000004221e6
  DW_CFA_remember_state
  DW_CFA_def_cfa_offset: 56
  DW_CFA_advance_loc: 8 to 00000000004221ee
  DW_CFA_def_cfa_offset: 48
  DW_CFA_advance_loc: 1 to 00000000004221ef
  DW_CFA_def_cfa_offset: 40
  DW_CFA_advance_loc: 2 to 00000000004221f1
  DW_CFA_def_cfa_offset: 32
  DW_CFA_advance_loc: 2 to 00000000004221f3
  DW_CFA_def_cfa_offset: 24
  DW_CFA_advance_loc: 2 to 00000000004221f5
  DW_CFA_def_cfa_offset: 16
  DW_CFA_advance_loc: 2 to 00000000004221f7
  DW_CFA_def_cfa_offset: 8
  DW_CFA_advance_loc: 5 to 00000000004221fc
  DW_CFA_restore_state
  DW_CFA_advance_loc: 46 to 000000000042222a
  DW_CFA_remember_state
  DW_CFA_def_cfa_offset: 56
  DW_CFA_advance_loc: 8 to 0000000000422232
  DW_CFA_def_cfa_offset: 48
  DW_CFA_advance_loc: 1 to 0000000000422233
  DW_CFA_def_cfa_offset: 40
  DW_CFA_advance_loc: 2 to 0000000000422235
  DW_CFA_def_cfa_offset: 32
  DW_CFA_advance_loc: 2 to 0000000000422237
  DW_CFA_def_cfa_offset: 24
  DW_CFA_advance_loc: 2 to 0000000000422239
  DW_CFA_def_cfa_offset: 16
  DW_CFA_advance_loc: 2 to 000000000042223b
  DW_CFA_def_cfa_offset: 8
  DW_CFA_advance_loc: 5 to 0000000000422240
  DW_CFA_restore_state
  DW_CFA_advance_loc: 56 to 0000000000422278
  DW_CFA_remember_state
  DW_CFA_def_cfa_offset: 56
  DW_CFA_advance_loc: 8 to 0000000000422280
  DW_CFA_def_cfa_offset: 48
  DW_CFA_advance_loc: 1 to 0000000000422281
  DW_CFA_def_cfa_offset: 40
  DW_CFA_advance_loc: 2 to 0000000000422283
  DW_CFA_def_cfa_offset: 32
  DW_CFA_advance_loc: 2 to 0000000000422285
  DW_CFA_def_cfa_offset: 24
  DW_CFA_advance_loc: 2 to 0000000000422287
  DW_CFA_def_cfa_offset: 16
  DW_CFA_advance_loc: 2 to 0000000000422289
  DW_CFA_def_cfa_offset: 8
  DW_CFA_advance_loc: 5 to 000000000042228e
  DW_CFA_restore_state
  DW_CFA_advance_loc: 46 to 00000000004222bc
  DW_CFA_remember_state
  DW_CFA_def_cfa_offset: 56
  DW_CFA_advance_loc: 8 to 00000000004222c4
  DW_CFA_def_cfa_offset: 48
  DW_CFA_advance_loc: 1 to 00000000004222c5
  DW_CFA_def_cfa_offset: 40
  DW_CFA_advance_loc: 2 to 00000000004222c7
  DW_CFA_def_cfa_offset: 32
  DW_CFA_advance_loc: 2 to 00000000004222c9
  DW_CFA_def_cfa_offset: 24
  DW_CFA_advance_loc: 2 to 00000000004222cb
  DW_CFA_def_cfa_offset: 16
  DW_CFA_advance_loc: 2 to 00000000004222cd
  DW_CFA_def_cfa_offset: 8
  DW_CFA_advance_loc: 5 to 00000000004222d2
  DW_CFA_restore_state
  DW_CFA_advance_loc: 56 to 000000000042230a
  DW_CFA_remember_state
  DW_CFA_def_cfa_offset: 56
  DW_CFA_advance_loc: 8 to 0000000000422312
  DW_CFA_def_cfa_offset: 48
  DW_CFA_advance_loc: 1 to 0000000000422313
  DW_CFA_def_cfa_offset: 40
  DW_CFA_advance_loc: 2 to 0000000000422315
  DW_CFA_def_cfa_offset: 32
  DW_CFA_advance_loc: 2 to 0000000000422317
  DW_CFA_def_cfa_offset: 24
  DW_CFA_advance_loc: 2 to 0000000000422319
  DW_CFA_def_cfa_offset: 16
  DW_CFA_advance_loc: 2 to 000000000042231b
  DW_CFA_def_cfa_offset: 8
  DW_CFA_advance_loc: 5 to 0000000000422320
  DW_CFA_restore_state
  DW_CFA_advance_loc: 46 to 000000000042234e
  DW_CFA_remember_state
  DW_CFA_def_cfa_offset: 56
  DW_CFA_advance_loc: 8 to 0000000000422356
  DW_CFA_def_cfa_offset: 48
  DW_CFA_advance_loc: 1 to 0000000000422357
  DW_CFA_def_cfa_offset: 40
  DW_CFA_advance_loc: 2 to 0000000000422359
  DW_CFA_def_cfa_offset: 32
  DW_CFA_advance_loc: 2 to 000000000042235b
  DW_CFA_def_cfa_offset: 24
  DW_CFA_advance_loc: 2 to 000000000042235d
  DW_CFA_def_cfa_offset: 16
  DW_CFA_advance_loc: 2 to 000000000042235f
  DW_CFA_def_cfa_offset: 8
  DW_CFA_advance_loc: 5 to 0000000000422364
  DW_CFA_restore_state
  DW_CFA_advance_loc: 56 to 000000000042239c
  DW_CFA_remember_state
  DW_CFA_def_cfa_offset: 56
  DW_CFA_advance_loc: 8 to 00000000004223a4
  DW_CFA_def_cfa_offset: 48
  DW_CFA_advance_loc: 1 to 00000000004223a5
  DW_CFA_def_cfa_offset: 40
  DW_CFA_advance_loc: 2 to 00000000004223a7
  DW_CFA_def_cfa_offset: 32
  DW_CFA_advance_loc: 2 to 00000000004223a9
  DW_CFA_def_cfa_offset: 24
  DW_CFA_advance_loc: 2 to 00000000004223ab
  DW_CFA_def_cfa_offset: 16
  DW_CFA_advance_loc: 2 to 00000000004223ad
  DW_CFA_def_cfa_offset: 8
  DW_CFA_advance_loc: 5 to 00000000004223b2
  DW_CFA_restore_state
  DW_CFA_advance_loc: 46 to 00000000004223e0
  DW_CFA_remember_state
  DW_CFA_def_cfa_offset: 56
  DW_CFA_advance_loc: 8 to 00000000004223e8
  DW_CFA_def_cfa_offset: 48
  DW_CFA_advance_loc: 1 to 00000000004223e9
  DW_CFA_def_cfa_offset: 40
  DW_CFA_advance_loc: 2 to 00000000004223eb
  DW_CFA_def_cfa_offset: 32
  DW_CFA_advance_loc: 2 to 00000000004223ed
  DW_CFA_def_cfa_offset: 24
  DW_CFA_advance_loc: 2 to 00000000004223ef
  DW_CFA_def_cfa_offset: 16
  DW_CFA_advance_loc: 2 to 00000000004223f1
  DW_CFA_def_cfa_offset: 8
  DW_CFA_advance_loc: 5 to 00000000004223f6
  DW_CFA_restore_state
  DW_CFA_advance_loc: 56 to 000000000042242e
  DW_CFA_remember_state
  DW_CFA_def_cfa_offset: 56
  DW_CFA_advance_loc: 8 to 0000000000422436
  DW_CFA_def_cfa_offset: 48
  DW_CFA_advance_loc: 1 to 0000000000422437
  DW_CFA_def_cfa_offset: 40
  DW_CFA_advance_loc: 2 to 0000000000422439
  DW_CFA_def_cfa_offset: 32
  DW_CFA_advance_loc: 2 to 000000000042243b
  DW_CFA_def_cfa_offset: 24
  DW_CFA_advance_loc: 2 to 000000000042243d
  DW_CFA_def_cfa_offset: 16
  DW_CFA_advance_loc: 2 to 000000000042243f
  DW_CFA_def_cfa_offset: 8
  DW_CFA_advance_loc: 5 to 0000000000422444
  DW_CFA_restore_state
  DW_CFA_advance_loc: 46 to 0000000000422472
  DW_CFA_remember_state
  DW_CFA_def_cfa_offset: 56
  DW_CFA_advance_loc: 8 to 000000000042247a
  DW_CFA_def_cfa_offset: 48
  DW_CFA_advance_loc: 1 to 000000000042247b
  DW_CFA_def_cfa_offset: 40
  DW_CFA_advance_loc: 2 to 000000000042247d
  DW_CFA_def_cfa_offset: 32
  DW_CFA_advance_loc: 2 to 000000000042247f
  DW_CFA_def_cfa_offset: 24
  DW_CFA_advance_loc: 2 to 0000000000422481
  DW_CFA_def_cfa_offset: 16
  DW_CFA_advance_loc: 2 to 0000000000422483
  DW_CFA_def_cfa_offset: 8
  DW_CFA_advance_loc: 5 to 0000000000422488
  DW_CFA_restore_state
  DW_CFA_advance_loc: 56 to 00000000004224c0
  DW_CFA_remember_state
  DW_CFA_def_cfa_offset: 56
  DW_CFA_advance_loc: 8 to 00000000004224c8
  DW_CFA_def_cfa_offset: 48
  DW_CFA_advance_loc: 1 to 00000000004224c9
  DW_CFA_def_cfa_offset: 40
  DW_CFA_advance_loc: 2 to 00000000004224cb
  DW_CFA_def_cfa_offset: 32
  DW_CFA_advance_loc: 2 to 00000000004224cd
  DW_CFA_def_cfa_offset: 24
  DW_CFA_advance_loc: 2 to 00000000004224cf
  DW_CFA_def_cfa_offset: 16
  DW_CFA_advance_loc: 2 to 00000000004224d1
  DW_CFA_def_cfa_offset: 8
  DW_CFA_advance_loc: 5 to 00000000004224d6
  DW_CFA_restore_state
  DW_CFA_advance_loc: 46 to 0000000000422504
  DW_CFA_remember_state
  DW_CFA_def_cfa_offset: 56
  DW_CFA_advance_loc: 8 to 000000000042250c
  DW_CFA_def_cfa_offset: 48
  DW_CFA_advance_loc: 1 to 000000000042250d
  DW_CFA_def_cfa_offset: 40
  DW_CFA_advance_loc: 2 to 000000000042250f
  DW_CFA_def_cfa_offset: 32
  DW_CFA_advance_loc: 2 to 0000000000422511
  DW_CFA_def_cfa_offset: 24
  DW_CFA_advance_loc: 2 to 0000000000422513
  DW_CFA_def_cfa_offset: 16
  DW_CFA_advance_loc: 2 to 0000000000422515
  DW_CFA_def_cfa_offset: 8
  DW_CFA_advance_loc: 5 to 000000000042251a
  DW_CFA_restore_state
  DW_CFA_advance_loc: 56 to 0000000000422552
  DW_CFA_remember_state
  DW_CFA_def_cfa_offset: 56
  DW_CFA_advance_loc: 8 to 000000000042255a
  DW_CFA_def_cfa_offset: 48
  DW_CFA_advance_loc: 1 to 000000000042255b
  DW_CFA_def_cfa_offset: 40
  DW_CFA_advance_loc: 2 to 000000000042255d
  DW_CFA_def_cfa_offset: 32
  DW_CFA_advance_loc: 2 to 000000000042255f
  DW_CFA_def_cfa_offset: 24
  DW_CFA_advance_loc: 2 to 0000000000422561
  DW_CFA_def_cfa_offset: 16
  DW_CFA_advance_loc: 2 to 0000000000422563
  DW_CFA_def_cfa_offset: 8
  DW_CFA_advance_loc: 5 to 0000000000422568
  DW_CFA_restore_state
  DW_CFA_advance_loc: 46 to 0000000000422596
  DW_CFA_remember_state
  DW_CFA_def_cfa_offset: 56
  DW_CFA_advance_loc: 8 to 000000000042259e
  DW_CFA_def_cfa_offset: 48
  DW_CFA_advance_loc: 1 to 000000000042259f
  DW_CFA_def_cfa_offset: 40
  DW_CFA_advance_loc: 2 to 00000000004225a1
  DW_CFA_def_cfa_offset: 32
  DW_CFA_advance_loc: 2 to 00000000004225a3
  DW_CFA_def_cfa_offset: 24
  DW_CFA_advance_loc: 2 to 00000000004225a5
  DW_CFA_def_cfa_offset: 16
  DW_CFA_advance_loc: 2 to 00000000004225a7
  DW_CFA_def_cfa_offset: 8
  DW_CFA_advance_loc: 5 to 00000000004225ac
  DW_CFA_restore_state
  DW_CFA_advance_loc: 56 to 00000000004225e4
  DW_CFA_remember_state
  DW_CFA_def_cfa_offset: 56
  DW_CFA_advance_loc: 8 to 00000000004225ec
  DW_CFA_def_cfa_offset: 48
  DW_CFA_advance_loc: 1 to 00000000004225ed
  DW_CFA_def_cfa_offset: 40
  DW_CFA_advance_loc: 2 to 00000000004225ef
  DW_CFA_def_cfa_offset: 32
  DW_CFA_advance_loc: 2 to 00000000004225f1
  DW_CFA_def_cfa_offset: 24
  DW_CFA_advance_loc: 2 to 00000000004225f3
  DW_CFA_def_cfa_offset: 16
  DW_CFA_advance_loc: 2 to 00000000004225f5
  DW_CFA_def_cfa_offset: 8
  DW_CFA_advance_loc: 5 to 00000000004225fa
  DW_CFA_restore_state
  DW_CFA_advance_loc: 46 to 0000000000422628
  DW_CFA_remember_state
  DW_CFA_def_cfa_offset: 56
  DW_CFA_advance_loc: 8 to 0000000000422630
  DW_CFA_def_cfa_offset: 48
  DW_CFA_advance_loc: 1 to 0000000000422631
  DW_CFA_def_cfa_offset: 40
  DW_CFA_advance_loc: 2 to 0000000000422633
  DW_CFA_def_cfa_offset: 32
  DW_CFA_advance_loc: 2 to 0000000000422635
  DW_CFA_def_cfa_offset: 24
  DW_CFA_advance_loc: 2 to 0000000000422637
  DW_CFA_def_cfa_offset: 16
  DW_CFA_advance_loc: 2 to 0000000000422639
  DW_CFA_def_cfa_offset: 8
  DW_CFA_advance_loc: 5 to 000000000042263e
  DW_CFA_restore_state
  DW_CFA_advance_loc: 56 to 0000000000422676
  DW_CFA_remember_state
  DW_CFA_def_cfa_offset: 56
  DW_CFA_advance_loc: 8 to 000000000042267e
  DW_CFA_def_cfa_offset: 48
  DW_CFA_advance_loc: 1 to 000000000042267f
  DW_CFA_def_cfa_offset: 40
  DW_CFA_advance_loc: 2 to 0000000000422681
  DW_CFA_def_cfa_offset: 32
  DW_CFA_advance_loc: 2 to 0000000000422683
  DW_CFA_def_cfa_offset: 24
  DW_CFA_advance_loc: 2 to 0000000000422685
  DW_CFA_def_cfa_offset: 16
  DW_CFA_advance_loc: 2 to 0000000000422687
  DW_CFA_def_cfa_offset: 8
  DW_CFA_advance_loc: 5 to 000000000042268c
  DW_CFA_restore_state
  DW_CFA_advance_loc: 46 to 00000000004226ba
  DW_CFA_remember_state
  DW_CFA_def_cfa_offset: 56
  DW_CFA_advance_loc: 8 to 00000000004226c2
  DW_CFA_def_cfa_offset: 48
  DW_CFA_advance_loc: 1 to 00000000004226c3
  DW_CFA_def_cfa_offset: 40
  DW_CFA_advance_loc: 2 to 00000000004226c5
  DW_CFA_def_cfa_offset: 32
  DW_CFA_advance_loc: 2 to 00000000004226c7
  DW_CFA_def_cfa_offset: 24
  DW_CFA_advance_loc: 2 to 00000000004226c9
  DW_CFA_def_cfa_offset: 16
  DW_CFA_advance_loc: 2 to 00000000004226cb
  DW_CFA_def_cfa_offset: 8
  DW_CFA_advance_loc: 5 to 00000000004226d0
  DW_CFA_restore_state
  DW_CFA_advance_loc: 56 to 0000000000422708
  DW_CFA_remember_state
  DW_CFA_def_cfa_offset: 56
  DW_CFA_advance_loc: 8 to 0000000000422710
  DW_CFA_def_cfa_offset: 48
  DW_CFA_advance_loc: 1 to 0000000000422711
  DW_CFA_def_cfa_offset: 40
  DW_CFA_advance_loc: 2 to 0000000000422713
  DW_CFA_def_cfa_offset: 32
  DW_CFA_advance_loc: 2 to 0000000000422715
  DW_CFA_def_cfa_offset: 24
  DW_CFA_advance_loc: 2 to 0000000000422717
  DW_CFA_def_cfa_offset: 16
  DW_CFA_advance_loc: 2 to 0000000000422719
  DW_CFA_def_cfa_offset: 8
  DW_CFA_advance_loc: 5 to 000000000042271e
  DW_CFA_restore_state
  DW_CFA_advance_loc: 46 to 000000000042274c
  DW_CFA_remember_state
  DW_CFA_def_cfa_offset: 56
  DW_CFA_advance_loc: 8 to 0000000000422754
  DW_CFA_def_cfa_offset: 48
  DW_CFA_advance_loc: 1 to 0000000000422755
  DW_CFA_def_cfa_offset: 40
  DW_CFA_advance_loc: 2 to 0000000000422757
  DW_CFA_def_cfa_offset: 32
  DW_CFA_advance_loc: 2 to 0000000000422759
  DW_CFA_def_cfa_offset: 24
  DW_CFA_advance_loc: 2 to 000000000042275b
  DW_CFA_def_cfa_offset: 16
  DW_CFA_advance_loc: 2 to 000000000042275d
  DW_CFA_def_cfa_offset: 8
  DW_CFA_advance_loc: 5 to 0000000000422762
  DW_CFA_restore_state
  DW_CFA_advance_loc: 56 to 000000000042279a
  DW_CFA_remember_state
  DW_CFA_def_cfa_offset: 56
  DW_CFA_advance_loc: 8 to 00000000004227a2
  DW_CFA_def_cfa_offset: 48
  DW_CFA_advance_loc: 1 to 00000000004227a3
  DW_CFA_def_cfa_offset: 40
  DW_CFA_advance_loc: 2 to 00000000004227a5
  DW_CFA_def_cfa_offset: 32
  DW_CFA_advance_loc: 2 to 00000000004227a7
  DW_CFA_def_cfa_offset: 24
  DW_CFA_advance_loc: 2 to 00000000004227a9
  DW_CFA_def_cfa_offset: 16
  DW_CFA_advance_loc: 2 to 00000000004227ab
  DW_CFA_def_cfa_offset: 8
  DW_CFA_advance_loc: 5 to 00000000004227b0
  DW_CFA_restore_state
  DW_CFA_advance_loc: 46 to 00000000004227de
  DW_CFA_remember_state
  DW_CFA_def_cfa_offset: 56
  DW_CFA_advance_loc: 8 to 00000000004227e6
  DW_CFA_def_cfa_offset: 48
  DW_CFA_advance_loc: 1 to 00000000004227e7
  DW_CFA_def_cfa_offset: 40
  DW_CFA_advance_loc: 2 to 00000000004227e9
  DW_CFA_def_cfa_offset: 32
  DW_CFA_advance_loc: 2 to 00000000004227eb
  DW_CFA_def_cfa_offset: 24
  DW_CFA_advance_loc: 2 to 00000000004227ed
  DW_CFA_def_cfa_offset: 16
  DW_CFA_advance_loc: 2 to 00000000004227ef
  DW_CFA_def_cfa_offset: 8
  DW_CFA_advance_loc: 5 to 00000000004227f4
  DW_CFA_restore_state
  DW_CFA_advance_loc: 56 to 000000000042282c
  DW_CFA_remember_state
  DW_CFA_def_cfa_offset: 56
  DW_CFA_advance_loc: 8 to 0000000000422834
  DW_CFA_def_cfa_offset: 48
  DW_CFA_advance_loc: 1 to 0000000000422835
  DW_CFA_def_cfa_offset: 40
  DW_CFA_advance_loc: 2 to 0000000000422837
  DW_CFA_def_cfa_offset: 32
  DW_CFA_advance_loc: 2 to 0000000000422839
  DW_CFA_def_cfa_offset: 24
  DW_CFA_advance_loc: 2 to 000000000042283b
  DW_CFA_def_cfa_offset: 16
  DW_CFA_advance_loc: 2 to 000000000042283d
  DW_CFA_def_cfa_offset: 8
  DW_CFA_advance_loc: 5 to 0000000000422842
  DW_CFA_restore_state
  DW_CFA_advance_loc: 46 to 0000000000422870
  DW_CFA_remember_state
  DW_CFA_def_cfa_offset: 56
  DW_CFA_advance_loc: 8 to 0000000000422878
  DW_CFA_def_cfa_offset: 48
  DW_CFA_advance_loc: 1 to 0000000000422879
  DW_CFA_def_cfa_offset: 40
  DW_CFA_advance_loc: 2 to 000000000042287b
  DW_CFA_def_cfa_offset: 32
  DW_CFA_advance_loc: 2 to 000000000042287d
  DW_CFA_def_cfa_offset: 24
  DW_CFA_advance_loc: 2 to 000000000042287f
  DW_CFA_def_cfa_offset: 16
  DW_CFA_advance_loc: 2 to 0000000000422881
  DW_CFA_def_cfa_offset: 8
  DW_CFA_advance_loc: 5 to 0000000000422886
  DW_CFA_restore_state
  DW_CFA_advance_loc: 56 to 00000000004228be
  DW_CFA_remember_state
  DW_CFA_def_cfa_offset: 56
  DW_CFA_advance_loc: 8 to 00000000004228c6
  DW_CFA_def_cfa_offset: 48
  DW_CFA_advance_loc: 1 to 00000000004228c7
  DW_CFA_def_cfa_offset: 40
  DW_CFA_advance_loc: 2 to 00000000004228c9
  DW_CFA_def_cfa_offset: 32
  DW_CFA_advance_loc: 2 to 00000000004228cb
  DW_CFA_def_cfa_offset: 24
  DW_CFA_advance_loc: 2 to 00000000004228cd
  DW_CFA_def_cfa_offset: 16
  DW_CFA_advance_loc: 2 to 00000000004228cf
  DW_CFA_def_cfa_offset: 8
  DW_CFA_advance_loc: 5 to 00000000004228d4
  DW_CFA_restore_state
  DW_CFA_advance_loc: 46 to 0000000000422902
  DW_CFA_remember_state
  DW_CFA_def_cfa_offset: 56
  DW_CFA_advance_loc: 8 to 000000000042290a
  DW_CFA_def_cfa_offset: 48
  DW_CFA_advance_loc: 1 to 000000000042290b
  DW_CFA_def_cfa_offset: 40
  DW_CFA_advance_loc: 2 to 000000000042290d
  DW_CFA_def_cfa_offset: 32
  DW_CFA_advance_loc: 2 to 000000000042290f
  DW_CFA_def_cfa_offset: 24
  DW_CFA_advance_loc: 2 to 0000000000422911
  DW_CFA_def_cfa_offset: 16
  DW_CFA_advance_loc: 2 to 0000000000422913
  DW_CFA_def_cfa_offset: 8
  DW_CFA_advance_loc: 5 to 0000000000422918
  DW_CFA_restore_state
  DW_CFA_advance_loc: 56 to 0000000000422950
  DW_CFA_remember_state
  DW_CFA_def_cfa_offset: 56
  DW_CFA_advance_loc: 8 to 0000000000422958
  DW_CFA_def_cfa_offset: 48
  DW_CFA_advance_loc: 1 to 0000000000422959
  DW_CFA_def_cfa_offset: 40
  DW_CFA_advance_loc: 2 to 000000000042295b
  DW_CFA_def_cfa_offset: 32
  DW_CFA_advance_loc: 2 to 000000000042295d
  DW_CFA_def_cfa_offset: 24
  DW_CFA_advance_loc: 2 to 000000000042295f
  DW_CFA_def_cfa_offset: 16
  DW_CFA_advance_loc: 2 to 0000000000422961
  DW_CFA_def_cfa_offset: 8
  DW_CFA_advance_loc: 5 to 0000000000422966
  DW_CFA_restore_state
  DW_CFA_advance_loc: 46 to 0000000000422994
  DW_CFA_remember_state
  DW_CFA_def_cfa_offset: 56
  DW_CFA_advance_loc: 8 to 000000000042299c
  DW_CFA_def_cfa_offset: 48
  DW_CFA_advance_loc: 1 to 000000000042299d
  DW_CFA_def_cfa_offset: 40
  DW_CFA_advance_loc: 2 to 000000000042299f
  DW_CFA_def_cfa_offset: 32
  DW_CFA_advance_loc: 2 to 00000000004229a1
  DW_CFA_def_cfa_offset: 24
  DW_CFA_advance_loc: 2 to 00000000004229a3
  DW_CFA_def_cfa_offset: 16
  DW_CFA_advance_loc: 2 to 00000000004229a5
  DW_CFA_def_cfa_offset: 8
  DW_CFA_advance_loc: 5 to 00000000004229aa
  DW_CFA_restore_state
  DW_CFA_advance_loc: 56 to 00000000004229e2
  DW_CFA_remember_state
  DW_CFA_def_cfa_offset: 56
  DW_CFA_advance_loc: 8 to 00000000004229ea
  DW_CFA_def_cfa_offset: 48
  DW_CFA_advance_loc: 1 to 00000000004229eb
  DW_CFA_def_cfa_offset: 40
  DW_CFA_advance_loc: 2 to 00000000004229ed
  DW_CFA_def_cfa_offset: 32
  DW_CFA_advance_loc: 2 to 00000000004229ef
  DW_CFA_def_cfa_offset: 24
  DW_CFA_advance_loc: 2 to 00000000004229f1
  DW_CFA_def_cfa_offset: 16
  DW_CFA_advance_loc: 2 to 00000000004229f3
  DW_CFA_def_cfa_offset: 8
  DW_CFA_advance_loc: 5 to 00000000004229f8
  DW_CFA_restore_state
  DW_CFA_advance_loc: 46 to 0000000000422a26
  DW_CFA_remember_state
  DW_CFA_def_cfa_offset: 56
  DW_CFA_advance_loc: 8 to 0000000000422a2e
  DW_CFA_def_cfa_offset: 48
  DW_CFA_advance_loc: 1 to 0000000000422a2f
  DW_CFA_def_cfa_offset: 40
  DW_CFA_advance_loc: 2 to 0000000000422a31
  DW_CFA_def_cfa_offset: 32
  DW_CFA_advance_loc: 2 to 0000000000422a33
  DW_CFA_def_cfa_offset: 24
  DW_CFA_advance_loc: 2 to 0000000000422a35
  DW_CFA_def_cfa_offset: 16
  DW_CFA_advance_loc: 2 to 0000000000422a37
  DW_CFA_def_cfa_offset: 8
  DW_CFA_advance_loc: 5 to 0000000000422a3c
  DW_CFA_restore_state
  DW_CFA_advance_loc: 56 to 0000000000422a74
  DW_CFA_remember_state
  DW_CFA_def_cfa_offset: 56
  DW_CFA_advance_loc: 8 to 0000000000422a7c
  DW_CFA_def_cfa_offset: 48
  DW_CFA_advance_loc: 1 to 0000000000422a7d
  DW_CFA_def_cfa_offset: 40
  DW_CFA_advance_loc: 2 to 0000000000422a7f
  DW_CFA_def_cfa_offset: 32
  DW_CFA_advance_loc: 2 to 0000000000422a81
  DW_CFA_def_cfa_offset: 24
  DW_CFA_advance_loc: 2 to 0000000000422a83
  DW_CFA_def_cfa_offset: 16
  DW_CFA_advance_loc: 2 to 0000000000422a85
  DW_CFA_def_cfa_offset: 8
  DW_CFA_advance_loc: 5 to 0000000000422a8a
  DW_CFA_restore_state
  DW_CFA_advance_loc: 46 to 0000000000422ab8
  DW_CFA_remember_state
  DW_CFA_def_cfa_offset: 56
  DW_CFA_advance_loc: 8 to 0000000000422ac0
  DW_CFA_def_cfa_offset: 48
  DW_CFA_advance_loc: 1 to 0000000000422ac1
  DW_CFA_def_cfa_offset: 40
  DW_CFA_advance_loc: 2 to 0000000000422ac3
  DW_CFA_def_cfa_offset: 32
  DW_CFA_advance_loc: 2 to 0000000000422ac5
  DW_CFA_def_cfa_offset: 24
  DW_CFA_advance_loc: 2 to 0000000000422ac7
  DW_CFA_def_cfa_offset: 16
  DW_CFA_advance_loc: 2 to 0000000000422ac9
  DW_CFA_def_cfa_offset: 8
  DW_CFA_advance_loc: 5 to 0000000000422ace
  DW_CFA_restore_state
  DW_CFA_advance_loc: 56 to 0000000000422b06
  DW_CFA_remember_state
  DW_CFA_def_cfa_offset: 56
  DW_CFA_advance_loc: 8 to 0000000000422b0e
  DW_CFA_def_cfa_offset: 48
  DW_CFA_advance_loc: 1 to 0000000000422b0f
  DW_CFA_def_cfa_offset: 40
  DW_CFA_advance_loc: 2 to 0000000000422b11
  DW_CFA_def_cfa_offset: 32
  DW_CFA_advance_loc: 2 to 0000000000422b13
  DW_CFA_def_cfa_offset: 24
  DW_CFA_advance_loc: 2 to 0000000000422b15
  DW_CFA_def_cfa_offset: 16
  DW_CFA_advance_loc: 2 to 0000000000422b17
  DW_CFA_def_cfa_offset: 8
  DW_CFA_advance_loc: 5 to 0000000000422b1c
  DW_CFA_restore_state
  DW_CFA_advance_loc: 46 to 0000000000422b4a
  DW_CFA_remember_state
  DW_CFA_def_cfa_offset: 56
  DW_CFA_advance_loc: 8 to 0000000000422b52
  DW_CFA_def_cfa_offset: 48
  DW_CFA_advance_loc: 1 to 0000000000422b53
  DW_CFA_def_cfa_offset: 40
  DW_CFA_advance_loc: 2 to 0000000000422b55
  DW_CFA_def_cfa_offset: 32
  DW_CFA_advance_loc: 2 to 0000000000422b57
  DW_CFA_def_cfa_offset: 24
  DW_CFA_advance_loc: 2 to 0000000000422b59
  DW_CFA_def_cfa_offset: 16
  DW_CFA_advance_loc: 2 to 0000000000422b5b
  DW_CFA_def_cfa_offset: 8
  DW_CFA_advance_loc: 5 to 0000000000422b60
  DW_CFA_restore_state
  DW_CFA_advance_loc: 56 to 0000000000422b98
  DW_CFA_remember_state
  DW_CFA_def_cfa_offset: 56
  DW_CFA_advance_loc: 8 to 0000000000422ba0
  DW_CFA_def_cfa_offset: 48
  DW_CFA_advance_loc: 1 to 0000000000422ba1
  DW_CFA_def_cfa_offset: 40
  DW_CFA_advance_loc: 2 to 0000000000422ba3
  DW_CFA_def_cfa_offset: 32
  DW_CFA_advance_loc: 2 to 0000000000422ba5
  DW_CFA_def_cfa_offset: 24
  DW_CFA_advance_loc: 2 to 0000000000422ba7
  DW_CFA_def_cfa_offset: 16
  DW_CFA_advance_loc: 2 to 0000000000422ba9
  DW_CFA_def_cfa_offset: 8
  DW_CFA_advance_loc: 5 to 0000000000422bae
  DW_CFA_restore_state
  DW_CFA_advance_loc: 46 to 0000000000422bdc
  DW_CFA_remember_state
  DW_CFA_def_cfa_offset: 56
  DW_CFA_advance_loc: 8 to 0000000000422be4
  DW_CFA_def_cfa_offset: 48
  DW_CFA_advance_loc: 1 to 0000000000422be5
  DW_CFA_def_cfa_offset: 40
  DW_CFA_advance_loc: 2 to 0000000000422be7
  DW_CFA_def_cfa_offset: 32
  DW_CFA_advance_loc: 2 to 0000000000422be9
  DW_CFA_def_cfa_offset: 24
  DW_CFA_advance_loc: 2 to 0000000000422beb
  DW_CFA_def_cfa_offset: 16
  DW_CFA_advance_loc: 2 to 0000000000422bed
  DW_CFA_def_cfa_offset: 8
  DW_CFA_advance_loc: 5 to 0000000000422bf2
  DW_CFA_restore_state
  DW_CFA_advance_loc: 56 to 0000000000422c2a
  DW_CFA_remember_state
  DW_CFA_def_cfa_offset: 56
  DW_CFA_advance_loc: 8 to 0000000000422c32
  DW_CFA_def_cfa_offset: 48
  DW_CFA_advance_loc: 1 to 0000000000422c33
  DW_CFA_def_cfa_offset: 40
  DW_CFA_advance_loc: 2 to 0000000000422c35
  DW_CFA_def_cfa_offset: 32
  DW_CFA_advance_loc: 2 to 0000000000422c37
  DW_CFA_def_cfa_offset: 24
  DW_CFA_advance_loc: 2 to 0000000000422c39
  DW_CFA_def_cfa_offset: 16
  DW_CFA_advance_loc: 2 to 0000000000422c3b
  DW_CFA_def_cfa_offset: 8
  DW_CFA_advance_loc: 5 to 0000000000422c40
  DW_CFA_restore_state
  DW_CFA_advance_loc: 46 to 0000000000422c6e
  DW_CFA_remember_state
  DW_CFA_def_cfa_offset: 56
  DW_CFA_advance_loc: 8 to 0000000000422c76
  DW_CFA_def_cfa_offset: 48
  DW_CFA_advance_loc: 1 to 0000000000422c77
  DW_CFA_def_cfa_offset: 40
  DW_CFA_advance_loc: 2 to 0000000000422c79
  DW_CFA_def_cfa_offset: 32
  DW_CFA_advance_loc: 2 to 0000000000422c7b
  DW_CFA_def_cfa_offset: 24
  DW_CFA_advance_loc: 2 to 0000000000422c7d
  DW_CFA_def_cfa_offset: 16
  DW_CFA_advance_loc: 2 to 0000000000422c7f
  DW_CFA_def_cfa_offset: 8
  DW_CFA_advance_loc: 5 to 0000000000422c84
  DW_CFA_restore_state
  DW_CFA_advance_loc: 56 to 0000000000422cbc
  DW_CFA_remember_state
  DW_CFA_def_cfa_offset: 56
  DW_CFA_advance_loc: 8 to 0000000000422cc4
  DW_CFA_def_cfa_offset: 48
  DW_CFA_advance_loc: 1 to 0000000000422cc5
  DW_CFA_def_cfa_offset: 40
  DW_CFA_advance_loc: 2 to 0000000000422cc7
  DW_CFA_def_cfa_offset: 32
  DW_CFA_advance_loc: 2 to 0000000000422cc9
  DW_CFA_def_cfa_offset: 24
  DW_CFA_advance_loc: 2 to 0000000000422ccb
  DW_CFA_def_cfa_offset: 16
  DW_CFA_advance_loc: 2 to 0000000000422ccd
  DW_CFA_def_cfa_offset: 8
  DW_CFA_advance_loc: 5 to 0000000000422cd2
  DW_CFA_restore_state
  DW_CFA_advance_loc: 46 to 0000000000422d00
  DW_CFA_remember_state
  DW_CFA_def_cfa_offset: 56
  DW_CFA_advance_loc: 8 to 0000000000422d08
  DW_CFA_def_cfa_offset: 48
  DW_CFA_advance_loc: 1 to 0000000000422d09
  DW_CFA_def_cfa_offset: 40
  DW_CFA_advance_loc: 2 to 0000000000422d0b
  DW_CFA_def_cfa_offset: 32
  DW_CFA_advance_loc: 2 to 0000000000422d0d
  DW_CFA_def_cfa_offset: 24
  DW_CFA_advance_loc: 2 to 0000000000422d0f
  DW_CFA_def_cfa_offset: 16
  DW_CFA_advance_loc: 2 to 0000000000422d11
  DW_CFA_def_cfa_offset: 8
  DW_CFA_advance_loc: 5 to 0000000000422d16
  DW_CFA_restore_state
  DW_CFA_advance_loc: 56 to 0000000000422d4e
  DW_CFA_remember_state
  DW_CFA_def_cfa_offset: 56
  DW_CFA_advance_loc: 8 to 0000000000422d56
  DW_CFA_def_cfa_offset: 48
  DW_CFA_advance_loc: 1 to 0000000000422d57
  DW_CFA_def_cfa_offset: 40
  DW_CFA_advance_loc: 2 to 0000000000422d59
  DW_CFA_def_cfa_offset: 32
  DW_CFA_advance_loc: 2 to 0000000000422d5b
  DW_CFA_def_cfa_offset: 24
  DW_CFA_advance_loc: 2 to 0000000000422d5d
  DW_CFA_def_cfa_offset: 16
  DW_CFA_advance_loc: 2 to 0000000000422d5f
  DW_CFA_def_cfa_offset: 8
  DW_CFA_advance_loc: 5 to 0000000000422d64
  DW_CFA_restore_state
  DW_CFA_advance_loc: 46 to 0000000000422d92
  DW_CFA_remember_state
  DW_CFA_def_cfa_offset: 56
  DW_CFA_advance_loc: 8 to 0000000000422d9a
  DW_CFA_def_cfa_offset: 48
  DW_CFA_advance_loc: 1 to 0000000000422d9b
  DW_CFA_def_cfa_offset: 40
  DW_CFA_advance_loc: 2 to 0000000000422d9d
  DW_CFA_def_cfa_offset: 32
  DW_CFA_advance_loc: 2 to 0000000000422d9f
  DW_CFA_def_cfa_offset: 24
  DW_CFA_advance_loc: 2 to 0000000000422da1
  DW_CFA_def_cfa_offset: 16
  DW_CFA_advance_loc: 2 to 0000000000422da3
  DW_CFA_def_cfa_offset: 8
  DW_CFA_advance_loc: 5 to 0000000000422da8
  DW_CFA_restore_state
  DW_CFA_advance_loc: 56 to 0000000000422de0
  DW_CFA_remember_state
  DW_CFA_def_cfa_offset: 56
  DW_CFA_advance_loc: 8 to 0000000000422de8
  DW_CFA_def_cfa_offset: 48
  DW_CFA_advance_loc: 1 to 0000000000422de9
  DW_CFA_def_cfa_offset: 40
  DW_CFA_advance_loc: 2 to 0000000000422deb
  DW_CFA_def_cfa_offset: 32
  DW_CFA_advance_loc: 2 to 0000000000422ded
  DW_CFA_def_cfa_offset: 24
  DW_CFA_advance_loc: 2 to 0000000000422def
  DW_CFA_def_cfa_offset: 16
  DW_CFA_advance_loc: 2 to 0000000000422df1
  DW_CFA_def_cfa_offset: 8
  DW_CFA_advance_loc: 5 to 0000000000422df6
  DW_CFA_restore_state
  DW_CFA_advance_loc: 46 to 0000000000422e24
  DW_CFA_remember_state
  DW_CFA_def_cfa_offset: 56
  DW_CFA_advance_loc: 8 to 0000000000422e2c
  DW_CFA_def_cfa_offset: 48
  DW_CFA_advance_loc: 1 to 0000000000422e2d
  DW_CFA_def_cfa_offset: 40
  DW_CFA_advance_loc: 2 to 0000000000422e2f
  DW_CFA_def_cfa_offset: 32
  DW_CFA_advance_loc: 2 to 0000000000422e31
  DW_CFA_def_cfa_offset: 24
  DW_CFA_advance_loc: 2 to 0000000000422e33
  DW_CFA_def_cfa_offset: 16
  DW_CFA_advance_loc: 2 to 0000000000422e35
  DW_CFA_def_cfa_offset: 8
  DW_CFA_advance_loc: 5 to 0000000000422e3a
  DW_CFA_restore_state
  DW_CFA_advance_loc: 56 to 0000000000422e72
  DW_CFA_remember_state
  DW_CFA_def_cfa_offset: 56
  DW_CFA_advance_loc: 8 to 0000000000422e7a
  DW_CFA_def_cfa_offset: 48
  DW_CFA_advance_loc: 1 to 0000000000422e7b
  DW_CFA_def_cfa_offset: 40
  DW_CFA_advance_loc: 2 to 0000000000422e7d
  DW_CFA_def_cfa_offset: 32
  DW_CFA_advance_loc: 2 to 0000000000422e7f
  DW_CFA_def_cfa_offset: 24
  DW_CFA_advance_loc: 2 to 0000000000422e81
  DW_CFA_def_cfa_offset: 16
  DW_CFA_advance_loc: 2 to 0000000000422e83
  DW_CFA_def_cfa_offset: 8
  DW_CFA_advance_loc: 5 to 0000000000422e88
  DW_CFA_restore_state
  DW_CFA_advance_loc: 46 to 0000000000422eb6
  DW_CFA_remember_state
  DW_CFA_def_cfa_offset: 56
  DW_CFA_advance_loc: 8 to 0000000000422ebe
  DW_CFA_def_cfa_offset: 48
  DW_CFA_advance_loc: 1 to 0000000000422ebf
  DW_CFA_def_cfa_offset: 40
  DW_CFA_advance_loc: 2 to 0000000000422ec1
  DW_CFA_def_cfa_offset: 32
  DW_CFA_advance_loc: 2 to 0000000000422ec3
  DW_CFA_def_cfa_offset: 24
  DW_CFA_advance_loc: 2 to 0000000000422ec5
  DW_CFA_def_cfa_offset: 16
  DW_CFA_advance_loc: 2 to 0000000000422ec7
  DW_CFA_def_cfa_offset: 8
  DW_CFA_advance_loc: 5 to 0000000000422ecc
  DW_CFA_restore_state
  DW_CFA_advance_loc: 56 to 0000000000422f04
  DW_CFA_remember_state
  DW_CFA_def_cfa_offset: 56
  DW_CFA_advance_loc: 8 to 0000000000422f0c
  DW_CFA_def_cfa_offset: 48
  DW_CFA_advance_loc: 1 to 0000000000422f0d
  DW_CFA_def_cfa_offset: 40
  DW_CFA_advance_loc: 2 to 0000000000422f0f
  DW_CFA_def_cfa_offset: 32
  DW_CFA_advance_loc: 2 to 0000000000422f11
  DW_CFA_def_cfa_offset: 24
  DW_CFA_advance_loc: 2 to 0000000000422f13
  DW_CFA_def_cfa_offset: 16
  DW_CFA_advance_loc: 2 to 0000000000422f15
  DW_CFA_def_cfa_offset: 8
  DW_CFA_advance_loc: 5 to 0000000000422f1a
  DW_CFA_restore_state
  DW_CFA_advance_loc: 46 to 0000000000422f48
  DW_CFA_remember_state
  DW_CFA_def_cfa_offset: 56
  DW_CFA_advance_loc: 8 to 0000000000422f50
  DW_CFA_def_cfa_offset: 48
  DW_CFA_advance_loc: 1 to 0000000000422f51
  DW_CFA_def_cfa_offset: 40
  DW_CFA_advance_loc: 2 to 0000000000422f53
  DW_CFA_def_cfa_offset: 32
  DW_CFA_advance_loc: 2 to 0000000000422f55
  DW_CFA_def_cfa_offset: 24
  DW_CFA_advance_loc: 2 to 0000000000422f57
  DW_CFA_def_cfa_offset: 16
  DW_CFA_advance_loc: 2 to 0000000000422f59
  DW_CFA_def_cfa_offset: 8
  DW_CFA_advance_loc: 5 to 0000000000422f5e
  DW_CFA_restore_state
  DW_CFA_advance_loc: 56 to 0000000000422f96
  DW_CFA_remember_state
  DW_CFA_def_cfa_offset: 56
  DW_CFA_advance_loc: 8 to 0000000000422f9e
  DW_CFA_def_cfa_offset: 48
  DW_CFA_advance_loc: 1 to 0000000000422f9f
  DW_CFA_def_cfa_offset: 40
  DW_CFA_advance_loc: 2 to 0000000000422fa1
  DW_CFA_def_cfa_offset: 32
  DW_CFA_advance_loc: 2 to 0000000000422fa3
  DW_CFA_def_cfa_offset: 24
  DW_CFA_advance_loc: 2 to 0000000000422fa5
  DW_CFA_def_cfa_offset: 16
  DW_CFA_advance_loc: 2 to 0000000000422fa7
  DW_CFA_def_cfa_offset: 8
  DW_CFA_advance_loc: 5 to 0000000000422fac
  DW_CFA_restore_state
  DW_CFA_advance_loc: 46 to 0000000000422fda
  DW_CFA_remember_state
  DW_CFA_def_cfa_offset: 56
  DW_CFA_advance_loc: 8 to 0000000000422fe2
  DW_CFA_def_cfa_offset: 48
  DW_CFA_advance_loc: 1 to 0000000000422fe3
  DW_CFA_def_cfa_offset: 40
  DW_CFA_advance_loc: 2 to 0000000000422fe5
  DW_CFA_def_cfa_offset: 32
  DW_CFA_advance_loc: 2 to 0000000000422fe7
  DW_CFA_def_cfa_offset: 24
  DW_CFA_advance_loc: 2 to 0000000000422fe9
  DW_CFA_def_cfa_offset: 16
  DW_CFA_advance_loc: 2 to 0000000000422feb
  DW_CFA_def_cfa_offset: 8
  DW_CFA_advance_loc: 5 to 0000000000422ff0
  DW_CFA_restore_state
  DW_CFA_advance_loc: 56 to 0000000000423028
  DW_CFA_remember_state
  DW_CFA_def_cfa_offset: 56
  DW_CFA_advance_loc: 8 to 0000000000423030
  DW_CFA_def_cfa_offset: 48
  DW_CFA_advance_loc: 1 to 0000000000423031
  DW_CFA_def_cfa_offset: 40
  DW_CFA_advance_loc: 2 to 0000000000423033
  DW_CFA_def_cfa_offset: 32
  DW_CFA_advance_loc: 2 to 0000000000423035
  DW_CFA_def_cfa_offset: 24
  DW_CFA_advance_loc: 2 to 0000000000423037
  DW_CFA_def_cfa_offset: 16
  DW_CFA_advance_loc: 2 to 0000000000423039
  DW_CFA_def_cfa_offset: 8
  DW_CFA_advance_loc: 5 to 000000000042303e
  DW_CFA_restore_state
  DW_CFA_advance_loc: 46 to 000000000042306c
  DW_CFA_remember_state
  DW_CFA_def_cfa_offset: 56
  DW_CFA_advance_loc: 8 to 0000000000423074
  DW_CFA_def_cfa_offset: 48
  DW_CFA_advance_loc: 1 to 0000000000423075
  DW_CFA_def_cfa_offset: 40
  DW_CFA_advance_loc: 2 to 0000000000423077
  DW_CFA_def_cfa_offset: 32
  DW_CFA_advance_loc: 2 to 0000000000423079
  DW_CFA_def_cfa_offset: 24
  DW_CFA_advance_loc: 2 to 000000000042307b
  DW_CFA_def_cfa_offset: 16
  DW_CFA_advance_loc: 2 to 000000000042307d
  DW_CFA_def_cfa_offset: 8
  DW_CFA_advance_loc: 5 to 0000000000423082
  DW_CFA_restore_state
  DW_CFA_advance_loc: 56 to 00000000004230ba
  DW_CFA_remember_state
  DW_CFA_def_cfa_offset: 56
  DW_CFA_advance_loc: 8 to 00000000004230c2
  DW_CFA_def_cfa_offset: 48
  DW_CFA_advance_loc: 1 to 00000000004230c3
  DW_CFA_def_cfa_offset: 40
  DW_CFA_advance_loc: 2 to 00000000004230c5
  DW_CFA_def_cfa_offset: 32
  DW_CFA_advance_loc: 2 to 00000000004230c7
  DW_CFA_def_cfa_offset: 24
  DW_CFA_advance_loc: 2 to 00000000004230c9
  DW_CFA_def_cfa_offset: 16
  DW_CFA_advance_loc: 2 to 00000000004230cb
  DW_CFA_def_cfa_offset: 8
  DW_CFA_advance_loc: 5 to 00000000004230d0
  DW_CFA_restore_state
  DW_CFA_advance_loc: 46 to 00000000004230fe
  DW_CFA_remember_state
  DW_CFA_def_cfa_offset: 56
  DW_CFA_advance_loc: 8 to 0000000000423106
  DW_CFA_def_cfa_offset: 48
  DW_CFA_advance_loc: 1 to 0000000000423107
  DW_CFA_def_cfa_offset: 40
  DW_CFA_advance_loc: 2 to 0000000000423109
  DW_CFA_def_cfa_offset: 32
  DW_CFA_advance_loc: 2 to 000000000042310b
  DW_CFA_def_cfa_offset: 24
  DW_CFA_advance_loc: 2 to 000000000042310d
  DW_CFA_def_cfa_offset: 16
  DW_CFA_advance_loc: 2 to 000000000042310f
  DW_CFA_def_cfa_offset: 8
  DW_CFA_advance_loc: 5 to 0000000000423114
  DW_CFA_restore_state
  DW_CFA_advance_loc: 56 to 000000000042314c
  DW_CFA_remember_state
  DW_CFA_def_cfa_offset: 56
  DW_CFA_advance_loc: 8 to 0000000000423154
  DW_CFA_def_cfa_offset: 48
  DW_CFA_advance_loc: 1 to 0000000000423155
  DW_CFA_def_cfa_offset: 40
  DW_CFA_advance_loc: 2 to 0000000000423157
  DW_CFA_def_cfa_offset: 32
  DW_CFA_advance_loc: 2 to 0000000000423159
  DW_CFA_def_cfa_offset: 24
  DW_CFA_advance_loc: 2 to 000000000042315b
  DW_CFA_def_cfa_offset: 16
  DW_CFA_advance_loc: 2 to 000000000042315d
  DW_CFA_def_cfa_offset: 8
  DW_CFA_advance_loc: 5 to 0000000000423162
  DW_CFA_restore_state
  DW_CFA_advance_loc: 46 to 0000000000423190
  DW_CFA_remember_state
  DW_CFA_def_cfa_offset: 56
  DW_CFA_advance_loc: 8 to 0000000000423198
  DW_CFA_def_cfa_offset: 48
  DW_CFA_advance_loc: 1 to 0000000000423199
  DW_CFA_def_cfa_offset: 40
  DW_CFA_advance_loc: 2 to 000000000042319b
  DW_CFA_def_cfa_offset: 32
  DW_CFA_advance_loc: 2 to 000000000042319d
  DW_CFA_def_cfa_offset: 24
  DW_CFA_advance_loc: 2 to 000000000042319f
  DW_CFA_def_cfa_offset: 16
  DW_CFA_advance_loc: 2 to 00000000004231a1
  DW_CFA_def_cfa_offset: 8
  DW_CFA_advance_loc: 5 to 00000000004231a6
  DW_CFA_restore_state
  DW_CFA_advance_loc: 56 to 00000000004231de
  DW_CFA_remember_state
  DW_CFA_def_cfa_offset: 56
  DW_CFA_advance_loc: 8 to 00000000004231e6
  DW_CFA_def_cfa_offset: 48
  DW_CFA_advance_loc: 1 to 00000000004231e7
  DW_CFA_def_cfa_offset: 40
  DW_CFA_advance_loc: 2 to 00000000004231e9
  DW_CFA_def_cfa_offset: 32
  DW_CFA_advance_loc: 2 to 00000000004231eb
  DW_CFA_def_cfa_offset: 24
  DW_CFA_advance_loc: 2 to 00000000004231ed
  DW_CFA_def_cfa_offset: 16
  DW_CFA_advance_loc: 2 to 00000000004231ef
  DW_CFA_def_cfa_offset: 8
  DW_CFA_advance_loc: 5 to 00000000004231f4
  DW_CFA_restore_state
  DW_CFA_advance_loc: 46 to 0000000000423222
  DW_CFA_remember_state
  DW_CFA_def_cfa_offset: 56
  DW_CFA_advance_loc: 8 to 000000000042322a
  DW_CFA_def_cfa_offset: 48
  DW_CFA_advance_loc: 1 to 000000000042322b
  DW_CFA_def_cfa_offset: 40
  DW_CFA_advance_loc: 2 to 000000000042322d
  DW_CFA_def_cfa_offset: 32
  DW_CFA_advance_loc: 2 to 000000000042322f
  DW_CFA_def_cfa_offset: 24
  DW_CFA_advance_loc: 2 to 0000000000423231
  DW_CFA_def_cfa_offset: 16
  DW_CFA_advance_loc: 2 to 0000000000423233
  DW_CFA_def_cfa_offset: 8
  DW_CFA_advance_loc: 5 to 0000000000423238
  DW_CFA_restore_state
  DW_CFA_advance_loc: 56 to 0000000000423270
  DW_CFA_remember_state
  DW_CFA_def_cfa_offset: 56
  DW_CFA_advance_loc: 8 to 0000000000423278
  DW_CFA_def_cfa_offset: 48
  DW_CFA_advance_loc: 1 to 0000000000423279
  DW_CFA_def_cfa_offset: 40
  DW_CFA_advance_loc: 2 to 000000000042327b
  DW_CFA_def_cfa_offset: 32
  DW_CFA_advance_loc: 2 to 000000000042327d
  DW_CFA_def_cfa_offset: 24
  DW_CFA_advance_loc: 2 to 000000000042327f
  DW_CFA_def_cfa_offset: 16
  DW_CFA_advance_loc: 2 to 0000000000423281
  DW_CFA_def_cfa_offset: 8
  DW_CFA_advance_loc: 5 to 0000000000423286
  DW_CFA_restore_state
  DW_CFA_advance_loc: 46 to 00000000004232b4
  DW_CFA_remember_state
  DW_CFA_def_cfa_offset: 56
  DW_CFA_advance_loc: 8 to 00000000004232bc
  DW_CFA_def_cfa_offset: 48
  DW_CFA_advance_loc: 1 to 00000000004232bd
  DW_CFA_def_cfa_offset: 40
  DW_CFA_advance_loc: 2 to 00000000004232bf
  DW_CFA_def_cfa_offset: 32
  DW_CFA_advance_loc: 2 to 00000000004232c1
  DW_CFA_def_cfa_offset: 24
  DW_CFA_advance_loc: 2 to 00000000004232c3
  DW_CFA_def_cfa_offset: 16
  DW_CFA_advance_loc: 2 to 00000000004232c5
  DW_CFA_def_cfa_offset: 8
  DW_CFA_advance_loc: 5 to 00000000004232ca
  DW_CFA_restore_state
  DW_CFA_advance_loc: 56 to 0000000000423302
  DW_CFA_remember_state
  DW_CFA_def_cfa_offset: 56
  DW_CFA_advance_loc: 8 to 000000000042330a
  DW_CFA_def_cfa_offset: 48
  DW_CFA_advance_loc: 1 to 000000000042330b
  DW_CFA_def_cfa_offset: 40
  DW_CFA_advance_loc: 2 to 000000000042330d
  DW_CFA_def_cfa_offset: 32
  DW_CFA_advance_loc: 2 to 000000000042330f
  DW_CFA_def_cfa_offset: 24
  DW_CFA_advance_loc: 2 to 0000000000423311
  DW_CFA_def_cfa_offset: 16
  DW_CFA_advance_loc: 2 to 0000000000423313
  DW_CFA_def_cfa_offset: 8
  DW_CFA_advance_loc: 5 to 0000000000423318
  DW_CFA_restore_state
  DW_CFA_advance_loc: 46 to 0000000000423346
  DW_CFA_remember_state
  DW_CFA_def_cfa_offset: 56
  DW_CFA_advance_loc: 8 to 000000000042334e
  DW_CFA_def_cfa_offset: 48
  DW_CFA_advance_loc: 1 to 000000000042334f
  DW_CFA_def_cfa_offset: 40
  DW_CFA_advance_loc: 2 to 0000000000423351
  DW_CFA_def_cfa_offset: 32
  DW_CFA_advance_loc: 2 to 0000000000423353
  DW_CFA_def_cfa_offset: 24
  DW_CFA_advance_loc: 2 to 0000000000423355
  DW_CFA_def_cfa_offset: 16
  DW_CFA_advance_loc: 2 to 0000000000423357
  DW_CFA_def_cfa_offset: 8
  DW_CFA_advance_loc: 5 to 000000000042335c
  DW_CFA_restore_state
  DW_CFA_advance_loc: 56 to 0000000000423394
  DW_CFA_remember_state
  DW_CFA_def_cfa_offset: 56
  DW_CFA_advance_loc: 8 to 000000000042339c
  DW_CFA_def_cfa_offset: 48
  DW_CFA_advance_loc: 1 to 000000000042339d
  DW_CFA_def_cfa_offset: 40
  DW_CFA_advance_loc: 2 to 000000000042339f
  DW_CFA_def_cfa_offset: 32
  DW_CFA_advance_loc: 2 to 00000000004233a1
  DW_CFA_def_cfa_offset: 24
  DW_CFA_advance_loc: 2 to 00000000004233a3
  DW_CFA_def_cfa_offset: 16
  DW_CFA_advance_loc: 2 to 00000000004233a5
  DW_CFA_def_cfa_offset: 8
  DW_CFA_advance_loc: 5 to 00000000004233aa
  DW_CFA_restore_state
  DW_CFA_advance_loc: 46 to 00000000004233d8
  DW_CFA_remember_state
  DW_CFA_def_cfa_offset: 56
  DW_CFA_advance_loc: 8 to 00000000004233e0
  DW_CFA_def_cfa_offset: 48
  DW_CFA_advance_loc: 1 to 00000000004233e1
  DW_CFA_def_cfa_offset: 40
  DW_CFA_advance_loc: 2 to 00000000004233e3
  DW_CFA_def_cfa_offset: 32
  DW_CFA_advance_loc: 2 to 00000000004233e5
  DW_CFA_def_cfa_offset: 24
  DW_CFA_advance_loc: 2 to 00000000004233e7
  DW_CFA_def_cfa_offset: 16
  DW_CFA_advance_loc: 2 to 00000000004233e9
  DW_CFA_def_cfa_offset: 8
  DW_CFA_advance_loc: 5 to 00000000004233ee
  DW_CFA_restore_state
  DW_CFA_advance_loc: 56 to 0000000000423426
  DW_CFA_remember_state
  DW_CFA_def_cfa_offset: 56
  DW_CFA_advance_loc: 8 to 000000000042342e
  DW_CFA_def_cfa_offset: 48
  DW_CFA_advance_loc: 1 to 000000000042342f
  DW_CFA_def_cfa_offset: 40
  DW_CFA_advance_loc: 2 to 0000000000423431
  DW_CFA_def_cfa_offset: 32
  DW_CFA_advance_loc: 2 to 0000000000423433
  DW_CFA_def_cfa_offset: 24
  DW_CFA_advance_loc: 2 to 0000000000423435
  DW_CFA_def_cfa_offset: 16
  DW_CFA_advance_loc: 2 to 0000000000423437
  DW_CFA_def_cfa_offset: 8
  DW_CFA_advance_loc: 5 to 000000000042343c
  DW_CFA_restore_state
  DW_CFA_advance_loc: 46 to 000000000042346a
  DW_CFA_remember_state
  DW_CFA_def_cfa_offset: 56
  DW_CFA_advance_loc: 8 to 0000000000423472
  DW_CFA_def_cfa_offset: 48
  DW_CFA_advance_loc: 1 to 0000000000423473
  DW_CFA_def_cfa_offset: 40
  DW_CFA_advance_loc: 2 to 0000000000423475
  DW_CFA_def_cfa_offset: 32
  DW_CFA_advance_loc: 2 to 0000000000423477
  DW_CFA_def_cfa_offset: 24
  DW_CFA_advance_loc: 2 to 0000000000423479
  DW_CFA_def_cfa_offset: 16
  DW_CFA_advance_loc: 2 to 000000000042347b
  DW_CFA_def_cfa_offset: 8
  DW_CFA_advance_loc: 5 to 0000000000423480
  DW_CFA_restore_state
  DW_CFA_advance_loc: 56 to 00000000004234b8
  DW_CFA_remember_state
  DW_CFA_def_cfa_offset: 56
  DW_CFA_advance_loc: 8 to 00000000004234c0
  DW_CFA_def_cfa_offset: 48
  DW_CFA_advance_loc: 1 to 00000000004234c1
  DW_CFA_def_cfa_offset: 40
  DW_CFA_advance_loc: 2 to 00000000004234c3
  DW_CFA_def_cfa_offset: 32
  DW_CFA_advance_loc: 2 to 00000000004234c5
  DW_CFA_def_cfa_offset: 24
  DW_CFA_advance_loc: 2 to 00000000004234c7
  DW_CFA_def_cfa_offset: 16
  DW_CFA_advance_loc: 2 to 00000000004234c9
  DW_CFA_def_cfa_offset: 8
  DW_CFA_advance_loc: 5 to 00000000004234ce
  DW_CFA_restore_state
  DW_CFA_advance_loc: 46 to 00000000004234fc
  DW_CFA_remember_state
  DW_CFA_def_cfa_offset: 56
  DW_CFA_advance_loc: 8 to 0000000000423504
  DW_CFA_def_cfa_offset: 48
  DW_CFA_advance_loc: 1 to 0000000000423505
  DW_CFA_def_cfa_offset: 40
  DW_CFA_advance_loc: 2 to 0000000000423507
  DW_CFA_def_cfa_offset: 32
  DW_CFA_advance_loc: 2 to 0000000000423509
  DW_CFA_def_cfa_offset: 24
  DW_CFA_advance_loc: 2 to 000000000042350b
  DW_CFA_def_cfa_offset: 16
  DW_CFA_advance_loc: 2 to 000000000042350d
  DW_CFA_def_cfa_offset: 8
  DW_CFA_advance_loc: 5 to 0000000000423512
  DW_CFA_restore_state
  DW_CFA_advance_loc: 56 to 000000000042354a
  DW_CFA_remember_state
  DW_CFA_def_cfa_offset: 56
  DW_CFA_advance_loc: 8 to 0000000000423552
  DW_CFA_def_cfa_offset: 48
  DW_CFA_advance_loc: 1 to 0000000000423553
  DW_CFA_def_cfa_offset: 40
  DW_CFA_advance_loc: 2 to 0000000000423555
  DW_CFA_def_cfa_offset: 32
  DW_CFA_advance_loc: 2 to 0000000000423557
  DW_CFA_def_cfa_offset: 24
  DW_CFA_advance_loc: 2 to 0000000000423559
  DW_CFA_def_cfa_offset: 16
  DW_CFA_advance_loc: 2 to 000000000042355b
  DW_CFA_def_cfa_offset: 8
  DW_CFA_advance_loc: 5 to 0000000000423560
  DW_CFA_restore_state
  DW_CFA_advance_loc: 46 to 000000000042358e
  DW_CFA_remember_state
  DW_CFA_def_cfa_offset: 56
  DW_CFA_advance_loc: 8 to 0000000000423596
  DW_CFA_def_cfa_offset: 48
  DW_CFA_advance_loc: 1 to 0000000000423597
  DW_CFA_def_cfa_offset: 40
  DW_CFA_advance_loc: 2 to 0000000000423599
  DW_CFA_def_cfa_offset: 32
  DW_CFA_advance_loc: 2 to 000000000042359b
