  DW_CFA_advance_loc: 8 to 000000000043b108
  DW_CFA_def_cfa_offset: 48
  DW_CFA_advance_loc: 1 to 000000000043b109
  DW_CFA_def_cfa_offset: 40
  DW_CFA_advance_loc: 2 to 000000000043b10b
  DW_CFA_def_cfa_offset: 32
  DW_CFA_advance_loc: 2 to 000000000043b10d
  DW_CFA_def_cfa_offset: 24
  DW_CFA_advance_loc: 2 to 000000000043b10f
  DW_CFA_def_cfa_offset: 16
  DW_CFA_advance_loc: 2 to 000000000043b111
  DW_CFA_def_cfa_offset: 8
  DW_CFA_advance_loc: 5 to 000000000043b116
  DW_CFA_restore_state
  DW_CFA_advance_loc: 46 to 000000000043b144
  DW_CFA_remember_state
  DW_CFA_def_cfa_offset: 56
  DW_CFA_advance_loc: 8 to 000000000043b14c
  DW_CFA_def_cfa_offset: 48
  DW_CFA_advance_loc: 1 to 000000000043b14d
  DW_CFA_def_cfa_offset: 40
  DW_CFA_advance_loc: 2 to 000000000043b14f
  DW_CFA_def_cfa_offset: 32
  DW_CFA_advance_loc: 2 to 000000000043b151
  DW_CFA_def_cfa_offset: 24
  DW_CFA_advance_loc: 2 to 000000000043b153
  DW_CFA_def_cfa_offset: 16
  DW_CFA_advance_loc: 2 to 000000000043b155
  DW_CFA_def_cfa_offset: 8
  DW_CFA_advance_loc: 5 to 000000000043b15a
  DW_CFA_restore_state
  DW_CFA_advance_loc: 56 to 000000000043b192
  DW_CFA_remember_state
  DW_CFA_def_cfa_offset: 56
  DW_CFA_advance_loc: 8 to 000000000043b19a
  DW_CFA_def_cfa_offset: 48
  DW_CFA_advance_loc: 1 to 000000000043b19b
  DW_CFA_def_cfa_offset: 40
  DW_CFA_advance_loc: 2 to 000000000043b19d
  DW_CFA_def_cfa_offset: 32
  DW_CFA_advance_loc: 2 to 000000000043b19f
  DW_CFA_def_cfa_offset: 24
  DW_CFA_advance_loc: 2 to 000000000043b1a1
  DW_CFA_def_cfa_offset: 16
  DW_CFA_advance_loc: 2 to 000000000043b1a3
  DW_CFA_def_cfa_offset: 8
  DW_CFA_advance_loc: 5 to 000000000043b1a8
  DW_CFA_restore_state
  DW_CFA_advance_loc: 46 to 000000000043b1d6
  DW_CFA_remember_state
  DW_CFA_def_cfa_offset: 56
  DW_CFA_advance_loc: 8 to 000000000043b1de
  DW_CFA_def_cfa_offset: 48
  DW_CFA_advance_loc: 1 to 000000000043b1df
  DW_CFA_def_cfa_offset: 40
  DW_CFA_advance_loc: 2 to 000000000043b1e1
  DW_CFA_def_cfa_offset: 32
  DW_CFA_advance_loc: 2 to 000000000043b1e3
  DW_CFA_def_cfa_offset: 24
  DW_CFA_advance_loc: 2 to 000000000043b1e5
  DW_CFA_def_cfa_offset: 16
  DW_CFA_advance_loc: 2 to 000000000043b1e7
  DW_CFA_def_cfa_offset: 8
  DW_CFA_advance_loc: 5 to 000000000043b1ec
  DW_CFA_restore_state
  DW_CFA_advance_loc: 56 to 000000000043b224
  DW_CFA_remember_state
  DW_CFA_def_cfa_offset: 56
  DW_CFA_advance_loc: 8 to 000000000043b22c
  DW_CFA_def_cfa_offset: 48
  DW_CFA_advance_loc: 1 to 000000000043b22d
  DW_CFA_def_cfa_offset: 40
  DW_CFA_advance_loc: 2 to 000000000043b22f
  DW_CFA_def_cfa_offset: 32
  DW_CFA_advance_loc: 2 to 000000000043b231
  DW_CFA_def_cfa_offset: 24
  DW_CFA_advance_loc: 2 to 000000000043b233
  DW_CFA_def_cfa_offset: 16
  DW_CFA_advance_loc: 2 to 000000000043b235
  DW_CFA_def_cfa_offset: 8
  DW_CFA_advance_loc: 5 to 000000000043b23a
  DW_CFA_restore_state
  DW_CFA_advance_loc: 46 to 000000000043b268
  DW_CFA_remember_state
  DW_CFA_def_cfa_offset: 56
  DW_CFA_advance_loc: 8 to 000000000043b270
  DW_CFA_def_cfa_offset: 48
  DW_CFA_advance_loc: 1 to 000000000043b271
  DW_CFA_def_cfa_offset: 40
  DW_CFA_advance_loc: 2 to 000000000043b273
  DW_CFA_def_cfa_offset: 32
  DW_CFA_advance_loc: 2 to 000000000043b275
  DW_CFA_def_cfa_offset: 24
  DW_CFA_advance_loc: 2 to 000000000043b277
  DW_CFA_def_cfa_offset: 16
  DW_CFA_advance_loc: 2 to 000000000043b279
  DW_CFA_def_cfa_offset: 8
  DW_CFA_advance_loc: 5 to 000000000043b27e
  DW_CFA_restore_state
  DW_CFA_advance_loc: 56 to 000000000043b2b6
  DW_CFA_remember_state
  DW_CFA_def_cfa_offset: 56
  DW_CFA_advance_loc: 8 to 000000000043b2be
  DW_CFA_def_cfa_offset: 48
  DW_CFA_advance_loc: 1 to 000000000043b2bf
  DW_CFA_def_cfa_offset: 40
  DW_CFA_advance_loc: 2 to 000000000043b2c1
  DW_CFA_def_cfa_offset: 32
  DW_CFA_advance_loc: 2 to 000000000043b2c3
  DW_CFA_def_cfa_offset: 24
  DW_CFA_advance_loc: 2 to 000000000043b2c5
  DW_CFA_def_cfa_offset: 16
  DW_CFA_advance_loc: 2 to 000000000043b2c7
  DW_CFA_def_cfa_offset: 8
  DW_CFA_advance_loc: 5 to 000000000043b2cc
  DW_CFA_restore_state
  DW_CFA_advance_loc: 46 to 000000000043b2fa
  DW_CFA_remember_state
  DW_CFA_def_cfa_offset: 56
  DW_CFA_advance_loc: 8 to 000000000043b302
  DW_CFA_def_cfa_offset: 48
  DW_CFA_advance_loc: 1 to 000000000043b303
  DW_CFA_def_cfa_offset: 40
  DW_CFA_advance_loc: 2 to 000000000043b305
  DW_CFA_def_cfa_offset: 32
  DW_CFA_advance_loc: 2 to 000000000043b307
  DW_CFA_def_cfa_offset: 24
  DW_CFA_advance_loc: 2 to 000000000043b309
  DW_CFA_def_cfa_offset: 16
  DW_CFA_advance_loc: 2 to 000000000043b30b
  DW_CFA_def_cfa_offset: 8
  DW_CFA_advance_loc: 5 to 000000000043b310
  DW_CFA_restore_state
  DW_CFA_advance_loc: 56 to 000000000043b348
  DW_CFA_remember_state
  DW_CFA_def_cfa_offset: 56
  DW_CFA_advance_loc: 8 to 000000000043b350
  DW_CFA_def_cfa_offset: 48
  DW_CFA_advance_loc: 1 to 000000000043b351
  DW_CFA_def_cfa_offset: 40
  DW_CFA_advance_loc: 2 to 000000000043b353
  DW_CFA_def_cfa_offset: 32
  DW_CFA_advance_loc: 2 to 000000000043b355
  DW_CFA_def_cfa_offset: 24
  DW_CFA_advance_loc: 2 to 000000000043b357
  DW_CFA_def_cfa_offset: 16
  DW_CFA_advance_loc: 2 to 000000000043b359
  DW_CFA_def_cfa_offset: 8
  DW_CFA_advance_loc: 5 to 000000000043b35e
  DW_CFA_restore_state
  DW_CFA_advance_loc: 46 to 000000000043b38c
  DW_CFA_remember_state
  DW_CFA_def_cfa_offset: 56
  DW_CFA_advance_loc: 8 to 000000000043b394
  DW_CFA_def_cfa_offset: 48
  DW_CFA_advance_loc: 1 to 000000000043b395
  DW_CFA_def_cfa_offset: 40
  DW_CFA_advance_loc: 2 to 000000000043b397
  DW_CFA_def_cfa_offset: 32
  DW_CFA_advance_loc: 2 to 000000000043b399
  DW_CFA_def_cfa_offset: 24
  DW_CFA_advance_loc: 2 to 000000000043b39b
  DW_CFA_def_cfa_offset: 16
  DW_CFA_advance_loc: 2 to 000000000043b39d
  DW_CFA_def_cfa_offset: 8
  DW_CFA_advance_loc: 5 to 000000000043b3a2
  DW_CFA_restore_state
  DW_CFA_advance_loc: 56 to 000000000043b3da
  DW_CFA_remember_state
  DW_CFA_def_cfa_offset: 56
  DW_CFA_advance_loc: 8 to 000000000043b3e2
  DW_CFA_def_cfa_offset: 48
  DW_CFA_advance_loc: 1 to 000000000043b3e3
  DW_CFA_def_cfa_offset: 40
  DW_CFA_advance_loc: 2 to 000000000043b3e5
  DW_CFA_def_cfa_offset: 32
  DW_CFA_advance_loc: 2 to 000000000043b3e7
  DW_CFA_def_cfa_offset: 24
  DW_CFA_advance_loc: 2 to 000000000043b3e9
  DW_CFA_def_cfa_offset: 16
  DW_CFA_advance_loc: 2 to 000000000043b3eb
  DW_CFA_def_cfa_offset: 8
  DW_CFA_advance_loc: 5 to 000000000043b3f0
  DW_CFA_restore_state
  DW_CFA_advance_loc: 46 to 000000000043b41e
  DW_CFA_remember_state
  DW_CFA_def_cfa_offset: 56
  DW_CFA_advance_loc: 8 to 000000000043b426
  DW_CFA_def_cfa_offset: 48
  DW_CFA_advance_loc: 1 to 000000000043b427
  DW_CFA_def_cfa_offset: 40
  DW_CFA_advance_loc: 2 to 000000000043b429
  DW_CFA_def_cfa_offset: 32
  DW_CFA_advance_loc: 2 to 000000000043b42b
  DW_CFA_def_cfa_offset: 24
  DW_CFA_advance_loc: 2 to 000000000043b42d
  DW_CFA_def_cfa_offset: 16
  DW_CFA_advance_loc: 2 to 000000000043b42f
  DW_CFA_def_cfa_offset: 8
  DW_CFA_advance_loc: 5 to 000000000043b434
  DW_CFA_restore_state
  DW_CFA_advance_loc: 56 to 000000000043b46c
  DW_CFA_remember_state
  DW_CFA_def_cfa_offset: 56
  DW_CFA_advance_loc: 8 to 000000000043b474
  DW_CFA_def_cfa_offset: 48
  DW_CFA_advance_loc: 1 to 000000000043b475
  DW_CFA_def_cfa_offset: 40
  DW_CFA_advance_loc: 2 to 000000000043b477
  DW_CFA_def_cfa_offset: 32
  DW_CFA_advance_loc: 2 to 000000000043b479
  DW_CFA_def_cfa_offset: 24
  DW_CFA_advance_loc: 2 to 000000000043b47b
  DW_CFA_def_cfa_offset: 16
  DW_CFA_advance_loc: 2 to 000000000043b47d
  DW_CFA_def_cfa_offset: 8
  DW_CFA_advance_loc: 5 to 000000000043b482
  DW_CFA_restore_state
  DW_CFA_advance_loc: 46 to 000000000043b4b0
  DW_CFA_remember_state
  DW_CFA_def_cfa_offset: 56
  DW_CFA_advance_loc: 8 to 000000000043b4b8
  DW_CFA_def_cfa_offset: 48
  DW_CFA_advance_loc: 1 to 000000000043b4b9
  DW_CFA_def_cfa_offset: 40
  DW_CFA_advance_loc: 2 to 000000000043b4bb
  DW_CFA_def_cfa_offset: 32
  DW_CFA_advance_loc: 2 to 000000000043b4bd
  DW_CFA_def_cfa_offset: 24
  DW_CFA_advance_loc: 2 to 000000000043b4bf
  DW_CFA_def_cfa_offset: 16
  DW_CFA_advance_loc: 2 to 000000000043b4c1
  DW_CFA_def_cfa_offset: 8
  DW_CFA_advance_loc: 5 to 000000000043b4c6
  DW_CFA_restore_state
  DW_CFA_advance_loc: 56 to 000000000043b4fe
  DW_CFA_remember_state
  DW_CFA_def_cfa_offset: 56
  DW_CFA_advance_loc: 8 to 000000000043b506
  DW_CFA_def_cfa_offset: 48
  DW_CFA_advance_loc: 1 to 000000000043b507
  DW_CFA_def_cfa_offset: 40
  DW_CFA_advance_loc: 2 to 000000000043b509
  DW_CFA_def_cfa_offset: 32
  DW_CFA_advance_loc: 2 to 000000000043b50b
  DW_CFA_def_cfa_offset: 24
  DW_CFA_advance_loc: 2 to 000000000043b50d
  DW_CFA_def_cfa_offset: 16
  DW_CFA_advance_loc: 2 to 000000000043b50f
  DW_CFA_def_cfa_offset: 8
  DW_CFA_advance_loc: 5 to 000000000043b514
  DW_CFA_restore_state
  DW_CFA_advance_loc: 46 to 000000000043b542
  DW_CFA_remember_state
  DW_CFA_def_cfa_offset: 56
  DW_CFA_advance_loc: 8 to 000000000043b54a
  DW_CFA_def_cfa_offset: 48
  DW_CFA_advance_loc: 1 to 000000000043b54b
  DW_CFA_def_cfa_offset: 40
  DW_CFA_advance_loc: 2 to 000000000043b54d
  DW_CFA_def_cfa_offset: 32
  DW_CFA_advance_loc: 2 to 000000000043b54f
  DW_CFA_def_cfa_offset: 24
  DW_CFA_advance_loc: 2 to 000000000043b551
  DW_CFA_def_cfa_offset: 16
  DW_CFA_advance_loc: 2 to 000000000043b553
  DW_CFA_def_cfa_offset: 8
  DW_CFA_advance_loc: 5 to 000000000043b558
  DW_CFA_restore_state
  DW_CFA_advance_loc: 56 to 000000000043b590
  DW_CFA_remember_state
  DW_CFA_def_cfa_offset: 56
  DW_CFA_advance_loc: 8 to 000000000043b598
  DW_CFA_def_cfa_offset: 48
  DW_CFA_advance_loc: 1 to 000000000043b599
  DW_CFA_def_cfa_offset: 40
  DW_CFA_advance_loc: 2 to 000000000043b59b
  DW_CFA_def_cfa_offset: 32
  DW_CFA_advance_loc: 2 to 000000000043b59d
  DW_CFA_def_cfa_offset: 24
  DW_CFA_advance_loc: 2 to 000000000043b59f
  DW_CFA_def_cfa_offset: 16
  DW_CFA_advance_loc: 2 to 000000000043b5a1
  DW_CFA_def_cfa_offset: 8
  DW_CFA_advance_loc: 5 to 000000000043b5a6
  DW_CFA_restore_state
  DW_CFA_advance_loc: 46 to 000000000043b5d4
  DW_CFA_remember_state
  DW_CFA_def_cfa_offset: 56
  DW_CFA_advance_loc: 8 to 000000000043b5dc
  DW_CFA_def_cfa_offset: 48
  DW_CFA_advance_loc: 1 to 000000000043b5dd
  DW_CFA_def_cfa_offset: 40
  DW_CFA_advance_loc: 2 to 000000000043b5df
  DW_CFA_def_cfa_offset: 32
  DW_CFA_advance_loc: 2 to 000000000043b5e1
  DW_CFA_def_cfa_offset: 24
  DW_CFA_advance_loc: 2 to 000000000043b5e3
  DW_CFA_def_cfa_offset: 16
  DW_CFA_advance_loc: 2 to 000000000043b5e5
  DW_CFA_def_cfa_offset: 8
  DW_CFA_advance_loc: 5 to 000000000043b5ea
  DW_CFA_restore_state
  DW_CFA_advance_loc: 56 to 000000000043b622
  DW_CFA_remember_state
  DW_CFA_def_cfa_offset: 56
  DW_CFA_advance_loc: 8 to 000000000043b62a
  DW_CFA_def_cfa_offset: 48
  DW_CFA_advance_loc: 1 to 000000000043b62b
  DW_CFA_def_cfa_offset: 40
  DW_CFA_advance_loc: 2 to 000000000043b62d
  DW_CFA_def_cfa_offset: 32
  DW_CFA_advance_loc: 2 to 000000000043b62f
  DW_CFA_def_cfa_offset: 24
  DW_CFA_advance_loc: 2 to 000000000043b631
  DW_CFA_def_cfa_offset: 16
  DW_CFA_advance_loc: 2 to 000000000043b633
  DW_CFA_def_cfa_offset: 8
  DW_CFA_advance_loc: 5 to 000000000043b638
  DW_CFA_restore_state
  DW_CFA_advance_loc: 46 to 000000000043b666
  DW_CFA_remember_state
  DW_CFA_def_cfa_offset: 56
  DW_CFA_advance_loc: 8 to 000000000043b66e
  DW_CFA_def_cfa_offset: 48
  DW_CFA_advance_loc: 1 to 000000000043b66f
  DW_CFA_def_cfa_offset: 40
  DW_CFA_advance_loc: 2 to 000000000043b671
  DW_CFA_def_cfa_offset: 32
  DW_CFA_advance_loc: 2 to 000000000043b673
  DW_CFA_def_cfa_offset: 24
  DW_CFA_advance_loc: 2 to 000000000043b675
  DW_CFA_def_cfa_offset: 16
  DW_CFA_advance_loc: 2 to 000000000043b677
  DW_CFA_def_cfa_offset: 8
  DW_CFA_advance_loc: 5 to 000000000043b67c
  DW_CFA_restore_state
  DW_CFA_advance_loc: 56 to 000000000043b6b4
  DW_CFA_remember_state
  DW_CFA_def_cfa_offset: 56
  DW_CFA_advance_loc: 8 to 000000000043b6bc
  DW_CFA_def_cfa_offset: 48
  DW_CFA_advance_loc: 1 to 000000000043b6bd
  DW_CFA_def_cfa_offset: 40
  DW_CFA_advance_loc: 2 to 000000000043b6bf
  DW_CFA_def_cfa_offset: 32
  DW_CFA_advance_loc: 2 to 000000000043b6c1
  DW_CFA_def_cfa_offset: 24
  DW_CFA_advance_loc: 2 to 000000000043b6c3
  DW_CFA_def_cfa_offset: 16
  DW_CFA_advance_loc: 2 to 000000000043b6c5
  DW_CFA_def_cfa_offset: 8
  DW_CFA_advance_loc: 5 to 000000000043b6ca
  DW_CFA_restore_state
  DW_CFA_advance_loc: 46 to 000000000043b6f8
  DW_CFA_remember_state
  DW_CFA_def_cfa_offset: 56
  DW_CFA_advance_loc: 8 to 000000000043b700
  DW_CFA_def_cfa_offset: 48
  DW_CFA_advance_loc: 1 to 000000000043b701
  DW_CFA_def_cfa_offset: 40
  DW_CFA_advance_loc: 2 to 000000000043b703
  DW_CFA_def_cfa_offset: 32
  DW_CFA_advance_loc: 2 to 000000000043b705
  DW_CFA_def_cfa_offset: 24
  DW_CFA_advance_loc: 2 to 000000000043b707
  DW_CFA_def_cfa_offset: 16
  DW_CFA_advance_loc: 2 to 000000000043b709
  DW_CFA_def_cfa_offset: 8
  DW_CFA_advance_loc: 5 to 000000000043b70e
  DW_CFA_restore_state
  DW_CFA_advance_loc: 56 to 000000000043b746
  DW_CFA_remember_state
  DW_CFA_def_cfa_offset: 56
  DW_CFA_advance_loc: 8 to 000000000043b74e
  DW_CFA_def_cfa_offset: 48
  DW_CFA_advance_loc: 1 to 000000000043b74f
  DW_CFA_def_cfa_offset: 40
  DW_CFA_advance_loc: 2 to 000000000043b751
  DW_CFA_def_cfa_offset: 32
  DW_CFA_advance_loc: 2 to 000000000043b753
  DW_CFA_def_cfa_offset: 24
  DW_CFA_advance_loc: 2 to 000000000043b755
  DW_CFA_def_cfa_offset: 16
  DW_CFA_advance_loc: 2 to 000000000043b757
  DW_CFA_def_cfa_offset: 8
  DW_CFA_advance_loc: 5 to 000000000043b75c
  DW_CFA_restore_state
  DW_CFA_advance_loc: 46 to 000000000043b78a
  DW_CFA_remember_state
  DW_CFA_def_cfa_offset: 56
  DW_CFA_advance_loc: 8 to 000000000043b792
  DW_CFA_def_cfa_offset: 48
  DW_CFA_advance_loc: 1 to 000000000043b793
  DW_CFA_def_cfa_offset: 40
  DW_CFA_advance_loc: 2 to 000000000043b795
  DW_CFA_def_cfa_offset: 32
  DW_CFA_advance_loc: 2 to 000000000043b797
  DW_CFA_def_cfa_offset: 24
  DW_CFA_advance_loc: 2 to 000000000043b799
  DW_CFA_def_cfa_offset: 16
  DW_CFA_advance_loc: 2 to 000000000043b79b
  DW_CFA_def_cfa_offset: 8
  DW_CFA_advance_loc: 5 to 000000000043b7a0
  DW_CFA_restore_state
  DW_CFA_advance_loc: 56 to 000000000043b7d8
  DW_CFA_remember_state
  DW_CFA_def_cfa_offset: 56
  DW_CFA_advance_loc: 8 to 000000000043b7e0
  DW_CFA_def_cfa_offset: 48
  DW_CFA_advance_loc: 1 to 000000000043b7e1
  DW_CFA_def_cfa_offset: 40
  DW_CFA_advance_loc: 2 to 000000000043b7e3
  DW_CFA_def_cfa_offset: 32
  DW_CFA_advance_loc: 2 to 000000000043b7e5
  DW_CFA_def_cfa_offset: 24
  DW_CFA_advance_loc: 2 to 000000000043b7e7
  DW_CFA_def_cfa_offset: 16
  DW_CFA_advance_loc: 2 to 000000000043b7e9
  DW_CFA_def_cfa_offset: 8
  DW_CFA_advance_loc: 5 to 000000000043b7ee
  DW_CFA_restore_state
  DW_CFA_advance_loc: 46 to 000000000043b81c
  DW_CFA_remember_state
  DW_CFA_def_cfa_offset: 56
  DW_CFA_advance_loc: 8 to 000000000043b824
  DW_CFA_def_cfa_offset: 48
  DW_CFA_advance_loc: 1 to 000000000043b825
  DW_CFA_def_cfa_offset: 40
  DW_CFA_advance_loc: 2 to 000000000043b827
  DW_CFA_def_cfa_offset: 32
  DW_CFA_advance_loc: 2 to 000000000043b829
  DW_CFA_def_cfa_offset: 24
  DW_CFA_advance_loc: 2 to 000000000043b82b
  DW_CFA_def_cfa_offset: 16
  DW_CFA_advance_loc: 2 to 000000000043b82d
  DW_CFA_def_cfa_offset: 8
  DW_CFA_advance_loc: 5 to 000000000043b832
  DW_CFA_restore_state
  DW_CFA_advance_loc: 56 to 000000000043b86a
  DW_CFA_remember_state
  DW_CFA_def_cfa_offset: 56
  DW_CFA_advance_loc: 8 to 000000000043b872
  DW_CFA_def_cfa_offset: 48
  DW_CFA_advance_loc: 1 to 000000000043b873
  DW_CFA_def_cfa_offset: 40
  DW_CFA_advance_loc: 2 to 000000000043b875
  DW_CFA_def_cfa_offset: 32
  DW_CFA_advance_loc: 2 to 000000000043b877
  DW_CFA_def_cfa_offset: 24
  DW_CFA_advance_loc: 2 to 000000000043b879
  DW_CFA_def_cfa_offset: 16
  DW_CFA_advance_loc: 2 to 000000000043b87b
  DW_CFA_def_cfa_offset: 8
  DW_CFA_advance_loc: 5 to 000000000043b880
  DW_CFA_restore_state
  DW_CFA_advance_loc: 46 to 000000000043b8ae
  DW_CFA_remember_state
  DW_CFA_def_cfa_offset: 56
  DW_CFA_advance_loc: 8 to 000000000043b8b6
  DW_CFA_def_cfa_offset: 48
  DW_CFA_advance_loc: 1 to 000000000043b8b7
  DW_CFA_def_cfa_offset: 40
  DW_CFA_advance_loc: 2 to 000000000043b8b9
  DW_CFA_def_cfa_offset: 32
  DW_CFA_advance_loc: 2 to 000000000043b8bb
  DW_CFA_def_cfa_offset: 24
  DW_CFA_advance_loc: 2 to 000000000043b8bd
  DW_CFA_def_cfa_offset: 16
  DW_CFA_advance_loc: 2 to 000000000043b8bf
  DW_CFA_def_cfa_offset: 8
  DW_CFA_advance_loc: 5 to 000000000043b8c4
  DW_CFA_restore_state
  DW_CFA_advance_loc: 56 to 000000000043b8fc
  DW_CFA_remember_state
  DW_CFA_def_cfa_offset: 56
  DW_CFA_advance_loc: 8 to 000000000043b904
  DW_CFA_def_cfa_offset: 48
  DW_CFA_advance_loc: 1 to 000000000043b905
  DW_CFA_def_cfa_offset: 40
  DW_CFA_advance_loc: 2 to 000000000043b907
  DW_CFA_def_cfa_offset: 32
  DW_CFA_advance_loc: 2 to 000000000043b909
  DW_CFA_def_cfa_offset: 24
  DW_CFA_advance_loc: 2 to 000000000043b90b
  DW_CFA_def_cfa_offset: 16
  DW_CFA_advance_loc: 2 to 000000000043b90d
  DW_CFA_def_cfa_offset: 8
  DW_CFA_advance_loc: 5 to 000000000043b912
  DW_CFA_restore_state
  DW_CFA_advance_loc: 46 to 000000000043b940
  DW_CFA_remember_state
  DW_CFA_def_cfa_offset: 56
  DW_CFA_advance_loc: 8 to 000000000043b948
  DW_CFA_def_cfa_offset: 48
  DW_CFA_advance_loc: 1 to 000000000043b949
  DW_CFA_def_cfa_offset: 40
  DW_CFA_advance_loc: 2 to 000000000043b94b
  DW_CFA_def_cfa_offset: 32
  DW_CFA_advance_loc: 2 to 000000000043b94d
  DW_CFA_def_cfa_offset: 24
  DW_CFA_advance_loc: 2 to 000000000043b94f
  DW_CFA_def_cfa_offset: 16
  DW_CFA_advance_loc: 2 to 000000000043b951
  DW_CFA_def_cfa_offset: 8
  DW_CFA_advance_loc: 5 to 000000000043b956
  DW_CFA_restore_state
  DW_CFA_advance_loc: 56 to 000000000043b98e
  DW_CFA_remember_state
  DW_CFA_def_cfa_offset: 56
  DW_CFA_advance_loc: 8 to 000000000043b996
  DW_CFA_def_cfa_offset: 48
  DW_CFA_advance_loc: 1 to 000000000043b997
  DW_CFA_def_cfa_offset: 40
  DW_CFA_advance_loc: 2 to 000000000043b999
  DW_CFA_def_cfa_offset: 32
  DW_CFA_advance_loc: 2 to 000000000043b99b
  DW_CFA_def_cfa_offset: 24
  DW_CFA_advance_loc: 2 to 000000000043b99d
  DW_CFA_def_cfa_offset: 16
  DW_CFA_advance_loc: 2 to 000000000043b99f
  DW_CFA_def_cfa_offset: 8
  DW_CFA_advance_loc: 5 to 000000000043b9a4
  DW_CFA_restore_state
  DW_CFA_advance_loc: 46 to 000000000043b9d2
  DW_CFA_remember_state
  DW_CFA_def_cfa_offset: 56
  DW_CFA_advance_loc: 8 to 000000000043b9da
  DW_CFA_def_cfa_offset: 48
  DW_CFA_advance_loc: 1 to 000000000043b9db
  DW_CFA_def_cfa_offset: 40
  DW_CFA_advance_loc: 2 to 000000000043b9dd
  DW_CFA_def_cfa_offset: 32
  DW_CFA_advance_loc: 2 to 000000000043b9df
  DW_CFA_def_cfa_offset: 24
  DW_CFA_advance_loc: 2 to 000000000043b9e1
  DW_CFA_def_cfa_offset: 16
  DW_CFA_advance_loc: 2 to 000000000043b9e3
  DW_CFA_def_cfa_offset: 8
  DW_CFA_advance_loc: 5 to 000000000043b9e8
  DW_CFA_restore_state
  DW_CFA_advance_loc: 56 to 000000000043ba20
  DW_CFA_remember_state
  DW_CFA_def_cfa_offset: 56
  DW_CFA_advance_loc: 8 to 000000000043ba28
  DW_CFA_def_cfa_offset: 48
  DW_CFA_advance_loc: 1 to 000000000043ba29
  DW_CFA_def_cfa_offset: 40
  DW_CFA_advance_loc: 2 to 000000000043ba2b
  DW_CFA_def_cfa_offset: 32
  DW_CFA_advance_loc: 2 to 000000000043ba2d
  DW_CFA_def_cfa_offset: 24
  DW_CFA_advance_loc: 2 to 000000000043ba2f
  DW_CFA_def_cfa_offset: 16
  DW_CFA_advance_loc: 2 to 000000000043ba31
  DW_CFA_def_cfa_offset: 8
  DW_CFA_advance_loc: 5 to 000000000043ba36
  DW_CFA_restore_state
  DW_CFA_advance_loc: 46 to 000000000043ba64
  DW_CFA_remember_state
  DW_CFA_def_cfa_offset: 56
  DW_CFA_advance_loc: 8 to 000000000043ba6c
  DW_CFA_def_cfa_offset: 48
  DW_CFA_advance_loc: 1 to 000000000043ba6d
  DW_CFA_def_cfa_offset: 40
  DW_CFA_advance_loc: 2 to 000000000043ba6f
  DW_CFA_def_cfa_offset: 32
  DW_CFA_advance_loc: 2 to 000000000043ba71
  DW_CFA_def_cfa_offset: 24
  DW_CFA_advance_loc: 2 to 000000000043ba73
  DW_CFA_def_cfa_offset: 16
  DW_CFA_advance_loc: 2 to 000000000043ba75
  DW_CFA_def_cfa_offset: 8
  DW_CFA_advance_loc: 5 to 000000000043ba7a
  DW_CFA_restore_state
  DW_CFA_advance_loc: 56 to 000000000043bab2
  DW_CFA_remember_state
  DW_CFA_def_cfa_offset: 56
  DW_CFA_advance_loc: 8 to 000000000043baba
  DW_CFA_def_cfa_offset: 48
  DW_CFA_advance_loc: 1 to 000000000043babb
  DW_CFA_def_cfa_offset: 40
  DW_CFA_advance_loc: 2 to 000000000043babd
  DW_CFA_def_cfa_offset: 32
  DW_CFA_advance_loc: 2 to 000000000043babf
  DW_CFA_def_cfa_offset: 24
  DW_CFA_advance_loc: 2 to 000000000043bac1
  DW_CFA_def_cfa_offset: 16
  DW_CFA_advance_loc: 2 to 000000000043bac3
  DW_CFA_def_cfa_offset: 8
  DW_CFA_advance_loc: 5 to 000000000043bac8
  DW_CFA_restore_state
  DW_CFA_advance_loc: 46 to 000000000043baf6
  DW_CFA_remember_state
  DW_CFA_def_cfa_offset: 56
  DW_CFA_advance_loc: 8 to 000000000043bafe
  DW_CFA_def_cfa_offset: 48
  DW_CFA_advance_loc: 1 to 000000000043baff
  DW_CFA_def_cfa_offset: 40
  DW_CFA_advance_loc: 2 to 000000000043bb01
  DW_CFA_def_cfa_offset: 32
  DW_CFA_advance_loc: 2 to 000000000043bb03
  DW_CFA_def_cfa_offset: 24
  DW_CFA_advance_loc: 2 to 000000000043bb05
  DW_CFA_def_cfa_offset: 16
  DW_CFA_advance_loc: 2 to 000000000043bb07
  DW_CFA_def_cfa_offset: 8
  DW_CFA_advance_loc: 5 to 000000000043bb0c
  DW_CFA_restore_state
  DW_CFA_advance_loc: 56 to 000000000043bb44
  DW_CFA_remember_state
  DW_CFA_def_cfa_offset: 56
  DW_CFA_advance_loc: 8 to 000000000043bb4c
  DW_CFA_def_cfa_offset: 48
  DW_CFA_advance_loc: 1 to 000000000043bb4d
  DW_CFA_def_cfa_offset: 40
  DW_CFA_advance_loc: 2 to 000000000043bb4f
  DW_CFA_def_cfa_offset: 32
  DW_CFA_advance_loc: 2 to 000000000043bb51
  DW_CFA_def_cfa_offset: 24
  DW_CFA_advance_loc: 2 to 000000000043bb53
  DW_CFA_def_cfa_offset: 16
  DW_CFA_advance_loc: 2 to 000000000043bb55
  DW_CFA_def_cfa_offset: 8
  DW_CFA_advance_loc: 5 to 000000000043bb5a
  DW_CFA_restore_state
  DW_CFA_advance_loc: 46 to 000000000043bb88
  DW_CFA_remember_state
  DW_CFA_def_cfa_offset: 56
  DW_CFA_advance_loc: 8 to 000000000043bb90
  DW_CFA_def_cfa_offset: 48
  DW_CFA_advance_loc: 1 to 000000000043bb91
  DW_CFA_def_cfa_offset: 40
  DW_CFA_advance_loc: 2 to 000000000043bb93
  DW_CFA_def_cfa_offset: 32
  DW_CFA_advance_loc: 2 to 000000000043bb95
  DW_CFA_def_cfa_offset: 24
  DW_CFA_advance_loc: 2 to 000000000043bb97
  DW_CFA_def_cfa_offset: 16
  DW_CFA_advance_loc: 2 to 000000000043bb99
  DW_CFA_def_cfa_offset: 8
  DW_CFA_advance_loc: 5 to 000000000043bb9e
  DW_CFA_restore_state
  DW_CFA_advance_loc: 56 to 000000000043bbd6
  DW_CFA_remember_state
  DW_CFA_def_cfa_offset: 56
  DW_CFA_advance_loc: 8 to 000000000043bbde
  DW_CFA_def_cfa_offset: 48
  DW_CFA_advance_loc: 1 to 000000000043bbdf
  DW_CFA_def_cfa_offset: 40
  DW_CFA_advance_loc: 2 to 000000000043bbe1
  DW_CFA_def_cfa_offset: 32
  DW_CFA_advance_loc: 2 to 000000000043bbe3
  DW_CFA_def_cfa_offset: 24
  DW_CFA_advance_loc: 2 to 000000000043bbe5
  DW_CFA_def_cfa_offset: 16
  DW_CFA_advance_loc: 2 to 000000000043bbe7
  DW_CFA_def_cfa_offset: 8
  DW_CFA_advance_loc: 5 to 000000000043bbec
  DW_CFA_restore_state
  DW_CFA_advance_loc: 46 to 000000000043bc1a
  DW_CFA_remember_state
  DW_CFA_def_cfa_offset: 56
  DW_CFA_advance_loc: 8 to 000000000043bc22
  DW_CFA_def_cfa_offset: 48
  DW_CFA_advance_loc: 1 to 000000000043bc23
  DW_CFA_def_cfa_offset: 40
  DW_CFA_advance_loc: 2 to 000000000043bc25
  DW_CFA_def_cfa_offset: 32
  DW_CFA_advance_loc: 2 to 000000000043bc27
  DW_CFA_def_cfa_offset: 24
  DW_CFA_advance_loc: 2 to 000000000043bc29
  DW_CFA_def_cfa_offset: 16
  DW_CFA_advance_loc: 2 to 000000000043bc2b
  DW_CFA_def_cfa_offset: 8
  DW_CFA_advance_loc: 5 to 000000000043bc30
  DW_CFA_restore_state
  DW_CFA_advance_loc: 56 to 000000000043bc68
  DW_CFA_remember_state
  DW_CFA_def_cfa_offset: 56
  DW_CFA_advance_loc: 8 to 000000000043bc70
  DW_CFA_def_cfa_offset: 48
  DW_CFA_advance_loc: 1 to 000000000043bc71
  DW_CFA_def_cfa_offset: 40
  DW_CFA_advance_loc: 2 to 000000000043bc73
  DW_CFA_def_cfa_offset: 32
  DW_CFA_advance_loc: 2 to 000000000043bc75
  DW_CFA_def_cfa_offset: 24
  DW_CFA_advance_loc: 2 to 000000000043bc77
  DW_CFA_def_cfa_offset: 16
  DW_CFA_advance_loc: 2 to 000000000043bc79
  DW_CFA_def_cfa_offset: 8
  DW_CFA_advance_loc: 5 to 000000000043bc7e
  DW_CFA_restore_state
  DW_CFA_advance_loc: 46 to 000000000043bcac
  DW_CFA_remember_state
  DW_CFA_def_cfa_offset: 56
  DW_CFA_advance_loc: 8 to 000000000043bcb4
  DW_CFA_def_cfa_offset: 48
  DW_CFA_advance_loc: 1 to 000000000043bcb5
  DW_CFA_def_cfa_offset: 40
  DW_CFA_advance_loc: 2 to 000000000043bcb7
  DW_CFA_def_cfa_offset: 32
  DW_CFA_advance_loc: 2 to 000000000043bcb9
  DW_CFA_def_cfa_offset: 24
  DW_CFA_advance_loc: 2 to 000000000043bcbb
  DW_CFA_def_cfa_offset: 16
  DW_CFA_advance_loc: 2 to 000000000043bcbd
  DW_CFA_def_cfa_offset: 8
  DW_CFA_advance_loc: 5 to 000000000043bcc2
  DW_CFA_restore_state
  DW_CFA_advance_loc: 56 to 000000000043bcfa
  DW_CFA_remember_state
  DW_CFA_def_cfa_offset: 56
  DW_CFA_advance_loc: 8 to 000000000043bd02
  DW_CFA_def_cfa_offset: 48
  DW_CFA_advance_loc: 1 to 000000000043bd03
  DW_CFA_def_cfa_offset: 40
  DW_CFA_advance_loc: 2 to 000000000043bd05
  DW_CFA_def_cfa_offset: 32
  DW_CFA_advance_loc: 2 to 000000000043bd07
  DW_CFA_def_cfa_offset: 24
  DW_CFA_advance_loc: 2 to 000000000043bd09
  DW_CFA_def_cfa_offset: 16
  DW_CFA_advance_loc: 2 to 000000000043bd0b
  DW_CFA_def_cfa_offset: 8
  DW_CFA_advance_loc: 5 to 000000000043bd10
  DW_CFA_restore_state
  DW_CFA_advance_loc: 46 to 000000000043bd3e
  DW_CFA_remember_state
  DW_CFA_def_cfa_offset: 56
  DW_CFA_advance_loc: 8 to 000000000043bd46
  DW_CFA_def_cfa_offset: 48
  DW_CFA_advance_loc: 1 to 000000000043bd47
  DW_CFA_def_cfa_offset: 40
  DW_CFA_advance_loc: 2 to 000000000043bd49
  DW_CFA_def_cfa_offset: 32
  DW_CFA_advance_loc: 2 to 000000000043bd4b
  DW_CFA_def_cfa_offset: 24
  DW_CFA_advance_loc: 2 to 000000000043bd4d
  DW_CFA_def_cfa_offset: 16
  DW_CFA_advance_loc: 2 to 000000000043bd4f
  DW_CFA_def_cfa_offset: 8
  DW_CFA_advance_loc: 5 to 000000000043bd54
  DW_CFA_restore_state
  DW_CFA_advance_loc: 56 to 000000000043bd8c
  DW_CFA_remember_state
  DW_CFA_def_cfa_offset: 56
  DW_CFA_advance_loc: 8 to 000000000043bd94
  DW_CFA_def_cfa_offset: 48
  DW_CFA_advance_loc: 1 to 000000000043bd95
  DW_CFA_def_cfa_offset: 40
  DW_CFA_advance_loc: 2 to 000000000043bd97
  DW_CFA_def_cfa_offset: 32
  DW_CFA_advance_loc: 2 to 000000000043bd99
  DW_CFA_def_cfa_offset: 24
  DW_CFA_advance_loc: 2 to 000000000043bd9b
  DW_CFA_def_cfa_offset: 16
  DW_CFA_advance_loc: 2 to 000000000043bd9d
  DW_CFA_def_cfa_offset: 8
  DW_CFA_advance_loc: 5 to 000000000043bda2
  DW_CFA_restore_state
  DW_CFA_advance_loc: 46 to 000000000043bdd0
  DW_CFA_remember_state
  DW_CFA_def_cfa_offset: 56
  DW_CFA_advance_loc: 8 to 000000000043bdd8
  DW_CFA_def_cfa_offset: 48
  DW_CFA_advance_loc: 1 to 000000000043bdd9
  DW_CFA_def_cfa_offset: 40
  DW_CFA_advance_loc: 2 to 000000000043bddb
  DW_CFA_def_cfa_offset: 32
  DW_CFA_advance_loc: 2 to 000000000043bddd
  DW_CFA_def_cfa_offset: 24
  DW_CFA_advance_loc: 2 to 000000000043bddf
  DW_CFA_def_cfa_offset: 16
  DW_CFA_advance_loc: 2 to 000000000043bde1
  DW_CFA_def_cfa_offset: 8
  DW_CFA_advance_loc: 5 to 000000000043bde6
  DW_CFA_restore_state
  DW_CFA_advance_loc: 56 to 000000000043be1e
  DW_CFA_remember_state
  DW_CFA_def_cfa_offset: 56
  DW_CFA_advance_loc: 8 to 000000000043be26
  DW_CFA_def_cfa_offset: 48
  DW_CFA_advance_loc: 1 to 000000000043be27
  DW_CFA_def_cfa_offset: 40
  DW_CFA_advance_loc: 2 to 000000000043be29
  DW_CFA_def_cfa_offset: 32
  DW_CFA_advance_loc: 2 to 000000000043be2b
  DW_CFA_def_cfa_offset: 24
  DW_CFA_advance_loc: 2 to 000000000043be2d
  DW_CFA_def_cfa_offset: 16
  DW_CFA_advance_loc: 2 to 000000000043be2f
  DW_CFA_def_cfa_offset: 8
  DW_CFA_advance_loc: 5 to 000000000043be34
  DW_CFA_restore_state
  DW_CFA_advance_loc: 46 to 000000000043be62
  DW_CFA_remember_state
  DW_CFA_def_cfa_offset: 56
  DW_CFA_advance_loc: 8 to 000000000043be6a
  DW_CFA_def_cfa_offset: 48
  DW_CFA_advance_loc: 1 to 000000000043be6b
  DW_CFA_def_cfa_offset: 40
  DW_CFA_advance_loc: 2 to 000000000043be6d
  DW_CFA_def_cfa_offset: 32
  DW_CFA_advance_loc: 2 to 000000000043be6f
  DW_CFA_def_cfa_offset: 24
  DW_CFA_advance_loc: 2 to 000000000043be71
  DW_CFA_def_cfa_offset: 16
  DW_CFA_advance_loc: 2 to 000000000043be73
  DW_CFA_def_cfa_offset: 8
  DW_CFA_advance_loc: 5 to 000000000043be78
  DW_CFA_restore_state
  DW_CFA_advance_loc: 56 to 000000000043beb0
  DW_CFA_remember_state
  DW_CFA_def_cfa_offset: 56
  DW_CFA_advance_loc: 8 to 000000000043beb8
  DW_CFA_def_cfa_offset: 48
  DW_CFA_advance_loc: 1 to 000000000043beb9
  DW_CFA_def_cfa_offset: 40
  DW_CFA_advance_loc: 2 to 000000000043bebb
  DW_CFA_def_cfa_offset: 32
  DW_CFA_advance_loc: 2 to 000000000043bebd
  DW_CFA_def_cfa_offset: 24
  DW_CFA_advance_loc: 2 to 000000000043bebf
  DW_CFA_def_cfa_offset: 16
  DW_CFA_advance_loc: 2 to 000000000043bec1
  DW_CFA_def_cfa_offset: 8
  DW_CFA_advance_loc: 5 to 000000000043bec6
  DW_CFA_restore_state
  DW_CFA_advance_loc: 46 to 000000000043bef4
  DW_CFA_remember_state
  DW_CFA_def_cfa_offset: 56
  DW_CFA_advance_loc: 8 to 000000000043befc
  DW_CFA_def_cfa_offset: 48
  DW_CFA_advance_loc: 1 to 000000000043befd
  DW_CFA_def_cfa_offset: 40
  DW_CFA_advance_loc: 2 to 000000000043beff
  DW_CFA_def_cfa_offset: 32
  DW_CFA_advance_loc: 2 to 000000000043bf01
  DW_CFA_def_cfa_offset: 24
  DW_CFA_advance_loc: 2 to 000000000043bf03
  DW_CFA_def_cfa_offset: 16
  DW_CFA_advance_loc: 2 to 000000000043bf05
  DW_CFA_def_cfa_offset: 8
  DW_CFA_advance_loc: 5 to 000000000043bf0a
  DW_CFA_restore_state
  DW_CFA_advance_loc: 56 to 000000000043bf42
  DW_CFA_remember_state
  DW_CFA_def_cfa_offset: 56
  DW_CFA_advance_loc: 8 to 000000000043bf4a
  DW_CFA_def_cfa_offset: 48
  DW_CFA_advance_loc: 1 to 000000000043bf4b
  DW_CFA_def_cfa_offset: 40
  DW_CFA_advance_loc: 2 to 000000000043bf4d
  DW_CFA_def_cfa_offset: 32
  DW_CFA_advance_loc: 2 to 000000000043bf4f
  DW_CFA_def_cfa_offset: 24
  DW_CFA_advance_loc: 2 to 000000000043bf51
  DW_CFA_def_cfa_offset: 16
  DW_CFA_advance_loc: 2 to 000000000043bf53
  DW_CFA_def_cfa_offset: 8
  DW_CFA_advance_loc: 5 to 000000000043bf58
  DW_CFA_restore_state
  DW_CFA_advance_loc: 46 to 000000000043bf86
  DW_CFA_remember_state
  DW_CFA_def_cfa_offset: 56
  DW_CFA_advance_loc: 8 to 000000000043bf8e
  DW_CFA_def_cfa_offset: 48
  DW_CFA_advance_loc: 1 to 000000000043bf8f
  DW_CFA_def_cfa_offset: 40
  DW_CFA_advance_loc: 2 to 000000000043bf91
  DW_CFA_def_cfa_offset: 32
  DW_CFA_advance_loc: 2 to 000000000043bf93
  DW_CFA_def_cfa_offset: 24
  DW_CFA_advance_loc: 2 to 000000000043bf95
  DW_CFA_def_cfa_offset: 16
  DW_CFA_advance_loc: 2 to 000000000043bf97
  DW_CFA_def_cfa_offset: 8
  DW_CFA_advance_loc: 5 to 000000000043bf9c
  DW_CFA_restore_state
  DW_CFA_advance_loc: 56 to 000000000043bfd4
  DW_CFA_remember_state
  DW_CFA_def_cfa_offset: 56
  DW_CFA_advance_loc: 8 to 000000000043bfdc
  DW_CFA_def_cfa_offset: 48
  DW_CFA_advance_loc: 1 to 000000000043bfdd
  DW_CFA_def_cfa_offset: 40
  DW_CFA_advance_loc: 2 to 000000000043bfdf
  DW_CFA_def_cfa_offset: 32
  DW_CFA_advance_loc: 2 to 000000000043bfe1
  DW_CFA_def_cfa_offset: 24
  DW_CFA_advance_loc: 2 to 000000000043bfe3
  DW_CFA_def_cfa_offset: 16
  DW_CFA_advance_loc: 2 to 000000000043bfe5
  DW_CFA_def_cfa_offset: 8
  DW_CFA_advance_loc: 5 to 000000000043bfea
  DW_CFA_restore_state
  DW_CFA_advance_loc: 46 to 000000000043c018
  DW_CFA_remember_state
  DW_CFA_def_cfa_offset: 56
  DW_CFA_advance_loc: 8 to 000000000043c020
  DW_CFA_def_cfa_offset: 48
  DW_CFA_advance_loc: 1 to 000000000043c021
  DW_CFA_def_cfa_offset: 40
  DW_CFA_advance_loc: 2 to 000000000043c023
  DW_CFA_def_cfa_offset: 32
  DW_CFA_advance_loc: 2 to 000000000043c025
  DW_CFA_def_cfa_offset: 24
  DW_CFA_advance_loc: 2 to 000000000043c027
  DW_CFA_def_cfa_offset: 16
  DW_CFA_advance_loc: 2 to 000000000043c029
  DW_CFA_def_cfa_offset: 8
  DW_CFA_advance_loc: 5 to 000000000043c02e
  DW_CFA_restore_state
  DW_CFA_advance_loc: 56 to 000000000043c066
  DW_CFA_remember_state
  DW_CFA_def_cfa_offset: 56
  DW_CFA_advance_loc: 8 to 000000000043c06e
  DW_CFA_def_cfa_offset: 48
  DW_CFA_advance_loc: 1 to 000000000043c06f
  DW_CFA_def_cfa_offset: 40
  DW_CFA_advance_loc: 2 to 000000000043c071
  DW_CFA_def_cfa_offset: 32
  DW_CFA_advance_loc: 2 to 000000000043c073
  DW_CFA_def_cfa_offset: 24
  DW_CFA_advance_loc: 2 to 000000000043c075
  DW_CFA_def_cfa_offset: 16
  DW_CFA_advance_loc: 2 to 000000000043c077
  DW_CFA_def_cfa_offset: 8
  DW_CFA_advance_loc: 5 to 000000000043c07c
  DW_CFA_restore_state
  DW_CFA_advance_loc1: 112 to 000000000043c0ec
  DW_CFA_remember_state
  DW_CFA_def_cfa_offset: 56
  DW_CFA_advance_loc: 8 to 000000000043c0f4
  DW_CFA_def_cfa_offset: 48
  DW_CFA_advance_loc: 1 to 000000000043c0f5
  DW_CFA_def_cfa_offset: 40
  DW_CFA_advance_loc: 2 to 000000000043c0f7
  DW_CFA_def_cfa_offset: 32
  DW_CFA_advance_loc: 2 to 000000000043c0f9
  DW_CFA_def_cfa_offset: 24
  DW_CFA_advance_loc: 2 to 000000000043c0fb
  DW_CFA_def_cfa_offset: 16
  DW_CFA_advance_loc: 2 to 000000000043c0fd
  DW_CFA_def_cfa_offset: 8
  DW_CFA_advance_loc: 5 to 000000000043c102
  DW_CFA_restore_state
  DW_CFA_advance_loc: 46 to 000000000043c130
  DW_CFA_remember_state
  DW_CFA_def_cfa_offset: 56
  DW_CFA_advance_loc: 8 to 000000000043c138
  DW_CFA_def_cfa_offset: 48
  DW_CFA_advance_loc: 1 to 000000000043c139
  DW_CFA_def_cfa_offset: 40
  DW_CFA_advance_loc: 2 to 000000000043c13b
  DW_CFA_def_cfa_offset: 32
  DW_CFA_advance_loc: 2 to 000000000043c13d
  DW_CFA_def_cfa_offset: 24
  DW_CFA_advance_loc: 2 to 000000000043c13f
  DW_CFA_def_cfa_offset: 16
  DW_CFA_advance_loc: 2 to 000000000043c141
  DW_CFA_def_cfa_offset: 8
  DW_CFA_advance_loc: 5 to 000000000043c146
  DW_CFA_restore_state
  DW_CFA_advance_loc: 56 to 000000000043c17e
  DW_CFA_remember_state
  DW_CFA_def_cfa_offset: 56
  DW_CFA_advance_loc: 8 to 000000000043c186
  DW_CFA_def_cfa_offset: 48
  DW_CFA_advance_loc: 1 to 000000000043c187
  DW_CFA_def_cfa_offset: 40
  DW_CFA_advance_loc: 2 to 000000000043c189
  DW_CFA_def_cfa_offset: 32
  DW_CFA_advance_loc: 2 to 000000000043c18b
  DW_CFA_def_cfa_offset: 24
  DW_CFA_advance_loc: 2 to 000000000043c18d
  DW_CFA_def_cfa_offset: 16
  DW_CFA_advance_loc: 2 to 000000000043c18f
  DW_CFA_def_cfa_offset: 8
  DW_CFA_advance_loc: 5 to 000000000043c194
  DW_CFA_restore_state
  DW_CFA_advance_loc: 46 to 000000000043c1c2
  DW_CFA_remember_state
  DW_CFA_def_cfa_offset: 56
  DW_CFA_advance_loc: 8 to 000000000043c1ca
  DW_CFA_def_cfa_offset: 48
  DW_CFA_advance_loc: 1 to 000000000043c1cb
  DW_CFA_def_cfa_offset: 40
  DW_CFA_advance_loc: 2 to 000000000043c1cd
  DW_CFA_def_cfa_offset: 32
  DW_CFA_advance_loc: 2 to 000000000043c1cf
  DW_CFA_def_cfa_offset: 24
  DW_CFA_advance_loc: 2 to 000000000043c1d1
  DW_CFA_def_cfa_offset: 16
  DW_CFA_advance_loc: 2 to 000000000043c1d3
  DW_CFA_def_cfa_offset: 8
  DW_CFA_advance_loc: 5 to 000000000043c1d8
  DW_CFA_restore_state
  DW_CFA_advance_loc: 56 to 000000000043c210
  DW_CFA_remember_state
  DW_CFA_def_cfa_offset: 56
  DW_CFA_advance_loc: 8 to 000000000043c218
  DW_CFA_def_cfa_offset: 48
  DW_CFA_advance_loc: 1 to 000000000043c219
  DW_CFA_def_cfa_offset: 40
  DW_CFA_advance_loc: 2 to 000000000043c21b
  DW_CFA_def_cfa_offset: 32
  DW_CFA_advance_loc: 2 to 000000000043c21d
  DW_CFA_def_cfa_offset: 24
  DW_CFA_advance_loc: 2 to 000000000043c21f
  DW_CFA_def_cfa_offset: 16
  DW_CFA_advance_loc: 2 to 000000000043c221
  DW_CFA_def_cfa_offset: 8
  DW_CFA_advance_loc: 5 to 000000000043c226
  DW_CFA_restore_state
  DW_CFA_advance_loc: 46 to 000000000043c254
  DW_CFA_remember_state
  DW_CFA_def_cfa_offset: 56
  DW_CFA_advance_loc: 8 to 000000000043c25c
  DW_CFA_def_cfa_offset: 48
  DW_CFA_advance_loc: 1 to 000000000043c25d
  DW_CFA_def_cfa_offset: 40
  DW_CFA_advance_loc: 2 to 000000000043c25f
  DW_CFA_def_cfa_offset: 32
  DW_CFA_advance_loc: 2 to 000000000043c261
  DW_CFA_def_cfa_offset: 24
  DW_CFA_advance_loc: 2 to 000000000043c263
  DW_CFA_def_cfa_offset: 16
  DW_CFA_advance_loc: 2 to 000000000043c265
  DW_CFA_def_cfa_offset: 8
  DW_CFA_advance_loc: 5 to 000000000043c26a
  DW_CFA_restore_state
  DW_CFA_advance_loc: 56 to 000000000043c2a2
  DW_CFA_remember_state
  DW_CFA_def_cfa_offset: 56
  DW_CFA_advance_loc: 8 to 000000000043c2aa
  DW_CFA_def_cfa_offset: 48
  DW_CFA_advance_loc: 1 to 000000000043c2ab
  DW_CFA_def_cfa_offset: 40
  DW_CFA_advance_loc: 2 to 000000000043c2ad
  DW_CFA_def_cfa_offset: 32
  DW_CFA_advance_loc: 2 to 000000000043c2af
  DW_CFA_def_cfa_offset: 24
  DW_CFA_advance_loc: 2 to 000000000043c2b1
  DW_CFA_def_cfa_offset: 16
  DW_CFA_advance_loc: 2 to 000000000043c2b3
  DW_CFA_def_cfa_offset: 8
  DW_CFA_advance_loc: 5 to 000000000043c2b8
  DW_CFA_restore_state
  DW_CFA_advance_loc: 46 to 000000000043c2e6
  DW_CFA_remember_state
  DW_CFA_def_cfa_offset: 56
  DW_CFA_advance_loc: 8 to 000000000043c2ee
  DW_CFA_def_cfa_offset: 48
  DW_CFA_advance_loc: 1 to 000000000043c2ef
  DW_CFA_def_cfa_offset: 40
  DW_CFA_advance_loc: 2 to 000000000043c2f1
  DW_CFA_def_cfa_offset: 32
  DW_CFA_advance_loc: 2 to 000000000043c2f3
  DW_CFA_def_cfa_offset: 24
  DW_CFA_advance_loc: 2 to 000000000043c2f5
  DW_CFA_def_cfa_offset: 16
  DW_CFA_advance_loc: 2 to 000000000043c2f7
  DW_CFA_def_cfa_offset: 8
  DW_CFA_advance_loc: 5 to 000000000043c2fc
  DW_CFA_restore_state
  DW_CFA_advance_loc: 56 to 000000000043c334
  DW_CFA_remember_state
  DW_CFA_def_cfa_offset: 56
  DW_CFA_advance_loc: 8 to 000000000043c33c
  DW_CFA_def_cfa_offset: 48
  DW_CFA_advance_loc: 1 to 000000000043c33d
  DW_CFA_def_cfa_offset: 40
  DW_CFA_advance_loc: 2 to 000000000043c33f
  DW_CFA_def_cfa_offset: 32
  DW_CFA_advance_loc: 2 to 000000000043c341
  DW_CFA_def_cfa_offset: 24
  DW_CFA_advance_loc: 2 to 000000000043c343
  DW_CFA_def_cfa_offset: 16
  DW_CFA_advance_loc: 2 to 000000000043c345
  DW_CFA_def_cfa_offset: 8
  DW_CFA_advance_loc: 5 to 000000000043c34a
  DW_CFA_restore_state
  DW_CFA_advance_loc: 46 to 000000000043c378
  DW_CFA_remember_state
  DW_CFA_def_cfa_offset: 56
  DW_CFA_advance_loc: 8 to 000000000043c380
  DW_CFA_def_cfa_offset: 48
  DW_CFA_advance_loc: 1 to 000000000043c381
  DW_CFA_def_cfa_offset: 40
  DW_CFA_advance_loc: 2 to 000000000043c383
  DW_CFA_def_cfa_offset: 32
  DW_CFA_advance_loc: 2 to 000000000043c385
  DW_CFA_def_cfa_offset: 24
  DW_CFA_advance_loc: 2 to 000000000043c387
  DW_CFA_def_cfa_offset: 16
  DW_CFA_advance_loc: 2 to 000000000043c389
  DW_CFA_def_cfa_offset: 8
  DW_CFA_advance_loc: 5 to 000000000043c38e
  DW_CFA_restore_state
  DW_CFA_advance_loc: 56 to 000000000043c3c6
  DW_CFA_remember_state
  DW_CFA_def_cfa_offset: 56
  DW_CFA_advance_loc: 8 to 000000000043c3ce
  DW_CFA_def_cfa_offset: 48
  DW_CFA_advance_loc: 1 to 000000000043c3cf
  DW_CFA_def_cfa_offset: 40
  DW_CFA_advance_loc: 2 to 000000000043c3d1
  DW_CFA_def_cfa_offset: 32
  DW_CFA_advance_loc: 2 to 000000000043c3d3
  DW_CFA_def_cfa_offset: 24
  DW_CFA_advance_loc: 2 to 000000000043c3d5
  DW_CFA_def_cfa_offset: 16
  DW_CFA_advance_loc: 2 to 000000000043c3d7
  DW_CFA_def_cfa_offset: 8
  DW_CFA_advance_loc: 5 to 000000000043c3dc
  DW_CFA_restore_state
  DW_CFA_advance_loc: 46 to 000000000043c40a
  DW_CFA_remember_state
  DW_CFA_def_cfa_offset: 56
  DW_CFA_advance_loc: 8 to 000000000043c412
  DW_CFA_def_cfa_offset: 48
  DW_CFA_advance_loc: 1 to 000000000043c413
  DW_CFA_def_cfa_offset: 40
  DW_CFA_advance_loc: 2 to 000000000043c415
  DW_CFA_def_cfa_offset: 32
  DW_CFA_advance_loc: 2 to 000000000043c417
  DW_CFA_def_cfa_offset: 24
  DW_CFA_advance_loc: 2 to 000000000043c419
  DW_CFA_def_cfa_offset: 16
  DW_CFA_advance_loc: 2 to 000000000043c41b
  DW_CFA_def_cfa_offset: 8
  DW_CFA_advance_loc: 5 to 000000000043c420
  DW_CFA_restore_state
  DW_CFA_advance_loc: 56 to 000000000043c458
  DW_CFA_remember_state
  DW_CFA_def_cfa_offset: 56
  DW_CFA_advance_loc: 8 to 000000000043c460
  DW_CFA_def_cfa_offset: 48
  DW_CFA_advance_loc: 1 to 000000000043c461
  DW_CFA_def_cfa_offset: 40
  DW_CFA_advance_loc: 2 to 000000000043c463
  DW_CFA_def_cfa_offset: 32
  DW_CFA_advance_loc: 2 to 000000000043c465
  DW_CFA_def_cfa_offset: 24
  DW_CFA_advance_loc: 2 to 000000000043c467
  DW_CFA_def_cfa_offset: 16
  DW_CFA_advance_loc: 2 to 000000000043c469
  DW_CFA_def_cfa_offset: 8
  DW_CFA_advance_loc: 5 to 000000000043c46e
  DW_CFA_restore_state
  DW_CFA_advance_loc: 46 to 000000000043c49c
  DW_CFA_remember_state
  DW_CFA_def_cfa_offset: 56
  DW_CFA_advance_loc: 8 to 000000000043c4a4
  DW_CFA_def_cfa_offset: 48
  DW_CFA_advance_loc: 1 to 000000000043c4a5
  DW_CFA_def_cfa_offset: 40
  DW_CFA_advance_loc: 2 to 000000000043c4a7
  DW_CFA_def_cfa_offset: 32
  DW_CFA_advance_loc: 2 to 000000000043c4a9
  DW_CFA_def_cfa_offset: 24
  DW_CFA_advance_loc: 2 to 000000000043c4ab
  DW_CFA_def_cfa_offset: 16
  DW_CFA_advance_loc: 2 to 000000000043c4ad
  DW_CFA_def_cfa_offset: 8
  DW_CFA_advance_loc: 5 to 000000000043c4b2
  DW_CFA_restore_state
  DW_CFA_advance_loc: 56 to 000000000043c4ea
  DW_CFA_remember_state
  DW_CFA_def_cfa_offset: 56
  DW_CFA_advance_loc: 8 to 000000000043c4f2
  DW_CFA_def_cfa_offset: 48
  DW_CFA_advance_loc: 1 to 000000000043c4f3
  DW_CFA_def_cfa_offset: 40
  DW_CFA_advance_loc: 2 to 000000000043c4f5
  DW_CFA_def_cfa_offset: 32
  DW_CFA_advance_loc: 2 to 000000000043c4f7
  DW_CFA_def_cfa_offset: 24
  DW_CFA_advance_loc: 2 to 000000000043c4f9
  DW_CFA_def_cfa_offset: 16
  DW_CFA_advance_loc: 2 to 000000000043c4fb
  DW_CFA_def_cfa_offset: 8
  DW_CFA_advance_loc: 5 to 000000000043c500
  DW_CFA_restore_state
  DW_CFA_advance_loc: 46 to 000000000043c52e
  DW_CFA_remember_state
  DW_CFA_def_cfa_offset: 56
  DW_CFA_advance_loc: 8 to 000000000043c536
  DW_CFA_def_cfa_offset: 48
  DW_CFA_advance_loc: 1 to 000000000043c537
  DW_CFA_def_cfa_offset: 40
  DW_CFA_advance_loc: 2 to 000000000043c539
  DW_CFA_def_cfa_offset: 32
  DW_CFA_advance_loc: 2 to 000000000043c53b
  DW_CFA_def_cfa_offset: 24
  DW_CFA_advance_loc: 2 to 000000000043c53d
  DW_CFA_def_cfa_offset: 16
  DW_CFA_advance_loc: 2 to 000000000043c53f
  DW_CFA_def_cfa_offset: 8
  DW_CFA_advance_loc: 5 to 000000000043c544
  DW_CFA_restore_state
  DW_CFA_advance_loc: 56 to 000000000043c57c
  DW_CFA_remember_state
  DW_CFA_def_cfa_offset: 56
  DW_CFA_advance_loc: 8 to 000000000043c584
  DW_CFA_def_cfa_offset: 48
  DW_CFA_advance_loc: 1 to 000000000043c585
  DW_CFA_def_cfa_offset: 40
  DW_CFA_advance_loc: 2 to 000000000043c587
  DW_CFA_def_cfa_offset: 32
  DW_CFA_advance_loc: 2 to 000000000043c589
  DW_CFA_def_cfa_offset: 24
  DW_CFA_advance_loc: 2 to 000000000043c58b
  DW_CFA_def_cfa_offset: 16
  DW_CFA_advance_loc: 2 to 000000000043c58d
  DW_CFA_def_cfa_offset: 8
  DW_CFA_advance_loc: 5 to 000000000043c592
  DW_CFA_restore_state
  DW_CFA_advance_loc: 46 to 000000000043c5c0
  DW_CFA_remember_state
  DW_CFA_def_cfa_offset: 56
  DW_CFA_advance_loc: 8 to 000000000043c5c8
  DW_CFA_def_cfa_offset: 48
  DW_CFA_advance_loc: 1 to 000000000043c5c9
  DW_CFA_def_cfa_offset: 40
  DW_CFA_advance_loc: 2 to 000000000043c5cb
  DW_CFA_def_cfa_offset: 32
  DW_CFA_advance_loc: 2 to 000000000043c5cd
  DW_CFA_def_cfa_offset: 24
  DW_CFA_advance_loc: 2 to 000000000043c5cf
  DW_CFA_def_cfa_offset: 16
  DW_CFA_advance_loc: 2 to 000000000043c5d1
  DW_CFA_def_cfa_offset: 8
  DW_CFA_advance_loc: 5 to 000000000043c5d6
  DW_CFA_restore_state
  DW_CFA_advance_loc: 56 to 000000000043c60e
  DW_CFA_remember_state
  DW_CFA_def_cfa_offset: 56
  DW_CFA_advance_loc: 8 to 000000000043c616
  DW_CFA_def_cfa_offset: 48
  DW_CFA_advance_loc: 1 to 000000000043c617
  DW_CFA_def_cfa_offset: 40
  DW_CFA_advance_loc: 2 to 000000000043c619
  DW_CFA_def_cfa_offset: 32
  DW_CFA_advance_loc: 2 to 000000000043c61b
  DW_CFA_def_cfa_offset: 24
  DW_CFA_advance_loc: 2 to 000000000043c61d
  DW_CFA_def_cfa_offset: 16
  DW_CFA_advance_loc: 2 to 000000000043c61f
  DW_CFA_def_cfa_offset: 8
  DW_CFA_advance_loc: 5 to 000000000043c624
  DW_CFA_restore_state
  DW_CFA_advance_loc: 46 to 000000000043c652
  DW_CFA_remember_state
  DW_CFA_def_cfa_offset: 56
  DW_CFA_advance_loc: 8 to 000000000043c65a
  DW_CFA_def_cfa_offset: 48
  DW_CFA_advance_loc: 1 to 000000000043c65b
  DW_CFA_def_cfa_offset: 40
  DW_CFA_advance_loc: 2 to 000000000043c65d
  DW_CFA_def_cfa_offset: 32
  DW_CFA_advance_loc: 2 to 000000000043c65f
  DW_CFA_def_cfa_offset: 24
  DW_CFA_advance_loc: 2 to 000000000043c661
  DW_CFA_def_cfa_offset: 16
  DW_CFA_advance_loc: 2 to 000000000043c663
  DW_CFA_def_cfa_offset: 8
  DW_CFA_advance_loc: 5 to 000000000043c668
  DW_CFA_restore_state
  DW_CFA_advance_loc: 56 to 000000000043c6a0
  DW_CFA_remember_state
  DW_CFA_def_cfa_offset: 56
  DW_CFA_advance_loc: 8 to 000000000043c6a8
  DW_CFA_def_cfa_offset: 48
  DW_CFA_advance_loc: 1 to 000000000043c6a9
  DW_CFA_def_cfa_offset: 40
  DW_CFA_advance_loc: 2 to 000000000043c6ab
  DW_CFA_def_cfa_offset: 32
  DW_CFA_advance_loc: 2 to 000000000043c6ad
  DW_CFA_def_cfa_offset: 24
  DW_CFA_advance_loc: 2 to 000000000043c6af
  DW_CFA_def_cfa_offset: 16
  DW_CFA_advance_loc: 2 to 000000000043c6b1
  DW_CFA_def_cfa_offset: 8
  DW_CFA_advance_loc: 5 to 000000000043c6b6
  DW_CFA_restore_state
  DW_CFA_advance_loc: 46 to 000000000043c6e4
  DW_CFA_remember_state
  DW_CFA_def_cfa_offset: 56
  DW_CFA_advance_loc: 8 to 000000000043c6ec
  DW_CFA_def_cfa_offset: 48
  DW_CFA_advance_loc: 1 to 000000000043c6ed
  DW_CFA_def_cfa_offset: 40
  DW_CFA_advance_loc: 2 to 000000000043c6ef
  DW_CFA_def_cfa_offset: 32
  DW_CFA_advance_loc: 2 to 000000000043c6f1
  DW_CFA_def_cfa_offset: 24
  DW_CFA_advance_loc: 2 to 000000000043c6f3
  DW_CFA_def_cfa_offset: 16
  DW_CFA_advance_loc: 2 to 000000000043c6f5
  DW_CFA_def_cfa_offset: 8
  DW_CFA_advance_loc: 5 to 000000000043c6fa
  DW_CFA_restore_state
  DW_CFA_advance_loc: 56 to 000000000043c732
  DW_CFA_remember_state
  DW_CFA_def_cfa_offset: 56
  DW_CFA_advance_loc: 8 to 000000000043c73a
  DW_CFA_def_cfa_offset: 48
  DW_CFA_advance_loc: 1 to 000000000043c73b
  DW_CFA_def_cfa_offset: 40
  DW_CFA_advance_loc: 2 to 000000000043c73d
  DW_CFA_def_cfa_offset: 32
  DW_CFA_advance_loc: 2 to 000000000043c73f
  DW_CFA_def_cfa_offset: 24
  DW_CFA_advance_loc: 2 to 000000000043c741
  DW_CFA_def_cfa_offset: 16
  DW_CFA_advance_loc: 2 to 000000000043c743
  DW_CFA_def_cfa_offset: 8
  DW_CFA_advance_loc: 5 to 000000000043c748
  DW_CFA_restore_state
  DW_CFA_advance_loc: 46 to 000000000043c776
  DW_CFA_remember_state
  DW_CFA_def_cfa_offset: 56
  DW_CFA_advance_loc: 8 to 000000000043c77e
  DW_CFA_def_cfa_offset: 48
  DW_CFA_advance_loc: 1 to 000000000043c77f
  DW_CFA_def_cfa_offset: 40
  DW_CFA_advance_loc: 2 to 000000000043c781
  DW_CFA_def_cfa_offset: 32
  DW_CFA_advance_loc: 2 to 000000000043c783
  DW_CFA_def_cfa_offset: 24
  DW_CFA_advance_loc: 2 to 000000000043c785
  DW_CFA_def_cfa_offset: 16
  DW_CFA_advance_loc: 2 to 000000000043c787
  DW_CFA_def_cfa_offset: 8
  DW_CFA_advance_loc: 5 to 000000000043c78c
  DW_CFA_restore_state
  DW_CFA_advance_loc: 56 to 000000000043c7c4
  DW_CFA_remember_state
  DW_CFA_def_cfa_offset: 56
  DW_CFA_advance_loc: 8 to 000000000043c7cc
  DW_CFA_def_cfa_offset: 48
  DW_CFA_advance_loc: 1 to 000000000043c7cd
  DW_CFA_def_cfa_offset: 40
  DW_CFA_advance_loc: 2 to 000000000043c7cf
  DW_CFA_def_cfa_offset: 32
  DW_CFA_advance_loc: 2 to 000000000043c7d1
  DW_CFA_def_cfa_offset: 24
  DW_CFA_advance_loc: 2 to 000000000043c7d3
  DW_CFA_def_cfa_offset: 16
  DW_CFA_advance_loc: 2 to 000000000043c7d5
  DW_CFA_def_cfa_offset: 8
  DW_CFA_advance_loc: 5 to 000000000043c7da
  DW_CFA_restore_state
  DW_CFA_advance_loc: 46 to 000000000043c808
  DW_CFA_remember_state
  DW_CFA_def_cfa_offset: 56
  DW_CFA_advance_loc: 8 to 000000000043c810
  DW_CFA_def_cfa_offset: 48
  DW_CFA_advance_loc: 1 to 000000000043c811
  DW_CFA_def_cfa_offset: 40
  DW_CFA_advance_loc: 2 to 000000000043c813
  DW_CFA_def_cfa_offset: 32
  DW_CFA_advance_loc: 2 to 000000000043c815
  DW_CFA_def_cfa_offset: 24
  DW_CFA_advance_loc: 2 to 000000000043c817
  DW_CFA_def_cfa_offset: 16
  DW_CFA_advance_loc: 2 to 000000000043c819
  DW_CFA_def_cfa_offset: 8
  DW_CFA_advance_loc: 5 to 000000000043c81e
  DW_CFA_restore_state
  DW_CFA_advance_loc: 56 to 000000000043c856
  DW_CFA_remember_state
  DW_CFA_def_cfa_offset: 56
  DW_CFA_advance_loc: 8 to 000000000043c85e
  DW_CFA_def_cfa_offset: 48
  DW_CFA_advance_loc: 1 to 000000000043c85f
  DW_CFA_def_cfa_offset: 40
  DW_CFA_advance_loc: 2 to 000000000043c861
  DW_CFA_def_cfa_offset: 32
  DW_CFA_advance_loc: 2 to 000000000043c863
  DW_CFA_def_cfa_offset: 24
  DW_CFA_advance_loc: 2 to 000000000043c865
  DW_CFA_def_cfa_offset: 16
  DW_CFA_advance_loc: 2 to 000000000043c867
  DW_CFA_def_cfa_offset: 8
  DW_CFA_advance_loc: 5 to 000000000043c86c
  DW_CFA_restore_state
  DW_CFA_advance_loc: 46 to 000000000043c89a
  DW_CFA_remember_state
  DW_CFA_def_cfa_offset: 56
  DW_CFA_advance_loc: 8 to 000000000043c8a2
  DW_CFA_def_cfa_offset: 48
  DW_CFA_advance_loc: 1 to 000000000043c8a3
  DW_CFA_def_cfa_offset: 40
  DW_CFA_advance_loc: 2 to 000000000043c8a5
  DW_CFA_def_cfa_offset: 32
  DW_CFA_advance_loc: 2 to 000000000043c8a7
  DW_CFA_def_cfa_offset: 24
  DW_CFA_advance_loc: 2 to 000000000043c8a9
  DW_CFA_def_cfa_offset: 16
  DW_CFA_advance_loc: 2 to 000000000043c8ab
  DW_CFA_def_cfa_offset: 8
  DW_CFA_advance_loc: 5 to 000000000043c8b0
  DW_CFA_restore_state
  DW_CFA_advance_loc: 56 to 000000000043c8e8
  DW_CFA_remember_state
  DW_CFA_def_cfa_offset: 56
  DW_CFA_advance_loc: 8 to 000000000043c8f0
  DW_CFA_def_cfa_offset: 48
  DW_CFA_advance_loc: 1 to 000000000043c8f1
  DW_CFA_def_cfa_offset: 40
  DW_CFA_advance_loc: 2 to 000000000043c8f3
  DW_CFA_def_cfa_offset: 32
  DW_CFA_advance_loc: 2 to 000000000043c8f5
  DW_CFA_def_cfa_offset: 24
  DW_CFA_advance_loc: 2 to 000000000043c8f7
  DW_CFA_def_cfa_offset: 16
  DW_CFA_advance_loc: 2 to 000000000043c8f9
  DW_CFA_def_cfa_offset: 8
  DW_CFA_advance_loc: 5 to 000000000043c8fe
  DW_CFA_restore_state
  DW_CFA_advance_loc: 46 to 000000000043c92c
  DW_CFA_remember_state
  DW_CFA_def_cfa_offset: 56
  DW_CFA_advance_loc: 8 to 000000000043c934
  DW_CFA_def_cfa_offset: 48
  DW_CFA_advance_loc: 1 to 000000000043c935
  DW_CFA_def_cfa_offset: 40
  DW_CFA_advance_loc: 2 to 000000000043c937
  DW_CFA_def_cfa_offset: 32
  DW_CFA_advance_loc: 2 to 000000000043c939
  DW_CFA_def_cfa_offset: 24
  DW_CFA_advance_loc: 2 to 000000000043c93b
  DW_CFA_def_cfa_offset: 16
  DW_CFA_advance_loc: 2 to 000000000043c93d
  DW_CFA_def_cfa_offset: 8
  DW_CFA_advance_loc: 5 to 000000000043c942
  DW_CFA_restore_state
  DW_CFA_advance_loc: 56 to 000000000043c97a
  DW_CFA_remember_state
  DW_CFA_def_cfa_offset: 56
  DW_CFA_advance_loc: 8 to 000000000043c982
  DW_CFA_def_cfa_offset: 48
  DW_CFA_advance_loc: 1 to 000000000043c983
  DW_CFA_def_cfa_offset: 40
  DW_CFA_advance_loc: 2 to 000000000043c985
  DW_CFA_def_cfa_offset: 32
  DW_CFA_advance_loc: 2 to 000000000043c987
  DW_CFA_def_cfa_offset: 24
  DW_CFA_advance_loc: 2 to 000000000043c989
  DW_CFA_def_cfa_offset: 16
  DW_CFA_advance_loc: 2 to 000000000043c98b
  DW_CFA_def_cfa_offset: 8
  DW_CFA_advance_loc: 5 to 000000000043c990
  DW_CFA_restore_state
  DW_CFA_advance_loc: 46 to 000000000043c9be
  DW_CFA_remember_state
  DW_CFA_def_cfa_offset: 56
  DW_CFA_advance_loc: 8 to 000000000043c9c6
  DW_CFA_def_cfa_offset: 48
  DW_CFA_advance_loc: 1 to 000000000043c9c7
  DW_CFA_def_cfa_offset: 40
  DW_CFA_advance_loc: 2 to 000000000043c9c9
  DW_CFA_def_cfa_offset: 32
  DW_CFA_advance_loc: 2 to 000000000043c9cb
  DW_CFA_def_cfa_offset: 24
  DW_CFA_advance_loc: 2 to 000000000043c9cd
  DW_CFA_def_cfa_offset: 16
  DW_CFA_advance_loc: 2 to 000000000043c9cf
  DW_CFA_def_cfa_offset: 8
  DW_CFA_advance_loc: 5 to 000000000043c9d4
  DW_CFA_restore_state
  DW_CFA_advance_loc: 56 to 000000000043ca0c
  DW_CFA_remember_state
  DW_CFA_def_cfa_offset: 56
  DW_CFA_advance_loc: 8 to 000000000043ca14
  DW_CFA_def_cfa_offset: 48
  DW_CFA_advance_loc: 1 to 000000000043ca15
  DW_CFA_def_cfa_offset: 40
  DW_CFA_advance_loc: 2 to 000000000043ca17
  DW_CFA_def_cfa_offset: 32
  DW_CFA_advance_loc: 2 to 000000000043ca19
  DW_CFA_def_cfa_offset: 24
  DW_CFA_advance_loc: 2 to 000000000043ca1b
  DW_CFA_def_cfa_offset: 16
  DW_CFA_advance_loc: 2 to 000000000043ca1d
  DW_CFA_def_cfa_offset: 8
  DW_CFA_advance_loc: 5 to 000000000043ca22
  DW_CFA_restore_state
  DW_CFA_advance_loc: 46 to 000000000043ca50
  DW_CFA_remember_state
  DW_CFA_def_cfa_offset: 56
  DW_CFA_advance_loc: 8 to 000000000043ca58
  DW_CFA_def_cfa_offset: 48
  DW_CFA_advance_loc: 1 to 000000000043ca59
  DW_CFA_def_cfa_offset: 40
  DW_CFA_advance_loc: 2 to 000000000043ca5b
  DW_CFA_def_cfa_offset: 32
  DW_CFA_advance_loc: 2 to 000000000043ca5d
  DW_CFA_def_cfa_offset: 24
  DW_CFA_advance_loc: 2 to 000000000043ca5f
  DW_CFA_def_cfa_offset: 16
  DW_CFA_advance_loc: 2 to 000000000043ca61
  DW_CFA_def_cfa_offset: 8
  DW_CFA_advance_loc: 5 to 000000000043ca66
  DW_CFA_restore_state
  DW_CFA_advance_loc: 56 to 000000000043ca9e
  DW_CFA_remember_state
  DW_CFA_def_cfa_offset: 56
  DW_CFA_advance_loc: 8 to 000000000043caa6
  DW_CFA_def_cfa_offset: 48
  DW_CFA_advance_loc: 1 to 000000000043caa7
  DW_CFA_def_cfa_offset: 40
  DW_CFA_advance_loc: 2 to 000000000043caa9
  DW_CFA_def_cfa_offset: 32
  DW_CFA_advance_loc: 2 to 000000000043caab
  DW_CFA_def_cfa_offset: 24
  DW_CFA_advance_loc: 2 to 000000000043caad
  DW_CFA_def_cfa_offset: 16
  DW_CFA_advance_loc: 2 to 000000000043caaf
  DW_CFA_def_cfa_offset: 8
  DW_CFA_advance_loc: 5 to 000000000043cab4
  DW_CFA_restore_state
  DW_CFA_advance_loc: 46 to 000000000043cae2
  DW_CFA_remember_state
  DW_CFA_def_cfa_offset: 56
  DW_CFA_advance_loc: 8 to 000000000043caea
  DW_CFA_def_cfa_offset: 48
  DW_CFA_advance_loc: 1 to 000000000043caeb
  DW_CFA_def_cfa_offset: 40
  DW_CFA_advance_loc: 2 to 000000000043caed
  DW_CFA_def_cfa_offset: 32
  DW_CFA_advance_loc: 2 to 000000000043caef
  DW_CFA_def_cfa_offset: 24
  DW_CFA_advance_loc: 2 to 000000000043caf1
  DW_CFA_def_cfa_offset: 16
  DW_CFA_advance_loc: 2 to 000000000043caf3
  DW_CFA_def_cfa_offset: 8
  DW_CFA_advance_loc: 5 to 000000000043caf8
  DW_CFA_restore_state
  DW_CFA_advance_loc: 56 to 000000000043cb30
  DW_CFA_remember_state
  DW_CFA_def_cfa_offset: 56
  DW_CFA_advance_loc: 8 to 000000000043cb38
  DW_CFA_def_cfa_offset: 48
  DW_CFA_advance_loc: 1 to 000000000043cb39
  DW_CFA_def_cfa_offset: 40
  DW_CFA_advance_loc: 2 to 000000000043cb3b
  DW_CFA_def_cfa_offset: 32
  DW_CFA_advance_loc: 2 to 000000000043cb3d
  DW_CFA_def_cfa_offset: 24
  DW_CFA_advance_loc: 2 to 000000000043cb3f
  DW_CFA_def_cfa_offset: 16
  DW_CFA_advance_loc: 2 to 000000000043cb41
  DW_CFA_def_cfa_offset: 8
  DW_CFA_advance_loc: 5 to 000000000043cb46
  DW_CFA_restore_state
  DW_CFA_advance_loc: 46 to 000000000043cb74
  DW_CFA_remember_state
  DW_CFA_def_cfa_offset: 56
  DW_CFA_advance_loc: 8 to 000000000043cb7c
  DW_CFA_def_cfa_offset: 48
  DW_CFA_advance_loc: 1 to 000000000043cb7d
  DW_CFA_def_cfa_offset: 40
  DW_CFA_advance_loc: 2 to 000000000043cb7f
  DW_CFA_def_cfa_offset: 32
  DW_CFA_advance_loc: 2 to 000000000043cb81
  DW_CFA_def_cfa_offset: 24
  DW_CFA_advance_loc: 2 to 000000000043cb83
  DW_CFA_def_cfa_offset: 16
  DW_CFA_advance_loc: 2 to 000000000043cb85
  DW_CFA_def_cfa_offset: 8
  DW_CFA_advance_loc: 5 to 000000000043cb8a
  DW_CFA_restore_state
  DW_CFA_advance_loc: 56 to 000000000043cbc2
  DW_CFA_remember_state
  DW_CFA_def_cfa_offset: 56
  DW_CFA_advance_loc: 8 to 000000000043cbca
  DW_CFA_def_cfa_offset: 48
  DW_CFA_advance_loc: 1 to 000000000043cbcb
  DW_CFA_def_cfa_offset: 40
  DW_CFA_advance_loc: 2 to 000000000043cbcd
  DW_CFA_def_cfa_offset: 32
  DW_CFA_advance_loc: 2 to 000000000043cbcf
  DW_CFA_def_cfa_offset: 24
  DW_CFA_advance_loc: 2 to 000000000043cbd1
  DW_CFA_def_cfa_offset: 16
  DW_CFA_advance_loc: 2 to 000000000043cbd3
  DW_CFA_def_cfa_offset: 8
  DW_CFA_advance_loc: 5 to 000000000043cbd8
  DW_CFA_restore_state
  DW_CFA_advance_loc: 46 to 000000000043cc06
  DW_CFA_remember_state
  DW_CFA_def_cfa_offset: 56
  DW_CFA_advance_loc: 8 to 000000000043cc0e
  DW_CFA_def_cfa_offset: 48
  DW_CFA_advance_loc: 1 to 000000000043cc0f
  DW_CFA_def_cfa_offset: 40
  DW_CFA_advance_loc: 2 to 000000000043cc11
  DW_CFA_def_cfa_offset: 32
  DW_CFA_advance_loc: 2 to 000000000043cc13
  DW_CFA_def_cfa_offset: 24
  DW_CFA_advance_loc: 2 to 000000000043cc15
  DW_CFA_def_cfa_offset: 16
  DW_CFA_advance_loc: 2 to 000000000043cc17
  DW_CFA_def_cfa_offset: 8
  DW_CFA_advance_loc: 5 to 000000000043cc1c
  DW_CFA_restore_state
  DW_CFA_advance_loc: 56 to 000000000043cc54
  DW_CFA_remember_state
  DW_CFA_def_cfa_offset: 56
  DW_CFA_advance_loc: 8 to 000000000043cc5c
  DW_CFA_def_cfa_offset: 48
  DW_CFA_advance_loc: 1 to 000000000043cc5d
  DW_CFA_def_cfa_offset: 40
  DW_CFA_advance_loc: 2 to 000000000043cc5f
  DW_CFA_def_cfa_offset: 32
  DW_CFA_advance_loc: 2 to 000000000043cc61
  DW_CFA_def_cfa_offset: 24
  DW_CFA_advance_loc: 2 to 000000000043cc63
  DW_CFA_def_cfa_offset: 16
  DW_CFA_advance_loc: 2 to 000000000043cc65
  DW_CFA_def_cfa_offset: 8
  DW_CFA_advance_loc: 5 to 000000000043cc6a
  DW_CFA_restore_state
  DW_CFA_advance_loc: 46 to 000000000043cc98
  DW_CFA_remember_state
  DW_CFA_def_cfa_offset: 56
  DW_CFA_advance_loc: 8 to 000000000043cca0
  DW_CFA_def_cfa_offset: 48
  DW_CFA_advance_loc: 1 to 000000000043cca1
  DW_CFA_def_cfa_offset: 40
  DW_CFA_advance_loc: 2 to 000000000043cca3
  DW_CFA_def_cfa_offset: 32
  DW_CFA_advance_loc: 2 to 000000000043cca5
  DW_CFA_def_cfa_offset: 24
  DW_CFA_advance_loc: 2 to 000000000043cca7
  DW_CFA_def_cfa_offset: 16
  DW_CFA_advance_loc: 2 to 000000000043cca9
  DW_CFA_def_cfa_offset: 8
  DW_CFA_advance_loc: 5 to 000000000043ccae
  DW_CFA_restore_state
  DW_CFA_advance_loc: 56 to 000000000043cce6
  DW_CFA_remember_state
  DW_CFA_def_cfa_offset: 56
  DW_CFA_advance_loc: 8 to 000000000043ccee
  DW_CFA_def_cfa_offset: 48
  DW_CFA_advance_loc: 1 to 000000000043ccef
  DW_CFA_def_cfa_offset: 40
  DW_CFA_advance_loc: 2 to 000000000043ccf1
  DW_CFA_def_cfa_offset: 32
  DW_CFA_advance_loc: 2 to 000000000043ccf3
  DW_CFA_def_cfa_offset: 24
  DW_CFA_advance_loc: 2 to 000000000043ccf5
  DW_CFA_def_cfa_offset: 16
  DW_CFA_advance_loc: 2 to 000000000043ccf7
  DW_CFA_def_cfa_offset: 8
  DW_CFA_advance_loc: 5 to 000000000043ccfc
  DW_CFA_restore_state
  DW_CFA_advance_loc: 46 to 000000000043cd2a
  DW_CFA_remember_state
  DW_CFA_def_cfa_offset: 56
  DW_CFA_advance_loc: 8 to 000000000043cd32
  DW_CFA_def_cfa_offset: 48
  DW_CFA_advance_loc: 1 to 000000000043cd33
  DW_CFA_def_cfa_offset: 40
  DW_CFA_advance_loc: 2 to 000000000043cd35
  DW_CFA_def_cfa_offset: 32
  DW_CFA_advance_loc: 2 to 000000000043cd37
  DW_CFA_def_cfa_offset: 24
  DW_CFA_advance_loc: 2 to 000000000043cd39
  DW_CFA_def_cfa_offset: 16
  DW_CFA_advance_loc: 2 to 000000000043cd3b
  DW_CFA_def_cfa_offset: 8
  DW_CFA_advance_loc: 5 to 000000000043cd40
  DW_CFA_restore_state
  DW_CFA_advance_loc: 56 to 000000000043cd78
  DW_CFA_remember_state
  DW_CFA_def_cfa_offset: 56
  DW_CFA_advance_loc: 8 to 000000000043cd80
  DW_CFA_def_cfa_offset: 48
  DW_CFA_advance_loc: 1 to 000000000043cd81
  DW_CFA_def_cfa_offset: 40
  DW_CFA_advance_loc: 2 to 000000000043cd83
  DW_CFA_def_cfa_offset: 32
  DW_CFA_advance_loc: 2 to 000000000043cd85
  DW_CFA_def_cfa_offset: 24
  DW_CFA_advance_loc: 2 to 000000000043cd87
  DW_CFA_def_cfa_offset: 16
  DW_CFA_advance_loc: 2 to 000000000043cd89
  DW_CFA_def_cfa_offset: 8
  DW_CFA_advance_loc: 5 to 000000000043cd8e
  DW_CFA_restore_state
  DW_CFA_advance_loc: 46 to 000000000043cdbc
  DW_CFA_remember_state
  DW_CFA_def_cfa_offset: 56
  DW_CFA_advance_loc: 8 to 000000000043cdc4
  DW_CFA_def_cfa_offset: 48
  DW_CFA_advance_loc: 1 to 000000000043cdc5
  DW_CFA_def_cfa_offset: 40
  DW_CFA_advance_loc: 2 to 000000000043cdc7
  DW_CFA_def_cfa_offset: 32
  DW_CFA_advance_loc: 2 to 000000000043cdc9
  DW_CFA_def_cfa_offset: 24
  DW_CFA_advance_loc: 2 to 000000000043cdcb
  DW_CFA_def_cfa_offset: 16
  DW_CFA_advance_loc: 2 to 000000000043cdcd
  DW_CFA_def_cfa_offset: 8
  DW_CFA_advance_loc: 5 to 000000000043cdd2
  DW_CFA_restore_state
  DW_CFA_advance_loc: 56 to 000000000043ce0a
  DW_CFA_remember_state
  DW_CFA_def_cfa_offset: 56
  DW_CFA_advance_loc: 8 to 000000000043ce12
  DW_CFA_def_cfa_offset: 48
  DW_CFA_advance_loc: 1 to 000000000043ce13
  DW_CFA_def_cfa_offset: 40
  DW_CFA_advance_loc: 2 to 000000000043ce15
  DW_CFA_def_cfa_offset: 32
  DW_CFA_advance_loc: 2 to 000000000043ce17
  DW_CFA_def_cfa_offset: 24
  DW_CFA_advance_loc: 2 to 000000000043ce19
  DW_CFA_def_cfa_offset: 16
  DW_CFA_advance_loc: 2 to 000000000043ce1b
  DW_CFA_def_cfa_offset: 8
  DW_CFA_advance_loc: 5 to 000000000043ce20
  DW_CFA_restore_state
  DW_CFA_advance_loc: 46 to 000000000043ce4e
  DW_CFA_remember_state
  DW_CFA_def_cfa_offset: 56
  DW_CFA_advance_loc: 8 to 000000000043ce56
  DW_CFA_def_cfa_offset: 48
  DW_CFA_advance_loc: 1 to 000000000043ce57
  DW_CFA_def_cfa_offset: 40
  DW_CFA_advance_loc: 2 to 000000000043ce59
  DW_CFA_def_cfa_offset: 32
  DW_CFA_advance_loc: 2 to 000000000043ce5b
  DW_CFA_def_cfa_offset: 24
  DW_CFA_advance_loc: 2 to 000000000043ce5d
  DW_CFA_def_cfa_offset: 16
  DW_CFA_advance_loc: 2 to 000000000043ce5f
  DW_CFA_def_cfa_offset: 8
  DW_CFA_advance_loc: 5 to 000000000043ce64
  DW_CFA_restore_state
  DW_CFA_advance_loc: 56 to 000000000043ce9c
  DW_CFA_remember_state
  DW_CFA_def_cfa_offset: 56
  DW_CFA_advance_loc: 8 to 000000000043cea4
  DW_CFA_def_cfa_offset: 48
  DW_CFA_advance_loc: 1 to 000000000043cea5
  DW_CFA_def_cfa_offset: 40
  DW_CFA_advance_loc: 2 to 000000000043cea7
  DW_CFA_def_cfa_offset: 32
  DW_CFA_advance_loc: 2 to 000000000043cea9
  DW_CFA_def_cfa_offset: 24
  DW_CFA_advance_loc: 2 to 000000000043ceab
  DW_CFA_def_cfa_offset: 16
  DW_CFA_advance_loc: 2 to 000000000043cead
  DW_CFA_def_cfa_offset: 8
  DW_CFA_advance_loc: 5 to 000000000043ceb2
  DW_CFA_restore_state
  DW_CFA_advance_loc: 46 to 000000000043cee0
  DW_CFA_remember_state
  DW_CFA_def_cfa_offset: 56
  DW_CFA_advance_loc: 8 to 000000000043cee8
  DW_CFA_def_cfa_offset: 48
  DW_CFA_advance_loc: 1 to 000000000043cee9
  DW_CFA_def_cfa_offset: 40
  DW_CFA_advance_loc: 2 to 000000000043ceeb
  DW_CFA_def_cfa_offset: 32
  DW_CFA_advance_loc: 2 to 000000000043ceed
  DW_CFA_def_cfa_offset: 24
  DW_CFA_advance_loc: 2 to 000000000043ceef
  DW_CFA_def_cfa_offset: 16
  DW_CFA_advance_loc: 2 to 000000000043cef1
  DW_CFA_def_cfa_offset: 8
  DW_CFA_advance_loc: 5 to 000000000043cef6
  DW_CFA_restore_state
  DW_CFA_advance_loc: 56 to 000000000043cf2e
  DW_CFA_remember_state
  DW_CFA_def_cfa_offset: 56
  DW_CFA_advance_loc: 8 to 000000000043cf36
  DW_CFA_def_cfa_offset: 48
  DW_CFA_advance_loc: 1 to 000000000043cf37
  DW_CFA_def_cfa_offset: 40
  DW_CFA_advance_loc: 2 to 000000000043cf39
  DW_CFA_def_cfa_offset: 32
  DW_CFA_advance_loc: 2 to 000000000043cf3b
  DW_CFA_def_cfa_offset: 24
  DW_CFA_advance_loc: 2 to 000000000043cf3d
  DW_CFA_def_cfa_offset: 16
  DW_CFA_advance_loc: 2 to 000000000043cf3f
  DW_CFA_def_cfa_offset: 8
  DW_CFA_advance_loc: 5 to 000000000043cf44
  DW_CFA_restore_state
  DW_CFA_advance_loc: 46 to 000000000043cf72
  DW_CFA_remember_state
  DW_CFA_def_cfa_offset: 56
  DW_CFA_advance_loc: 8 to 000000000043cf7a
  DW_CFA_def_cfa_offset: 48
  DW_CFA_advance_loc: 1 to 000000000043cf7b
  DW_CFA_def_cfa_offset: 40
  DW_CFA_advance_loc: 2 to 000000000043cf7d
  DW_CFA_def_cfa_offset: 32
  DW_CFA_advance_loc: 2 to 000000000043cf7f
  DW_CFA_def_cfa_offset: 24
  DW_CFA_advance_loc: 2 to 000000000043cf81
  DW_CFA_def_cfa_offset: 16
  DW_CFA_advance_loc: 2 to 000000000043cf83
  DW_CFA_def_cfa_offset: 8
  DW_CFA_advance_loc: 5 to 000000000043cf88
  DW_CFA_restore_state
  DW_CFA_advance_loc: 56 to 000000000043cfc0
  DW_CFA_remember_state
  DW_CFA_def_cfa_offset: 56
  DW_CFA_advance_loc: 8 to 000000000043cfc8
  DW_CFA_def_cfa_offset: 48
  DW_CFA_advance_loc: 1 to 000000000043cfc9
  DW_CFA_def_cfa_offset: 40
  DW_CFA_advance_loc: 2 to 000000000043cfcb
  DW_CFA_def_cfa_offset: 32
  DW_CFA_advance_loc: 2 to 000000000043cfcd
  DW_CFA_def_cfa_offset: 24
  DW_CFA_advance_loc: 2 to 000000000043cfcf
  DW_CFA_def_cfa_offset: 16
  DW_CFA_advance_loc: 2 to 000000000043cfd1
  DW_CFA_def_cfa_offset: 8
  DW_CFA_advance_loc: 5 to 000000000043cfd6
  DW_CFA_restore_state
  DW_CFA_advance_loc: 46 to 000000000043d004
  DW_CFA_remember_state
  DW_CFA_def_cfa_offset: 56
  DW_CFA_advance_loc: 8 to 000000000043d00c
  DW_CFA_def_cfa_offset: 48
  DW_CFA_advance_loc: 1 to 000000000043d00d
  DW_CFA_def_cfa_offset: 40
  DW_CFA_advance_loc: 2 to 000000000043d00f
  DW_CFA_def_cfa_offset: 32
  DW_CFA_advance_loc: 2 to 000000000043d011
  DW_CFA_def_cfa_offset: 24
  DW_CFA_advance_loc: 2 to 000000000043d013
  DW_CFA_def_cfa_offset: 16
  DW_CFA_advance_loc: 2 to 000000000043d015
  DW_CFA_def_cfa_offset: 8
  DW_CFA_advance_loc: 5 to 000000000043d01a
  DW_CFA_restore_state
  DW_CFA_advance_loc: 56 to 000000000043d052
  DW_CFA_remember_state
  DW_CFA_def_cfa_offset: 56
  DW_CFA_advance_loc: 8 to 000000000043d05a
  DW_CFA_def_cfa_offset: 48
  DW_CFA_advance_loc: 1 to 000000000043d05b
  DW_CFA_def_cfa_offset: 40
  DW_CFA_advance_loc: 2 to 000000000043d05d
  DW_CFA_def_cfa_offset: 32
  DW_CFA_advance_loc: 2 to 000000000043d05f
  DW_CFA_def_cfa_offset: 24
  DW_CFA_advance_loc: 2 to 000000000043d061
  DW_CFA_def_cfa_offset: 16
  DW_CFA_advance_loc: 2 to 000000000043d063
  DW_CFA_def_cfa_offset: 8
  DW_CFA_advance_loc: 5 to 000000000043d068
  DW_CFA_restore_state
  DW_CFA_advance_loc: 46 to 000000000043d096
  DW_CFA_remember_state
  DW_CFA_def_cfa_offset: 56
  DW_CFA_advance_loc: 8 to 000000000043d09e
  DW_CFA_def_cfa_offset: 48
  DW_CFA_advance_loc: 1 to 000000000043d09f
  DW_CFA_def_cfa_offset: 40
  DW_CFA_advance_loc: 2 to 000000000043d0a1
  DW_CFA_def_cfa_offset: 32
  DW_CFA_advance_loc: 2 to 000000000043d0a3
  DW_CFA_def_cfa_offset: 24
  DW_CFA_advance_loc: 2 to 000000000043d0a5
  DW_CFA_def_cfa_offset: 16
  DW_CFA_advance_loc: 2 to 000000000043d0a7
  DW_CFA_def_cfa_offset: 8
  DW_CFA_advance_loc: 5 to 000000000043d0ac
  DW_CFA_restore_state
  DW_CFA_advance_loc: 56 to 000000000043d0e4
  DW_CFA_remember_state
  DW_CFA_def_cfa_offset: 56
  DW_CFA_advance_loc: 8 to 000000000043d0ec
  DW_CFA_def_cfa_offset: 48
  DW_CFA_advance_loc: 1 to 000000000043d0ed
  DW_CFA_def_cfa_offset: 40
  DW_CFA_advance_loc: 2 to 000000000043d0ef
  DW_CFA_def_cfa_offset: 32
  DW_CFA_advance_loc: 2 to 000000000043d0f1
  DW_CFA_def_cfa_offset: 24
  DW_CFA_advance_loc: 2 to 000000000043d0f3
  DW_CFA_def_cfa_offset: 16
  DW_CFA_advance_loc: 2 to 000000000043d0f5
  DW_CFA_def_cfa_offset: 8
  DW_CFA_advance_loc: 5 to 000000000043d0fa
  DW_CFA_restore_state
  DW_CFA_advance_loc: 46 to 000000000043d128
  DW_CFA_remember_state
  DW_CFA_def_cfa_offset: 56
  DW_CFA_advance_loc: 8 to 000000000043d130
  DW_CFA_def_cfa_offset: 48
  DW_CFA_advance_loc: 1 to 000000000043d131
  DW_CFA_def_cfa_offset: 40
  DW_CFA_advance_loc: 2 to 000000000043d133
  DW_CFA_def_cfa_offset: 32
  DW_CFA_advance_loc: 2 to 000000000043d135
  DW_CFA_def_cfa_offset: 24
  DW_CFA_advance_loc: 2 to 000000000043d137
  DW_CFA_def_cfa_offset: 16
  DW_CFA_advance_loc: 2 to 000000000043d139
  DW_CFA_def_cfa_offset: 8
  DW_CFA_advance_loc: 5 to 000000000043d13e
  DW_CFA_restore_state
  DW_CFA_advance_loc: 56 to 000000000043d176
  DW_CFA_remember_state
  DW_CFA_def_cfa_offset: 56
  DW_CFA_advance_loc: 8 to 000000000043d17e
  DW_CFA_def_cfa_offset: 48
  DW_CFA_advance_loc: 1 to 000000000043d17f
  DW_CFA_def_cfa_offset: 40
  DW_CFA_advance_loc: 2 to 000000000043d181
  DW_CFA_def_cfa_offset: 32
  DW_CFA_advance_loc: 2 to 000000000043d183
  DW_CFA_def_cfa_offset: 24
  DW_CFA_advance_loc: 2 to 000000000043d185
  DW_CFA_def_cfa_offset: 16
  DW_CFA_advance_loc: 2 to 000000000043d187
  DW_CFA_def_cfa_offset: 8
  DW_CFA_advance_loc: 5 to 000000000043d18c
  DW_CFA_restore_state
  DW_CFA_advance_loc: 46 to 000000000043d1ba
  DW_CFA_remember_state
  DW_CFA_def_cfa_offset: 56
  DW_CFA_advance_loc: 8 to 000000000043d1c2
  DW_CFA_def_cfa_offset: 48
  DW_CFA_advance_loc: 1 to 000000000043d1c3
  DW_CFA_def_cfa_offset: 40
  DW_CFA_advance_loc: 2 to 000000000043d1c5
  DW_CFA_def_cfa_offset: 32
  DW_CFA_advance_loc: 2 to 000000000043d1c7
  DW_CFA_def_cfa_offset: 24
  DW_CFA_advance_loc: 2 to 000000000043d1c9
  DW_CFA_def_cfa_offset: 16
  DW_CFA_advance_loc: 2 to 000000000043d1cb
  DW_CFA_def_cfa_offset: 8
  DW_CFA_advance_loc: 5 to 000000000043d1d0
  DW_CFA_restore_state
  DW_CFA_advance_loc: 56 to 000000000043d208
  DW_CFA_remember_state
  DW_CFA_def_cfa_offset: 56
  DW_CFA_advance_loc: 8 to 000000000043d210
  DW_CFA_def_cfa_offset: 48
  DW_CFA_advance_loc: 1 to 000000000043d211
  DW_CFA_def_cfa_offset: 40
  DW_CFA_advance_loc: 2 to 000000000043d213
  DW_CFA_def_cfa_offset: 32
  DW_CFA_advance_loc: 2 to 000000000043d215
  DW_CFA_def_cfa_offset: 24
  DW_CFA_advance_loc: 2 to 000000000043d217
  DW_CFA_def_cfa_offset: 16
  DW_CFA_advance_loc: 2 to 000000000043d219
  DW_CFA_def_cfa_offset: 8
  DW_CFA_advance_loc: 5 to 000000000043d21e
  DW_CFA_restore_state
  DW_CFA_advance_loc: 46 to 000000000043d24c
  DW_CFA_remember_state
  DW_CFA_def_cfa_offset: 56
  DW_CFA_advance_loc: 8 to 000000000043d254
  DW_CFA_def_cfa_offset: 48
  DW_CFA_advance_loc: 1 to 000000000043d255
  DW_CFA_def_cfa_offset: 40
  DW_CFA_advance_loc: 2 to 000000000043d257
  DW_CFA_def_cfa_offset: 32
  DW_CFA_advance_loc: 2 to 000000000043d259
  DW_CFA_def_cfa_offset: 24
  DW_CFA_advance_loc: 2 to 000000000043d25b
  DW_CFA_def_cfa_offset: 16
  DW_CFA_advance_loc: 2 to 000000000043d25d
  DW_CFA_def_cfa_offset: 8
  DW_CFA_advance_loc: 5 to 000000000043d262
  DW_CFA_restore_state
  DW_CFA_advance_loc: 56 to 000000000043d29a
  DW_CFA_remember_state
  DW_CFA_def_cfa_offset: 56
  DW_CFA_advance_loc: 8 to 000000000043d2a2
  DW_CFA_def_cfa_offset: 48
  DW_CFA_advance_loc: 1 to 000000000043d2a3
  DW_CFA_def_cfa_offset: 40
  DW_CFA_advance_loc: 2 to 000000000043d2a5
  DW_CFA_def_cfa_offset: 32
  DW_CFA_advance_loc: 2 to 000000000043d2a7
  DW_CFA_def_cfa_offset: 24
  DW_CFA_advance_loc: 2 to 000000000043d2a9
  DW_CFA_def_cfa_offset: 16
  DW_CFA_advance_loc: 2 to 000000000043d2ab
  DW_CFA_def_cfa_offset: 8
  DW_CFA_advance_loc: 5 to 000000000043d2b0
  DW_CFA_restore_state
  DW_CFA_advance_loc: 46 to 000000000043d2de
  DW_CFA_remember_state
  DW_CFA_def_cfa_offset: 56
  DW_CFA_advance_loc: 8 to 000000000043d2e6
  DW_CFA_def_cfa_offset: 48
  DW_CFA_advance_loc: 1 to 000000000043d2e7
  DW_CFA_def_cfa_offset: 40
  DW_CFA_advance_loc: 2 to 000000000043d2e9
  DW_CFA_def_cfa_offset: 32
  DW_CFA_advance_loc: 2 to 000000000043d2eb
  DW_CFA_def_cfa_offset: 24
  DW_CFA_advance_loc: 2 to 000000000043d2ed
  DW_CFA_def_cfa_offset: 16
  DW_CFA_advance_loc: 2 to 000000000043d2ef
  DW_CFA_def_cfa_offset: 8
  DW_CFA_advance_loc: 5 to 000000000043d2f4
  DW_CFA_restore_state
  DW_CFA_advance_loc: 56 to 000000000043d32c
  DW_CFA_remember_state
  DW_CFA_def_cfa_offset: 56
  DW_CFA_advance_loc: 8 to 000000000043d334
  DW_CFA_def_cfa_offset: 48
  DW_CFA_advance_loc: 1 to 000000000043d335
  DW_CFA_def_cfa_offset: 40
  DW_CFA_advance_loc: 2 to 000000000043d337
  DW_CFA_def_cfa_offset: 32
  DW_CFA_advance_loc: 2 to 000000000043d339
  DW_CFA_def_cfa_offset: 24
  DW_CFA_advance_loc: 2 to 000000000043d33b
  DW_CFA_def_cfa_offset: 16
  DW_CFA_advance_loc: 2 to 000000000043d33d
  DW_CFA_def_cfa_offset: 8
  DW_CFA_advance_loc: 5 to 000000000043d342
  DW_CFA_restore_state
  DW_CFA_advance_loc: 46 to 000000000043d370
  DW_CFA_remember_state
  DW_CFA_def_cfa_offset: 56
  DW_CFA_advance_loc: 8 to 000000000043d378
  DW_CFA_def_cfa_offset: 48
  DW_CFA_advance_loc: 1 to 000000000043d379
  DW_CFA_def_cfa_offset: 40
  DW_CFA_advance_loc: 2 to 000000000043d37b
  DW_CFA_def_cfa_offset: 32
  DW_CFA_advance_loc: 2 to 000000000043d37d
  DW_CFA_def_cfa_offset: 24
  DW_CFA_advance_loc: 2 to 000000000043d37f
  DW_CFA_def_cfa_offset: 16
  DW_CFA_advance_loc: 2 to 000000000043d381
  DW_CFA_def_cfa_offset: 8
  DW_CFA_advance_loc: 5 to 000000000043d386
  DW_CFA_restore_state
  DW_CFA_advance_loc: 56 to 000000000043d3be
  DW_CFA_remember_state
  DW_CFA_def_cfa_offset: 56
  DW_CFA_advance_loc: 8 to 000000000043d3c6
  DW_CFA_def_cfa_offset: 48
  DW_CFA_advance_loc: 1 to 000000000043d3c7
  DW_CFA_def_cfa_offset: 40
  DW_CFA_advance_loc: 2 to 000000000043d3c9
  DW_CFA_def_cfa_offset: 32
  DW_CFA_advance_loc: 2 to 000000000043d3cb
  DW_CFA_def_cfa_offset: 24
  DW_CFA_advance_loc: 2 to 000000000043d3cd
  DW_CFA_def_cfa_offset: 16
  DW_CFA_advance_loc: 2 to 000000000043d3cf
  DW_CFA_def_cfa_offset: 8
  DW_CFA_advance_loc: 5 to 000000000043d3d4
  DW_CFA_restore_state
  DW_CFA_advance_loc: 46 to 000000000043d402
  DW_CFA_remember_state
  DW_CFA_def_cfa_offset: 56
  DW_CFA_advance_loc: 8 to 000000000043d40a
  DW_CFA_def_cfa_offset: 48
  DW_CFA_advance_loc: 1 to 000000000043d40b
  DW_CFA_def_cfa_offset: 40
  DW_CFA_advance_loc: 2 to 000000000043d40d
  DW_CFA_def_cfa_offset: 32
  DW_CFA_advance_loc: 2 to 000000000043d40f
  DW_CFA_def_cfa_offset: 24
  DW_CFA_advance_loc: 2 to 000000000043d411
  DW_CFA_def_cfa_offset: 16
  DW_CFA_advance_loc: 2 to 000000000043d413
  DW_CFA_def_cfa_offset: 8
  DW_CFA_advance_loc: 5 to 000000000043d418
  DW_CFA_restore_state
  DW_CFA_advance_loc: 56 to 000000000043d450
  DW_CFA_remember_state
  DW_CFA_def_cfa_offset: 56
  DW_CFA_advance_loc: 8 to 000000000043d458
  DW_CFA_def_cfa_offset: 48
  DW_CFA_advance_loc: 1 to 000000000043d459
  DW_CFA_def_cfa_offset: 40
  DW_CFA_advance_loc: 2 to 000000000043d45b
  DW_CFA_def_cfa_offset: 32
  DW_CFA_advance_loc: 2 to 000000000043d45d
  DW_CFA_def_cfa_offset: 24
  DW_CFA_advance_loc: 2 to 000000000043d45f
  DW_CFA_def_cfa_offset: 16
  DW_CFA_advance_loc: 2 to 000000000043d461
  DW_CFA_def_cfa_offset: 8
  DW_CFA_advance_loc: 5 to 000000000043d466
  DW_CFA_restore_state
  DW_CFA_advance_loc: 46 to 000000000043d494
  DW_CFA_remember_state
  DW_CFA_def_cfa_offset: 56
  DW_CFA_advance_loc: 8 to 000000000043d49c
  DW_CFA_def_cfa_offset: 48
  DW_CFA_advance_loc: 1 to 000000000043d49d
  DW_CFA_def_cfa_offset: 40
  DW_CFA_advance_loc: 2 to 000000000043d49f
  DW_CFA_def_cfa_offset: 32
  DW_CFA_advance_loc: 2 to 000000000043d4a1
  DW_CFA_def_cfa_offset: 24
  DW_CFA_advance_loc: 2 to 000000000043d4a3
  DW_CFA_def_cfa_offset: 16
  DW_CFA_advance_loc: 2 to 000000000043d4a5
  DW_CFA_def_cfa_offset: 8
  DW_CFA_advance_loc: 5 to 000000000043d4aa
  DW_CFA_restore_state
  DW_CFA_advance_loc: 56 to 000000000043d4e2
  DW_CFA_remember_state
  DW_CFA_def_cfa_offset: 56
  DW_CFA_advance_loc: 8 to 000000000043d4ea
  DW_CFA_def_cfa_offset: 48
  DW_CFA_advance_loc: 1 to 000000000043d4eb
  DW_CFA_def_cfa_offset: 40
  DW_CFA_advance_loc: 2 to 000000000043d4ed
  DW_CFA_def_cfa_offset: 32
  DW_CFA_advance_loc: 2 to 000000000043d4ef
  DW_CFA_def_cfa_offset: 24
  DW_CFA_advance_loc: 2 to 000000000043d4f1
  DW_CFA_def_cfa_offset: 16
  DW_CFA_advance_loc: 2 to 000000000043d4f3
  DW_CFA_def_cfa_offset: 8
  DW_CFA_advance_loc: 5 to 000000000043d4f8
  DW_CFA_restore_state
  DW_CFA_advance_loc: 46 to 000000000043d526
  DW_CFA_remember_state
  DW_CFA_def_cfa_offset: 56
  DW_CFA_advance_loc: 8 to 000000000043d52e
  DW_CFA_def_cfa_offset: 48
  DW_CFA_advance_loc: 1 to 000000000043d52f
  DW_CFA_def_cfa_offset: 40
  DW_CFA_advance_loc: 2 to 000000000043d531
  DW_CFA_def_cfa_offset: 32
  DW_CFA_advance_loc: 2 to 000000000043d533
  DW_CFA_def_cfa_offset: 24
  DW_CFA_advance_loc: 2 to 000000000043d535
  DW_CFA_def_cfa_offset: 16
  DW_CFA_advance_loc: 2 to 000000000043d537
  DW_CFA_def_cfa_offset: 8
  DW_CFA_advance_loc: 5 to 000000000043d53c
  DW_CFA_restore_state
  DW_CFA_advance_loc: 56 to 000000000043d574
  DW_CFA_remember_state
  DW_CFA_def_cfa_offset: 56
  DW_CFA_advance_loc: 8 to 000000000043d57c
  DW_CFA_def_cfa_offset: 48
  DW_CFA_advance_loc: 1 to 000000000043d57d
  DW_CFA_def_cfa_offset: 40
  DW_CFA_advance_loc: 2 to 000000000043d57f
  DW_CFA_def_cfa_offset: 32
  DW_CFA_advance_loc: 2 to 000000000043d581
  DW_CFA_def_cfa_offset: 24
  DW_CFA_advance_loc: 2 to 000000000043d583
  DW_CFA_def_cfa_offset: 16
  DW_CFA_advance_loc: 2 to 000000000043d585
  DW_CFA_def_cfa_offset: 8
  DW_CFA_advance_loc: 5 to 000000000043d58a
  DW_CFA_restore_state
  DW_CFA_advance_loc: 46 to 000000000043d5b8
  DW_CFA_remember_state
  DW_CFA_def_cfa_offset: 56
  DW_CFA_advance_loc: 8 to 000000000043d5c0
  DW_CFA_def_cfa_offset: 48
  DW_CFA_advance_loc: 1 to 000000000043d5c1
  DW_CFA_def_cfa_offset: 40
  DW_CFA_advance_loc: 2 to 000000000043d5c3
  DW_CFA_def_cfa_offset: 32
  DW_CFA_advance_loc: 2 to 000000000043d5c5
  DW_CFA_def_cfa_offset: 24
  DW_CFA_advance_loc: 2 to 000000000043d5c7
  DW_CFA_def_cfa_offset: 16
  DW_CFA_advance_loc: 2 to 000000000043d5c9
  DW_CFA_def_cfa_offset: 8
  DW_CFA_advance_loc: 5 to 000000000043d5ce
  DW_CFA_restore_state
  DW_CFA_advance_loc: 56 to 000000000043d606
  DW_CFA_remember_state
  DW_CFA_def_cfa_offset: 56
  DW_CFA_advance_loc: 8 to 000000000043d60e
  DW_CFA_def_cfa_offset: 48
  DW_CFA_advance_loc: 1 to 000000000043d60f
  DW_CFA_def_cfa_offset: 40
  DW_CFA_advance_loc: 2 to 000000000043d611
  DW_CFA_def_cfa_offset: 32
  DW_CFA_advance_loc: 2 to 000000000043d613
  DW_CFA_def_cfa_offset: 24
  DW_CFA_advance_loc: 2 to 000000000043d615
  DW_CFA_def_cfa_offset: 16
  DW_CFA_advance_loc: 2 to 000000000043d617
  DW_CFA_def_cfa_offset: 8
  DW_CFA_advance_loc: 5 to 000000000043d61c
  DW_CFA_restore_state
  DW_CFA_advance_loc: 46 to 000000000043d64a
  DW_CFA_remember_state
  DW_CFA_def_cfa_offset: 56
  DW_CFA_advance_loc: 8 to 000000000043d652
  DW_CFA_def_cfa_offset: 48
  DW_CFA_advance_loc: 1 to 000000000043d653
  DW_CFA_def_cfa_offset: 40
  DW_CFA_advance_loc: 2 to 000000000043d655
  DW_CFA_def_cfa_offset: 32
  DW_CFA_advance_loc: 2 to 000000000043d657
  DW_CFA_def_cfa_offset: 24
  DW_CFA_advance_loc: 2 to 000000000043d659
  DW_CFA_def_cfa_offset: 16
  DW_CFA_advance_loc: 2 to 000000000043d65b
  DW_CFA_def_cfa_offset: 8
  DW_CFA_advance_loc: 5 to 000000000043d660
  DW_CFA_restore_state
  DW_CFA_advance_loc: 56 to 000000000043d698
  DW_CFA_remember_state
  DW_CFA_def_cfa_offset: 56
  DW_CFA_advance_loc: 8 to 000000000043d6a0
  DW_CFA_def_cfa_offset: 48
  DW_CFA_advance_loc: 1 to 000000000043d6a1
  DW_CFA_def_cfa_offset: 40
  DW_CFA_advance_loc: 2 to 000000000043d6a3
  DW_CFA_def_cfa_offset: 32
  DW_CFA_advance_loc: 2 to 000000000043d6a5
  DW_CFA_def_cfa_offset: 24
  DW_CFA_advance_loc: 2 to 000000000043d6a7
  DW_CFA_def_cfa_offset: 16
  DW_CFA_advance_loc: 2 to 000000000043d6a9
  DW_CFA_def_cfa_offset: 8
  DW_CFA_advance_loc: 5 to 000000000043d6ae
  DW_CFA_restore_state
  DW_CFA_advance_loc: 46 to 000000000043d6dc
  DW_CFA_remember_state
  DW_CFA_def_cfa_offset: 56
  DW_CFA_advance_loc: 8 to 000000000043d6e4
  DW_CFA_def_cfa_offset: 48
  DW_CFA_advance_loc: 1 to 000000000043d6e5
  DW_CFA_def_cfa_offset: 40
  DW_CFA_advance_loc: 2 to 000000000043d6e7
  DW_CFA_def_cfa_offset: 32
  DW_CFA_advance_loc: 2 to 000000000043d6e9
  DW_CFA_def_cfa_offset: 24
  DW_CFA_advance_loc: 2 to 000000000043d6eb
  DW_CFA_def_cfa_offset: 16
  DW_CFA_advance_loc: 2 to 000000000043d6ed
  DW_CFA_def_cfa_offset: 8
  DW_CFA_advance_loc: 5 to 000000000043d6f2
  DW_CFA_restore_state
  DW_CFA_advance_loc: 56 to 000000000043d72a
  DW_CFA_remember_state
  DW_CFA_def_cfa_offset: 56
  DW_CFA_advance_loc: 8 to 000000000043d732
  DW_CFA_def_cfa_offset: 48
  DW_CFA_advance_loc: 1 to 000000000043d733
  DW_CFA_def_cfa_offset: 40
  DW_CFA_advance_loc: 2 to 000000000043d735
  DW_CFA_def_cfa_offset: 32
  DW_CFA_advance_loc: 2 to 000000000043d737
  DW_CFA_def_cfa_offset: 24
  DW_CFA_advance_loc: 2 to 000000000043d739
  DW_CFA_def_cfa_offset: 16
  DW_CFA_advance_loc: 2 to 000000000043d73b
  DW_CFA_def_cfa_offset: 8
  DW_CFA_advance_loc: 5 to 000000000043d740
  DW_CFA_restore_state
  DW_CFA_advance_loc: 46 to 000000000043d76e
  DW_CFA_remember_state
  DW_CFA_def_cfa_offset: 56
  DW_CFA_advance_loc: 8 to 000000000043d776
  DW_CFA_def_cfa_offset: 48
  DW_CFA_advance_loc: 1 to 000000000043d777
  DW_CFA_def_cfa_offset: 40
  DW_CFA_advance_loc: 2 to 000000000043d779
  DW_CFA_def_cfa_offset: 32
  DW_CFA_advance_loc: 2 to 000000000043d77b
  DW_CFA_def_cfa_offset: 24
  DW_CFA_advance_loc: 2 to 000000000043d77d
  DW_CFA_def_cfa_offset: 16
  DW_CFA_advance_loc: 2 to 000000000043d77f
  DW_CFA_def_cfa_offset: 8
  DW_CFA_advance_loc: 5 to 000000000043d784
  DW_CFA_restore_state
  DW_CFA_advance_loc: 56 to 000000000043d7bc
  DW_CFA_remember_state
  DW_CFA_def_cfa_offset: 56
  DW_CFA_advance_loc: 8 to 000000000043d7c4
  DW_CFA_def_cfa_offset: 48
  DW_CFA_advance_loc: 1 to 000000000043d7c5
  DW_CFA_def_cfa_offset: 40
  DW_CFA_advance_loc: 2 to 000000000043d7c7
  DW_CFA_def_cfa_offset: 32
  DW_CFA_advance_loc: 2 to 000000000043d7c9
  DW_CFA_def_cfa_offset: 24
  DW_CFA_advance_loc: 2 to 000000000043d7cb
  DW_CFA_def_cfa_offset: 16
  DW_CFA_advance_loc: 2 to 000000000043d7cd
  DW_CFA_def_cfa_offset: 8
  DW_CFA_advance_loc: 5 to 000000000043d7d2
  DW_CFA_restore_state
  DW_CFA_advance_loc: 46 to 000000000043d800
  DW_CFA_remember_state
  DW_CFA_def_cfa_offset: 56
  DW_CFA_advance_loc: 8 to 000000000043d808
  DW_CFA_def_cfa_offset: 48
  DW_CFA_advance_loc: 1 to 000000000043d809
  DW_CFA_def_cfa_offset: 40
  DW_CFA_advance_loc: 2 to 000000000043d80b
  DW_CFA_def_cfa_offset: 32
  DW_CFA_advance_loc: 2 to 000000000043d80d
  DW_CFA_def_cfa_offset: 24
  DW_CFA_advance_loc: 2 to 000000000043d80f
  DW_CFA_def_cfa_offset: 16
  DW_CFA_advance_loc: 2 to 000000000043d811
  DW_CFA_def_cfa_offset: 8
  DW_CFA_advance_loc: 5 to 000000000043d816
  DW_CFA_restore_state
  DW_CFA_advance_loc: 56 to 000000000043d84e
  DW_CFA_remember_state
  DW_CFA_def_cfa_offset: 56
  DW_CFA_advance_loc: 8 to 000000000043d856
  DW_CFA_def_cfa_offset: 48
  DW_CFA_advance_loc: 1 to 000000000043d857
  DW_CFA_def_cfa_offset: 40
  DW_CFA_advance_loc: 2 to 000000000043d859
  DW_CFA_def_cfa_offset: 32
  DW_CFA_advance_loc: 2 to 000000000043d85b
  DW_CFA_def_cfa_offset: 24
  DW_CFA_advance_loc: 2 to 000000000043d85d
  DW_CFA_def_cfa_offset: 16
  DW_CFA_advance_loc: 2 to 000000000043d85f
  DW_CFA_def_cfa_offset: 8
  DW_CFA_advance_loc: 5 to 000000000043d864
  DW_CFA_restore_state
  DW_CFA_advance_loc: 46 to 000000000043d892
  DW_CFA_remember_state
  DW_CFA_def_cfa_offset: 56
  DW_CFA_advance_loc: 8 to 000000000043d89a
  DW_CFA_def_cfa_offset: 48
  DW_CFA_advance_loc: 1 to 000000000043d89b
  DW_CFA_def_cfa_offset: 40
  DW_CFA_advance_loc: 2 to 000000000043d89d
  DW_CFA_def_cfa_offset: 32
  DW_CFA_advance_loc: 2 to 000000000043d89f
  DW_CFA_def_cfa_offset: 24
  DW_CFA_advance_loc: 2 to 000000000043d8a1
  DW_CFA_def_cfa_offset: 16
  DW_CFA_advance_loc: 2 to 000000000043d8a3
  DW_CFA_def_cfa_offset: 8
  DW_CFA_advance_loc: 5 to 000000000043d8a8
  DW_CFA_restore_state
  DW_CFA_advance_loc: 56 to 000000000043d8e0
  DW_CFA_remember_state
  DW_CFA_def_cfa_offset: 56
  DW_CFA_advance_loc: 8 to 000000000043d8e8
  DW_CFA_def_cfa_offset: 48
  DW_CFA_advance_loc: 1 to 000000000043d8e9
  DW_CFA_def_cfa_offset: 40
  DW_CFA_advance_loc: 2 to 000000000043d8eb
  DW_CFA_def_cfa_offset: 32
  DW_CFA_advance_loc: 2 to 000000000043d8ed
  DW_CFA_def_cfa_offset: 24
  DW_CFA_advance_loc: 2 to 000000000043d8ef
  DW_CFA_def_cfa_offset: 16
  DW_CFA_advance_loc: 2 to 000000000043d8f1
  DW_CFA_def_cfa_offset: 8
  DW_CFA_advance_loc: 5 to 000000000043d8f6
  DW_CFA_restore_state
  DW_CFA_advance_loc: 46 to 000000000043d924
  DW_CFA_remember_state
  DW_CFA_def_cfa_offset: 56
  DW_CFA_advance_loc: 8 to 000000000043d92c
  DW_CFA_def_cfa_offset: 48
  DW_CFA_advance_loc: 1 to 000000000043d92d
  DW_CFA_def_cfa_offset: 40
  DW_CFA_advance_loc: 2 to 000000000043d92f
  DW_CFA_def_cfa_offset: 32
  DW_CFA_advance_loc: 2 to 000000000043d931
  DW_CFA_def_cfa_offset: 24
  DW_CFA_advance_loc: 2 to 000000000043d933
  DW_CFA_def_cfa_offset: 16
  DW_CFA_advance_loc: 2 to 000000000043d935
  DW_CFA_def_cfa_offset: 8
  DW_CFA_advance_loc: 5 to 000000000043d93a
  DW_CFA_restore_state
  DW_CFA_advance_loc: 56 to 000000000043d972
  DW_CFA_remember_state
  DW_CFA_def_cfa_offset: 56
  DW_CFA_advance_loc: 8 to 000000000043d97a
  DW_CFA_def_cfa_offset: 48
  DW_CFA_advance_loc: 1 to 000000000043d97b
  DW_CFA_def_cfa_offset: 40
  DW_CFA_advance_loc: 2 to 000000000043d97d
  DW_CFA_def_cfa_offset: 32
  DW_CFA_advance_loc: 2 to 000000000043d97f
  DW_CFA_def_cfa_offset: 24
  DW_CFA_advance_loc: 2 to 000000000043d981
  DW_CFA_def_cfa_offset: 16
  DW_CFA_advance_loc: 2 to 000000000043d983
  DW_CFA_def_cfa_offset: 8
  DW_CFA_advance_loc: 5 to 000000000043d988
  DW_CFA_restore_state
  DW_CFA_advance_loc: 46 to 000000000043d9b6
  DW_CFA_remember_state
  DW_CFA_def_cfa_offset: 56
  DW_CFA_advance_loc: 8 to 000000000043d9be
  DW_CFA_def_cfa_offset: 48
  DW_CFA_advance_loc: 1 to 000000000043d9bf
  DW_CFA_def_cfa_offset: 40
  DW_CFA_advance_loc: 2 to 000000000043d9c1
  DW_CFA_def_cfa_offset: 32
  DW_CFA_advance_loc: 2 to 000000000043d9c3
  DW_CFA_def_cfa_offset: 24
  DW_CFA_advance_loc: 2 to 000000000043d9c5
  DW_CFA_def_cfa_offset: 16
  DW_CFA_advance_loc: 2 to 000000000043d9c7
  DW_CFA_def_cfa_offset: 8
  DW_CFA_advance_loc: 5 to 000000000043d9cc
  DW_CFA_restore_state
  DW_CFA_advance_loc: 56 to 000000000043da04
  DW_CFA_remember_state
  DW_CFA_def_cfa_offset: 56
  DW_CFA_advance_loc: 8 to 000000000043da0c
  DW_CFA_def_cfa_offset: 48
  DW_CFA_advance_loc: 1 to 000000000043da0d
  DW_CFA_def_cfa_offset: 40
  DW_CFA_advance_loc: 2 to 000000000043da0f
  DW_CFA_def_cfa_offset: 32
  DW_CFA_advance_loc: 2 to 000000000043da11
  DW_CFA_def_cfa_offset: 24
  DW_CFA_advance_loc: 2 to 000000000043da13
  DW_CFA_def_cfa_offset: 16
  DW_CFA_advance_loc: 2 to 000000000043da15
  DW_CFA_def_cfa_offset: 8
  DW_CFA_advance_loc: 5 to 000000000043da1a
  DW_CFA_restore_state
  DW_CFA_advance_loc: 46 to 000000000043da48
  DW_CFA_remember_state
  DW_CFA_def_cfa_offset: 56
  DW_CFA_advance_loc: 8 to 000000000043da50
  DW_CFA_def_cfa_offset: 48
  DW_CFA_advance_loc: 1 to 000000000043da51
  DW_CFA_def_cfa_offset: 40
  DW_CFA_advance_loc: 2 to 000000000043da53
  DW_CFA_def_cfa_offset: 32
  DW_CFA_advance_loc: 2 to 000000000043da55
  DW_CFA_def_cfa_offset: 24
  DW_CFA_advance_loc: 2 to 000000000043da57
  DW_CFA_def_cfa_offset: 16
  DW_CFA_advance_loc: 2 to 000000000043da59
  DW_CFA_def_cfa_offset: 8
  DW_CFA_advance_loc: 5 to 000000000043da5e
  DW_CFA_restore_state
  DW_CFA_advance_loc: 56 to 000000000043da96
  DW_CFA_remember_state
  DW_CFA_def_cfa_offset: 56
  DW_CFA_advance_loc: 8 to 000000000043da9e
  DW_CFA_def_cfa_offset: 48
  DW_CFA_advance_loc: 1 to 000000000043da9f
  DW_CFA_def_cfa_offset: 40
  DW_CFA_advance_loc: 2 to 000000000043daa1
  DW_CFA_def_cfa_offset: 32
  DW_CFA_advance_loc: 2 to 000000000043daa3
  DW_CFA_def_cfa_offset: 24
  DW_CFA_advance_loc: 2 to 000000000043daa5
  DW_CFA_def_cfa_offset: 16
  DW_CFA_advance_loc: 2 to 000000000043daa7
  DW_CFA_def_cfa_offset: 8
  DW_CFA_advance_loc: 5 to 000000000043daac
  DW_CFA_restore_state
  DW_CFA_advance_loc: 46 to 000000000043dada
  DW_CFA_remember_state
  DW_CFA_def_cfa_offset: 56
  DW_CFA_advance_loc: 8 to 000000000043dae2
  DW_CFA_def_cfa_offset: 48
  DW_CFA_advance_loc: 1 to 000000000043dae3
  DW_CFA_def_cfa_offset: 40
  DW_CFA_advance_loc: 2 to 000000000043dae5
  DW_CFA_def_cfa_offset: 32
  DW_CFA_advance_loc: 2 to 000000000043dae7
  DW_CFA_def_cfa_offset: 24
  DW_CFA_advance_loc: 2 to 000000000043dae9
  DW_CFA_def_cfa_offset: 16
  DW_CFA_advance_loc: 2 to 000000000043daeb
  DW_CFA_def_cfa_offset: 8
  DW_CFA_advance_loc: 5 to 000000000043daf0
  DW_CFA_restore_state
  DW_CFA_advance_loc: 56 to 000000000043db28
  DW_CFA_remember_state
  DW_CFA_def_cfa_offset: 56
  DW_CFA_advance_loc: 8 to 000000000043db30
  DW_CFA_def_cfa_offset: 48
  DW_CFA_advance_loc: 1 to 000000000043db31
  DW_CFA_def_cfa_offset: 40
  DW_CFA_advance_loc: 2 to 000000000043db33
  DW_CFA_def_cfa_offset: 32
  DW_CFA_advance_loc: 2 to 000000000043db35
  DW_CFA_def_cfa_offset: 24
  DW_CFA_advance_loc: 2 to 000000000043db37
  DW_CFA_def_cfa_offset: 16
  DW_CFA_advance_loc: 2 to 000000000043db39
  DW_CFA_def_cfa_offset: 8
  DW_CFA_advance_loc: 5 to 000000000043db3e
  DW_CFA_restore_state
  DW_CFA_advance_loc: 46 to 000000000043db6c
  DW_CFA_remember_state
  DW_CFA_def_cfa_offset: 56
  DW_CFA_advance_loc: 8 to 000000000043db74
  DW_CFA_def_cfa_offset: 48
  DW_CFA_advance_loc: 1 to 000000000043db75
  DW_CFA_def_cfa_offset: 40
  DW_CFA_advance_loc: 2 to 000000000043db77
  DW_CFA_def_cfa_offset: 32
  DW_CFA_advance_loc: 2 to 000000000043db79
  DW_CFA_def_cfa_offset: 24
  DW_CFA_advance_loc: 2 to 000000000043db7b
  DW_CFA_def_cfa_offset: 16
  DW_CFA_advance_loc: 2 to 000000000043db7d
  DW_CFA_def_cfa_offset: 8
  DW_CFA_advance_loc: 5 to 000000000043db82
  DW_CFA_restore_state
  DW_CFA_advance_loc: 56 to 000000000043dbba
  DW_CFA_remember_state
  DW_CFA_def_cfa_offset: 56
  DW_CFA_advance_loc: 8 to 000000000043dbc2
  DW_CFA_def_cfa_offset: 48
  DW_CFA_advance_loc: 1 to 000000000043dbc3
  DW_CFA_def_cfa_offset: 40
  DW_CFA_advance_loc: 2 to 000000000043dbc5
  DW_CFA_def_cfa_offset: 32
  DW_CFA_advance_loc: 2 to 000000000043dbc7
  DW_CFA_def_cfa_offset: 24
  DW_CFA_advance_loc: 2 to 000000000043dbc9
  DW_CFA_def_cfa_offset: 16
  DW_CFA_advance_loc: 2 to 000000000043dbcb
  DW_CFA_def_cfa_offset: 8
  DW_CFA_advance_loc: 5 to 000000000043dbd0
  DW_CFA_restore_state
  DW_CFA_advance_loc: 46 to 000000000043dbfe
  DW_CFA_remember_state
  DW_CFA_def_cfa_offset: 56
  DW_CFA_advance_loc: 8 to 000000000043dc06
  DW_CFA_def_cfa_offset: 48
  DW_CFA_advance_loc: 1 to 000000000043dc07
  DW_CFA_def_cfa_offset: 40
  DW_CFA_advance_loc: 2 to 000000000043dc09
  DW_CFA_def_cfa_offset: 32
  DW_CFA_advance_loc: 2 to 000000000043dc0b
  DW_CFA_def_cfa_offset: 24
  DW_CFA_advance_loc: 2 to 000000000043dc0d
  DW_CFA_def_cfa_offset: 16
  DW_CFA_advance_loc: 2 to 000000000043dc0f
  DW_CFA_def_cfa_offset: 8
  DW_CFA_advance_loc: 5 to 000000000043dc14
  DW_CFA_restore_state
  DW_CFA_advance_loc: 56 to 000000000043dc4c
  DW_CFA_remember_state
  DW_CFA_def_cfa_offset: 56
  DW_CFA_advance_loc: 8 to 000000000043dc54
  DW_CFA_def_cfa_offset: 48
  DW_CFA_advance_loc: 1 to 000000000043dc55
  DW_CFA_def_cfa_offset: 40
  DW_CFA_advance_loc: 2 to 000000000043dc57
  DW_CFA_def_cfa_offset: 32
  DW_CFA_advance_loc: 2 to 000000000043dc59
  DW_CFA_def_cfa_offset: 24
  DW_CFA_advance_loc: 2 to 000000000043dc5b
  DW_CFA_def_cfa_offset: 16
  DW_CFA_advance_loc: 2 to 000000000043dc5d
  DW_CFA_def_cfa_offset: 8
  DW_CFA_advance_loc: 5 to 000000000043dc62
  DW_CFA_restore_state
  DW_CFA_advance_loc: 46 to 000000000043dc90
  DW_CFA_remember_state
  DW_CFA_def_cfa_offset: 56
  DW_CFA_advance_loc: 8 to 000000000043dc98
  DW_CFA_def_cfa_offset: 48
  DW_CFA_advance_loc: 1 to 000000000043dc99
  DW_CFA_def_cfa_offset: 40
  DW_CFA_advance_loc: 2 to 000000000043dc9b
  DW_CFA_def_cfa_offset: 32
  DW_CFA_advance_loc: 2 to 000000000043dc9d
  DW_CFA_def_cfa_offset: 24
  DW_CFA_advance_loc: 2 to 000000000043dc9f
  DW_CFA_def_cfa_offset: 16
  DW_CFA_advance_loc: 2 to 000000000043dca1
  DW_CFA_def_cfa_offset: 8
  DW_CFA_advance_loc: 5 to 000000000043dca6
  DW_CFA_restore_state
  DW_CFA_advance_loc: 56 to 000000000043dcde
  DW_CFA_remember_state
  DW_CFA_def_cfa_offset: 56
  DW_CFA_advance_loc: 8 to 000000000043dce6
  DW_CFA_def_cfa_offset: 48
  DW_CFA_advance_loc: 1 to 000000000043dce7
  DW_CFA_def_cfa_offset: 40
  DW_CFA_advance_loc: 2 to 000000000043dce9
  DW_CFA_def_cfa_offset: 32
  DW_CFA_advance_loc: 2 to 000000000043dceb
  DW_CFA_def_cfa_offset: 24
  DW_CFA_advance_loc: 2 to 000000000043dced
  DW_CFA_def_cfa_offset: 16
  DW_CFA_advance_loc: 2 to 000000000043dcef
  DW_CFA_def_cfa_offset: 8
  DW_CFA_advance_loc: 5 to 000000000043dcf4
  DW_CFA_restore_state
  DW_CFA_advance_loc: 46 to 000000000043dd22
  DW_CFA_remember_state
  DW_CFA_def_cfa_offset: 56
  DW_CFA_advance_loc: 8 to 000000000043dd2a
  DW_CFA_def_cfa_offset: 48
  DW_CFA_advance_loc: 1 to 000000000043dd2b
  DW_CFA_def_cfa_offset: 40
  DW_CFA_advance_loc: 2 to 000000000043dd2d
  DW_CFA_def_cfa_offset: 32
  DW_CFA_advance_loc: 2 to 000000000043dd2f
  DW_CFA_def_cfa_offset: 24
  DW_CFA_advance_loc: 2 to 000000000043dd31
  DW_CFA_def_cfa_offset: 16
  DW_CFA_advance_loc: 2 to 000000000043dd33
  DW_CFA_def_cfa_offset: 8
  DW_CFA_advance_loc: 5 to 000000000043dd38
  DW_CFA_restore_state
  DW_CFA_advance_loc: 56 to 000000000043dd70
  DW_CFA_remember_state
  DW_CFA_def_cfa_offset: 56
  DW_CFA_advance_loc: 8 to 000000000043dd78
  DW_CFA_def_cfa_offset: 48
  DW_CFA_advance_loc: 1 to 000000000043dd79
  DW_CFA_def_cfa_offset: 40
  DW_CFA_advance_loc: 2 to 000000000043dd7b
  DW_CFA_def_cfa_offset: 32
  DW_CFA_advance_loc: 2 to 000000000043dd7d
  DW_CFA_def_cfa_offset: 24
  DW_CFA_advance_loc: 2 to 000000000043dd7f
  DW_CFA_def_cfa_offset: 16
  DW_CFA_advance_loc: 2 to 000000000043dd81
  DW_CFA_def_cfa_offset: 8
  DW_CFA_advance_loc: 5 to 000000000043dd86
  DW_CFA_restore_state
  DW_CFA_advance_loc: 46 to 000000000043ddb4
  DW_CFA_remember_state
  DW_CFA_def_cfa_offset: 56
  DW_CFA_advance_loc: 8 to 000000000043ddbc
  DW_CFA_def_cfa_offset: 48
  DW_CFA_advance_loc: 1 to 000000000043ddbd
  DW_CFA_def_cfa_offset: 40
  DW_CFA_advance_loc: 2 to 000000000043ddbf
  DW_CFA_def_cfa_offset: 32
  DW_CFA_advance_loc: 2 to 000000000043ddc1
  DW_CFA_def_cfa_offset: 24
  DW_CFA_advance_loc: 2 to 000000000043ddc3
  DW_CFA_def_cfa_offset: 16
  DW_CFA_advance_loc: 2 to 000000000043ddc5
  DW_CFA_def_cfa_offset: 8
  DW_CFA_advance_loc: 5 to 000000000043ddca
  DW_CFA_restore_state
  DW_CFA_advance_loc: 56 to 000000000043de02
  DW_CFA_remember_state
  DW_CFA_def_cfa_offset: 56
  DW_CFA_advance_loc: 8 to 000000000043de0a
  DW_CFA_def_cfa_offset: 48
  DW_CFA_advance_loc: 1 to 000000000043de0b
  DW_CFA_def_cfa_offset: 40
  DW_CFA_advance_loc: 2 to 000000000043de0d
  DW_CFA_def_cfa_offset: 32
  DW_CFA_advance_loc: 2 to 000000000043de0f
  DW_CFA_def_cfa_offset: 24
  DW_CFA_advance_loc: 2 to 000000000043de11
  DW_CFA_def_cfa_offset: 16
  DW_CFA_advance_loc: 2 to 000000000043de13
  DW_CFA_def_cfa_offset: 8
  DW_CFA_advance_loc: 5 to 000000000043de18
  DW_CFA_restore_state
  DW_CFA_advance_loc: 46 to 000000000043de46
  DW_CFA_remember_state
  DW_CFA_def_cfa_offset: 56
  DW_CFA_advance_loc: 8 to 000000000043de4e
  DW_CFA_def_cfa_offset: 48
  DW_CFA_advance_loc: 1 to 000000000043de4f
  DW_CFA_def_cfa_offset: 40
  DW_CFA_advance_loc: 2 to 000000000043de51
  DW_CFA_def_cfa_offset: 32
  DW_CFA_advance_loc: 2 to 000000000043de53
  DW_CFA_def_cfa_offset: 24
  DW_CFA_advance_loc: 2 to 000000000043de55
  DW_CFA_def_cfa_offset: 16
  DW_CFA_advance_loc: 2 to 000000000043de57
  DW_CFA_def_cfa_offset: 8
  DW_CFA_advance_loc: 5 to 000000000043de5c
  DW_CFA_restore_state
  DW_CFA_advance_loc: 56 to 000000000043de94
  DW_CFA_remember_state
  DW_CFA_def_cfa_offset: 56
  DW_CFA_advance_loc: 8 to 000000000043de9c
  DW_CFA_def_cfa_offset: 48
  DW_CFA_advance_loc: 1 to 000000000043de9d
  DW_CFA_def_cfa_offset: 40
  DW_CFA_advance_loc: 2 to 000000000043de9f
  DW_CFA_def_cfa_offset: 32
  DW_CFA_advance_loc: 2 to 000000000043dea1
  DW_CFA_def_cfa_offset: 24
  DW_CFA_advance_loc: 2 to 000000000043dea3
  DW_CFA_def_cfa_offset: 16
  DW_CFA_advance_loc: 2 to 000000000043dea5
  DW_CFA_def_cfa_offset: 8
  DW_CFA_advance_loc: 5 to 000000000043deaa
  DW_CFA_restore_state
  DW_CFA_advance_loc: 46 to 000000000043ded8
  DW_CFA_remember_state
  DW_CFA_def_cfa_offset: 56
  DW_CFA_advance_loc: 8 to 000000000043dee0
  DW_CFA_def_cfa_offset: 48
  DW_CFA_advance_loc: 1 to 000000000043dee1
  DW_CFA_def_cfa_offset: 40
  DW_CFA_advance_loc: 2 to 000000000043dee3
  DW_CFA_def_cfa_offset: 32
  DW_CFA_advance_loc: 2 to 000000000043dee5
  DW_CFA_def_cfa_offset: 24
  DW_CFA_advance_loc: 2 to 000000000043dee7
  DW_CFA_def_cfa_offset: 16
  DW_CFA_advance_loc: 2 to 000000000043dee9
  DW_CFA_def_cfa_offset: 8
  DW_CFA_advance_loc: 5 to 000000000043deee
  DW_CFA_restore_state
  DW_CFA_advance_loc: 56 to 000000000043df26
  DW_CFA_remember_state
  DW_CFA_def_cfa_offset: 56
  DW_CFA_advance_loc: 8 to 000000000043df2e
  DW_CFA_def_cfa_offset: 48
  DW_CFA_advance_loc: 1 to 000000000043df2f
  DW_CFA_def_cfa_offset: 40
  DW_CFA_advance_loc: 2 to 000000000043df31
  DW_CFA_def_cfa_offset: 32
  DW_CFA_advance_loc: 2 to 000000000043df33
  DW_CFA_def_cfa_offset: 24
  DW_CFA_advance_loc: 2 to 000000000043df35
  DW_CFA_def_cfa_offset: 16
  DW_CFA_advance_loc: 2 to 000000000043df37
  DW_CFA_def_cfa_offset: 8
  DW_CFA_advance_loc: 5 to 000000000043df3c
  DW_CFA_restore_state
  DW_CFA_advance_loc: 46 to 000000000043df6a
  DW_CFA_remember_state
  DW_CFA_def_cfa_offset: 56
  DW_CFA_advance_loc: 8 to 000000000043df72
  DW_CFA_def_cfa_offset: 48
  DW_CFA_advance_loc: 1 to 000000000043df73
  DW_CFA_def_cfa_offset: 40
  DW_CFA_advance_loc: 2 to 000000000043df75
  DW_CFA_def_cfa_offset: 32
  DW_CFA_advance_loc: 2 to 000000000043df77
  DW_CFA_def_cfa_offset: 24
  DW_CFA_advance_loc: 2 to 000000000043df79
  DW_CFA_def_cfa_offset: 16
  DW_CFA_advance_loc: 2 to 000000000043df7b
  DW_CFA_def_cfa_offset: 8
  DW_CFA_advance_loc: 5 to 000000000043df80
  DW_CFA_restore_state
  DW_CFA_advance_loc: 56 to 000000000043dfb8
  DW_CFA_remember_state
  DW_CFA_def_cfa_offset: 56
  DW_CFA_advance_loc: 8 to 000000000043dfc0
  DW_CFA_def_cfa_offset: 48
  DW_CFA_advance_loc: 1 to 000000000043dfc1
  DW_CFA_def_cfa_offset: 40
  DW_CFA_advance_loc: 2 to 000000000043dfc3
  DW_CFA_def_cfa_offset: 32
  DW_CFA_advance_loc: 2 to 000000000043dfc5
  DW_CFA_def_cfa_offset: 24
  DW_CFA_advance_loc: 2 to 000000000043dfc7
  DW_CFA_def_cfa_offset: 16
  DW_CFA_advance_loc: 2 to 000000000043dfc9
  DW_CFA_def_cfa_offset: 8
  DW_CFA_advance_loc: 5 to 000000000043dfce
  DW_CFA_restore_state
  DW_CFA_advance_loc: 46 to 000000000043dffc
  DW_CFA_remember_state
  DW_CFA_def_cfa_offset: 56
  DW_CFA_advance_loc: 8 to 000000000043e004
  DW_CFA_def_cfa_offset: 48
  DW_CFA_advance_loc: 1 to 000000000043e005
  DW_CFA_def_cfa_offset: 40
  DW_CFA_advance_loc: 2 to 000000000043e007
  DW_CFA_def_cfa_offset: 32
  DW_CFA_advance_loc: 2 to 000000000043e009
  DW_CFA_def_cfa_offset: 24
  DW_CFA_advance_loc: 2 to 000000000043e00b
  DW_CFA_def_cfa_offset: 16
  DW_CFA_advance_loc: 2 to 000000000043e00d
  DW_CFA_def_cfa_offset: 8
  DW_CFA_advance_loc: 5 to 000000000043e012
  DW_CFA_restore_state
  DW_CFA_advance_loc: 56 to 000000000043e04a
  DW_CFA_remember_state
  DW_CFA_def_cfa_offset: 56
  DW_CFA_advance_loc: 8 to 000000000043e052
  DW_CFA_def_cfa_offset: 48
  DW_CFA_advance_loc: 1 to 000000000043e053
  DW_CFA_def_cfa_offset: 40
  DW_CFA_advance_loc: 2 to 000000000043e055
  DW_CFA_def_cfa_offset: 32
  DW_CFA_advance_loc: 2 to 000000000043e057
  DW_CFA_def_cfa_offset: 24
  DW_CFA_advance_loc: 2 to 000000000043e059
  DW_CFA_def_cfa_offset: 16
  DW_CFA_advance_loc: 2 to 000000000043e05b
  DW_CFA_def_cfa_offset: 8
  DW_CFA_advance_loc: 5 to 000000000043e060
  DW_CFA_restore_state
  DW_CFA_advance_loc: 46 to 000000000043e08e
  DW_CFA_remember_state
  DW_CFA_def_cfa_offset: 56
  DW_CFA_advance_loc: 8 to 000000000043e096
  DW_CFA_def_cfa_offset: 48
  DW_CFA_advance_loc: 1 to 000000000043e097
  DW_CFA_def_cfa_offset: 40
  DW_CFA_advance_loc: 2 to 000000000043e099
  DW_CFA_def_cfa_offset: 32
  DW_CFA_advance_loc: 2 to 000000000043e09b
  DW_CFA_def_cfa_offset: 24
  DW_CFA_advance_loc: 2 to 000000000043e09d
  DW_CFA_def_cfa_offset: 16
  DW_CFA_advance_loc: 2 to 000000000043e09f
  DW_CFA_def_cfa_offset: 8
  DW_CFA_advance_loc: 5 to 000000000043e0a4
  DW_CFA_restore_state
  DW_CFA_advance_loc: 56 to 000000000043e0dc
  DW_CFA_remember_state
  DW_CFA_def_cfa_offset: 56
  DW_CFA_advance_loc: 8 to 000000000043e0e4
  DW_CFA_def_cfa_offset: 48
  DW_CFA_advance_loc: 1 to 000000000043e0e5
  DW_CFA_def_cfa_offset: 40
  DW_CFA_advance_loc: 2 to 000000000043e0e7
  DW_CFA_def_cfa_offset: 32
  DW_CFA_advance_loc: 2 to 000000000043e0e9
  DW_CFA_def_cfa_offset: 24
  DW_CFA_advance_loc: 2 to 000000000043e0eb
  DW_CFA_def_cfa_offset: 16
  DW_CFA_advance_loc: 2 to 000000000043e0ed
  DW_CFA_def_cfa_offset: 8
  DW_CFA_advance_loc: 5 to 000000000043e0f2
  DW_CFA_restore_state
  DW_CFA_advance_loc: 46 to 000000000043e120
  DW_CFA_remember_state
  DW_CFA_def_cfa_offset: 56
  DW_CFA_advance_loc: 8 to 000000000043e128
  DW_CFA_def_cfa_offset: 48
  DW_CFA_advance_loc: 1 to 000000000043e129
  DW_CFA_def_cfa_offset: 40
  DW_CFA_advance_loc: 2 to 000000000043e12b
  DW_CFA_def_cfa_offset: 32
  DW_CFA_advance_loc: 2 to 000000000043e12d
  DW_CFA_def_cfa_offset: 24
  DW_CFA_advance_loc: 2 to 000000000043e12f
  DW_CFA_def_cfa_offset: 16
  DW_CFA_advance_loc: 2 to 000000000043e131
  DW_CFA_def_cfa_offset: 8
  DW_CFA_advance_loc: 5 to 000000000043e136
  DW_CFA_restore_state
  DW_CFA_advance_loc: 56 to 000000000043e16e
  DW_CFA_remember_state
  DW_CFA_def_cfa_offset: 56
  DW_CFA_advance_loc: 8 to 000000000043e176
  DW_CFA_def_cfa_offset: 48
  DW_CFA_advance_loc: 1 to 000000000043e177
  DW_CFA_def_cfa_offset: 40
  DW_CFA_advance_loc: 2 to 000000000043e179
  DW_CFA_def_cfa_offset: 32
  DW_CFA_advance_loc: 2 to 000000000043e17b
  DW_CFA_def_cfa_offset: 24
  DW_CFA_advance_loc: 2 to 000000000043e17d
  DW_CFA_def_cfa_offset: 16
  DW_CFA_advance_loc: 2 to 000000000043e17f
  DW_CFA_def_cfa_offset: 8
  DW_CFA_advance_loc: 5 to 000000000043e184
  DW_CFA_restore_state
  DW_CFA_advance_loc: 46 to 000000000043e1b2
  DW_CFA_remember_state
  DW_CFA_def_cfa_offset: 56
  DW_CFA_advance_loc: 8 to 000000000043e1ba
  DW_CFA_def_cfa_offset: 48
  DW_CFA_advance_loc: 1 to 000000000043e1bb
  DW_CFA_def_cfa_offset: 40
  DW_CFA_advance_loc: 2 to 000000000043e1bd
  DW_CFA_def_cfa_offset: 32
  DW_CFA_advance_loc: 2 to 000000000043e1bf
  DW_CFA_def_cfa_offset: 24
  DW_CFA_advance_loc: 2 to 000000000043e1c1
  DW_CFA_def_cfa_offset: 16
  DW_CFA_advance_loc: 2 to 000000000043e1c3
  DW_CFA_def_cfa_offset: 8
  DW_CFA_advance_loc: 5 to 000000000043e1c8
  DW_CFA_restore_state
  DW_CFA_advance_loc: 56 to 000000000043e200
  DW_CFA_remember_state
  DW_CFA_def_cfa_offset: 56
  DW_CFA_advance_loc: 8 to 000000000043e208
  DW_CFA_def_cfa_offset: 48
  DW_CFA_advance_loc: 1 to 000000000043e209
  DW_CFA_def_cfa_offset: 40
  DW_CFA_advance_loc: 2 to 000000000043e20b
  DW_CFA_def_cfa_offset: 32
  DW_CFA_advance_loc: 2 to 000000000043e20d
  DW_CFA_def_cfa_offset: 24
  DW_CFA_advance_loc: 2 to 000000000043e20f
  DW_CFA_def_cfa_offset: 16
  DW_CFA_advance_loc: 2 to 000000000043e211
  DW_CFA_def_cfa_offset: 8
  DW_CFA_advance_loc: 5 to 000000000043e216
  DW_CFA_restore_state
  DW_CFA_advance_loc: 46 to 000000000043e244
  DW_CFA_remember_state
  DW_CFA_def_cfa_offset: 56
  DW_CFA_advance_loc: 8 to 000000000043e24c
  DW_CFA_def_cfa_offset: 48
  DW_CFA_advance_loc: 1 to 000000000043e24d
  DW_CFA_def_cfa_offset: 40
  DW_CFA_advance_loc: 2 to 000000000043e24f
  DW_CFA_def_cfa_offset: 32
  DW_CFA_advance_loc: 2 to 000000000043e251
  DW_CFA_def_cfa_offset: 24
  DW_CFA_advance_loc: 2 to 000000000043e253
  DW_CFA_def_cfa_offset: 16
  DW_CFA_advance_loc: 2 to 000000000043e255
  DW_CFA_def_cfa_offset: 8
  DW_CFA_advance_loc: 5 to 000000000043e25a
  DW_CFA_restore_state
  DW_CFA_advance_loc: 56 to 000000000043e292
  DW_CFA_remember_state
  DW_CFA_def_cfa_offset: 56
  DW_CFA_advance_loc: 8 to 000000000043e29a
  DW_CFA_def_cfa_offset: 48
  DW_CFA_advance_loc: 1 to 000000000043e29b
  DW_CFA_def_cfa_offset: 40
  DW_CFA_advance_loc: 2 to 000000000043e29d
  DW_CFA_def_cfa_offset: 32
  DW_CFA_advance_loc: 2 to 000000000043e29f
  DW_CFA_def_cfa_offset: 24
  DW_CFA_advance_loc: 2 to 000000000043e2a1
  DW_CFA_def_cfa_offset: 16
  DW_CFA_advance_loc: 2 to 000000000043e2a3
  DW_CFA_def_cfa_offset: 8
  DW_CFA_advance_loc: 5 to 000000000043e2a8
  DW_CFA_restore_state
  DW_CFA_advance_loc: 46 to 000000000043e2d6
  DW_CFA_remember_state
  DW_CFA_def_cfa_offset: 56
  DW_CFA_advance_loc: 8 to 000000000043e2de
  DW_CFA_def_cfa_offset: 48
  DW_CFA_advance_loc: 1 to 000000000043e2df
  DW_CFA_def_cfa_offset: 40
  DW_CFA_advance_loc: 2 to 000000000043e2e1
  DW_CFA_def_cfa_offset: 32
  DW_CFA_advance_loc: 2 to 000000000043e2e3
  DW_CFA_def_cfa_offset: 24
  DW_CFA_advance_loc: 2 to 000000000043e2e5
  DW_CFA_def_cfa_offset: 16
  DW_CFA_advance_loc: 2 to 000000000043e2e7
  DW_CFA_def_cfa_offset: 8
  DW_CFA_advance_loc: 5 to 000000000043e2ec
  DW_CFA_restore_state
  DW_CFA_advance_loc: 56 to 000000000043e324
  DW_CFA_remember_state
  DW_CFA_def_cfa_offset: 56
  DW_CFA_advance_loc: 8 to 000000000043e32c
  DW_CFA_def_cfa_offset: 48
  DW_CFA_advance_loc: 1 to 000000000043e32d
  DW_CFA_def_cfa_offset: 40
  DW_CFA_advance_loc: 2 to 000000000043e32f
  DW_CFA_def_cfa_offset: 32
  DW_CFA_advance_loc: 2 to 000000000043e331
  DW_CFA_def_cfa_offset: 24
  DW_CFA_advance_loc: 2 to 000000000043e333
  DW_CFA_def_cfa_offset: 16
  DW_CFA_advance_loc: 2 to 000000000043e335
  DW_CFA_def_cfa_offset: 8
  DW_CFA_advance_loc: 5 to 000000000043e33a
  DW_CFA_restore_state
  DW_CFA_advance_loc: 46 to 000000000043e368
  DW_CFA_remember_state
  DW_CFA_def_cfa_offset: 56
  DW_CFA_advance_loc: 8 to 000000000043e370
  DW_CFA_def_cfa_offset: 48
  DW_CFA_advance_loc: 1 to 000000000043e371
  DW_CFA_def_cfa_offset: 40
  DW_CFA_advance_loc: 2 to 000000000043e373
  DW_CFA_def_cfa_offset: 32
  DW_CFA_advance_loc: 2 to 000000000043e375
  DW_CFA_def_cfa_offset: 24
  DW_CFA_advance_loc: 2 to 000000000043e377
  DW_CFA_def_cfa_offset: 16
  DW_CFA_advance_loc: 2 to 000000000043e379
  DW_CFA_def_cfa_offset: 8
  DW_CFA_advance_loc: 5 to 000000000043e37e
  DW_CFA_restore_state
  DW_CFA_advance_loc: 56 to 000000000043e3b6
  DW_CFA_remember_state
  DW_CFA_def_cfa_offset: 56
  DW_CFA_advance_loc: 8 to 000000000043e3be
  DW_CFA_def_cfa_offset: 48
  DW_CFA_advance_loc: 1 to 000000000043e3bf
  DW_CFA_def_cfa_offset: 40
  DW_CFA_advance_loc: 2 to 000000000043e3c1
  DW_CFA_def_cfa_offset: 32
  DW_CFA_advance_loc: 2 to 000000000043e3c3
  DW_CFA_def_cfa_offset: 24
  DW_CFA_advance_loc: 2 to 000000000043e3c5
  DW_CFA_def_cfa_offset: 16
  DW_CFA_advance_loc: 2 to 000000000043e3c7
  DW_CFA_def_cfa_offset: 8
  DW_CFA_advance_loc: 5 to 000000000043e3cc
  DW_CFA_restore_state
  DW_CFA_advance_loc: 46 to 000000000043e3fa
  DW_CFA_remember_state
  DW_CFA_def_cfa_offset: 56
  DW_CFA_advance_loc: 8 to 000000000043e402
  DW_CFA_def_cfa_offset: 48
  DW_CFA_advance_loc: 1 to 000000000043e403
  DW_CFA_def_cfa_offset: 40
  DW_CFA_advance_loc: 2 to 000000000043e405
  DW_CFA_def_cfa_offset: 32
  DW_CFA_advance_loc: 2 to 000000000043e407
  DW_CFA_def_cfa_offset: 24
  DW_CFA_advance_loc: 2 to 000000000043e409
  DW_CFA_def_cfa_offset: 16
  DW_CFA_advance_loc: 2 to 000000000043e40b
  DW_CFA_def_cfa_offset: 8
  DW_CFA_advance_loc: 5 to 000000000043e410
  DW_CFA_restore_state
  DW_CFA_advance_loc: 56 to 000000000043e448
  DW_CFA_remember_state
  DW_CFA_def_cfa_offset: 56
  DW_CFA_advance_loc: 8 to 000000000043e450
  DW_CFA_def_cfa_offset: 48
  DW_CFA_advance_loc: 1 to 000000000043e451
  DW_CFA_def_cfa_offset: 40
  DW_CFA_advance_loc: 2 to 000000000043e453
  DW_CFA_def_cfa_offset: 32
  DW_CFA_advance_loc: 2 to 000000000043e455
  DW_CFA_def_cfa_offset: 24
  DW_CFA_advance_loc: 2 to 000000000043e457
  DW_CFA_def_cfa_offset: 16
  DW_CFA_advance_loc: 2 to 000000000043e459
  DW_CFA_def_cfa_offset: 8
  DW_CFA_advance_loc: 5 to 000000000043e45e
  DW_CFA_restore_state
  DW_CFA_advance_loc: 46 to 000000000043e48c
  DW_CFA_remember_state
  DW_CFA_def_cfa_offset: 56
  DW_CFA_advance_loc: 8 to 000000000043e494
  DW_CFA_def_cfa_offset: 48
  DW_CFA_advance_loc: 1 to 000000000043e495
  DW_CFA_def_cfa_offset: 40
  DW_CFA_advance_loc: 2 to 000000000043e497
  DW_CFA_def_cfa_offset: 32
  DW_CFA_advance_loc: 2 to 000000000043e499
  DW_CFA_def_cfa_offset: 24
  DW_CFA_advance_loc: 2 to 000000000043e49b
  DW_CFA_def_cfa_offset: 16
  DW_CFA_advance_loc: 2 to 000000000043e49d
  DW_CFA_def_cfa_offset: 8
  DW_CFA_advance_loc: 5 to 000000000043e4a2
  DW_CFA_restore_state
  DW_CFA_advance_loc: 56 to 000000000043e4da
  DW_CFA_remember_state
  DW_CFA_def_cfa_offset: 56
  DW_CFA_advance_loc: 8 to 000000000043e4e2
  DW_CFA_def_cfa_offset: 48
  DW_CFA_advance_loc: 1 to 000000000043e4e3
  DW_CFA_def_cfa_offset: 40
  DW_CFA_advance_loc: 2 to 000000000043e4e5
  DW_CFA_def_cfa_offset: 32
  DW_CFA_advance_loc: 2 to 000000000043e4e7
  DW_CFA_def_cfa_offset: 24
  DW_CFA_advance_loc: 2 to 000000000043e4e9
  DW_CFA_def_cfa_offset: 16
  DW_CFA_advance_loc: 2 to 000000000043e4eb
  DW_CFA_def_cfa_offset: 8
  DW_CFA_advance_loc: 5 to 000000000043e4f0
  DW_CFA_restore_state
  DW_CFA_advance_loc: 46 to 000000000043e51e
  DW_CFA_remember_state
  DW_CFA_def_cfa_offset: 56
  DW_CFA_advance_loc: 8 to 000000000043e526
  DW_CFA_def_cfa_offset: 48
  DW_CFA_advance_loc: 1 to 000000000043e527
  DW_CFA_def_cfa_offset: 40
  DW_CFA_advance_loc: 2 to 000000000043e529
  DW_CFA_def_cfa_offset: 32
  DW_CFA_advance_loc: 2 to 000000000043e52b
  DW_CFA_def_cfa_offset: 24
  DW_CFA_advance_loc: 2 to 000000000043e52d
  DW_CFA_def_cfa_offset: 16
  DW_CFA_advance_loc: 2 to 000000000043e52f
  DW_CFA_def_cfa_offset: 8
  DW_CFA_advance_loc: 5 to 000000000043e534
  DW_CFA_restore_state
  DW_CFA_advance_loc: 56 to 000000000043e56c
  DW_CFA_remember_state
  DW_CFA_def_cfa_offset: 56
  DW_CFA_advance_loc: 8 to 000000000043e574
  DW_CFA_def_cfa_offset: 48
  DW_CFA_advance_loc: 1 to 000000000043e575
  DW_CFA_def_cfa_offset: 40
  DW_CFA_advance_loc: 2 to 000000000043e577
  DW_CFA_def_cfa_offset: 32
  DW_CFA_advance_loc: 2 to 000000000043e579
  DW_CFA_def_cfa_offset: 24
  DW_CFA_advance_loc: 2 to 000000000043e57b
  DW_CFA_def_cfa_offset: 16
  DW_CFA_advance_loc: 2 to 000000000043e57d
  DW_CFA_def_cfa_offset: 8
  DW_CFA_advance_loc: 5 to 000000000043e582
  DW_CFA_restore_state
  DW_CFA_advance_loc: 46 to 000000000043e5b0
  DW_CFA_remember_state
  DW_CFA_def_cfa_offset: 56
  DW_CFA_advance_loc: 8 to 000000000043e5b8
  DW_CFA_def_cfa_offset: 48
  DW_CFA_advance_loc: 1 to 000000000043e5b9
  DW_CFA_def_cfa_offset: 40
  DW_CFA_advance_loc: 2 to 000000000043e5bb
  DW_CFA_def_cfa_offset: 32
  DW_CFA_advance_loc: 2 to 000000000043e5bd
  DW_CFA_def_cfa_offset: 24
  DW_CFA_advance_loc: 2 to 000000000043e5bf
  DW_CFA_def_cfa_offset: 16
  DW_CFA_advance_loc: 2 to 000000000043e5c1
  DW_CFA_def_cfa_offset: 8
  DW_CFA_advance_loc: 5 to 000000000043e5c6
  DW_CFA_restore_state
  DW_CFA_advance_loc: 56 to 000000000043e5fe
  DW_CFA_remember_state
  DW_CFA_def_cfa_offset: 56
  DW_CFA_advance_loc: 8 to 000000000043e606
  DW_CFA_def_cfa_offset: 48
  DW_CFA_advance_loc: 1 to 000000000043e607
  DW_CFA_def_cfa_offset: 40
  DW_CFA_advance_loc: 2 to 000000000043e609
  DW_CFA_def_cfa_offset: 32
  DW_CFA_advance_loc: 2 to 000000000043e60b
  DW_CFA_def_cfa_offset: 24
  DW_CFA_advance_loc: 2 to 000000000043e60d
  DW_CFA_def_cfa_offset: 16
  DW_CFA_advance_loc: 2 to 000000000043e60f
  DW_CFA_def_cfa_offset: 8
  DW_CFA_advance_loc: 5 to 000000000043e614
  DW_CFA_restore_state
  DW_CFA_advance_loc: 46 to 000000000043e642
  DW_CFA_remember_state
  DW_CFA_def_cfa_offset: 56
  DW_CFA_advance_loc: 8 to 000000000043e64a
  DW_CFA_def_cfa_offset: 48
  DW_CFA_advance_loc: 1 to 000000000043e64b
  DW_CFA_def_cfa_offset: 40
  DW_CFA_advance_loc: 2 to 000000000043e64d
  DW_CFA_def_cfa_offset: 32
  DW_CFA_advance_loc: 2 to 000000000043e64f
  DW_CFA_def_cfa_offset: 24
  DW_CFA_advance_loc: 2 to 000000000043e651
  DW_CFA_def_cfa_offset: 16
  DW_CFA_advance_loc: 2 to 000000000043e653
  DW_CFA_def_cfa_offset: 8
  DW_CFA_advance_loc: 5 to 000000000043e658
  DW_CFA_restore_state
  DW_CFA_advance_loc: 56 to 000000000043e690
  DW_CFA_remember_state
  DW_CFA_def_cfa_offset: 56
  DW_CFA_advance_loc: 8 to 000000000043e698
  DW_CFA_def_cfa_offset: 48
  DW_CFA_advance_loc: 1 to 000000000043e699
  DW_CFA_def_cfa_offset: 40
  DW_CFA_advance_loc: 2 to 000000000043e69b
  DW_CFA_def_cfa_offset: 32
  DW_CFA_advance_loc: 2 to 000000000043e69d
  DW_CFA_def_cfa_offset: 24
  DW_CFA_advance_loc: 2 to 000000000043e69f
  DW_CFA_def_cfa_offset: 16
  DW_CFA_advance_loc: 2 to 000000000043e6a1
  DW_CFA_def_cfa_offset: 8
  DW_CFA_advance_loc: 5 to 000000000043e6a6
  DW_CFA_restore_state
  DW_CFA_advance_loc: 46 to 000000000043e6d4
  DW_CFA_remember_state
  DW_CFA_def_cfa_offset: 56
  DW_CFA_advance_loc: 8 to 000000000043e6dc
  DW_CFA_def_cfa_offset: 48
  DW_CFA_advance_loc: 1 to 000000000043e6dd
  DW_CFA_def_cfa_offset: 40
  DW_CFA_advance_loc: 2 to 000000000043e6df
  DW_CFA_def_cfa_offset: 32
  DW_CFA_advance_loc: 2 to 000000000043e6e1
  DW_CFA_def_cfa_offset: 24
  DW_CFA_advance_loc: 2 to 000000000043e6e3
  DW_CFA_def_cfa_offset: 16
  DW_CFA_advance_loc: 2 to 000000000043e6e5
  DW_CFA_def_cfa_offset: 8
  DW_CFA_advance_loc: 5 to 000000000043e6ea
  DW_CFA_restore_state
  DW_CFA_advance_loc: 56 to 000000000043e722
  DW_CFA_remember_state
  DW_CFA_def_cfa_offset: 56
  DW_CFA_advance_loc: 8 to 000000000043e72a
  DW_CFA_def_cfa_offset: 48
  DW_CFA_advance_loc: 1 to 000000000043e72b
  DW_CFA_def_cfa_offset: 40
  DW_CFA_advance_loc: 2 to 000000000043e72d
  DW_CFA_def_cfa_offset: 32
  DW_CFA_advance_loc: 2 to 000000000043e72f
  DW_CFA_def_cfa_offset: 24
  DW_CFA_advance_loc: 2 to 000000000043e731
  DW_CFA_def_cfa_offset: 16
  DW_CFA_advance_loc: 2 to 000000000043e733
  DW_CFA_def_cfa_offset: 8
  DW_CFA_advance_loc: 5 to 000000000043e738
  DW_CFA_restore_state
  DW_CFA_advance_loc: 46 to 000000000043e766
  DW_CFA_remember_state
  DW_CFA_def_cfa_offset: 56
  DW_CFA_advance_loc: 8 to 000000000043e76e
  DW_CFA_def_cfa_offset: 48
  DW_CFA_advance_loc: 1 to 000000000043e76f
  DW_CFA_def_cfa_offset: 40
  DW_CFA_advance_loc: 2 to 000000000043e771
  DW_CFA_def_cfa_offset: 32
  DW_CFA_advance_loc: 2 to 000000000043e773
  DW_CFA_def_cfa_offset: 24
  DW_CFA_advance_loc: 2 to 000000000043e775
  DW_CFA_def_cfa_offset: 16
  DW_CFA_advance_loc: 2 to 000000000043e777
  DW_CFA_def_cfa_offset: 8
  DW_CFA_advance_loc: 5 to 000000000043e77c
  DW_CFA_restore_state
  DW_CFA_advance_loc: 56 to 000000000043e7b4
  DW_CFA_remember_state
  DW_CFA_def_cfa_offset: 56
  DW_CFA_advance_loc: 8 to 000000000043e7bc
  DW_CFA_def_cfa_offset: 48
  DW_CFA_advance_loc: 1 to 000000000043e7bd
  DW_CFA_def_cfa_offset: 40
  DW_CFA_advance_loc: 2 to 000000000043e7bf
  DW_CFA_def_cfa_offset: 32
  DW_CFA_advance_loc: 2 to 000000000043e7c1
  DW_CFA_def_cfa_offset: 24
  DW_CFA_advance_loc: 2 to 000000000043e7c3
  DW_CFA_def_cfa_offset: 16
  DW_CFA_advance_loc: 2 to 000000000043e7c5
  DW_CFA_def_cfa_offset: 8
  DW_CFA_advance_loc: 5 to 000000000043e7ca
  DW_CFA_restore_state
  DW_CFA_advance_loc: 46 to 000000000043e7f8
  DW_CFA_remember_state
  DW_CFA_def_cfa_offset: 56
  DW_CFA_advance_loc: 8 to 000000000043e800
  DW_CFA_def_cfa_offset: 48
  DW_CFA_advance_loc: 1 to 000000000043e801
  DW_CFA_def_cfa_offset: 40
  DW_CFA_advance_loc: 2 to 000000000043e803
  DW_CFA_def_cfa_offset: 32
  DW_CFA_advance_loc: 2 to 000000000043e805
  DW_CFA_def_cfa_offset: 24
  DW_CFA_advance_loc: 2 to 000000000043e807
  DW_CFA_def_cfa_offset: 16
  DW_CFA_advance_loc: 2 to 000000000043e809
  DW_CFA_def_cfa_offset: 8
  DW_CFA_advance_loc: 5 to 000000000043e80e
  DW_CFA_restore_state
  DW_CFA_advance_loc: 56 to 000000000043e846
  DW_CFA_remember_state
  DW_CFA_def_cfa_offset: 56
  DW_CFA_advance_loc: 8 to 000000000043e84e
  DW_CFA_def_cfa_offset: 48
  DW_CFA_advance_loc: 1 to 000000000043e84f
  DW_CFA_def_cfa_offset: 40
  DW_CFA_advance_loc: 2 to 000000000043e851
  DW_CFA_def_cfa_offset: 32
  DW_CFA_advance_loc: 2 to 000000000043e853
  DW_CFA_def_cfa_offset: 24
  DW_CFA_advance_loc: 2 to 000000000043e855
  DW_CFA_def_cfa_offset: 16
  DW_CFA_advance_loc: 2 to 000000000043e857
  DW_CFA_def_cfa_offset: 8
  DW_CFA_advance_loc: 5 to 000000000043e85c
  DW_CFA_restore_state
  DW_CFA_advance_loc: 46 to 000000000043e88a
  DW_CFA_remember_state
  DW_CFA_def_cfa_offset: 56
  DW_CFA_advance_loc: 8 to 000000000043e892
  DW_CFA_def_cfa_offset: 48
  DW_CFA_advance_loc: 1 to 000000000043e893
  DW_CFA_def_cfa_offset: 40
  DW_CFA_advance_loc: 2 to 000000000043e895
  DW_CFA_def_cfa_offset: 32
  DW_CFA_advance_loc: 2 to 000000000043e897
  DW_CFA_def_cfa_offset: 24
  DW_CFA_advance_loc: 2 to 000000000043e899
  DW_CFA_def_cfa_offset: 16
  DW_CFA_advance_loc: 2 to 000000000043e89b
  DW_CFA_def_cfa_offset: 8
  DW_CFA_advance_loc: 5 to 000000000043e8a0
  DW_CFA_restore_state
  DW_CFA_advance_loc: 56 to 000000000043e8d8
  DW_CFA_remember_state
  DW_CFA_def_cfa_offset: 56
  DW_CFA_advance_loc: 8 to 000000000043e8e0
  DW_CFA_def_cfa_offset: 48
  DW_CFA_advance_loc: 1 to 000000000043e8e1
  DW_CFA_def_cfa_offset: 40
  DW_CFA_advance_loc: 2 to 000000000043e8e3
  DW_CFA_def_cfa_offset: 32
  DW_CFA_advance_loc: 2 to 000000000043e8e5
  DW_CFA_def_cfa_offset: 24
  DW_CFA_advance_loc: 2 to 000000000043e8e7
  DW_CFA_def_cfa_offset: 16
  DW_CFA_advance_loc: 2 to 000000000043e8e9
  DW_CFA_def_cfa_offset: 8
  DW_CFA_advance_loc: 5 to 000000000043e8ee
  DW_CFA_restore_state
  DW_CFA_advance_loc: 46 to 000000000043e91c
  DW_CFA_remember_state
  DW_CFA_def_cfa_offset: 56
  DW_CFA_advance_loc: 8 to 000000000043e924
  DW_CFA_def_cfa_offset: 48
  DW_CFA_advance_loc: 1 to 000000000043e925
  DW_CFA_def_cfa_offset: 40
  DW_CFA_advance_loc: 2 to 000000000043e927
  DW_CFA_def_cfa_offset: 32
  DW_CFA_advance_loc: 2 to 000000000043e929
  DW_CFA_def_cfa_offset: 24
  DW_CFA_advance_loc: 2 to 000000000043e92b
  DW_CFA_def_cfa_offset: 16
  DW_CFA_advance_loc: 2 to 000000000043e92d
  DW_CFA_def_cfa_offset: 8
  DW_CFA_advance_loc: 5 to 000000000043e932
  DW_CFA_restore_state
  DW_CFA_advance_loc: 56 to 000000000043e96a
  DW_CFA_remember_state
  DW_CFA_def_cfa_offset: 56
  DW_CFA_advance_loc: 8 to 000000000043e972
  DW_CFA_def_cfa_offset: 48
  DW_CFA_advance_loc: 1 to 000000000043e973
  DW_CFA_def_cfa_offset: 40
  DW_CFA_advance_loc: 2 to 000000000043e975
  DW_CFA_def_cfa_offset: 32
  DW_CFA_advance_loc: 2 to 000000000043e977
  DW_CFA_def_cfa_offset: 24
  DW_CFA_advance_loc: 2 to 000000000043e979
  DW_CFA_def_cfa_offset: 16
  DW_CFA_advance_loc: 2 to 000000000043e97b
  DW_CFA_def_cfa_offset: 8
  DW_CFA_advance_loc: 5 to 000000000043e980
  DW_CFA_restore_state
  DW_CFA_advance_loc: 46 to 000000000043e9ae
  DW_CFA_remember_state
  DW_CFA_def_cfa_offset: 56
  DW_CFA_advance_loc: 8 to 000000000043e9b6
  DW_CFA_def_cfa_offset: 48
  DW_CFA_advance_loc: 1 to 000000000043e9b7
  DW_CFA_def_cfa_offset: 40
  DW_CFA_advance_loc: 2 to 000000000043e9b9
  DW_CFA_def_cfa_offset: 32
  DW_CFA_advance_loc: 2 to 000000000043e9bb
  DW_CFA_def_cfa_offset: 24
  DW_CFA_advance_loc: 2 to 000000000043e9bd
  DW_CFA_def_cfa_offset: 16
  DW_CFA_advance_loc: 2 to 000000000043e9bf
  DW_CFA_def_cfa_offset: 8
  DW_CFA_advance_loc: 5 to 000000000043e9c4
  DW_CFA_restore_state
  DW_CFA_advance_loc: 56 to 000000000043e9fc
  DW_CFA_remember_state
  DW_CFA_def_cfa_offset: 56
  DW_CFA_advance_loc: 8 to 000000000043ea04
  DW_CFA_def_cfa_offset: 48
  DW_CFA_advance_loc: 1 to 000000000043ea05
  DW_CFA_def_cfa_offset: 40
  DW_CFA_advance_loc: 2 to 000000000043ea07
  DW_CFA_def_cfa_offset: 32
  DW_CFA_advance_loc: 2 to 000000000043ea09
  DW_CFA_def_cfa_offset: 24
  DW_CFA_advance_loc: 2 to 000000000043ea0b
  DW_CFA_def_cfa_offset: 16
  DW_CFA_advance_loc: 2 to 000000000043ea0d
  DW_CFA_def_cfa_offset: 8
  DW_CFA_advance_loc: 5 to 000000000043ea12
  DW_CFA_restore_state
  DW_CFA_advance_loc: 46 to 000000000043ea40
  DW_CFA_remember_state
  DW_CFA_def_cfa_offset: 56
  DW_CFA_advance_loc: 8 to 000000000043ea48
  DW_CFA_def_cfa_offset: 48
  DW_CFA_advance_loc: 1 to 000000000043ea49
  DW_CFA_def_cfa_offset: 40
  DW_CFA_advance_loc: 2 to 000000000043ea4b
  DW_CFA_def_cfa_offset: 32
  DW_CFA_advance_loc: 2 to 000000000043ea4d
  DW_CFA_def_cfa_offset: 24
  DW_CFA_advance_loc: 2 to 000000000043ea4f
  DW_CFA_def_cfa_offset: 16
  DW_CFA_advance_loc: 2 to 000000000043ea51
  DW_CFA_def_cfa_offset: 8
  DW_CFA_advance_loc: 5 to 000000000043ea56
  DW_CFA_restore_state
  DW_CFA_advance_loc: 56 to 000000000043ea8e
  DW_CFA_remember_state
  DW_CFA_def_cfa_offset: 56
  DW_CFA_advance_loc: 8 to 000000000043ea96
  DW_CFA_def_cfa_offset: 48
  DW_CFA_advance_loc: 1 to 000000000043ea97
  DW_CFA_def_cfa_offset: 40
  DW_CFA_advance_loc: 2 to 000000000043ea99
  DW_CFA_def_cfa_offset: 32
  DW_CFA_advance_loc: 2 to 000000000043ea9b
  DW_CFA_def_cfa_offset: 24
  DW_CFA_advance_loc: 2 to 000000000043ea9d
  DW_CFA_def_cfa_offset: 16
  DW_CFA_advance_loc: 2 to 000000000043ea9f
  DW_CFA_def_cfa_offset: 8
  DW_CFA_advance_loc: 5 to 000000000043eaa4
  DW_CFA_restore_state
  DW_CFA_advance_loc: 46 to 000000000043ead2
  DW_CFA_remember_state
  DW_CFA_def_cfa_offset: 56
  DW_CFA_advance_loc: 8 to 000000000043eada
  DW_CFA_def_cfa_offset: 48
  DW_CFA_advance_loc: 1 to 000000000043eadb
  DW_CFA_def_cfa_offset: 40
  DW_CFA_advance_loc: 2 to 000000000043eadd
  DW_CFA_def_cfa_offset: 32
  DW_CFA_advance_loc: 2 to 000000000043eadf
  DW_CFA_def_cfa_offset: 24
  DW_CFA_advance_loc: 2 to 000000000043eae1
  DW_CFA_def_cfa_offset: 16
  DW_CFA_advance_loc: 2 to 000000000043eae3
  DW_CFA_def_cfa_offset: 8
  DW_CFA_advance_loc: 5 to 000000000043eae8
  DW_CFA_restore_state
  DW_CFA_advance_loc: 56 to 000000000043eb20
  DW_CFA_remember_state
  DW_CFA_def_cfa_offset: 56
  DW_CFA_advance_loc: 8 to 000000000043eb28
  DW_CFA_def_cfa_offset: 48
  DW_CFA_advance_loc: 1 to 000000000043eb29
  DW_CFA_def_cfa_offset: 40
  DW_CFA_advance_loc: 2 to 000000000043eb2b
  DW_CFA_def_cfa_offset: 32
  DW_CFA_advance_loc: 2 to 000000000043eb2d
  DW_CFA_def_cfa_offset: 24
  DW_CFA_advance_loc: 2 to 000000000043eb2f
  DW_CFA_def_cfa_offset: 16
  DW_CFA_advance_loc: 2 to 000000000043eb31
  DW_CFA_def_cfa_offset: 8
  DW_CFA_advance_loc: 5 to 000000000043eb36
  DW_CFA_restore_state
  DW_CFA_advance_loc: 46 to 000000000043eb64
  DW_CFA_remember_state
  DW_CFA_def_cfa_offset: 56
  DW_CFA_advance_loc: 8 to 000000000043eb6c
  DW_CFA_def_cfa_offset: 48
  DW_CFA_advance_loc: 1 to 000000000043eb6d
  DW_CFA_def_cfa_offset: 40
  DW_CFA_advance_loc: 2 to 000000000043eb6f
  DW_CFA_def_cfa_offset: 32
  DW_CFA_advance_loc: 2 to 000000000043eb71
  DW_CFA_def_cfa_offset: 24
  DW_CFA_advance_loc: 2 to 000000000043eb73
  DW_CFA_def_cfa_offset: 16
  DW_CFA_advance_loc: 2 to 000000000043eb75
  DW_CFA_def_cfa_offset: 8
  DW_CFA_advance_loc: 5 to 000000000043eb7a
  DW_CFA_restore_state
  DW_CFA_advance_loc: 56 to 000000000043ebb2
  DW_CFA_remember_state
  DW_CFA_def_cfa_offset: 56
  DW_CFA_advance_loc: 8 to 000000000043ebba
  DW_CFA_def_cfa_offset: 48
  DW_CFA_advance_loc: 1 to 000000000043ebbb
  DW_CFA_def_cfa_offset: 40
  DW_CFA_advance_loc: 2 to 000000000043ebbd
  DW_CFA_def_cfa_offset: 32
  DW_CFA_advance_loc: 2 to 000000000043ebbf
  DW_CFA_def_cfa_offset: 24
  DW_CFA_advance_loc: 2 to 000000000043ebc1
  DW_CFA_def_cfa_offset: 16
  DW_CFA_advance_loc: 2 to 000000000043ebc3
  DW_CFA_def_cfa_offset: 8
  DW_CFA_advance_loc: 5 to 000000000043ebc8
  DW_CFA_restore_state
  DW_CFA_advance_loc: 46 to 000000000043ebf6
  DW_CFA_remember_state
  DW_CFA_def_cfa_offset: 56
  DW_CFA_advance_loc: 8 to 000000000043ebfe
  DW_CFA_def_cfa_offset: 48
  DW_CFA_advance_loc: 1 to 000000000043ebff
  DW_CFA_def_cfa_offset: 40
  DW_CFA_advance_loc: 2 to 000000000043ec01
  DW_CFA_def_cfa_offset: 32
  DW_CFA_advance_loc: 2 to 000000000043ec03
  DW_CFA_def_cfa_offset: 24
  DW_CFA_advance_loc: 2 to 000000000043ec05
  DW_CFA_def_cfa_offset: 16
  DW_CFA_advance_loc: 2 to 000000000043ec07
  DW_CFA_def_cfa_offset: 8
  DW_CFA_advance_loc: 5 to 000000000043ec0c
  DW_CFA_restore_state
  DW_CFA_advance_loc: 56 to 000000000043ec44
  DW_CFA_remember_state
  DW_CFA_def_cfa_offset: 56
  DW_CFA_advance_loc: 8 to 000000000043ec4c
  DW_CFA_def_cfa_offset: 48
  DW_CFA_advance_loc: 1 to 000000000043ec4d
  DW_CFA_def_cfa_offset: 40
  DW_CFA_advance_loc: 2 to 000000000043ec4f
  DW_CFA_def_cfa_offset: 32
  DW_CFA_advance_loc: 2 to 000000000043ec51
  DW_CFA_def_cfa_offset: 24
  DW_CFA_advance_loc: 2 to 000000000043ec53
  DW_CFA_def_cfa_offset: 16
  DW_CFA_advance_loc: 2 to 000000000043ec55
  DW_CFA_def_cfa_offset: 8
  DW_CFA_advance_loc: 5 to 000000000043ec5a
  DW_CFA_restore_state
  DW_CFA_advance_loc: 46 to 000000000043ec88
  DW_CFA_remember_state
  DW_CFA_def_cfa_offset: 56
  DW_CFA_advance_loc: 8 to 000000000043ec90
  DW_CFA_def_cfa_offset: 48
  DW_CFA_advance_loc: 1 to 000000000043ec91
  DW_CFA_def_cfa_offset: 40
  DW_CFA_advance_loc: 2 to 000000000043ec93
  DW_CFA_def_cfa_offset: 32
  DW_CFA_advance_loc: 2 to 000000000043ec95
  DW_CFA_def_cfa_offset: 24
  DW_CFA_advance_loc: 2 to 000000000043ec97
  DW_CFA_def_cfa_offset: 16
  DW_CFA_advance_loc: 2 to 000000000043ec99
  DW_CFA_def_cfa_offset: 8
  DW_CFA_advance_loc: 5 to 000000000043ec9e
  DW_CFA_restore_state
  DW_CFA_advance_loc: 56 to 000000000043ecd6
  DW_CFA_remember_state
  DW_CFA_def_cfa_offset: 56
  DW_CFA_advance_loc: 8 to 000000000043ecde
  DW_CFA_def_cfa_offset: 48
  DW_CFA_advance_loc: 1 to 000000000043ecdf
  DW_CFA_def_cfa_offset: 40
  DW_CFA_advance_loc: 2 to 000000000043ece1
  DW_CFA_def_cfa_offset: 32
  DW_CFA_advance_loc: 2 to 000000000043ece3
  DW_CFA_def_cfa_offset: 24
  DW_CFA_advance_loc: 2 to 000000000043ece5
  DW_CFA_def_cfa_offset: 16
  DW_CFA_advance_loc: 2 to 000000000043ece7
  DW_CFA_def_cfa_offset: 8
  DW_CFA_advance_loc: 5 to 000000000043ecec
  DW_CFA_restore_state
  DW_CFA_advance_loc: 46 to 000000000043ed1a
  DW_CFA_remember_state
  DW_CFA_def_cfa_offset: 56
  DW_CFA_advance_loc: 8 to 000000000043ed22
  DW_CFA_def_cfa_offset: 48
  DW_CFA_advance_loc: 1 to 000000000043ed23
  DW_CFA_def_cfa_offset: 40
  DW_CFA_advance_loc: 2 to 000000000043ed25
  DW_CFA_def_cfa_offset: 32
  DW_CFA_advance_loc: 2 to 000000000043ed27
  DW_CFA_def_cfa_offset: 24
  DW_CFA_advance_loc: 2 to 000000000043ed29
  DW_CFA_def_cfa_offset: 16
  DW_CFA_advance_loc: 2 to 000000000043ed2b
  DW_CFA_def_cfa_offset: 8
  DW_CFA_advance_loc: 5 to 000000000043ed30
  DW_CFA_restore_state
  DW_CFA_advance_loc: 56 to 000000000043ed68
  DW_CFA_remember_state
  DW_CFA_def_cfa_offset: 56
  DW_CFA_advance_loc: 8 to 000000000043ed70
  DW_CFA_def_cfa_offset: 48
  DW_CFA_advance_loc: 1 to 000000000043ed71
  DW_CFA_def_cfa_offset: 40
  DW_CFA_advance_loc: 2 to 000000000043ed73
  DW_CFA_def_cfa_offset: 32
  DW_CFA_advance_loc: 2 to 000000000043ed75
  DW_CFA_def_cfa_offset: 24
  DW_CFA_advance_loc: 2 to 000000000043ed77
  DW_CFA_def_cfa_offset: 16
  DW_CFA_advance_loc: 2 to 000000000043ed79
  DW_CFA_def_cfa_offset: 8
  DW_CFA_advance_loc: 5 to 000000000043ed7e
  DW_CFA_restore_state
  DW_CFA_advance_loc: 46 to 000000000043edac
  DW_CFA_remember_state
  DW_CFA_def_cfa_offset: 56
  DW_CFA_advance_loc: 8 to 000000000043edb4
  DW_CFA_def_cfa_offset: 48
  DW_CFA_advance_loc: 1 to 000000000043edb5
  DW_CFA_def_cfa_offset: 40
  DW_CFA_advance_loc: 2 to 000000000043edb7
  DW_CFA_def_cfa_offset: 32
  DW_CFA_advance_loc: 2 to 000000000043edb9
  DW_CFA_def_cfa_offset: 24
  DW_CFA_advance_loc: 2 to 000000000043edbb
  DW_CFA_def_cfa_offset: 16
  DW_CFA_advance_loc: 2 to 000000000043edbd
  DW_CFA_def_cfa_offset: 8
  DW_CFA_advance_loc: 5 to 000000000043edc2
  DW_CFA_restore_state
  DW_CFA_advance_loc: 56 to 000000000043edfa
  DW_CFA_remember_state
  DW_CFA_def_cfa_offset: 56
  DW_CFA_advance_loc: 8 to 000000000043ee02
  DW_CFA_def_cfa_offset: 48
  DW_CFA_advance_loc: 1 to 000000000043ee03
  DW_CFA_def_cfa_offset: 40
  DW_CFA_advance_loc: 2 to 000000000043ee05
  DW_CFA_def_cfa_offset: 32
  DW_CFA_advance_loc: 2 to 000000000043ee07
  DW_CFA_def_cfa_offset: 24
  DW_CFA_advance_loc: 2 to 000000000043ee09
  DW_CFA_def_cfa_offset: 16
  DW_CFA_advance_loc: 2 to 000000000043ee0b
  DW_CFA_def_cfa_offset: 8
  DW_CFA_advance_loc: 5 to 000000000043ee10
  DW_CFA_restore_state
  DW_CFA_advance_loc: 46 to 000000000043ee3e
  DW_CFA_remember_state
  DW_CFA_def_cfa_offset: 56
  DW_CFA_advance_loc: 8 to 000000000043ee46
  DW_CFA_def_cfa_offset: 48
  DW_CFA_advance_loc: 1 to 000000000043ee47
  DW_CFA_def_cfa_offset: 40
  DW_CFA_advance_loc: 2 to 000000000043ee49
  DW_CFA_def_cfa_offset: 32
  DW_CFA_advance_loc: 2 to 000000000043ee4b
  DW_CFA_def_cfa_offset: 24
  DW_CFA_advance_loc: 2 to 000000000043ee4d
  DW_CFA_def_cfa_offset: 16
  DW_CFA_advance_loc: 2 to 000000000043ee4f
  DW_CFA_def_cfa_offset: 8
  DW_CFA_advance_loc: 5 to 000000000043ee54
  DW_CFA_restore_state
  DW_CFA_advance_loc: 56 to 000000000043ee8c
  DW_CFA_remember_state
  DW_CFA_def_cfa_offset: 56
  DW_CFA_advance_loc: 8 to 000000000043ee94
  DW_CFA_def_cfa_offset: 48
  DW_CFA_advance_loc: 1 to 000000000043ee95
  DW_CFA_def_cfa_offset: 40
  DW_CFA_advance_loc: 2 to 000000000043ee97
  DW_CFA_def_cfa_offset: 32
  DW_CFA_advance_loc: 2 to 000000000043ee99
  DW_CFA_def_cfa_offset: 24
  DW_CFA_advance_loc: 2 to 000000000043ee9b
  DW_CFA_def_cfa_offset: 16
  DW_CFA_advance_loc: 2 to 000000000043ee9d
  DW_CFA_def_cfa_offset: 8
  DW_CFA_advance_loc: 5 to 000000000043eea2
  DW_CFA_restore_state
  DW_CFA_advance_loc: 46 to 000000000043eed0
  DW_CFA_remember_state
  DW_CFA_def_cfa_offset: 56
  DW_CFA_advance_loc: 8 to 000000000043eed8
  DW_CFA_def_cfa_offset: 48
  DW_CFA_advance_loc: 1 to 000000000043eed9
  DW_CFA_def_cfa_offset: 40
  DW_CFA_advance_loc: 2 to 000000000043eedb
  DW_CFA_def_cfa_offset: 32
  DW_CFA_advance_loc: 2 to 000000000043eedd
  DW_CFA_def_cfa_offset: 24
  DW_CFA_advance_loc: 2 to 000000000043eedf
  DW_CFA_def_cfa_offset: 16
  DW_CFA_advance_loc: 2 to 000000000043eee1
  DW_CFA_def_cfa_offset: 8
  DW_CFA_advance_loc: 5 to 000000000043eee6
  DW_CFA_restore_state
  DW_CFA_advance_loc: 56 to 000000000043ef1e
  DW_CFA_remember_state
  DW_CFA_def_cfa_offset: 56
  DW_CFA_advance_loc: 8 to 000000000043ef26
  DW_CFA_def_cfa_offset: 48
  DW_CFA_advance_loc: 1 to 000000000043ef27
  DW_CFA_def_cfa_offset: 40
  DW_CFA_advance_loc: 2 to 000000000043ef29
  DW_CFA_def_cfa_offset: 32
  DW_CFA_advance_loc: 2 to 000000000043ef2b
  DW_CFA_def_cfa_offset: 24
  DW_CFA_advance_loc: 2 to 000000000043ef2d
  DW_CFA_def_cfa_offset: 16
  DW_CFA_advance_loc: 2 to 000000000043ef2f
  DW_CFA_def_cfa_offset: 8
  DW_CFA_advance_loc: 5 to 000000000043ef34
  DW_CFA_restore_state
  DW_CFA_advance_loc: 46 to 000000000043ef62
  DW_CFA_remember_state
  DW_CFA_def_cfa_offset: 56
  DW_CFA_advance_loc: 8 to 000000000043ef6a
  DW_CFA_def_cfa_offset: 48
  DW_CFA_advance_loc: 1 to 000000000043ef6b
  DW_CFA_def_cfa_offset: 40
  DW_CFA_advance_loc: 2 to 000000000043ef6d
  DW_CFA_def_cfa_offset: 32
  DW_CFA_advance_loc: 2 to 000000000043ef6f
  DW_CFA_def_cfa_offset: 24
  DW_CFA_advance_loc: 2 to 000000000043ef71
  DW_CFA_def_cfa_offset: 16
  DW_CFA_advance_loc: 2 to 000000000043ef73
  DW_CFA_def_cfa_offset: 8
  DW_CFA_advance_loc: 5 to 000000000043ef78
  DW_CFA_restore_state
  DW_CFA_advance_loc: 56 to 000000000043efb0
  DW_CFA_remember_state
  DW_CFA_def_cfa_offset: 56
  DW_CFA_advance_loc: 8 to 000000000043efb8
  DW_CFA_def_cfa_offset: 48
  DW_CFA_advance_loc: 1 to 000000000043efb9
  DW_CFA_def_cfa_offset: 40
  DW_CFA_advance_loc: 2 to 000000000043efbb
  DW_CFA_def_cfa_offset: 32
  DW_CFA_advance_loc: 2 to 000000000043efbd
  DW_CFA_def_cfa_offset: 24
  DW_CFA_advance_loc: 2 to 000000000043efbf
  DW_CFA_def_cfa_offset: 16
  DW_CFA_advance_loc: 2 to 000000000043efc1
  DW_CFA_def_cfa_offset: 8
  DW_CFA_advance_loc: 5 to 000000000043efc6
  DW_CFA_restore_state
  DW_CFA_advance_loc: 46 to 000000000043eff4
  DW_CFA_remember_state
  DW_CFA_def_cfa_offset: 56
  DW_CFA_advance_loc: 8 to 000000000043effc
  DW_CFA_def_cfa_offset: 48
  DW_CFA_advance_loc: 1 to 000000000043effd
  DW_CFA_def_cfa_offset: 40
  DW_CFA_advance_loc: 2 to 000000000043efff
  DW_CFA_def_cfa_offset: 32
  DW_CFA_advance_loc: 2 to 000000000043f001
  DW_CFA_def_cfa_offset: 24
  DW_CFA_advance_loc: 2 to 000000000043f003
  DW_CFA_def_cfa_offset: 16
  DW_CFA_advance_loc: 2 to 000000000043f005
  DW_CFA_def_cfa_offset: 8
  DW_CFA_advance_loc: 5 to 000000000043f00a
  DW_CFA_restore_state
  DW_CFA_advance_loc: 56 to 000000000043f042
  DW_CFA_remember_state
  DW_CFA_def_cfa_offset: 56
  DW_CFA_advance_loc: 8 to 000000000043f04a
  DW_CFA_def_cfa_offset: 48
  DW_CFA_advance_loc: 1 to 000000000043f04b
  DW_CFA_def_cfa_offset: 40
  DW_CFA_advance_loc: 2 to 000000000043f04d
  DW_CFA_def_cfa_offset: 32
  DW_CFA_advance_loc: 2 to 000000000043f04f
  DW_CFA_def_cfa_offset: 24
  DW_CFA_advance_loc: 2 to 000000000043f051
  DW_CFA_def_cfa_offset: 16
  DW_CFA_advance_loc: 2 to 000000000043f053
  DW_CFA_def_cfa_offset: 8
  DW_CFA_advance_loc: 5 to 000000000043f058
  DW_CFA_restore_state
  DW_CFA_advance_loc: 46 to 000000000043f086
  DW_CFA_remember_state
  DW_CFA_def_cfa_offset: 56
  DW_CFA_advance_loc: 8 to 000000000043f08e
  DW_CFA_def_cfa_offset: 48
  DW_CFA_advance_loc: 1 to 000000000043f08f
  DW_CFA_def_cfa_offset: 40
  DW_CFA_advance_loc: 2 to 000000000043f091
  DW_CFA_def_cfa_offset: 32
  DW_CFA_advance_loc: 2 to 000000000043f093
  DW_CFA_def_cfa_offset: 24
  DW_CFA_advance_loc: 2 to 000000000043f095
  DW_CFA_def_cfa_offset: 16
  DW_CFA_advance_loc: 2 to 000000000043f097
  DW_CFA_def_cfa_offset: 8
  DW_CFA_advance_loc: 5 to 000000000043f09c
  DW_CFA_restore_state
  DW_CFA_advance_loc: 56 to 000000000043f0d4
  DW_CFA_remember_state
  DW_CFA_def_cfa_offset: 56
  DW_CFA_advance_loc: 8 to 000000000043f0dc
  DW_CFA_def_cfa_offset: 48
  DW_CFA_advance_loc: 1 to 000000000043f0dd
  DW_CFA_def_cfa_offset: 40
  DW_CFA_advance_loc: 2 to 000000000043f0df
  DW_CFA_def_cfa_offset: 32
  DW_CFA_advance_loc: 2 to 000000000043f0e1
  DW_CFA_def_cfa_offset: 24
  DW_CFA_advance_loc: 2 to 000000000043f0e3
  DW_CFA_def_cfa_offset: 16
  DW_CFA_advance_loc: 2 to 000000000043f0e5
  DW_CFA_def_cfa_offset: 8
  DW_CFA_advance_loc: 5 to 000000000043f0ea
  DW_CFA_restore_state
  DW_CFA_advance_loc: 46 to 000000000043f118
  DW_CFA_remember_state
  DW_CFA_def_cfa_offset: 56
  DW_CFA_advance_loc: 8 to 000000000043f120
  DW_CFA_def_cfa_offset: 48
  DW_CFA_advance_loc: 1 to 000000000043f121
  DW_CFA_def_cfa_offset: 40
  DW_CFA_advance_loc: 2 to 000000000043f123
  DW_CFA_def_cfa_offset: 32
  DW_CFA_advance_loc: 2 to 000000000043f125
  DW_CFA_def_cfa_offset: 24
  DW_CFA_advance_loc: 2 to 000000000043f127
  DW_CFA_def_cfa_offset: 16
  DW_CFA_advance_loc: 2 to 000000000043f129
  DW_CFA_def_cfa_offset: 8
  DW_CFA_advance_loc: 5 to 000000000043f12e
  DW_CFA_restore_state
  DW_CFA_advance_loc: 56 to 000000000043f166
  DW_CFA_remember_state
  DW_CFA_def_cfa_offset: 56
  DW_CFA_advance_loc: 8 to 000000000043f16e
  DW_CFA_def_cfa_offset: 48
  DW_CFA_advance_loc: 1 to 000000000043f16f
  DW_CFA_def_cfa_offset: 40
  DW_CFA_advance_loc: 2 to 000000000043f171
  DW_CFA_def_cfa_offset: 32
  DW_CFA_advance_loc: 2 to 000000000043f173
  DW_CFA_def_cfa_offset: 24
  DW_CFA_advance_loc: 2 to 000000000043f175
  DW_CFA_def_cfa_offset: 16
  DW_CFA_advance_loc: 2 to 000000000043f177
  DW_CFA_def_cfa_offset: 8
  DW_CFA_advance_loc: 5 to 000000000043f17c
  DW_CFA_restore_state
  DW_CFA_advance_loc: 46 to 000000000043f1aa
  DW_CFA_remember_state
  DW_CFA_def_cfa_offset: 56
  DW_CFA_advance_loc: 8 to 000000000043f1b2
  DW_CFA_def_cfa_offset: 48
  DW_CFA_advance_loc: 1 to 000000000043f1b3
  DW_CFA_def_cfa_offset: 40
  DW_CFA_advance_loc: 2 to 000000000043f1b5
  DW_CFA_def_cfa_offset: 32
  DW_CFA_advance_loc: 2 to 000000000043f1b7
  DW_CFA_def_cfa_offset: 24
  DW_CFA_advance_loc: 2 to 000000000043f1b9
  DW_CFA_def_cfa_offset: 16
  DW_CFA_advance_loc: 2 to 000000000043f1bb
  DW_CFA_def_cfa_offset: 8
  DW_CFA_advance_loc: 5 to 000000000043f1c0
  DW_CFA_restore_state
  DW_CFA_advance_loc: 56 to 000000000043f1f8
  DW_CFA_remember_state
  DW_CFA_def_cfa_offset: 56
  DW_CFA_advance_loc: 8 to 000000000043f200
  DW_CFA_def_cfa_offset: 48
  DW_CFA_advance_loc: 1 to 000000000043f201
  DW_CFA_def_cfa_offset: 40
  DW_CFA_advance_loc: 2 to 000000000043f203
  DW_CFA_def_cfa_offset: 32
  DW_CFA_advance_loc: 2 to 000000000043f205
  DW_CFA_def_cfa_offset: 24
  DW_CFA_advance_loc: 2 to 000000000043f207
  DW_CFA_def_cfa_offset: 16
  DW_CFA_advance_loc: 2 to 000000000043f209
  DW_CFA_def_cfa_offset: 8
  DW_CFA_advance_loc: 5 to 000000000043f20e
  DW_CFA_restore_state
  DW_CFA_advance_loc: 46 to 000000000043f23c
  DW_CFA_remember_state
  DW_CFA_def_cfa_offset: 56
  DW_CFA_advance_loc: 8 to 000000000043f244
  DW_CFA_def_cfa_offset: 48
  DW_CFA_advance_loc: 1 to 000000000043f245
  DW_CFA_def_cfa_offset: 40
  DW_CFA_advance_loc: 2 to 000000000043f247
  DW_CFA_def_cfa_offset: 32
  DW_CFA_advance_loc: 2 to 000000000043f249
  DW_CFA_def_cfa_offset: 24
  DW_CFA_advance_loc: 2 to 000000000043f24b
  DW_CFA_def_cfa_offset: 16
  DW_CFA_advance_loc: 2 to 000000000043f24d
  DW_CFA_def_cfa_offset: 8
  DW_CFA_advance_loc: 5 to 000000000043f252
  DW_CFA_restore_state
  DW_CFA_advance_loc: 56 to 000000000043f28a
  DW_CFA_remember_state
  DW_CFA_def_cfa_offset: 56
  DW_CFA_advance_loc: 8 to 000000000043f292
  DW_CFA_def_cfa_offset: 48
  DW_CFA_advance_loc: 1 to 000000000043f293
  DW_CFA_def_cfa_offset: 40
  DW_CFA_advance_loc: 2 to 000000000043f295
  DW_CFA_def_cfa_offset: 32
  DW_CFA_advance_loc: 2 to 000000000043f297
  DW_CFA_def_cfa_offset: 24
  DW_CFA_advance_loc: 2 to 000000000043f299
  DW_CFA_def_cfa_offset: 16
  DW_CFA_advance_loc: 2 to 000000000043f29b
  DW_CFA_def_cfa_offset: 8
  DW_CFA_advance_loc: 5 to 000000000043f2a0
  DW_CFA_restore_state
  DW_CFA_advance_loc: 46 to 000000000043f2ce
  DW_CFA_remember_state
  DW_CFA_def_cfa_offset: 56
  DW_CFA_advance_loc: 8 to 000000000043f2d6
  DW_CFA_def_cfa_offset: 48
  DW_CFA_advance_loc: 1 to 000000000043f2d7
  DW_CFA_def_cfa_offset: 40
  DW_CFA_advance_loc: 2 to 000000000043f2d9
  DW_CFA_def_cfa_offset: 32
  DW_CFA_advance_loc: 2 to 000000000043f2db
  DW_CFA_def_cfa_offset: 24
  DW_CFA_advance_loc: 2 to 000000000043f2dd
  DW_CFA_def_cfa_offset: 16
  DW_CFA_advance_loc: 2 to 000000000043f2df
  DW_CFA_def_cfa_offset: 8
  DW_CFA_advance_loc: 5 to 000000000043f2e4
  DW_CFA_restore_state
  DW_CFA_advance_loc: 56 to 000000000043f31c
  DW_CFA_remember_state
  DW_CFA_def_cfa_offset: 56
  DW_CFA_advance_loc: 8 to 000000000043f324
  DW_CFA_def_cfa_offset: 48
  DW_CFA_advance_loc: 1 to 000000000043f325
  DW_CFA_def_cfa_offset: 40
  DW_CFA_advance_loc: 2 to 000000000043f327
  DW_CFA_def_cfa_offset: 32
  DW_CFA_advance_loc: 2 to 000000000043f329
  DW_CFA_def_cfa_offset: 24
  DW_CFA_advance_loc: 2 to 000000000043f32b
  DW_CFA_def_cfa_offset: 16
  DW_CFA_advance_loc: 2 to 000000000043f32d
  DW_CFA_def_cfa_offset: 8
  DW_CFA_advance_loc: 5 to 000000000043f332
  DW_CFA_restore_state
  DW_CFA_advance_loc: 46 to 000000000043f360
  DW_CFA_remember_state
  DW_CFA_def_cfa_offset: 56
  DW_CFA_advance_loc: 8 to 000000000043f368
  DW_CFA_def_cfa_offset: 48
  DW_CFA_advance_loc: 1 to 000000000043f369
  DW_CFA_def_cfa_offset: 40
  DW_CFA_advance_loc: 2 to 000000000043f36b
  DW_CFA_def_cfa_offset: 32
  DW_CFA_advance_loc: 2 to 000000000043f36d
  DW_CFA_def_cfa_offset: 24
  DW_CFA_advance_loc: 2 to 000000000043f36f
  DW_CFA_def_cfa_offset: 16
  DW_CFA_advance_loc: 2 to 000000000043f371
  DW_CFA_def_cfa_offset: 8
  DW_CFA_advance_loc: 5 to 000000000043f376
  DW_CFA_restore_state
  DW_CFA_advance_loc: 56 to 000000000043f3ae
  DW_CFA_remember_state
  DW_CFA_def_cfa_offset: 56
  DW_CFA_advance_loc: 8 to 000000000043f3b6
  DW_CFA_def_cfa_offset: 48
  DW_CFA_advance_loc: 1 to 000000000043f3b7
  DW_CFA_def_cfa_offset: 40
  DW_CFA_advance_loc: 2 to 000000000043f3b9
  DW_CFA_def_cfa_offset: 32
  DW_CFA_advance_loc: 2 to 000000000043f3bb
  DW_CFA_def_cfa_offset: 24
  DW_CFA_advance_loc: 2 to 000000000043f3bd
  DW_CFA_def_cfa_offset: 16
  DW_CFA_advance_loc: 2 to 000000000043f3bf
  DW_CFA_def_cfa_offset: 8
  DW_CFA_advance_loc: 5 to 000000000043f3c4
  DW_CFA_restore_state
  DW_CFA_advance_loc: 46 to 000000000043f3f2
  DW_CFA_remember_state
  DW_CFA_def_cfa_offset: 56
  DW_CFA_advance_loc: 8 to 000000000043f3fa
  DW_CFA_def_cfa_offset: 48
  DW_CFA_advance_loc: 1 to 000000000043f3fb
  DW_CFA_def_cfa_offset: 40
  DW_CFA_advance_loc: 2 to 000000000043f3fd
  DW_CFA_def_cfa_offset: 32
  DW_CFA_advance_loc: 2 to 000000000043f3ff
  DW_CFA_def_cfa_offset: 24
  DW_CFA_advance_loc: 2 to 000000000043f401
  DW_CFA_def_cfa_offset: 16
  DW_CFA_advance_loc: 2 to 000000000043f403
  DW_CFA_def_cfa_offset: 8
  DW_CFA_advance_loc: 5 to 000000000043f408
  DW_CFA_restore_state
  DW_CFA_advance_loc: 56 to 000000000043f440
  DW_CFA_remember_state
  DW_CFA_def_cfa_offset: 56
  DW_CFA_advance_loc: 8 to 000000000043f448
  DW_CFA_def_cfa_offset: 48
  DW_CFA_advance_loc: 1 to 000000000043f449
  DW_CFA_def_cfa_offset: 40
  DW_CFA_advance_loc: 2 to 000000000043f44b
  DW_CFA_def_cfa_offset: 32
  DW_CFA_advance_loc: 2 to 000000000043f44d
  DW_CFA_def_cfa_offset: 24
  DW_CFA_advance_loc: 2 to 000000000043f44f
  DW_CFA_def_cfa_offset: 16
  DW_CFA_advance_loc: 2 to 000000000043f451
  DW_CFA_def_cfa_offset: 8
  DW_CFA_advance_loc: 5 to 000000000043f456
  DW_CFA_restore_state
  DW_CFA_advance_loc: 46 to 000000000043f484
  DW_CFA_remember_state
  DW_CFA_def_cfa_offset: 56
  DW_CFA_advance_loc: 8 to 000000000043f48c
  DW_CFA_def_cfa_offset: 48
  DW_CFA_advance_loc: 1 to 000000000043f48d
  DW_CFA_def_cfa_offset: 40
  DW_CFA_advance_loc: 2 to 000000000043f48f
  DW_CFA_def_cfa_offset: 32
  DW_CFA_advance_loc: 2 to 000000000043f491
  DW_CFA_def_cfa_offset: 24
  DW_CFA_advance_loc: 2 to 000000000043f493
  DW_CFA_def_cfa_offset: 16
  DW_CFA_advance_loc: 2 to 000000000043f495
  DW_CFA_def_cfa_offset: 8
  DW_CFA_advance_loc: 5 to 000000000043f49a
  DW_CFA_restore_state
  DW_CFA_advance_loc: 56 to 000000000043f4d2
  DW_CFA_remember_state
  DW_CFA_def_cfa_offset: 56
  DW_CFA_advance_loc: 8 to 000000000043f4da
  DW_CFA_def_cfa_offset: 48
  DW_CFA_advance_loc: 1 to 000000000043f4db
  DW_CFA_def_cfa_offset: 40
  DW_CFA_advance_loc: 2 to 000000000043f4dd
  DW_CFA_def_cfa_offset: 32
  DW_CFA_advance_loc: 2 to 000000000043f4df
  DW_CFA_def_cfa_offset: 24
  DW_CFA_advance_loc: 2 to 000000000043f4e1
  DW_CFA_def_cfa_offset: 16
  DW_CFA_advance_loc: 2 to 000000000043f4e3
  DW_CFA_def_cfa_offset: 8
  DW_CFA_advance_loc: 5 to 000000000043f4e8
  DW_CFA_restore_state
  DW_CFA_advance_loc: 46 to 000000000043f516
  DW_CFA_remember_state
  DW_CFA_def_cfa_offset: 56
  DW_CFA_advance_loc: 8 to 000000000043f51e
  DW_CFA_def_cfa_offset: 48
  DW_CFA_advance_loc: 1 to 000000000043f51f
  DW_CFA_def_cfa_offset: 40
  DW_CFA_advance_loc: 2 to 000000000043f521
  DW_CFA_def_cfa_offset: 32
  DW_CFA_advance_loc: 2 to 000000000043f523
  DW_CFA_def_cfa_offset: 24
  DW_CFA_advance_loc: 2 to 000000000043f525
  DW_CFA_def_cfa_offset: 16
  DW_CFA_advance_loc: 2 to 000000000043f527
  DW_CFA_def_cfa_offset: 8
  DW_CFA_advance_loc: 5 to 000000000043f52c
  DW_CFA_restore_state
  DW_CFA_advance_loc: 56 to 000000000043f564
  DW_CFA_remember_state
  DW_CFA_def_cfa_offset: 56
  DW_CFA_advance_loc: 8 to 000000000043f56c
  DW_CFA_def_cfa_offset: 48
  DW_CFA_advance_loc: 1 to 000000000043f56d
  DW_CFA_def_cfa_offset: 40
  DW_CFA_advance_loc: 2 to 000000000043f56f
  DW_CFA_def_cfa_offset: 32
  DW_CFA_advance_loc: 2 to 000000000043f571
  DW_CFA_def_cfa_offset: 24
  DW_CFA_advance_loc: 2 to 000000000043f573
  DW_CFA_def_cfa_offset: 16
  DW_CFA_advance_loc: 2 to 000000000043f575
  DW_CFA_def_cfa_offset: 8
  DW_CFA_advance_loc: 5 to 000000000043f57a
  DW_CFA_restore_state
  DW_CFA_advance_loc: 46 to 000000000043f5a8
  DW_CFA_remember_state
  DW_CFA_def_cfa_offset: 56
  DW_CFA_advance_loc: 8 to 000000000043f5b0
  DW_CFA_def_cfa_offset: 48
  DW_CFA_advance_loc: 1 to 000000000043f5b1
  DW_CFA_def_cfa_offset: 40
  DW_CFA_advance_loc: 2 to 000000000043f5b3
  DW_CFA_def_cfa_offset: 32
  DW_CFA_advance_loc: 2 to 000000000043f5b5
  DW_CFA_def_cfa_offset: 24
  DW_CFA_advance_loc: 2 to 000000000043f5b7
  DW_CFA_def_cfa_offset: 16
  DW_CFA_advance_loc: 2 to 000000000043f5b9
  DW_CFA_def_cfa_offset: 8
  DW_CFA_advance_loc: 5 to 000000000043f5be
  DW_CFA_restore_state
  DW_CFA_advance_loc: 56 to 000000000043f5f6
  DW_CFA_remember_state
  DW_CFA_def_cfa_offset: 56
  DW_CFA_advance_loc: 8 to 000000000043f5fe
  DW_CFA_def_cfa_offset: 48
  DW_CFA_advance_loc: 1 to 000000000043f5ff
  DW_CFA_def_cfa_offset: 40
  DW_CFA_advance_loc: 2 to 000000000043f601
  DW_CFA_def_cfa_offset: 32
  DW_CFA_advance_loc: 2 to 000000000043f603
  DW_CFA_def_cfa_offset: 24
  DW_CFA_advance_loc: 2 to 000000000043f605
  DW_CFA_def_cfa_offset: 16
  DW_CFA_advance_loc: 2 to 000000000043f607
  DW_CFA_def_cfa_offset: 8
  DW_CFA_advance_loc: 5 to 000000000043f60c
  DW_CFA_restore_state
  DW_CFA_advance_loc: 46 to 000000000043f63a
  DW_CFA_remember_state
  DW_CFA_def_cfa_offset: 56
  DW_CFA_advance_loc: 8 to 000000000043f642
  DW_CFA_def_cfa_offset: 48
  DW_CFA_advance_loc: 1 to 000000000043f643
  DW_CFA_def_cfa_offset: 40
  DW_CFA_advance_loc: 2 to 000000000043f645
  DW_CFA_def_cfa_offset: 32
  DW_CFA_advance_loc: 2 to 000000000043f647
  DW_CFA_def_cfa_offset: 24
  DW_CFA_advance_loc: 2 to 000000000043f649
  DW_CFA_def_cfa_offset: 16
  DW_CFA_advance_loc: 2 to 000000000043f64b
  DW_CFA_def_cfa_offset: 8
  DW_CFA_advance_loc: 5 to 000000000043f650
  DW_CFA_restore_state
  DW_CFA_advance_loc: 56 to 000000000043f688
  DW_CFA_remember_state
  DW_CFA_def_cfa_offset: 56
  DW_CFA_advance_loc: 8 to 000000000043f690
  DW_CFA_def_cfa_offset: 48
  DW_CFA_advance_loc: 1 to 000000000043f691
  DW_CFA_def_cfa_offset: 40
  DW_CFA_advance_loc: 2 to 000000000043f693
  DW_CFA_def_cfa_offset: 32
  DW_CFA_advance_loc: 2 to 000000000043f695
  DW_CFA_def_cfa_offset: 24
  DW_CFA_advance_loc: 2 to 000000000043f697
  DW_CFA_def_cfa_offset: 16
  DW_CFA_advance_loc: 2 to 000000000043f699
  DW_CFA_def_cfa_offset: 8
  DW_CFA_advance_loc: 5 to 000000000043f69e
  DW_CFA_restore_state
  DW_CFA_advance_loc: 46 to 000000000043f6cc
  DW_CFA_remember_state
  DW_CFA_def_cfa_offset: 56
  DW_CFA_advance_loc: 8 to 000000000043f6d4
  DW_CFA_def_cfa_offset: 48
  DW_CFA_advance_loc: 1 to 000000000043f6d5
  DW_CFA_def_cfa_offset: 40
  DW_CFA_advance_loc: 2 to 000000000043f6d7
  DW_CFA_def_cfa_offset: 32
  DW_CFA_advance_loc: 2 to 000000000043f6d9
  DW_CFA_def_cfa_offset: 24
  DW_CFA_advance_loc: 2 to 000000000043f6db
  DW_CFA_def_cfa_offset: 16
  DW_CFA_advance_loc: 2 to 000000000043f6dd
  DW_CFA_def_cfa_offset: 8
  DW_CFA_advance_loc: 5 to 000000000043f6e2
  DW_CFA_restore_state
  DW_CFA_advance_loc: 56 to 000000000043f71a
  DW_CFA_remember_state
  DW_CFA_def_cfa_offset: 56
  DW_CFA_advance_loc: 8 to 000000000043f722
  DW_CFA_def_cfa_offset: 48
  DW_CFA_advance_loc: 1 to 000000000043f723
  DW_CFA_def_cfa_offset: 40
  DW_CFA_advance_loc: 2 to 000000000043f725
  DW_CFA_def_cfa_offset: 32
  DW_CFA_advance_loc: 2 to 000000000043f727
  DW_CFA_def_cfa_offset: 24
  DW_CFA_advance_loc: 2 to 000000000043f729
  DW_CFA_def_cfa_offset: 16
  DW_CFA_advance_loc: 2 to 000000000043f72b
  DW_CFA_def_cfa_offset: 8
  DW_CFA_advance_loc: 5 to 000000000043f730
  DW_CFA_restore_state
  DW_CFA_advance_loc: 46 to 000000000043f75e
  DW_CFA_remember_state
  DW_CFA_def_cfa_offset: 56
  DW_CFA_advance_loc: 8 to 000000000043f766
  DW_CFA_def_cfa_offset: 48
  DW_CFA_advance_loc: 1 to 000000000043f767
  DW_CFA_def_cfa_offset: 40
  DW_CFA_advance_loc: 2 to 000000000043f769
  DW_CFA_def_cfa_offset: 32
  DW_CFA_advance_loc: 2 to 000000000043f76b
  DW_CFA_def_cfa_offset: 24
  DW_CFA_advance_loc: 2 to 000000000043f76d
  DW_CFA_def_cfa_offset: 16
  DW_CFA_advance_loc: 2 to 000000000043f76f
  DW_CFA_def_cfa_offset: 8
  DW_CFA_advance_loc: 5 to 000000000043f774
  DW_CFA_restore_state
  DW_CFA_advance_loc: 56 to 000000000043f7ac
  DW_CFA_remember_state
  DW_CFA_def_cfa_offset: 56
  DW_CFA_advance_loc: 8 to 000000000043f7b4
  DW_CFA_def_cfa_offset: 48
  DW_CFA_advance_loc: 1 to 000000000043f7b5
  DW_CFA_def_cfa_offset: 40
  DW_CFA_advance_loc: 2 to 000000000043f7b7
  DW_CFA_def_cfa_offset: 32
  DW_CFA_advance_loc: 2 to 000000000043f7b9
  DW_CFA_def_cfa_offset: 24
  DW_CFA_advance_loc: 2 to 000000000043f7bb
  DW_CFA_def_cfa_offset: 16
  DW_CFA_advance_loc: 2 to 000000000043f7bd
  DW_CFA_def_cfa_offset: 8
  DW_CFA_advance_loc: 5 to 000000000043f7c2
  DW_CFA_restore_state
  DW_CFA_advance_loc: 46 to 000000000043f7f0
  DW_CFA_remember_state
  DW_CFA_def_cfa_offset: 56
  DW_CFA_advance_loc: 8 to 000000000043f7f8
  DW_CFA_def_cfa_offset: 48
  DW_CFA_advance_loc: 1 to 000000000043f7f9
  DW_CFA_def_cfa_offset: 40
  DW_CFA_advance_loc: 2 to 000000000043f7fb
  DW_CFA_def_cfa_offset: 32
  DW_CFA_advance_loc: 2 to 000000000043f7fd
  DW_CFA_def_cfa_offset: 24
  DW_CFA_advance_loc: 2 to 000000000043f7ff
  DW_CFA_def_cfa_offset: 16
  DW_CFA_advance_loc: 2 to 000000000043f801
  DW_CFA_def_cfa_offset: 8
  DW_CFA_advance_loc: 5 to 000000000043f806
  DW_CFA_restore_state
  DW_CFA_advance_loc: 56 to 000000000043f83e
  DW_CFA_remember_state
  DW_CFA_def_cfa_offset: 56
  DW_CFA_advance_loc: 8 to 000000000043f846
  DW_CFA_def_cfa_offset: 48
  DW_CFA_advance_loc: 1 to 000000000043f847
  DW_CFA_def_cfa_offset: 40
  DW_CFA_advance_loc: 2 to 000000000043f849
  DW_CFA_def_cfa_offset: 32
  DW_CFA_advance_loc: 2 to 000000000043f84b
  DW_CFA_def_cfa_offset: 24
  DW_CFA_advance_loc: 2 to 000000000043f84d
  DW_CFA_def_cfa_offset: 16
  DW_CFA_advance_loc: 2 to 000000000043f84f
  DW_CFA_def_cfa_offset: 8
  DW_CFA_advance_loc: 5 to 000000000043f854
  DW_CFA_restore_state
  DW_CFA_advance_loc: 46 to 000000000043f882
  DW_CFA_remember_state
  DW_CFA_def_cfa_offset: 56
  DW_CFA_advance_loc: 8 to 000000000043f88a
  DW_CFA_def_cfa_offset: 48
  DW_CFA_advance_loc: 1 to 000000000043f88b
  DW_CFA_def_cfa_offset: 40
  DW_CFA_advance_loc: 2 to 000000000043f88d
  DW_CFA_def_cfa_offset: 32
  DW_CFA_advance_loc: 2 to 000000000043f88f
  DW_CFA_def_cfa_offset: 24
  DW_CFA_advance_loc: 2 to 000000000043f891
  DW_CFA_def_cfa_offset: 16
  DW_CFA_advance_loc: 2 to 000000000043f893
  DW_CFA_def_cfa_offset: 8
  DW_CFA_advance_loc: 5 to 000000000043f898
  DW_CFA_restore_state
  DW_CFA_advance_loc: 56 to 000000000043f8d0
  DW_CFA_remember_state
  DW_CFA_def_cfa_offset: 56
  DW_CFA_advance_loc: 8 to 000000000043f8d8
  DW_CFA_def_cfa_offset: 48
  DW_CFA_advance_loc: 1 to 000000000043f8d9
  DW_CFA_def_cfa_offset: 40
  DW_CFA_advance_loc: 2 to 000000000043f8db
  DW_CFA_def_cfa_offset: 32
  DW_CFA_advance_loc: 2 to 000000000043f8dd
  DW_CFA_def_cfa_offset: 24
  DW_CFA_advance_loc: 2 to 000000000043f8df
  DW_CFA_def_cfa_offset: 16
  DW_CFA_advance_loc: 2 to 000000000043f8e1
  DW_CFA_def_cfa_offset: 8
  DW_CFA_advance_loc: 5 to 000000000043f8e6
  DW_CFA_restore_state
  DW_CFA_advance_loc: 46 to 000000000043f914
  DW_CFA_remember_state
  DW_CFA_def_cfa_offset: 56
  DW_CFA_advance_loc: 8 to 000000000043f91c
  DW_CFA_def_cfa_offset: 48
  DW_CFA_advance_loc: 1 to 000000000043f91d
  DW_CFA_def_cfa_offset: 40
  DW_CFA_advance_loc: 2 to 000000000043f91f
  DW_CFA_def_cfa_offset: 32
  DW_CFA_advance_loc: 2 to 000000000043f921
  DW_CFA_def_cfa_offset: 24
  DW_CFA_advance_loc: 2 to 000000000043f923
  DW_CFA_def_cfa_offset: 16
  DW_CFA_advance_loc: 2 to 000000000043f925
  DW_CFA_def_cfa_offset: 8
  DW_CFA_advance_loc: 5 to 000000000043f92a
  DW_CFA_restore_state
  DW_CFA_advance_loc: 56 to 000000000043f962
  DW_CFA_remember_state
  DW_CFA_def_cfa_offset: 56
  DW_CFA_advance_loc: 8 to 000000000043f96a
  DW_CFA_def_cfa_offset: 48
  DW_CFA_advance_loc: 1 to 000000000043f96b
  DW_CFA_def_cfa_offset: 40
  DW_CFA_advance_loc: 2 to 000000000043f96d
  DW_CFA_def_cfa_offset: 32
  DW_CFA_advance_loc: 2 to 000000000043f96f
  DW_CFA_def_cfa_offset: 24
  DW_CFA_advance_loc: 2 to 000000000043f971
  DW_CFA_def_cfa_offset: 16
  DW_CFA_advance_loc: 2 to 000000000043f973
  DW_CFA_def_cfa_offset: 8
  DW_CFA_advance_loc: 5 to 000000000043f978
  DW_CFA_restore_state
  DW_CFA_advance_loc: 46 to 000000000043f9a6
  DW_CFA_remember_state
  DW_CFA_def_cfa_offset: 56
  DW_CFA_advance_loc: 8 to 000000000043f9ae
  DW_CFA_def_cfa_offset: 48
  DW_CFA_advance_loc: 1 to 000000000043f9af
  DW_CFA_def_cfa_offset: 40
  DW_CFA_advance_loc: 2 to 000000000043f9b1
  DW_CFA_def_cfa_offset: 32
  DW_CFA_advance_loc: 2 to 000000000043f9b3
  DW_CFA_def_cfa_offset: 24
  DW_CFA_advance_loc: 2 to 000000000043f9b5
  DW_CFA_def_cfa_offset: 16
  DW_CFA_advance_loc: 2 to 000000000043f9b7
  DW_CFA_def_cfa_offset: 8
  DW_CFA_advance_loc: 5 to 000000000043f9bc
  DW_CFA_restore_state
  DW_CFA_advance_loc: 56 to 000000000043f9f4
  DW_CFA_remember_state
  DW_CFA_def_cfa_offset: 56
  DW_CFA_advance_loc: 8 to 000000000043f9fc
  DW_CFA_def_cfa_offset: 48
  DW_CFA_advance_loc: 1 to 000000000043f9fd
  DW_CFA_def_cfa_offset: 40
  DW_CFA_advance_loc: 2 to 000000000043f9ff
  DW_CFA_def_cfa_offset: 32
  DW_CFA_advance_loc: 2 to 000000000043fa01
  DW_CFA_def_cfa_offset: 24
  DW_CFA_advance_loc: 2 to 000000000043fa03
  DW_CFA_def_cfa_offset: 16
  DW_CFA_advance_loc: 2 to 000000000043fa05
  DW_CFA_def_cfa_offset: 8
  DW_CFA_advance_loc: 5 to 000000000043fa0a
  DW_CFA_restore_state
  DW_CFA_advance_loc: 46 to 000000000043fa38
  DW_CFA_remember_state
  DW_CFA_def_cfa_offset: 56
  DW_CFA_advance_loc: 8 to 000000000043fa40
  DW_CFA_def_cfa_offset: 48
  DW_CFA_advance_loc: 1 to 000000000043fa41
  DW_CFA_def_cfa_offset: 40
  DW_CFA_advance_loc: 2 to 000000000043fa43
  DW_CFA_def_cfa_offset: 32
  DW_CFA_advance_loc: 2 to 000000000043fa45
  DW_CFA_def_cfa_offset: 24
  DW_CFA_advance_loc: 2 to 000000000043fa47
  DW_CFA_def_cfa_offset: 16
  DW_CFA_advance_loc: 2 to 000000000043fa49
  DW_CFA_def_cfa_offset: 8
  DW_CFA_advance_loc: 5 to 000000000043fa4e
  DW_CFA_restore_state
  DW_CFA_advance_loc: 56 to 000000000043fa86
  DW_CFA_remember_state
  DW_CFA_def_cfa_offset: 56
  DW_CFA_advance_loc: 8 to 000000000043fa8e
  DW_CFA_def_cfa_offset: 48
  DW_CFA_advance_loc: 1 to 000000000043fa8f
  DW_CFA_def_cfa_offset: 40
  DW_CFA_advance_loc: 2 to 000000000043fa91
  DW_CFA_def_cfa_offset: 32
  DW_CFA_advance_loc: 2 to 000000000043fa93
  DW_CFA_def_cfa_offset: 24
  DW_CFA_advance_loc: 2 to 000000000043fa95
  DW_CFA_def_cfa_offset: 16
  DW_CFA_advance_loc: 2 to 000000000043fa97
  DW_CFA_def_cfa_offset: 8
  DW_CFA_advance_loc: 5 to 000000000043fa9c
  DW_CFA_restore_state
  DW_CFA_advance_loc: 46 to 000000000043faca
  DW_CFA_remember_state
  DW_CFA_def_cfa_offset: 56
  DW_CFA_advance_loc: 8 to 000000000043fad2
  DW_CFA_def_cfa_offset: 48
  DW_CFA_advance_loc: 1 to 000000000043fad3
  DW_CFA_def_cfa_offset: 40
  DW_CFA_advance_loc: 2 to 000000000043fad5
  DW_CFA_def_cfa_offset: 32
  DW_CFA_advance_loc: 2 to 000000000043fad7
  DW_CFA_def_cfa_offset: 24
  DW_CFA_advance_loc: 2 to 000000000043fad9
  DW_CFA_def_cfa_offset: 16
  DW_CFA_advance_loc: 2 to 000000000043fadb
  DW_CFA_def_cfa_offset: 8
  DW_CFA_advance_loc: 5 to 000000000043fae0
  DW_CFA_restore_state
  DW_CFA_advance_loc: 56 to 000000000043fb18
  DW_CFA_remember_state
  DW_CFA_def_cfa_offset: 56
  DW_CFA_advance_loc: 8 to 000000000043fb20
  DW_CFA_def_cfa_offset: 48
  DW_CFA_advance_loc: 1 to 000000000043fb21
  DW_CFA_def_cfa_offset: 40
  DW_CFA_advance_loc: 2 to 000000000043fb23
  DW_CFA_def_cfa_offset: 32
  DW_CFA_advance_loc: 2 to 000000000043fb25
  DW_CFA_def_cfa_offset: 24
  DW_CFA_advance_loc: 2 to 000000000043fb27
  DW_CFA_def_cfa_offset: 16
  DW_CFA_advance_loc: 2 to 000000000043fb29
  DW_CFA_def_cfa_offset: 8
  DW_CFA_advance_loc: 5 to 000000000043fb2e
  DW_CFA_restore_state
  DW_CFA_advance_loc: 46 to 000000000043fb5c
  DW_CFA_remember_state
  DW_CFA_def_cfa_offset: 56
  DW_CFA_advance_loc: 8 to 000000000043fb64
  DW_CFA_def_cfa_offset: 48
  DW_CFA_advance_loc: 1 to 000000000043fb65
  DW_CFA_def_cfa_offset: 40
  DW_CFA_advance_loc: 2 to 000000000043fb67
  DW_CFA_def_cfa_offset: 32
  DW_CFA_advance_loc: 2 to 000000000043fb69
  DW_CFA_def_cfa_offset: 24
  DW_CFA_advance_loc: 2 to 000000000043fb6b
  DW_CFA_def_cfa_offset: 16
  DW_CFA_advance_loc: 2 to 000000000043fb6d
  DW_CFA_def_cfa_offset: 8
  DW_CFA_advance_loc: 5 to 000000000043fb72
  DW_CFA_restore_state
  DW_CFA_advance_loc: 56 to 000000000043fbaa
  DW_CFA_remember_state
  DW_CFA_def_cfa_offset: 56
  DW_CFA_advance_loc: 8 to 000000000043fbb2
  DW_CFA_def_cfa_offset: 48
  DW_CFA_advance_loc: 1 to 000000000043fbb3
  DW_CFA_def_cfa_offset: 40
  DW_CFA_advance_loc: 2 to 000000000043fbb5
  DW_CFA_def_cfa_offset: 32
  DW_CFA_advance_loc: 2 to 000000000043fbb7
  DW_CFA_def_cfa_offset: 24
  DW_CFA_advance_loc: 2 to 000000000043fbb9
  DW_CFA_def_cfa_offset: 16
  DW_CFA_advance_loc: 2 to 000000000043fbbb
  DW_CFA_def_cfa_offset: 8
  DW_CFA_advance_loc: 5 to 000000000043fbc0
  DW_CFA_restore_state
  DW_CFA_advance_loc: 46 to 000000000043fbee
  DW_CFA_remember_state
  DW_CFA_def_cfa_offset: 56
  DW_CFA_advance_loc: 8 to 000000000043fbf6
  DW_CFA_def_cfa_offset: 48
  DW_CFA_advance_loc: 1 to 000000000043fbf7
  DW_CFA_def_cfa_offset: 40
  DW_CFA_advance_loc: 2 to 000000000043fbf9
  DW_CFA_def_cfa_offset: 32
  DW_CFA_advance_loc: 2 to 000000000043fbfb
  DW_CFA_def_cfa_offset: 24
  DW_CFA_advance_loc: 2 to 000000000043fbfd
  DW_CFA_def_cfa_offset: 16
  DW_CFA_advance_loc: 2 to 000000000043fbff
  DW_CFA_def_cfa_offset: 8
  DW_CFA_advance_loc: 5 to 000000000043fc04
  DW_CFA_restore_state
  DW_CFA_advance_loc: 56 to 000000000043fc3c
  DW_CFA_remember_state
  DW_CFA_def_cfa_offset: 56
  DW_CFA_advance_loc: 8 to 000000000043fc44
  DW_CFA_def_cfa_offset: 48
  DW_CFA_advance_loc: 1 to 000000000043fc45
  DW_CFA_def_cfa_offset: 40
  DW_CFA_advance_loc: 2 to 000000000043fc47
  DW_CFA_def_cfa_offset: 32
  DW_CFA_advance_loc: 2 to 000000000043fc49
  DW_CFA_def_cfa_offset: 24
  DW_CFA_advance_loc: 2 to 000000000043fc4b
  DW_CFA_def_cfa_offset: 16
  DW_CFA_advance_loc: 2 to 000000000043fc4d
  DW_CFA_def_cfa_offset: 8
  DW_CFA_advance_loc: 5 to 000000000043fc52
  DW_CFA_restore_state
  DW_CFA_advance_loc: 46 to 000000000043fc80
  DW_CFA_remember_state
  DW_CFA_def_cfa_offset: 56
  DW_CFA_advance_loc: 8 to 000000000043fc88
  DW_CFA_def_cfa_offset: 48
  DW_CFA_advance_loc: 1 to 000000000043fc89
  DW_CFA_def_cfa_offset: 40
  DW_CFA_advance_loc: 2 to 000000000043fc8b
  DW_CFA_def_cfa_offset: 32
  DW_CFA_advance_loc: 2 to 000000000043fc8d
  DW_CFA_def_cfa_offset: 24
  DW_CFA_advance_loc: 2 to 000000000043fc8f
  DW_CFA_def_cfa_offset: 16
  DW_CFA_advance_loc: 2 to 000000000043fc91
  DW_CFA_def_cfa_offset: 8
  DW_CFA_advance_loc: 5 to 000000000043fc96
  DW_CFA_restore_state
  DW_CFA_advance_loc: 56 to 000000000043fcce
  DW_CFA_remember_state
  DW_CFA_def_cfa_offset: 56
  DW_CFA_advance_loc: 8 to 000000000043fcd6
  DW_CFA_def_cfa_offset: 48
  DW_CFA_advance_loc: 1 to 000000000043fcd7
  DW_CFA_def_cfa_offset: 40
  DW_CFA_advance_loc: 2 to 000000000043fcd9
  DW_CFA_def_cfa_offset: 32
  DW_CFA_advance_loc: 2 to 000000000043fcdb
  DW_CFA_def_cfa_offset: 24
  DW_CFA_advance_loc: 2 to 000000000043fcdd
  DW_CFA_def_cfa_offset: 16
  DW_CFA_advance_loc: 2 to 000000000043fcdf
  DW_CFA_def_cfa_offset: 8
  DW_CFA_advance_loc: 5 to 000000000043fce4
  DW_CFA_restore_state
  DW_CFA_advance_loc: 46 to 000000000043fd12
  DW_CFA_remember_state
  DW_CFA_def_cfa_offset: 56
  DW_CFA_advance_loc: 8 to 000000000043fd1a
  DW_CFA_def_cfa_offset: 48
  DW_CFA_advance_loc: 1 to 000000000043fd1b
  DW_CFA_def_cfa_offset: 40
  DW_CFA_advance_loc: 2 to 000000000043fd1d
  DW_CFA_def_cfa_offset: 32
  DW_CFA_advance_loc: 2 to 000000000043fd1f
  DW_CFA_def_cfa_offset: 24
  DW_CFA_advance_loc: 2 to 000000000043fd21
  DW_CFA_def_cfa_offset: 16
  DW_CFA_advance_loc: 2 to 000000000043fd23
  DW_CFA_def_cfa_offset: 8
  DW_CFA_advance_loc: 5 to 000000000043fd28
  DW_CFA_restore_state
  DW_CFA_advance_loc: 56 to 000000000043fd60
  DW_CFA_remember_state
  DW_CFA_def_cfa_offset: 56
  DW_CFA_advance_loc: 8 to 000000000043fd68
  DW_CFA_def_cfa_offset: 48
  DW_CFA_advance_loc: 1 to 000000000043fd69
  DW_CFA_def_cfa_offset: 40
  DW_CFA_advance_loc: 2 to 000000000043fd6b
  DW_CFA_def_cfa_offset: 32
  DW_CFA_advance_loc: 2 to 000000000043fd6d
  DW_CFA_def_cfa_offset: 24
  DW_CFA_advance_loc: 2 to 000000000043fd6f
  DW_CFA_def_cfa_offset: 16
  DW_CFA_advance_loc: 2 to 000000000043fd71
  DW_CFA_def_cfa_offset: 8
  DW_CFA_advance_loc: 5 to 000000000043fd76
  DW_CFA_restore_state
  DW_CFA_advance_loc: 46 to 000000000043fda4
  DW_CFA_remember_state
  DW_CFA_def_cfa_offset: 56
  DW_CFA_advance_loc: 8 to 000000000043fdac
  DW_CFA_def_cfa_offset: 48
  DW_CFA_advance_loc: 1 to 000000000043fdad
  DW_CFA_def_cfa_offset: 40
  DW_CFA_advance_loc: 2 to 000000000043fdaf
  DW_CFA_def_cfa_offset: 32
  DW_CFA_advance_loc: 2 to 000000000043fdb1
  DW_CFA_def_cfa_offset: 24
  DW_CFA_advance_loc: 2 to 000000000043fdb3
  DW_CFA_def_cfa_offset: 16
  DW_CFA_advance_loc: 2 to 000000000043fdb5
  DW_CFA_def_cfa_offset: 8
  DW_CFA_advance_loc: 5 to 000000000043fdba
  DW_CFA_restore_state
  DW_CFA_advance_loc: 56 to 000000000043fdf2
  DW_CFA_remember_state
  DW_CFA_def_cfa_offset: 56
  DW_CFA_advance_loc: 8 to 000000000043fdfa
  DW_CFA_def_cfa_offset: 48
  DW_CFA_advance_loc: 1 to 000000000043fdfb
  DW_CFA_def_cfa_offset: 40
  DW_CFA_advance_loc: 2 to 000000000043fdfd
  DW_CFA_def_cfa_offset: 32
  DW_CFA_advance_loc: 2 to 000000000043fdff
  DW_CFA_def_cfa_offset: 24
  DW_CFA_advance_loc: 2 to 000000000043fe01
  DW_CFA_def_cfa_offset: 16
  DW_CFA_advance_loc: 2 to 000000000043fe03
  DW_CFA_def_cfa_offset: 8
  DW_CFA_advance_loc: 5 to 000000000043fe08
  DW_CFA_restore_state
  DW_CFA_advance_loc: 46 to 000000000043fe36
  DW_CFA_remember_state
  DW_CFA_def_cfa_offset: 56
  DW_CFA_advance_loc: 8 to 000000000043fe3e
  DW_CFA_def_cfa_offset: 48
  DW_CFA_advance_loc: 1 to 000000000043fe3f
  DW_CFA_def_cfa_offset: 40
  DW_CFA_advance_loc: 2 to 000000000043fe41
  DW_CFA_def_cfa_offset: 32
  DW_CFA_advance_loc: 2 to 000000000043fe43
  DW_CFA_def_cfa_offset: 24
  DW_CFA_advance_loc: 2 to 000000000043fe45
  DW_CFA_def_cfa_offset: 16
  DW_CFA_advance_loc: 2 to 000000000043fe47
  DW_CFA_def_cfa_offset: 8
  DW_CFA_advance_loc: 5 to 000000000043fe4c
  DW_CFA_restore_state
  DW_CFA_advance_loc: 56 to 000000000043fe84
  DW_CFA_remember_state
  DW_CFA_def_cfa_offset: 56
  DW_CFA_advance_loc: 8 to 000000000043fe8c
  DW_CFA_def_cfa_offset: 48
  DW_CFA_advance_loc: 1 to 000000000043fe8d
  DW_CFA_def_cfa_offset: 40
  DW_CFA_advance_loc: 2 to 000000000043fe8f
  DW_CFA_def_cfa_offset: 32
  DW_CFA_advance_loc: 2 to 000000000043fe91
  DW_CFA_def_cfa_offset: 24
  DW_CFA_advance_loc: 2 to 000000000043fe93
  DW_CFA_def_cfa_offset: 16
  DW_CFA_advance_loc: 2 to 000000000043fe95
  DW_CFA_def_cfa_offset: 8
  DW_CFA_advance_loc: 5 to 000000000043fe9a
  DW_CFA_restore_state
  DW_CFA_advance_loc: 46 to 000000000043fec8
  DW_CFA_remember_state
  DW_CFA_def_cfa_offset: 56
  DW_CFA_advance_loc: 8 to 000000000043fed0
  DW_CFA_def_cfa_offset: 48
  DW_CFA_advance_loc: 1 to 000000000043fed1
  DW_CFA_def_cfa_offset: 40
  DW_CFA_advance_loc: 2 to 000000000043fed3
  DW_CFA_def_cfa_offset: 32
  DW_CFA_advance_loc: 2 to 000000000043fed5
  DW_CFA_def_cfa_offset: 24
  DW_CFA_advance_loc: 2 to 000000000043fed7
  DW_CFA_def_cfa_offset: 16
  DW_CFA_advance_loc: 2 to 000000000043fed9
  DW_CFA_def_cfa_offset: 8
  DW_CFA_advance_loc: 5 to 000000000043fede
  DW_CFA_restore_state
  DW_CFA_advance_loc: 56 to 000000000043ff16
  DW_CFA_remember_state
  DW_CFA_def_cfa_offset: 56
  DW_CFA_advance_loc: 8 to 000000000043ff1e
  DW_CFA_def_cfa_offset: 48
  DW_CFA_advance_loc: 1 to 000000000043ff1f
  DW_CFA_def_cfa_offset: 40
  DW_CFA_advance_loc: 2 to 000000000043ff21
  DW_CFA_def_cfa_offset: 32
  DW_CFA_advance_loc: 2 to 000000000043ff23
  DW_CFA_def_cfa_offset: 24
  DW_CFA_advance_loc: 2 to 000000000043ff25
  DW_CFA_def_cfa_offset: 16
  DW_CFA_advance_loc: 2 to 000000000043ff27
  DW_CFA_def_cfa_offset: 8
  DW_CFA_advance_loc: 5 to 000000000043ff2c
  DW_CFA_restore_state
  DW_CFA_advance_loc: 46 to 000000000043ff5a
  DW_CFA_remember_state
  DW_CFA_def_cfa_offset: 56
  DW_CFA_advance_loc: 8 to 000000000043ff62
  DW_CFA_def_cfa_offset: 48
  DW_CFA_advance_loc: 1 to 000000000043ff63
  DW_CFA_def_cfa_offset: 40
  DW_CFA_advance_loc: 2 to 000000000043ff65
  DW_CFA_def_cfa_offset: 32
  DW_CFA_advance_loc: 2 to 000000000043ff67
  DW_CFA_def_cfa_offset: 24
  DW_CFA_advance_loc: 2 to 000000000043ff69
  DW_CFA_def_cfa_offset: 16
  DW_CFA_advance_loc: 2 to 000000000043ff6b
  DW_CFA_def_cfa_offset: 8
  DW_CFA_advance_loc: 5 to 000000000043ff70
  DW_CFA_restore_state
  DW_CFA_advance_loc: 56 to 000000000043ffa8
  DW_CFA_remember_state
  DW_CFA_def_cfa_offset: 56
  DW_CFA_advance_loc: 8 to 000000000043ffb0
  DW_CFA_def_cfa_offset: 48
  DW_CFA_advance_loc: 1 to 000000000043ffb1
  DW_CFA_def_cfa_offset: 40
  DW_CFA_advance_loc: 2 to 000000000043ffb3
  DW_CFA_def_cfa_offset: 32
  DW_CFA_advance_loc: 2 to 000000000043ffb5
  DW_CFA_def_cfa_offset: 24
  DW_CFA_advance_loc: 2 to 000000000043ffb7
  DW_CFA_def_cfa_offset: 16
  DW_CFA_advance_loc: 2 to 000000000043ffb9
  DW_CFA_def_cfa_offset: 8
  DW_CFA_advance_loc: 5 to 000000000043ffbe
  DW_CFA_restore_state
  DW_CFA_advance_loc: 46 to 000000000043ffec
  DW_CFA_remember_state
  DW_CFA_def_cfa_offset: 56
  DW_CFA_advance_loc: 8 to 000000000043fff4
  DW_CFA_def_cfa_offset: 48
  DW_CFA_advance_loc: 1 to 000000000043fff5
  DW_CFA_def_cfa_offset: 40
  DW_CFA_advance_loc: 2 to 000000000043fff7
  DW_CFA_def_cfa_offset: 32
  DW_CFA_advance_loc: 2 to 000000000043fff9
  DW_CFA_def_cfa_offset: 24
  DW_CFA_advance_loc: 2 to 000000000043fffb
  DW_CFA_def_cfa_offset: 16
  DW_CFA_advance_loc: 2 to 000000000043fffd
  DW_CFA_def_cfa_offset: 8
  DW_CFA_advance_loc: 5 to 0000000000440002
  DW_CFA_restore_state
  DW_CFA_advance_loc: 56 to 000000000044003a
  DW_CFA_remember_state
  DW_CFA_def_cfa_offset: 56
  DW_CFA_advance_loc: 8 to 0000000000440042
  DW_CFA_def_cfa_offset: 48
  DW_CFA_advance_loc: 1 to 0000000000440043
  DW_CFA_def_cfa_offset: 40
  DW_CFA_advance_loc: 2 to 0000000000440045
  DW_CFA_def_cfa_offset: 32
  DW_CFA_advance_loc: 2 to 0000000000440047
  DW_CFA_def_cfa_offset: 24
  DW_CFA_advance_loc: 2 to 0000000000440049
  DW_CFA_def_cfa_offset: 16
  DW_CFA_advance_loc: 2 to 000000000044004b
  DW_CFA_def_cfa_offset: 8
  DW_CFA_advance_loc: 5 to 0000000000440050
  DW_CFA_restore_state
  DW_CFA_advance_loc: 46 to 000000000044007e
  DW_CFA_remember_state
  DW_CFA_def_cfa_offset: 56
  DW_CFA_advance_loc: 8 to 0000000000440086
  DW_CFA_def_cfa_offset: 48
  DW_CFA_advance_loc: 1 to 0000000000440087
  DW_CFA_def_cfa_offset: 40
  DW_CFA_advance_loc: 2 to 0000000000440089
  DW_CFA_def_cfa_offset: 32
  DW_CFA_advance_loc: 2 to 000000000044008b
  DW_CFA_def_cfa_offset: 24
  DW_CFA_advance_loc: 2 to 000000000044008d
  DW_CFA_def_cfa_offset: 16
  DW_CFA_advance_loc: 2 to 000000000044008f
  DW_CFA_def_cfa_offset: 8
  DW_CFA_advance_loc: 5 to 0000000000440094
  DW_CFA_restore_state
  DW_CFA_advance_loc: 56 to 00000000004400cc
  DW_CFA_remember_state
  DW_CFA_def_cfa_offset: 56
  DW_CFA_advance_loc: 8 to 00000000004400d4
  DW_CFA_def_cfa_offset: 48
  DW_CFA_advance_loc: 1 to 00000000004400d5
  DW_CFA_def_cfa_offset: 40
  DW_CFA_advance_loc: 2 to 00000000004400d7
  DW_CFA_def_cfa_offset: 32
  DW_CFA_advance_loc: 2 to 00000000004400d9
  DW_CFA_def_cfa_offset: 24
  DW_CFA_advance_loc: 2 to 00000000004400db
  DW_CFA_def_cfa_offset: 16
  DW_CFA_advance_loc: 2 to 00000000004400dd
  DW_CFA_def_cfa_offset: 8
  DW_CFA_advance_loc: 5 to 00000000004400e2
  DW_CFA_restore_state
  DW_CFA_advance_loc: 46 to 0000000000440110
  DW_CFA_remember_state
  DW_CFA_def_cfa_offset: 56
  DW_CFA_advance_loc: 8 to 0000000000440118
  DW_CFA_def_cfa_offset: 48
  DW_CFA_advance_loc: 1 to 0000000000440119
  DW_CFA_def_cfa_offset: 40
  DW_CFA_advance_loc: 2 to 000000000044011b
  DW_CFA_def_cfa_offset: 32
  DW_CFA_advance_loc: 2 to 000000000044011d
  DW_CFA_def_cfa_offset: 24
  DW_CFA_advance_loc: 2 to 000000000044011f
  DW_CFA_def_cfa_offset: 16
  DW_CFA_advance_loc: 2 to 0000000000440121
  DW_CFA_def_cfa_offset: 8
  DW_CFA_advance_loc: 5 to 0000000000440126
  DW_CFA_restore_state
  DW_CFA_advance_loc: 56 to 000000000044015e
  DW_CFA_remember_state
  DW_CFA_def_cfa_offset: 56
  DW_CFA_advance_loc: 8 to 0000000000440166
  DW_CFA_def_cfa_offset: 48
  DW_CFA_advance_loc: 1 to 0000000000440167
  DW_CFA_def_cfa_offset: 40
  DW_CFA_advance_loc: 2 to 0000000000440169
  DW_CFA_def_cfa_offset: 32
  DW_CFA_advance_loc: 2 to 000000000044016b
  DW_CFA_def_cfa_offset: 24
  DW_CFA_advance_loc: 2 to 000000000044016d
  DW_CFA_def_cfa_offset: 16
  DW_CFA_advance_loc: 2 to 000000000044016f
  DW_CFA_def_cfa_offset: 8
  DW_CFA_advance_loc: 5 to 0000000000440174
  DW_CFA_restore_state
  DW_CFA_advance_loc: 46 to 00000000004401a2
  DW_CFA_remember_state
  DW_CFA_def_cfa_offset: 56
  DW_CFA_advance_loc: 8 to 00000000004401aa
  DW_CFA_def_cfa_offset: 48
  DW_CFA_advance_loc: 1 to 00000000004401ab
  DW_CFA_def_cfa_offset: 40
  DW_CFA_advance_loc: 2 to 00000000004401ad
  DW_CFA_def_cfa_offset: 32
  DW_CFA_advance_loc: 2 to 00000000004401af
  DW_CFA_def_cfa_offset: 24
  DW_CFA_advance_loc: 2 to 00000000004401b1
  DW_CFA_def_cfa_offset: 16
  DW_CFA_advance_loc: 2 to 00000000004401b3
  DW_CFA_def_cfa_offset: 8
  DW_CFA_advance_loc: 5 to 00000000004401b8
  DW_CFA_restore_state
  DW_CFA_advance_loc: 56 to 00000000004401f0
  DW_CFA_remember_state
  DW_CFA_def_cfa_offset: 56
  DW_CFA_advance_loc: 8 to 00000000004401f8
  DW_CFA_def_cfa_offset: 48
  DW_CFA_advance_loc: 1 to 00000000004401f9
  DW_CFA_def_cfa_offset: 40
  DW_CFA_advance_loc: 2 to 00000000004401fb
  DW_CFA_def_cfa_offset: 32
  DW_CFA_advance_loc: 2 to 00000000004401fd
  DW_CFA_def_cfa_offset: 24
  DW_CFA_advance_loc: 2 to 00000000004401ff
  DW_CFA_def_cfa_offset: 16
  DW_CFA_advance_loc: 2 to 0000000000440201
  DW_CFA_def_cfa_offset: 8
  DW_CFA_advance_loc: 5 to 0000000000440206
  DW_CFA_restore_state
  DW_CFA_advance_loc: 46 to 0000000000440234
  DW_CFA_remember_state
  DW_CFA_def_cfa_offset: 56
  DW_CFA_advance_loc: 8 to 000000000044023c
  DW_CFA_def_cfa_offset: 48
  DW_CFA_advance_loc: 1 to 000000000044023d
  DW_CFA_def_cfa_offset: 40
  DW_CFA_advance_loc: 2 to 000000000044023f
  DW_CFA_def_cfa_offset: 32
  DW_CFA_advance_loc: 2 to 0000000000440241
  DW_CFA_def_cfa_offset: 24
  DW_CFA_advance_loc: 2 to 0000000000440243
  DW_CFA_def_cfa_offset: 16
  DW_CFA_advance_loc: 2 to 0000000000440245
  DW_CFA_def_cfa_offset: 8
  DW_CFA_advance_loc: 5 to 000000000044024a
  DW_CFA_restore_state
  DW_CFA_advance_loc: 56 to 0000000000440282
  DW_CFA_remember_state
  DW_CFA_def_cfa_offset: 56
  DW_CFA_advance_loc: 8 to 000000000044028a
  DW_CFA_def_cfa_offset: 48
  DW_CFA_advance_loc: 1 to 000000000044028b
  DW_CFA_def_cfa_offset: 40
  DW_CFA_advance_loc: 2 to 000000000044028d
  DW_CFA_def_cfa_offset: 32
  DW_CFA_advance_loc: 2 to 000000000044028f
  DW_CFA_def_cfa_offset: 24
  DW_CFA_advance_loc: 2 to 0000000000440291
  DW_CFA_def_cfa_offset: 16
  DW_CFA_advance_loc: 2 to 0000000000440293
  DW_CFA_def_cfa_offset: 8
  DW_CFA_advance_loc: 5 to 0000000000440298
  DW_CFA_restore_state
  DW_CFA_advance_loc: 46 to 00000000004402c6
  DW_CFA_remember_state
  DW_CFA_def_cfa_offset: 56
  DW_CFA_advance_loc: 8 to 00000000004402ce
  DW_CFA_def_cfa_offset: 48
  DW_CFA_advance_loc: 1 to 00000000004402cf
  DW_CFA_def_cfa_offset: 40
  DW_CFA_advance_loc: 2 to 00000000004402d1
  DW_CFA_def_cfa_offset: 32
  DW_CFA_advance_loc: 2 to 00000000004402d3
  DW_CFA_def_cfa_offset: 24
  DW_CFA_advance_loc: 2 to 00000000004402d5
  DW_CFA_def_cfa_offset: 16
  DW_CFA_advance_loc: 2 to 00000000004402d7
  DW_CFA_def_cfa_offset: 8
  DW_CFA_advance_loc: 5 to 00000000004402dc
  DW_CFA_restore_state
  DW_CFA_advance_loc: 56 to 0000000000440314
  DW_CFA_remember_state
  DW_CFA_def_cfa_offset: 56
  DW_CFA_advance_loc: 8 to 000000000044031c
  DW_CFA_def_cfa_offset: 48
  DW_CFA_advance_loc: 1 to 000000000044031d
  DW_CFA_def_cfa_offset: 40
  DW_CFA_advance_loc: 2 to 000000000044031f
  DW_CFA_def_cfa_offset: 32
  DW_CFA_advance_loc: 2 to 0000000000440321
  DW_CFA_def_cfa_offset: 24
  DW_CFA_advance_loc: 2 to 0000000000440323
  DW_CFA_def_cfa_offset: 16
  DW_CFA_advance_loc: 2 to 0000000000440325
  DW_CFA_def_cfa_offset: 8
  DW_CFA_advance_loc: 5 to 000000000044032a
  DW_CFA_restore_state
  DW_CFA_advance_loc: 46 to 0000000000440358
  DW_CFA_remember_state
  DW_CFA_def_cfa_offset: 56
  DW_CFA_advance_loc: 8 to 0000000000440360
  DW_CFA_def_cfa_offset: 48
  DW_CFA_advance_loc: 1 to 0000000000440361
  DW_CFA_def_cfa_offset: 40
  DW_CFA_advance_loc: 2 to 0000000000440363
  DW_CFA_def_cfa_offset: 32
  DW_CFA_advance_loc: 2 to 0000000000440365
  DW_CFA_def_cfa_offset: 24
  DW_CFA_advance_loc: 2 to 0000000000440367
  DW_CFA_def_cfa_offset: 16
  DW_CFA_advance_loc: 2 to 0000000000440369
  DW_CFA_def_cfa_offset: 8
  DW_CFA_advance_loc: 5 to 000000000044036e
  DW_CFA_restore_state
  DW_CFA_advance_loc: 56 to 00000000004403a6
  DW_CFA_remember_state
  DW_CFA_def_cfa_offset: 56
  DW_CFA_advance_loc: 8 to 00000000004403ae
  DW_CFA_def_cfa_offset: 48
  DW_CFA_advance_loc: 1 to 00000000004403af
  DW_CFA_def_cfa_offset: 40
  DW_CFA_advance_loc: 2 to 00000000004403b1
  DW_CFA_def_cfa_offset: 32
  DW_CFA_advance_loc: 2 to 00000000004403b3
  DW_CFA_def_cfa_offset: 24
  DW_CFA_advance_loc: 2 to 00000000004403b5
  DW_CFA_def_cfa_offset: 16
  DW_CFA_advance_loc: 2 to 00000000004403b7
  DW_CFA_def_cfa_offset: 8
  DW_CFA_advance_loc: 5 to 00000000004403bc
  DW_CFA_restore_state
  DW_CFA_advance_loc: 46 to 00000000004403ea
  DW_CFA_remember_state
  DW_CFA_def_cfa_offset: 56
  DW_CFA_advance_loc: 8 to 00000000004403f2
  DW_CFA_def_cfa_offset: 48
  DW_CFA_advance_loc: 1 to 00000000004403f3
  DW_CFA_def_cfa_offset: 40
  DW_CFA_advance_loc: 2 to 00000000004403f5
  DW_CFA_def_cfa_offset: 32
  DW_CFA_advance_loc: 2 to 00000000004403f7
  DW_CFA_def_cfa_offset: 24
  DW_CFA_advance_loc: 2 to 00000000004403f9
  DW_CFA_def_cfa_offset: 16
  DW_CFA_advance_loc: 2 to 00000000004403fb
  DW_CFA_def_cfa_offset: 8
  DW_CFA_advance_loc: 5 to 0000000000440400
  DW_CFA_restore_state
  DW_CFA_advance_loc: 56 to 0000000000440438
  DW_CFA_remember_state
  DW_CFA_def_cfa_offset: 56
  DW_CFA_advance_loc: 8 to 0000000000440440
  DW_CFA_def_cfa_offset: 48
  DW_CFA_advance_loc: 1 to 0000000000440441
  DW_CFA_def_cfa_offset: 40
  DW_CFA_advance_loc: 2 to 0000000000440443
  DW_CFA_def_cfa_offset: 32
  DW_CFA_advance_loc: 2 to 0000000000440445
  DW_CFA_def_cfa_offset: 24
  DW_CFA_advance_loc: 2 to 0000000000440447
  DW_CFA_def_cfa_offset: 16
  DW_CFA_advance_loc: 2 to 0000000000440449
  DW_CFA_def_cfa_offset: 8
  DW_CFA_advance_loc: 5 to 000000000044044e
  DW_CFA_restore_state
  DW_CFA_advance_loc: 46 to 000000000044047c
  DW_CFA_remember_state
  DW_CFA_def_cfa_offset: 56
  DW_CFA_advance_loc: 8 to 0000000000440484
  DW_CFA_def_cfa_offset: 48
  DW_CFA_advance_loc: 1 to 0000000000440485
  DW_CFA_def_cfa_offset: 40
  DW_CFA_advance_loc: 2 to 0000000000440487
  DW_CFA_def_cfa_offset: 32
  DW_CFA_advance_loc: 2 to 0000000000440489
  DW_CFA_def_cfa_offset: 24
  DW_CFA_advance_loc: 2 to 000000000044048b
  DW_CFA_def_cfa_offset: 16
  DW_CFA_advance_loc: 2 to 000000000044048d
  DW_CFA_def_cfa_offset: 8
  DW_CFA_advance_loc: 5 to 0000000000440492
  DW_CFA_restore_state
  DW_CFA_advance_loc: 56 to 00000000004404ca
  DW_CFA_remember_state
  DW_CFA_def_cfa_offset: 56
  DW_CFA_advance_loc: 8 to 00000000004404d2
  DW_CFA_def_cfa_offset: 48
  DW_CFA_advance_loc: 1 to 00000000004404d3
  DW_CFA_def_cfa_offset: 40
  DW_CFA_advance_loc: 2 to 00000000004404d5
  DW_CFA_def_cfa_offset: 32
  DW_CFA_advance_loc: 2 to 00000000004404d7
  DW_CFA_def_cfa_offset: 24
  DW_CFA_advance_loc: 2 to 00000000004404d9
  DW_CFA_def_cfa_offset: 16
  DW_CFA_advance_loc: 2 to 00000000004404db
  DW_CFA_def_cfa_offset: 8
  DW_CFA_advance_loc: 5 to 00000000004404e0
  DW_CFA_restore_state
  DW_CFA_advance_loc: 46 to 000000000044050e
  DW_CFA_remember_state
  DW_CFA_def_cfa_offset: 56
  DW_CFA_advance_loc: 8 to 0000000000440516
  DW_CFA_def_cfa_offset: 48
  DW_CFA_advance_loc: 1 to 0000000000440517
  DW_CFA_def_cfa_offset: 40
  DW_CFA_advance_loc: 2 to 0000000000440519
  DW_CFA_def_cfa_offset: 32
  DW_CFA_advance_loc: 2 to 000000000044051b
  DW_CFA_def_cfa_offset: 24
  DW_CFA_advance_loc: 2 to 000000000044051d
  DW_CFA_def_cfa_offset: 16
  DW_CFA_advance_loc: 2 to 000000000044051f
  DW_CFA_def_cfa_offset: 8
  DW_CFA_advance_loc: 5 to 0000000000440524
  DW_CFA_restore_state
  DW_CFA_advance_loc: 56 to 000000000044055c
  DW_CFA_remember_state
  DW_CFA_def_cfa_offset: 56
  DW_CFA_advance_loc: 8 to 0000000000440564
  DW_CFA_def_cfa_offset: 48
  DW_CFA_advance_loc: 1 to 0000000000440565
  DW_CFA_def_cfa_offset: 40
  DW_CFA_advance_loc: 2 to 0000000000440567
  DW_CFA_def_cfa_offset: 32
  DW_CFA_advance_loc: 2 to 0000000000440569
  DW_CFA_def_cfa_offset: 24
  DW_CFA_advance_loc: 2 to 000000000044056b
  DW_CFA_def_cfa_offset: 16
  DW_CFA_advance_loc: 2 to 000000000044056d
  DW_CFA_def_cfa_offset: 8
  DW_CFA_advance_loc: 5 to 0000000000440572
  DW_CFA_restore_state
  DW_CFA_advance_loc: 46 to 00000000004405a0
  DW_CFA_remember_state
  DW_CFA_def_cfa_offset: 56
  DW_CFA_advance_loc: 8 to 00000000004405a8
  DW_CFA_def_cfa_offset: 48
  DW_CFA_advance_loc: 1 to 00000000004405a9
  DW_CFA_def_cfa_offset: 40
  DW_CFA_advance_loc: 2 to 00000000004405ab
  DW_CFA_def_cfa_offset: 32
  DW_CFA_advance_loc: 2 to 00000000004405ad
  DW_CFA_def_cfa_offset: 24
  DW_CFA_advance_loc: 2 to 00000000004405af
  DW_CFA_def_cfa_offset: 16
  DW_CFA_advance_loc: 2 to 00000000004405b1
  DW_CFA_def_cfa_offset: 8
  DW_CFA_advance_loc: 5 to 00000000004405b6
  DW_CFA_restore_state
  DW_CFA_advance_loc: 56 to 00000000004405ee
  DW_CFA_remember_state
  DW_CFA_def_cfa_offset: 56
  DW_CFA_advance_loc: 8 to 00000000004405f6
  DW_CFA_def_cfa_offset: 48
  DW_CFA_advance_loc: 1 to 00000000004405f7
  DW_CFA_def_cfa_offset: 40
  DW_CFA_advance_loc: 2 to 00000000004405f9
  DW_CFA_def_cfa_offset: 32
  DW_CFA_advance_loc: 2 to 00000000004405fb
  DW_CFA_def_cfa_offset: 24
  DW_CFA_advance_loc: 2 to 00000000004405fd
  DW_CFA_def_cfa_offset: 16
  DW_CFA_advance_loc: 2 to 00000000004405ff
  DW_CFA_def_cfa_offset: 8
  DW_CFA_advance_loc: 5 to 0000000000440604
  DW_CFA_restore_state
  DW_CFA_advance_loc: 46 to 0000000000440632
  DW_CFA_remember_state
  DW_CFA_def_cfa_offset: 56
  DW_CFA_advance_loc: 8 to 000000000044063a
  DW_CFA_def_cfa_offset: 48
  DW_CFA_advance_loc: 1 to 000000000044063b
  DW_CFA_def_cfa_offset: 40
  DW_CFA_advance_loc: 2 to 000000000044063d
  DW_CFA_def_cfa_offset: 32
  DW_CFA_advance_loc: 2 to 000000000044063f
  DW_CFA_def_cfa_offset: 24
  DW_CFA_advance_loc: 2 to 0000000000440641
  DW_CFA_def_cfa_offset: 16
  DW_CFA_advance_loc: 2 to 0000000000440643
  DW_CFA_def_cfa_offset: 8
  DW_CFA_advance_loc: 5 to 0000000000440648
  DW_CFA_restore_state
  DW_CFA_advance_loc: 56 to 0000000000440680
  DW_CFA_remember_state
  DW_CFA_def_cfa_offset: 56
  DW_CFA_advance_loc: 8 to 0000000000440688
  DW_CFA_def_cfa_offset: 48
  DW_CFA_advance_loc: 1 to 0000000000440689
  DW_CFA_def_cfa_offset: 40
  DW_CFA_advance_loc: 2 to 000000000044068b
  DW_CFA_def_cfa_offset: 32
  DW_CFA_advance_loc: 2 to 000000000044068d
  DW_CFA_def_cfa_offset: 24
  DW_CFA_advance_loc: 2 to 000000000044068f
  DW_CFA_def_cfa_offset: 16
  DW_CFA_advance_loc: 2 to 0000000000440691
  DW_CFA_def_cfa_offset: 8
  DW_CFA_advance_loc: 5 to 0000000000440696
  DW_CFA_restore_state
  DW_CFA_advance_loc: 46 to 00000000004406c4
  DW_CFA_remember_state
  DW_CFA_def_cfa_offset: 56
  DW_CFA_advance_loc: 8 to 00000000004406cc
  DW_CFA_def_cfa_offset: 48
  DW_CFA_advance_loc: 1 to 00000000004406cd
  DW_CFA_def_cfa_offset: 40
  DW_CFA_advance_loc: 2 to 00000000004406cf
  DW_CFA_def_cfa_offset: 32
  DW_CFA_advance_loc: 2 to 00000000004406d1
  DW_CFA_def_cfa_offset: 24
  DW_CFA_advance_loc: 2 to 00000000004406d3
  DW_CFA_def_cfa_offset: 16
  DW_CFA_advance_loc: 2 to 00000000004406d5
  DW_CFA_def_cfa_offset: 8
  DW_CFA_advance_loc: 5 to 00000000004406da
  DW_CFA_restore_state
  DW_CFA_advance_loc: 56 to 0000000000440712
  DW_CFA_remember_state
  DW_CFA_def_cfa_offset: 56
  DW_CFA_advance_loc: 8 to 000000000044071a
  DW_CFA_def_cfa_offset: 48
  DW_CFA_advance_loc: 1 to 000000000044071b
  DW_CFA_def_cfa_offset: 40
  DW_CFA_advance_loc: 2 to 000000000044071d
  DW_CFA_def_cfa_offset: 32
  DW_CFA_advance_loc: 2 to 000000000044071f
  DW_CFA_def_cfa_offset: 24
  DW_CFA_advance_loc: 2 to 0000000000440721
  DW_CFA_def_cfa_offset: 16
  DW_CFA_advance_loc: 2 to 0000000000440723
  DW_CFA_def_cfa_offset: 8
  DW_CFA_advance_loc: 5 to 0000000000440728
  DW_CFA_restore_state
  DW_CFA_advance_loc: 46 to 0000000000440756
  DW_CFA_remember_state
  DW_CFA_def_cfa_offset: 56
  DW_CFA_advance_loc: 8 to 000000000044075e
  DW_CFA_def_cfa_offset: 48
  DW_CFA_advance_loc: 1 to 000000000044075f
  DW_CFA_def_cfa_offset: 40
  DW_CFA_advance_loc: 2 to 0000000000440761
  DW_CFA_def_cfa_offset: 32
  DW_CFA_advance_loc: 2 to 0000000000440763
  DW_CFA_def_cfa_offset: 24
  DW_CFA_advance_loc: 2 to 0000000000440765
  DW_CFA_def_cfa_offset: 16
  DW_CFA_advance_loc: 2 to 0000000000440767
  DW_CFA_def_cfa_offset: 8
  DW_CFA_advance_loc: 5 to 000000000044076c
  DW_CFA_restore_state
  DW_CFA_advance_loc: 56 to 00000000004407a4
  DW_CFA_remember_state
  DW_CFA_def_cfa_offset: 56
  DW_CFA_advance_loc: 8 to 00000000004407ac
  DW_CFA_def_cfa_offset: 48
  DW_CFA_advance_loc: 1 to 00000000004407ad
  DW_CFA_def_cfa_offset: 40
  DW_CFA_advance_loc: 2 to 00000000004407af
  DW_CFA_def_cfa_offset: 32
  DW_CFA_advance_loc: 2 to 00000000004407b1
  DW_CFA_def_cfa_offset: 24
  DW_CFA_advance_loc: 2 to 00000000004407b3
  DW_CFA_def_cfa_offset: 16
  DW_CFA_advance_loc: 2 to 00000000004407b5
  DW_CFA_def_cfa_offset: 8
  DW_CFA_advance_loc: 5 to 00000000004407ba
  DW_CFA_restore_state
  DW_CFA_advance_loc: 46 to 00000000004407e8
  DW_CFA_remember_state
  DW_CFA_def_cfa_offset: 56
  DW_CFA_advance_loc: 8 to 00000000004407f0
  DW_CFA_def_cfa_offset: 48
  DW_CFA_advance_loc: 1 to 00000000004407f1
  DW_CFA_def_cfa_offset: 40
  DW_CFA_advance_loc: 2 to 00000000004407f3
  DW_CFA_def_cfa_offset: 32
  DW_CFA_advance_loc: 2 to 00000000004407f5
  DW_CFA_def_cfa_offset: 24
  DW_CFA_advance_loc: 2 to 00000000004407f7
  DW_CFA_def_cfa_offset: 16
  DW_CFA_advance_loc: 2 to 00000000004407f9
  DW_CFA_def_cfa_offset: 8
  DW_CFA_advance_loc: 5 to 00000000004407fe
  DW_CFA_restore_state
  DW_CFA_advance_loc: 56 to 0000000000440836
  DW_CFA_remember_state
  DW_CFA_def_cfa_offset: 56
  DW_CFA_advance_loc: 8 to 000000000044083e
  DW_CFA_def_cfa_offset: 48
  DW_CFA_advance_loc: 1 to 000000000044083f
  DW_CFA_def_cfa_offset: 40
  DW_CFA_advance_loc: 2 to 0000000000440841
  DW_CFA_def_cfa_offset: 32
  DW_CFA_advance_loc: 2 to 0000000000440843
  DW_CFA_def_cfa_offset: 24
  DW_CFA_advance_loc: 2 to 0000000000440845
  DW_CFA_def_cfa_offset: 16
  DW_CFA_advance_loc: 2 to 0000000000440847
  DW_CFA_def_cfa_offset: 8
  DW_CFA_advance_loc: 5 to 000000000044084c
  DW_CFA_restore_state
  DW_CFA_advance_loc: 46 to 000000000044087a
  DW_CFA_remember_state
  DW_CFA_def_cfa_offset: 56
  DW_CFA_advance_loc: 8 to 0000000000440882
  DW_CFA_def_cfa_offset: 48
  DW_CFA_advance_loc: 1 to 0000000000440883
  DW_CFA_def_cfa_offset: 40
  DW_CFA_advance_loc: 2 to 0000000000440885
  DW_CFA_def_cfa_offset: 32
  DW_CFA_advance_loc: 2 to 0000000000440887
  DW_CFA_def_cfa_offset: 24
  DW_CFA_advance_loc: 2 to 0000000000440889
  DW_CFA_def_cfa_offset: 16
  DW_CFA_advance_loc: 2 to 000000000044088b
  DW_CFA_def_cfa_offset: 8
  DW_CFA_advance_loc: 5 to 0000000000440890
  DW_CFA_restore_state
  DW_CFA_advance_loc: 56 to 00000000004408c8
  DW_CFA_remember_state
  DW_CFA_def_cfa_offset: 56
  DW_CFA_advance_loc: 8 to 00000000004408d0
  DW_CFA_def_cfa_offset: 48
  DW_CFA_advance_loc: 1 to 00000000004408d1
  DW_CFA_def_cfa_offset: 40
  DW_CFA_advance_loc: 2 to 00000000004408d3
  DW_CFA_def_cfa_offset: 32
  DW_CFA_advance_loc: 2 to 00000000004408d5
  DW_CFA_def_cfa_offset: 24
  DW_CFA_advance_loc: 2 to 00000000004408d7
  DW_CFA_def_cfa_offset: 16
  DW_CFA_advance_loc: 2 to 00000000004408d9
