  DW_CFA_advance_loc: 2 to 00000000004348ce
  DW_CFA_def_cfa_offset: 24
  DW_CFA_advance_loc: 2 to 00000000004348d0
  DW_CFA_def_cfa_offset: 16
  DW_CFA_advance_loc: 2 to 00000000004348d2
  DW_CFA_def_cfa_offset: 8
  DW_CFA_advance_loc: 5 to 00000000004348d7
  DW_CFA_restore_state
  DW_CFA_advance_loc: 46 to 0000000000434905
  DW_CFA_remember_state
  DW_CFA_def_cfa_offset: 56
  DW_CFA_advance_loc: 8 to 000000000043490d
  DW_CFA_def_cfa_offset: 48
  DW_CFA_advance_loc: 1 to 000000000043490e
  DW_CFA_def_cfa_offset: 40
  DW_CFA_advance_loc: 2 to 0000000000434910
  DW_CFA_def_cfa_offset: 32
  DW_CFA_advance_loc: 2 to 0000000000434912
  DW_CFA_def_cfa_offset: 24
  DW_CFA_advance_loc: 2 to 0000000000434914
  DW_CFA_def_cfa_offset: 16
  DW_CFA_advance_loc: 2 to 0000000000434916
  DW_CFA_def_cfa_offset: 8
  DW_CFA_advance_loc: 5 to 000000000043491b
  DW_CFA_restore_state
  DW_CFA_advance_loc: 56 to 0000000000434953
  DW_CFA_remember_state
  DW_CFA_def_cfa_offset: 56
  DW_CFA_advance_loc: 8 to 000000000043495b
  DW_CFA_def_cfa_offset: 48
  DW_CFA_advance_loc: 1 to 000000000043495c
  DW_CFA_def_cfa_offset: 40
  DW_CFA_advance_loc: 2 to 000000000043495e
  DW_CFA_def_cfa_offset: 32
  DW_CFA_advance_loc: 2 to 0000000000434960
  DW_CFA_def_cfa_offset: 24
  DW_CFA_advance_loc: 2 to 0000000000434962
  DW_CFA_def_cfa_offset: 16
  DW_CFA_advance_loc: 2 to 0000000000434964
  DW_CFA_def_cfa_offset: 8
  DW_CFA_advance_loc: 5 to 0000000000434969
  DW_CFA_restore_state
  DW_CFA_advance_loc: 46 to 0000000000434997
  DW_CFA_remember_state
  DW_CFA_def_cfa_offset: 56
  DW_CFA_advance_loc: 8 to 000000000043499f
  DW_CFA_def_cfa_offset: 48
  DW_CFA_advance_loc: 1 to 00000000004349a0
  DW_CFA_def_cfa_offset: 40
  DW_CFA_advance_loc: 2 to 00000000004349a2
  DW_CFA_def_cfa_offset: 32
  DW_CFA_advance_loc: 2 to 00000000004349a4
  DW_CFA_def_cfa_offset: 24
  DW_CFA_advance_loc: 2 to 00000000004349a6
  DW_CFA_def_cfa_offset: 16
  DW_CFA_advance_loc: 2 to 00000000004349a8
  DW_CFA_def_cfa_offset: 8
  DW_CFA_advance_loc: 5 to 00000000004349ad
  DW_CFA_restore_state
  DW_CFA_advance_loc: 56 to 00000000004349e5
  DW_CFA_remember_state
  DW_CFA_def_cfa_offset: 56
  DW_CFA_advance_loc: 8 to 00000000004349ed
  DW_CFA_def_cfa_offset: 48
  DW_CFA_advance_loc: 1 to 00000000004349ee
  DW_CFA_def_cfa_offset: 40
  DW_CFA_advance_loc: 2 to 00000000004349f0
  DW_CFA_def_cfa_offset: 32
  DW_CFA_advance_loc: 2 to 00000000004349f2
  DW_CFA_def_cfa_offset: 24
  DW_CFA_advance_loc: 2 to 00000000004349f4
  DW_CFA_def_cfa_offset: 16
  DW_CFA_advance_loc: 2 to 00000000004349f6
  DW_CFA_def_cfa_offset: 8
  DW_CFA_advance_loc: 5 to 00000000004349fb
  DW_CFA_restore_state
  DW_CFA_advance_loc: 46 to 0000000000434a29
  DW_CFA_remember_state
  DW_CFA_def_cfa_offset: 56
  DW_CFA_advance_loc: 8 to 0000000000434a31
  DW_CFA_def_cfa_offset: 48
  DW_CFA_advance_loc: 1 to 0000000000434a32
  DW_CFA_def_cfa_offset: 40
  DW_CFA_advance_loc: 2 to 0000000000434a34
  DW_CFA_def_cfa_offset: 32
  DW_CFA_advance_loc: 2 to 0000000000434a36
  DW_CFA_def_cfa_offset: 24
  DW_CFA_advance_loc: 2 to 0000000000434a38
  DW_CFA_def_cfa_offset: 16
  DW_CFA_advance_loc: 2 to 0000000000434a3a
  DW_CFA_def_cfa_offset: 8
  DW_CFA_advance_loc: 5 to 0000000000434a3f
  DW_CFA_restore_state
  DW_CFA_advance_loc: 56 to 0000000000434a77
  DW_CFA_remember_state
  DW_CFA_def_cfa_offset: 56
  DW_CFA_advance_loc: 8 to 0000000000434a7f
  DW_CFA_def_cfa_offset: 48
  DW_CFA_advance_loc: 1 to 0000000000434a80
  DW_CFA_def_cfa_offset: 40
  DW_CFA_advance_loc: 2 to 0000000000434a82
  DW_CFA_def_cfa_offset: 32
  DW_CFA_advance_loc: 2 to 0000000000434a84
  DW_CFA_def_cfa_offset: 24
  DW_CFA_advance_loc: 2 to 0000000000434a86
  DW_CFA_def_cfa_offset: 16
  DW_CFA_advance_loc: 2 to 0000000000434a88
  DW_CFA_def_cfa_offset: 8
  DW_CFA_advance_loc: 5 to 0000000000434a8d
  DW_CFA_restore_state
  DW_CFA_advance_loc: 46 to 0000000000434abb
  DW_CFA_remember_state
  DW_CFA_def_cfa_offset: 56
  DW_CFA_advance_loc: 8 to 0000000000434ac3
  DW_CFA_def_cfa_offset: 48
  DW_CFA_advance_loc: 1 to 0000000000434ac4
  DW_CFA_def_cfa_offset: 40
  DW_CFA_advance_loc: 2 to 0000000000434ac6
  DW_CFA_def_cfa_offset: 32
  DW_CFA_advance_loc: 2 to 0000000000434ac8
  DW_CFA_def_cfa_offset: 24
  DW_CFA_advance_loc: 2 to 0000000000434aca
  DW_CFA_def_cfa_offset: 16
  DW_CFA_advance_loc: 2 to 0000000000434acc
  DW_CFA_def_cfa_offset: 8
  DW_CFA_advance_loc: 5 to 0000000000434ad1
  DW_CFA_restore_state
  DW_CFA_advance_loc: 56 to 0000000000434b09
  DW_CFA_remember_state
  DW_CFA_def_cfa_offset: 56
  DW_CFA_advance_loc: 8 to 0000000000434b11
  DW_CFA_def_cfa_offset: 48
  DW_CFA_advance_loc: 1 to 0000000000434b12
  DW_CFA_def_cfa_offset: 40
  DW_CFA_advance_loc: 2 to 0000000000434b14
  DW_CFA_def_cfa_offset: 32
  DW_CFA_advance_loc: 2 to 0000000000434b16
  DW_CFA_def_cfa_offset: 24
  DW_CFA_advance_loc: 2 to 0000000000434b18
  DW_CFA_def_cfa_offset: 16
  DW_CFA_advance_loc: 2 to 0000000000434b1a
  DW_CFA_def_cfa_offset: 8
  DW_CFA_advance_loc: 5 to 0000000000434b1f
  DW_CFA_restore_state
  DW_CFA_advance_loc: 46 to 0000000000434b4d
  DW_CFA_remember_state
  DW_CFA_def_cfa_offset: 56
  DW_CFA_advance_loc: 8 to 0000000000434b55
  DW_CFA_def_cfa_offset: 48
  DW_CFA_advance_loc: 1 to 0000000000434b56
  DW_CFA_def_cfa_offset: 40
  DW_CFA_advance_loc: 2 to 0000000000434b58
  DW_CFA_def_cfa_offset: 32
  DW_CFA_advance_loc: 2 to 0000000000434b5a
  DW_CFA_def_cfa_offset: 24
  DW_CFA_advance_loc: 2 to 0000000000434b5c
  DW_CFA_def_cfa_offset: 16
  DW_CFA_advance_loc: 2 to 0000000000434b5e
  DW_CFA_def_cfa_offset: 8
  DW_CFA_advance_loc: 5 to 0000000000434b63
  DW_CFA_restore_state
  DW_CFA_advance_loc: 56 to 0000000000434b9b
  DW_CFA_remember_state
  DW_CFA_def_cfa_offset: 56
  DW_CFA_advance_loc: 8 to 0000000000434ba3
  DW_CFA_def_cfa_offset: 48
  DW_CFA_advance_loc: 1 to 0000000000434ba4
  DW_CFA_def_cfa_offset: 40
  DW_CFA_advance_loc: 2 to 0000000000434ba6
  DW_CFA_def_cfa_offset: 32
  DW_CFA_advance_loc: 2 to 0000000000434ba8
  DW_CFA_def_cfa_offset: 24
  DW_CFA_advance_loc: 2 to 0000000000434baa
  DW_CFA_def_cfa_offset: 16
  DW_CFA_advance_loc: 2 to 0000000000434bac
  DW_CFA_def_cfa_offset: 8
  DW_CFA_advance_loc: 5 to 0000000000434bb1
  DW_CFA_restore_state
  DW_CFA_advance_loc: 46 to 0000000000434bdf
  DW_CFA_remember_state
  DW_CFA_def_cfa_offset: 56
  DW_CFA_advance_loc: 8 to 0000000000434be7
  DW_CFA_def_cfa_offset: 48
  DW_CFA_advance_loc: 1 to 0000000000434be8
  DW_CFA_def_cfa_offset: 40
  DW_CFA_advance_loc: 2 to 0000000000434bea
  DW_CFA_def_cfa_offset: 32
  DW_CFA_advance_loc: 2 to 0000000000434bec
  DW_CFA_def_cfa_offset: 24
  DW_CFA_advance_loc: 2 to 0000000000434bee
  DW_CFA_def_cfa_offset: 16
  DW_CFA_advance_loc: 2 to 0000000000434bf0
  DW_CFA_def_cfa_offset: 8
  DW_CFA_advance_loc: 5 to 0000000000434bf5
  DW_CFA_restore_state
  DW_CFA_advance_loc: 56 to 0000000000434c2d
  DW_CFA_remember_state
  DW_CFA_def_cfa_offset: 56
  DW_CFA_advance_loc: 8 to 0000000000434c35
  DW_CFA_def_cfa_offset: 48
  DW_CFA_advance_loc: 1 to 0000000000434c36
  DW_CFA_def_cfa_offset: 40
  DW_CFA_advance_loc: 2 to 0000000000434c38
  DW_CFA_def_cfa_offset: 32
  DW_CFA_advance_loc: 2 to 0000000000434c3a
  DW_CFA_def_cfa_offset: 24
  DW_CFA_advance_loc: 2 to 0000000000434c3c
  DW_CFA_def_cfa_offset: 16
  DW_CFA_advance_loc: 2 to 0000000000434c3e
  DW_CFA_def_cfa_offset: 8
  DW_CFA_advance_loc: 5 to 0000000000434c43
  DW_CFA_restore_state
  DW_CFA_advance_loc: 46 to 0000000000434c71
  DW_CFA_remember_state
  DW_CFA_def_cfa_offset: 56
  DW_CFA_advance_loc: 8 to 0000000000434c79
  DW_CFA_def_cfa_offset: 48
  DW_CFA_advance_loc: 1 to 0000000000434c7a
  DW_CFA_def_cfa_offset: 40
  DW_CFA_advance_loc: 2 to 0000000000434c7c
  DW_CFA_def_cfa_offset: 32
  DW_CFA_advance_loc: 2 to 0000000000434c7e
  DW_CFA_def_cfa_offset: 24
  DW_CFA_advance_loc: 2 to 0000000000434c80
  DW_CFA_def_cfa_offset: 16
  DW_CFA_advance_loc: 2 to 0000000000434c82
  DW_CFA_def_cfa_offset: 8
  DW_CFA_advance_loc: 5 to 0000000000434c87
  DW_CFA_restore_state
  DW_CFA_advance_loc: 56 to 0000000000434cbf
  DW_CFA_remember_state
  DW_CFA_def_cfa_offset: 56
  DW_CFA_advance_loc: 8 to 0000000000434cc7
  DW_CFA_def_cfa_offset: 48
  DW_CFA_advance_loc: 1 to 0000000000434cc8
  DW_CFA_def_cfa_offset: 40
  DW_CFA_advance_loc: 2 to 0000000000434cca
  DW_CFA_def_cfa_offset: 32
  DW_CFA_advance_loc: 2 to 0000000000434ccc
  DW_CFA_def_cfa_offset: 24
  DW_CFA_advance_loc: 2 to 0000000000434cce
  DW_CFA_def_cfa_offset: 16
  DW_CFA_advance_loc: 2 to 0000000000434cd0
  DW_CFA_def_cfa_offset: 8
  DW_CFA_advance_loc: 5 to 0000000000434cd5
  DW_CFA_restore_state
  DW_CFA_advance_loc: 46 to 0000000000434d03
  DW_CFA_remember_state
  DW_CFA_def_cfa_offset: 56
  DW_CFA_advance_loc: 8 to 0000000000434d0b
  DW_CFA_def_cfa_offset: 48
  DW_CFA_advance_loc: 1 to 0000000000434d0c
  DW_CFA_def_cfa_offset: 40
  DW_CFA_advance_loc: 2 to 0000000000434d0e
  DW_CFA_def_cfa_offset: 32
  DW_CFA_advance_loc: 2 to 0000000000434d10
  DW_CFA_def_cfa_offset: 24
  DW_CFA_advance_loc: 2 to 0000000000434d12
  DW_CFA_def_cfa_offset: 16
  DW_CFA_advance_loc: 2 to 0000000000434d14
  DW_CFA_def_cfa_offset: 8
  DW_CFA_advance_loc: 5 to 0000000000434d19
  DW_CFA_restore_state
  DW_CFA_advance_loc: 56 to 0000000000434d51
  DW_CFA_remember_state
  DW_CFA_def_cfa_offset: 56
  DW_CFA_advance_loc: 8 to 0000000000434d59
  DW_CFA_def_cfa_offset: 48
  DW_CFA_advance_loc: 1 to 0000000000434d5a
  DW_CFA_def_cfa_offset: 40
  DW_CFA_advance_loc: 2 to 0000000000434d5c
  DW_CFA_def_cfa_offset: 32
  DW_CFA_advance_loc: 2 to 0000000000434d5e
  DW_CFA_def_cfa_offset: 24
  DW_CFA_advance_loc: 2 to 0000000000434d60
  DW_CFA_def_cfa_offset: 16
  DW_CFA_advance_loc: 2 to 0000000000434d62
  DW_CFA_def_cfa_offset: 8
  DW_CFA_advance_loc: 5 to 0000000000434d67
  DW_CFA_restore_state
  DW_CFA_advance_loc: 46 to 0000000000434d95
  DW_CFA_remember_state
  DW_CFA_def_cfa_offset: 56
  DW_CFA_advance_loc: 8 to 0000000000434d9d
  DW_CFA_def_cfa_offset: 48
  DW_CFA_advance_loc: 1 to 0000000000434d9e
  DW_CFA_def_cfa_offset: 40
  DW_CFA_advance_loc: 2 to 0000000000434da0
  DW_CFA_def_cfa_offset: 32
  DW_CFA_advance_loc: 2 to 0000000000434da2
  DW_CFA_def_cfa_offset: 24
  DW_CFA_advance_loc: 2 to 0000000000434da4
  DW_CFA_def_cfa_offset: 16
  DW_CFA_advance_loc: 2 to 0000000000434da6
  DW_CFA_def_cfa_offset: 8
  DW_CFA_advance_loc: 5 to 0000000000434dab
  DW_CFA_restore_state
  DW_CFA_advance_loc: 56 to 0000000000434de3
  DW_CFA_remember_state
  DW_CFA_def_cfa_offset: 56
  DW_CFA_advance_loc: 8 to 0000000000434deb
  DW_CFA_def_cfa_offset: 48
  DW_CFA_advance_loc: 1 to 0000000000434dec
  DW_CFA_def_cfa_offset: 40
  DW_CFA_advance_loc: 2 to 0000000000434dee
  DW_CFA_def_cfa_offset: 32
  DW_CFA_advance_loc: 2 to 0000000000434df0
  DW_CFA_def_cfa_offset: 24
  DW_CFA_advance_loc: 2 to 0000000000434df2
  DW_CFA_def_cfa_offset: 16
  DW_CFA_advance_loc: 2 to 0000000000434df4
  DW_CFA_def_cfa_offset: 8
  DW_CFA_advance_loc: 5 to 0000000000434df9
  DW_CFA_restore_state
  DW_CFA_advance_loc: 46 to 0000000000434e27
  DW_CFA_remember_state
  DW_CFA_def_cfa_offset: 56
  DW_CFA_advance_loc: 8 to 0000000000434e2f
  DW_CFA_def_cfa_offset: 48
  DW_CFA_advance_loc: 1 to 0000000000434e30
  DW_CFA_def_cfa_offset: 40
  DW_CFA_advance_loc: 2 to 0000000000434e32
  DW_CFA_def_cfa_offset: 32
  DW_CFA_advance_loc: 2 to 0000000000434e34
  DW_CFA_def_cfa_offset: 24
  DW_CFA_advance_loc: 2 to 0000000000434e36
  DW_CFA_def_cfa_offset: 16
  DW_CFA_advance_loc: 2 to 0000000000434e38
  DW_CFA_def_cfa_offset: 8
  DW_CFA_advance_loc: 5 to 0000000000434e3d
  DW_CFA_restore_state
  DW_CFA_advance_loc: 56 to 0000000000434e75
  DW_CFA_remember_state
  DW_CFA_def_cfa_offset: 56
  DW_CFA_advance_loc: 8 to 0000000000434e7d
  DW_CFA_def_cfa_offset: 48
  DW_CFA_advance_loc: 1 to 0000000000434e7e
  DW_CFA_def_cfa_offset: 40
  DW_CFA_advance_loc: 2 to 0000000000434e80
  DW_CFA_def_cfa_offset: 32
  DW_CFA_advance_loc: 2 to 0000000000434e82
  DW_CFA_def_cfa_offset: 24
  DW_CFA_advance_loc: 2 to 0000000000434e84
  DW_CFA_def_cfa_offset: 16
  DW_CFA_advance_loc: 2 to 0000000000434e86
  DW_CFA_def_cfa_offset: 8
  DW_CFA_advance_loc: 5 to 0000000000434e8b
  DW_CFA_restore_state
  DW_CFA_advance_loc: 46 to 0000000000434eb9
  DW_CFA_remember_state
  DW_CFA_def_cfa_offset: 56
  DW_CFA_advance_loc: 8 to 0000000000434ec1
  DW_CFA_def_cfa_offset: 48
  DW_CFA_advance_loc: 1 to 0000000000434ec2
  DW_CFA_def_cfa_offset: 40
  DW_CFA_advance_loc: 2 to 0000000000434ec4
  DW_CFA_def_cfa_offset: 32
  DW_CFA_advance_loc: 2 to 0000000000434ec6
  DW_CFA_def_cfa_offset: 24
  DW_CFA_advance_loc: 2 to 0000000000434ec8
  DW_CFA_def_cfa_offset: 16
  DW_CFA_advance_loc: 2 to 0000000000434eca
  DW_CFA_def_cfa_offset: 8
  DW_CFA_advance_loc: 5 to 0000000000434ecf
  DW_CFA_restore_state
  DW_CFA_advance_loc: 56 to 0000000000434f07
  DW_CFA_remember_state
  DW_CFA_def_cfa_offset: 56
  DW_CFA_advance_loc: 8 to 0000000000434f0f
  DW_CFA_def_cfa_offset: 48
  DW_CFA_advance_loc: 1 to 0000000000434f10
  DW_CFA_def_cfa_offset: 40
  DW_CFA_advance_loc: 2 to 0000000000434f12
  DW_CFA_def_cfa_offset: 32
  DW_CFA_advance_loc: 2 to 0000000000434f14
  DW_CFA_def_cfa_offset: 24
  DW_CFA_advance_loc: 2 to 0000000000434f16
  DW_CFA_def_cfa_offset: 16
  DW_CFA_advance_loc: 2 to 0000000000434f18
  DW_CFA_def_cfa_offset: 8
  DW_CFA_advance_loc: 5 to 0000000000434f1d
  DW_CFA_restore_state
  DW_CFA_advance_loc: 46 to 0000000000434f4b
  DW_CFA_remember_state
  DW_CFA_def_cfa_offset: 56
  DW_CFA_advance_loc: 8 to 0000000000434f53
  DW_CFA_def_cfa_offset: 48
  DW_CFA_advance_loc: 1 to 0000000000434f54
  DW_CFA_def_cfa_offset: 40
  DW_CFA_advance_loc: 2 to 0000000000434f56
  DW_CFA_def_cfa_offset: 32
  DW_CFA_advance_loc: 2 to 0000000000434f58
  DW_CFA_def_cfa_offset: 24
  DW_CFA_advance_loc: 2 to 0000000000434f5a
  DW_CFA_def_cfa_offset: 16
  DW_CFA_advance_loc: 2 to 0000000000434f5c
  DW_CFA_def_cfa_offset: 8
  DW_CFA_advance_loc: 5 to 0000000000434f61
  DW_CFA_restore_state
  DW_CFA_advance_loc: 56 to 0000000000434f99
  DW_CFA_remember_state
  DW_CFA_def_cfa_offset: 56
  DW_CFA_advance_loc: 8 to 0000000000434fa1
  DW_CFA_def_cfa_offset: 48
  DW_CFA_advance_loc: 1 to 0000000000434fa2
  DW_CFA_def_cfa_offset: 40
  DW_CFA_advance_loc: 2 to 0000000000434fa4
  DW_CFA_def_cfa_offset: 32
  DW_CFA_advance_loc: 2 to 0000000000434fa6
  DW_CFA_def_cfa_offset: 24
  DW_CFA_advance_loc: 2 to 0000000000434fa8
  DW_CFA_def_cfa_offset: 16
  DW_CFA_advance_loc: 2 to 0000000000434faa
  DW_CFA_def_cfa_offset: 8
  DW_CFA_advance_loc: 5 to 0000000000434faf
  DW_CFA_restore_state
  DW_CFA_advance_loc: 46 to 0000000000434fdd
  DW_CFA_remember_state
  DW_CFA_def_cfa_offset: 56
  DW_CFA_advance_loc: 8 to 0000000000434fe5
  DW_CFA_def_cfa_offset: 48
  DW_CFA_advance_loc: 1 to 0000000000434fe6
  DW_CFA_def_cfa_offset: 40
  DW_CFA_advance_loc: 2 to 0000000000434fe8
  DW_CFA_def_cfa_offset: 32
  DW_CFA_advance_loc: 2 to 0000000000434fea
  DW_CFA_def_cfa_offset: 24
  DW_CFA_advance_loc: 2 to 0000000000434fec
  DW_CFA_def_cfa_offset: 16
  DW_CFA_advance_loc: 2 to 0000000000434fee
  DW_CFA_def_cfa_offset: 8
  DW_CFA_advance_loc: 5 to 0000000000434ff3
  DW_CFA_restore_state
  DW_CFA_advance_loc: 56 to 000000000043502b
  DW_CFA_remember_state
  DW_CFA_def_cfa_offset: 56
  DW_CFA_advance_loc: 8 to 0000000000435033
  DW_CFA_def_cfa_offset: 48
  DW_CFA_advance_loc: 1 to 0000000000435034
  DW_CFA_def_cfa_offset: 40
  DW_CFA_advance_loc: 2 to 0000000000435036
  DW_CFA_def_cfa_offset: 32
  DW_CFA_advance_loc: 2 to 0000000000435038
  DW_CFA_def_cfa_offset: 24
  DW_CFA_advance_loc: 2 to 000000000043503a
  DW_CFA_def_cfa_offset: 16
  DW_CFA_advance_loc: 2 to 000000000043503c
  DW_CFA_def_cfa_offset: 8
  DW_CFA_advance_loc: 5 to 0000000000435041
  DW_CFA_restore_state
  DW_CFA_advance_loc: 46 to 000000000043506f
  DW_CFA_remember_state
  DW_CFA_def_cfa_offset: 56
  DW_CFA_advance_loc: 8 to 0000000000435077
  DW_CFA_def_cfa_offset: 48
  DW_CFA_advance_loc: 1 to 0000000000435078
  DW_CFA_def_cfa_offset: 40
  DW_CFA_advance_loc: 2 to 000000000043507a
  DW_CFA_def_cfa_offset: 32
  DW_CFA_advance_loc: 2 to 000000000043507c
  DW_CFA_def_cfa_offset: 24
  DW_CFA_advance_loc: 2 to 000000000043507e
  DW_CFA_def_cfa_offset: 16
  DW_CFA_advance_loc: 2 to 0000000000435080
  DW_CFA_def_cfa_offset: 8
  DW_CFA_advance_loc: 5 to 0000000000435085
  DW_CFA_restore_state
  DW_CFA_advance_loc: 56 to 00000000004350bd
  DW_CFA_remember_state
  DW_CFA_def_cfa_offset: 56
  DW_CFA_advance_loc: 8 to 00000000004350c5
  DW_CFA_def_cfa_offset: 48
  DW_CFA_advance_loc: 1 to 00000000004350c6
  DW_CFA_def_cfa_offset: 40
  DW_CFA_advance_loc: 2 to 00000000004350c8
  DW_CFA_def_cfa_offset: 32
  DW_CFA_advance_loc: 2 to 00000000004350ca
  DW_CFA_def_cfa_offset: 24
  DW_CFA_advance_loc: 2 to 00000000004350cc
  DW_CFA_def_cfa_offset: 16
  DW_CFA_advance_loc: 2 to 00000000004350ce
  DW_CFA_def_cfa_offset: 8
  DW_CFA_advance_loc: 5 to 00000000004350d3
  DW_CFA_restore_state
  DW_CFA_advance_loc: 46 to 0000000000435101
  DW_CFA_remember_state
  DW_CFA_def_cfa_offset: 56
  DW_CFA_advance_loc: 8 to 0000000000435109
  DW_CFA_def_cfa_offset: 48
  DW_CFA_advance_loc: 1 to 000000000043510a
  DW_CFA_def_cfa_offset: 40
  DW_CFA_advance_loc: 2 to 000000000043510c
  DW_CFA_def_cfa_offset: 32
  DW_CFA_advance_loc: 2 to 000000000043510e
  DW_CFA_def_cfa_offset: 24
  DW_CFA_advance_loc: 2 to 0000000000435110
  DW_CFA_def_cfa_offset: 16
  DW_CFA_advance_loc: 2 to 0000000000435112
  DW_CFA_def_cfa_offset: 8
  DW_CFA_advance_loc: 5 to 0000000000435117
  DW_CFA_restore_state
  DW_CFA_advance_loc: 56 to 000000000043514f
  DW_CFA_remember_state
  DW_CFA_def_cfa_offset: 56
  DW_CFA_advance_loc: 8 to 0000000000435157
  DW_CFA_def_cfa_offset: 48
  DW_CFA_advance_loc: 1 to 0000000000435158
  DW_CFA_def_cfa_offset: 40
  DW_CFA_advance_loc: 2 to 000000000043515a
  DW_CFA_def_cfa_offset: 32
  DW_CFA_advance_loc: 2 to 000000000043515c
  DW_CFA_def_cfa_offset: 24
  DW_CFA_advance_loc: 2 to 000000000043515e
  DW_CFA_def_cfa_offset: 16
  DW_CFA_advance_loc: 2 to 0000000000435160
  DW_CFA_def_cfa_offset: 8
  DW_CFA_advance_loc: 5 to 0000000000435165
  DW_CFA_restore_state
  DW_CFA_advance_loc: 46 to 0000000000435193
  DW_CFA_remember_state
  DW_CFA_def_cfa_offset: 56
  DW_CFA_advance_loc: 8 to 000000000043519b
  DW_CFA_def_cfa_offset: 48
  DW_CFA_advance_loc: 1 to 000000000043519c
  DW_CFA_def_cfa_offset: 40
  DW_CFA_advance_loc: 2 to 000000000043519e
  DW_CFA_def_cfa_offset: 32
  DW_CFA_advance_loc: 2 to 00000000004351a0
  DW_CFA_def_cfa_offset: 24
  DW_CFA_advance_loc: 2 to 00000000004351a2
  DW_CFA_def_cfa_offset: 16
  DW_CFA_advance_loc: 2 to 00000000004351a4
  DW_CFA_def_cfa_offset: 8
  DW_CFA_advance_loc: 5 to 00000000004351a9
  DW_CFA_restore_state
  DW_CFA_advance_loc: 56 to 00000000004351e1
  DW_CFA_remember_state
  DW_CFA_def_cfa_offset: 56
  DW_CFA_advance_loc: 8 to 00000000004351e9
  DW_CFA_def_cfa_offset: 48
  DW_CFA_advance_loc: 1 to 00000000004351ea
  DW_CFA_def_cfa_offset: 40
  DW_CFA_advance_loc: 2 to 00000000004351ec
  DW_CFA_def_cfa_offset: 32
  DW_CFA_advance_loc: 2 to 00000000004351ee
  DW_CFA_def_cfa_offset: 24
  DW_CFA_advance_loc: 2 to 00000000004351f0
  DW_CFA_def_cfa_offset: 16
  DW_CFA_advance_loc: 2 to 00000000004351f2
  DW_CFA_def_cfa_offset: 8
  DW_CFA_advance_loc: 5 to 00000000004351f7
  DW_CFA_restore_state
  DW_CFA_advance_loc: 46 to 0000000000435225
  DW_CFA_remember_state
  DW_CFA_def_cfa_offset: 56
  DW_CFA_advance_loc: 8 to 000000000043522d
  DW_CFA_def_cfa_offset: 48
  DW_CFA_advance_loc: 1 to 000000000043522e
  DW_CFA_def_cfa_offset: 40
  DW_CFA_advance_loc: 2 to 0000000000435230
  DW_CFA_def_cfa_offset: 32
  DW_CFA_advance_loc: 2 to 0000000000435232
  DW_CFA_def_cfa_offset: 24
  DW_CFA_advance_loc: 2 to 0000000000435234
  DW_CFA_def_cfa_offset: 16
  DW_CFA_advance_loc: 2 to 0000000000435236
  DW_CFA_def_cfa_offset: 8
  DW_CFA_advance_loc: 5 to 000000000043523b
  DW_CFA_restore_state
  DW_CFA_advance_loc: 56 to 0000000000435273
  DW_CFA_remember_state
  DW_CFA_def_cfa_offset: 56
  DW_CFA_advance_loc: 8 to 000000000043527b
  DW_CFA_def_cfa_offset: 48
  DW_CFA_advance_loc: 1 to 000000000043527c
  DW_CFA_def_cfa_offset: 40
  DW_CFA_advance_loc: 2 to 000000000043527e
  DW_CFA_def_cfa_offset: 32
  DW_CFA_advance_loc: 2 to 0000000000435280
  DW_CFA_def_cfa_offset: 24
  DW_CFA_advance_loc: 2 to 0000000000435282
  DW_CFA_def_cfa_offset: 16
  DW_CFA_advance_loc: 2 to 0000000000435284
  DW_CFA_def_cfa_offset: 8
  DW_CFA_advance_loc: 5 to 0000000000435289
  DW_CFA_restore_state
  DW_CFA_advance_loc: 46 to 00000000004352b7
  DW_CFA_remember_state
  DW_CFA_def_cfa_offset: 56
  DW_CFA_advance_loc: 8 to 00000000004352bf
  DW_CFA_def_cfa_offset: 48
  DW_CFA_advance_loc: 1 to 00000000004352c0
  DW_CFA_def_cfa_offset: 40
  DW_CFA_advance_loc: 2 to 00000000004352c2
  DW_CFA_def_cfa_offset: 32
  DW_CFA_advance_loc: 2 to 00000000004352c4
  DW_CFA_def_cfa_offset: 24
  DW_CFA_advance_loc: 2 to 00000000004352c6
  DW_CFA_def_cfa_offset: 16
  DW_CFA_advance_loc: 2 to 00000000004352c8
  DW_CFA_def_cfa_offset: 8
  DW_CFA_advance_loc: 5 to 00000000004352cd
  DW_CFA_restore_state
  DW_CFA_advance_loc: 56 to 0000000000435305
  DW_CFA_remember_state
  DW_CFA_def_cfa_offset: 56
  DW_CFA_advance_loc: 8 to 000000000043530d
  DW_CFA_def_cfa_offset: 48
  DW_CFA_advance_loc: 1 to 000000000043530e
  DW_CFA_def_cfa_offset: 40
  DW_CFA_advance_loc: 2 to 0000000000435310
  DW_CFA_def_cfa_offset: 32
  DW_CFA_advance_loc: 2 to 0000000000435312
  DW_CFA_def_cfa_offset: 24
  DW_CFA_advance_loc: 2 to 0000000000435314
  DW_CFA_def_cfa_offset: 16
  DW_CFA_advance_loc: 2 to 0000000000435316
  DW_CFA_def_cfa_offset: 8
  DW_CFA_advance_loc: 5 to 000000000043531b
  DW_CFA_restore_state
  DW_CFA_advance_loc: 46 to 0000000000435349
  DW_CFA_remember_state
  DW_CFA_def_cfa_offset: 56
  DW_CFA_advance_loc: 8 to 0000000000435351
  DW_CFA_def_cfa_offset: 48
  DW_CFA_advance_loc: 1 to 0000000000435352
  DW_CFA_def_cfa_offset: 40
  DW_CFA_advance_loc: 2 to 0000000000435354
  DW_CFA_def_cfa_offset: 32
  DW_CFA_advance_loc: 2 to 0000000000435356
  DW_CFA_def_cfa_offset: 24
  DW_CFA_advance_loc: 2 to 0000000000435358
  DW_CFA_def_cfa_offset: 16
  DW_CFA_advance_loc: 2 to 000000000043535a
  DW_CFA_def_cfa_offset: 8
  DW_CFA_advance_loc: 5 to 000000000043535f
  DW_CFA_restore_state
  DW_CFA_advance_loc: 56 to 0000000000435397
  DW_CFA_remember_state
  DW_CFA_def_cfa_offset: 56
  DW_CFA_advance_loc: 8 to 000000000043539f
  DW_CFA_def_cfa_offset: 48
  DW_CFA_advance_loc: 1 to 00000000004353a0
  DW_CFA_def_cfa_offset: 40
  DW_CFA_advance_loc: 2 to 00000000004353a2
  DW_CFA_def_cfa_offset: 32
  DW_CFA_advance_loc: 2 to 00000000004353a4
  DW_CFA_def_cfa_offset: 24
  DW_CFA_advance_loc: 2 to 00000000004353a6
  DW_CFA_def_cfa_offset: 16
  DW_CFA_advance_loc: 2 to 00000000004353a8
  DW_CFA_def_cfa_offset: 8
  DW_CFA_advance_loc: 5 to 00000000004353ad
  DW_CFA_restore_state
  DW_CFA_advance_loc: 46 to 00000000004353db
  DW_CFA_remember_state
  DW_CFA_def_cfa_offset: 56
  DW_CFA_advance_loc: 8 to 00000000004353e3
  DW_CFA_def_cfa_offset: 48
  DW_CFA_advance_loc: 1 to 00000000004353e4
  DW_CFA_def_cfa_offset: 40
  DW_CFA_advance_loc: 2 to 00000000004353e6
  DW_CFA_def_cfa_offset: 32
  DW_CFA_advance_loc: 2 to 00000000004353e8
  DW_CFA_def_cfa_offset: 24
  DW_CFA_advance_loc: 2 to 00000000004353ea
  DW_CFA_def_cfa_offset: 16
  DW_CFA_advance_loc: 2 to 00000000004353ec
  DW_CFA_def_cfa_offset: 8
  DW_CFA_advance_loc: 5 to 00000000004353f1
  DW_CFA_restore_state
  DW_CFA_advance_loc: 56 to 0000000000435429
  DW_CFA_remember_state
  DW_CFA_def_cfa_offset: 56
  DW_CFA_advance_loc: 8 to 0000000000435431
  DW_CFA_def_cfa_offset: 48
  DW_CFA_advance_loc: 1 to 0000000000435432
  DW_CFA_def_cfa_offset: 40
  DW_CFA_advance_loc: 2 to 0000000000435434
  DW_CFA_def_cfa_offset: 32
  DW_CFA_advance_loc: 2 to 0000000000435436
  DW_CFA_def_cfa_offset: 24
  DW_CFA_advance_loc: 2 to 0000000000435438
  DW_CFA_def_cfa_offset: 16
  DW_CFA_advance_loc: 2 to 000000000043543a
  DW_CFA_def_cfa_offset: 8
  DW_CFA_advance_loc: 5 to 000000000043543f
  DW_CFA_restore_state
  DW_CFA_advance_loc: 46 to 000000000043546d
  DW_CFA_remember_state
  DW_CFA_def_cfa_offset: 56
  DW_CFA_advance_loc: 8 to 0000000000435475
  DW_CFA_def_cfa_offset: 48
  DW_CFA_advance_loc: 1 to 0000000000435476
  DW_CFA_def_cfa_offset: 40
  DW_CFA_advance_loc: 2 to 0000000000435478
  DW_CFA_def_cfa_offset: 32
  DW_CFA_advance_loc: 2 to 000000000043547a
  DW_CFA_def_cfa_offset: 24
  DW_CFA_advance_loc: 2 to 000000000043547c
  DW_CFA_def_cfa_offset: 16
  DW_CFA_advance_loc: 2 to 000000000043547e
  DW_CFA_def_cfa_offset: 8
  DW_CFA_advance_loc: 5 to 0000000000435483
  DW_CFA_restore_state
  DW_CFA_advance_loc: 56 to 00000000004354bb
  DW_CFA_remember_state
  DW_CFA_def_cfa_offset: 56
  DW_CFA_advance_loc: 8 to 00000000004354c3
  DW_CFA_def_cfa_offset: 48
  DW_CFA_advance_loc: 1 to 00000000004354c4
  DW_CFA_def_cfa_offset: 40
  DW_CFA_advance_loc: 2 to 00000000004354c6
  DW_CFA_def_cfa_offset: 32
  DW_CFA_advance_loc: 2 to 00000000004354c8
  DW_CFA_def_cfa_offset: 24
  DW_CFA_advance_loc: 2 to 00000000004354ca
  DW_CFA_def_cfa_offset: 16
  DW_CFA_advance_loc: 2 to 00000000004354cc
  DW_CFA_def_cfa_offset: 8
  DW_CFA_advance_loc: 5 to 00000000004354d1
  DW_CFA_restore_state
  DW_CFA_advance_loc: 46 to 00000000004354ff
  DW_CFA_remember_state
  DW_CFA_def_cfa_offset: 56
  DW_CFA_advance_loc: 8 to 0000000000435507
  DW_CFA_def_cfa_offset: 48
  DW_CFA_advance_loc: 1 to 0000000000435508
  DW_CFA_def_cfa_offset: 40
  DW_CFA_advance_loc: 2 to 000000000043550a
  DW_CFA_def_cfa_offset: 32
  DW_CFA_advance_loc: 2 to 000000000043550c
  DW_CFA_def_cfa_offset: 24
  DW_CFA_advance_loc: 2 to 000000000043550e
  DW_CFA_def_cfa_offset: 16
  DW_CFA_advance_loc: 2 to 0000000000435510
  DW_CFA_def_cfa_offset: 8
  DW_CFA_advance_loc: 5 to 0000000000435515
  DW_CFA_restore_state
  DW_CFA_advance_loc: 56 to 000000000043554d
  DW_CFA_remember_state
  DW_CFA_def_cfa_offset: 56
  DW_CFA_advance_loc: 8 to 0000000000435555
  DW_CFA_def_cfa_offset: 48
  DW_CFA_advance_loc: 1 to 0000000000435556
  DW_CFA_def_cfa_offset: 40
  DW_CFA_advance_loc: 2 to 0000000000435558
  DW_CFA_def_cfa_offset: 32
  DW_CFA_advance_loc: 2 to 000000000043555a
  DW_CFA_def_cfa_offset: 24
  DW_CFA_advance_loc: 2 to 000000000043555c
  DW_CFA_def_cfa_offset: 16
  DW_CFA_advance_loc: 2 to 000000000043555e
  DW_CFA_def_cfa_offset: 8
  DW_CFA_advance_loc: 5 to 0000000000435563
  DW_CFA_restore_state
  DW_CFA_advance_loc: 46 to 0000000000435591
  DW_CFA_remember_state
  DW_CFA_def_cfa_offset: 56
  DW_CFA_advance_loc: 8 to 0000000000435599
  DW_CFA_def_cfa_offset: 48
  DW_CFA_advance_loc: 1 to 000000000043559a
  DW_CFA_def_cfa_offset: 40
  DW_CFA_advance_loc: 2 to 000000000043559c
  DW_CFA_def_cfa_offset: 32
  DW_CFA_advance_loc: 2 to 000000000043559e
  DW_CFA_def_cfa_offset: 24
  DW_CFA_advance_loc: 2 to 00000000004355a0
  DW_CFA_def_cfa_offset: 16
  DW_CFA_advance_loc: 2 to 00000000004355a2
  DW_CFA_def_cfa_offset: 8
  DW_CFA_advance_loc: 5 to 00000000004355a7
  DW_CFA_restore_state
  DW_CFA_advance_loc: 56 to 00000000004355df
  DW_CFA_remember_state
  DW_CFA_def_cfa_offset: 56
  DW_CFA_advance_loc: 8 to 00000000004355e7
  DW_CFA_def_cfa_offset: 48
  DW_CFA_advance_loc: 1 to 00000000004355e8
  DW_CFA_def_cfa_offset: 40
  DW_CFA_advance_loc: 2 to 00000000004355ea
  DW_CFA_def_cfa_offset: 32
  DW_CFA_advance_loc: 2 to 00000000004355ec
  DW_CFA_def_cfa_offset: 24
  DW_CFA_advance_loc: 2 to 00000000004355ee
  DW_CFA_def_cfa_offset: 16
  DW_CFA_advance_loc: 2 to 00000000004355f0
  DW_CFA_def_cfa_offset: 8
  DW_CFA_advance_loc: 5 to 00000000004355f5
  DW_CFA_restore_state
  DW_CFA_advance_loc: 46 to 0000000000435623
  DW_CFA_remember_state
  DW_CFA_def_cfa_offset: 56
  DW_CFA_advance_loc: 8 to 000000000043562b
  DW_CFA_def_cfa_offset: 48
  DW_CFA_advance_loc: 1 to 000000000043562c
  DW_CFA_def_cfa_offset: 40
  DW_CFA_advance_loc: 2 to 000000000043562e
  DW_CFA_def_cfa_offset: 32
  DW_CFA_advance_loc: 2 to 0000000000435630
  DW_CFA_def_cfa_offset: 24
  DW_CFA_advance_loc: 2 to 0000000000435632
  DW_CFA_def_cfa_offset: 16
  DW_CFA_advance_loc: 2 to 0000000000435634
  DW_CFA_def_cfa_offset: 8
  DW_CFA_advance_loc: 5 to 0000000000435639
  DW_CFA_restore_state
  DW_CFA_advance_loc: 56 to 0000000000435671
  DW_CFA_remember_state
  DW_CFA_def_cfa_offset: 56
  DW_CFA_advance_loc: 8 to 0000000000435679
  DW_CFA_def_cfa_offset: 48
  DW_CFA_advance_loc: 1 to 000000000043567a
  DW_CFA_def_cfa_offset: 40
  DW_CFA_advance_loc: 2 to 000000000043567c
  DW_CFA_def_cfa_offset: 32
  DW_CFA_advance_loc: 2 to 000000000043567e
  DW_CFA_def_cfa_offset: 24
  DW_CFA_advance_loc: 2 to 0000000000435680
  DW_CFA_def_cfa_offset: 16
  DW_CFA_advance_loc: 2 to 0000000000435682
  DW_CFA_def_cfa_offset: 8
  DW_CFA_advance_loc: 5 to 0000000000435687
  DW_CFA_restore_state
  DW_CFA_advance_loc: 46 to 00000000004356b5
  DW_CFA_remember_state
  DW_CFA_def_cfa_offset: 56
  DW_CFA_advance_loc: 8 to 00000000004356bd
  DW_CFA_def_cfa_offset: 48
  DW_CFA_advance_loc: 1 to 00000000004356be
  DW_CFA_def_cfa_offset: 40
  DW_CFA_advance_loc: 2 to 00000000004356c0
  DW_CFA_def_cfa_offset: 32
  DW_CFA_advance_loc: 2 to 00000000004356c2
  DW_CFA_def_cfa_offset: 24
  DW_CFA_advance_loc: 2 to 00000000004356c4
  DW_CFA_def_cfa_offset: 16
  DW_CFA_advance_loc: 2 to 00000000004356c6
  DW_CFA_def_cfa_offset: 8
  DW_CFA_advance_loc: 5 to 00000000004356cb
  DW_CFA_restore_state
  DW_CFA_advance_loc: 56 to 0000000000435703
  DW_CFA_remember_state
  DW_CFA_def_cfa_offset: 56
  DW_CFA_advance_loc: 8 to 000000000043570b
  DW_CFA_def_cfa_offset: 48
  DW_CFA_advance_loc: 1 to 000000000043570c
  DW_CFA_def_cfa_offset: 40
  DW_CFA_advance_loc: 2 to 000000000043570e
  DW_CFA_def_cfa_offset: 32
  DW_CFA_advance_loc: 2 to 0000000000435710
  DW_CFA_def_cfa_offset: 24
  DW_CFA_advance_loc: 2 to 0000000000435712
  DW_CFA_def_cfa_offset: 16
  DW_CFA_advance_loc: 2 to 0000000000435714
  DW_CFA_def_cfa_offset: 8
  DW_CFA_advance_loc: 5 to 0000000000435719
  DW_CFA_restore_state
  DW_CFA_advance_loc: 46 to 0000000000435747
  DW_CFA_remember_state
  DW_CFA_def_cfa_offset: 56
  DW_CFA_advance_loc: 8 to 000000000043574f
  DW_CFA_def_cfa_offset: 48
  DW_CFA_advance_loc: 1 to 0000000000435750
  DW_CFA_def_cfa_offset: 40
  DW_CFA_advance_loc: 2 to 0000000000435752
  DW_CFA_def_cfa_offset: 32
  DW_CFA_advance_loc: 2 to 0000000000435754
  DW_CFA_def_cfa_offset: 24
  DW_CFA_advance_loc: 2 to 0000000000435756
  DW_CFA_def_cfa_offset: 16
  DW_CFA_advance_loc: 2 to 0000000000435758
  DW_CFA_def_cfa_offset: 8
  DW_CFA_advance_loc: 5 to 000000000043575d
  DW_CFA_restore_state
  DW_CFA_advance_loc: 56 to 0000000000435795
  DW_CFA_remember_state
  DW_CFA_def_cfa_offset: 56
  DW_CFA_advance_loc: 8 to 000000000043579d
  DW_CFA_def_cfa_offset: 48
  DW_CFA_advance_loc: 1 to 000000000043579e
  DW_CFA_def_cfa_offset: 40
  DW_CFA_advance_loc: 2 to 00000000004357a0
  DW_CFA_def_cfa_offset: 32
  DW_CFA_advance_loc: 2 to 00000000004357a2
  DW_CFA_def_cfa_offset: 24
  DW_CFA_advance_loc: 2 to 00000000004357a4
  DW_CFA_def_cfa_offset: 16
  DW_CFA_advance_loc: 2 to 00000000004357a6
  DW_CFA_def_cfa_offset: 8
  DW_CFA_advance_loc: 5 to 00000000004357ab
  DW_CFA_restore_state
  DW_CFA_advance_loc: 46 to 00000000004357d9
  DW_CFA_remember_state
  DW_CFA_def_cfa_offset: 56
  DW_CFA_advance_loc: 8 to 00000000004357e1
  DW_CFA_def_cfa_offset: 48
  DW_CFA_advance_loc: 1 to 00000000004357e2
  DW_CFA_def_cfa_offset: 40
  DW_CFA_advance_loc: 2 to 00000000004357e4
  DW_CFA_def_cfa_offset: 32
  DW_CFA_advance_loc: 2 to 00000000004357e6
  DW_CFA_def_cfa_offset: 24
  DW_CFA_advance_loc: 2 to 00000000004357e8
  DW_CFA_def_cfa_offset: 16
  DW_CFA_advance_loc: 2 to 00000000004357ea
  DW_CFA_def_cfa_offset: 8
  DW_CFA_advance_loc: 5 to 00000000004357ef
  DW_CFA_restore_state
  DW_CFA_advance_loc: 56 to 0000000000435827
  DW_CFA_remember_state
  DW_CFA_def_cfa_offset: 56
  DW_CFA_advance_loc: 8 to 000000000043582f
  DW_CFA_def_cfa_offset: 48
  DW_CFA_advance_loc: 1 to 0000000000435830
  DW_CFA_def_cfa_offset: 40
  DW_CFA_advance_loc: 2 to 0000000000435832
  DW_CFA_def_cfa_offset: 32
  DW_CFA_advance_loc: 2 to 0000000000435834
  DW_CFA_def_cfa_offset: 24
  DW_CFA_advance_loc: 2 to 0000000000435836
  DW_CFA_def_cfa_offset: 16
  DW_CFA_advance_loc: 2 to 0000000000435838
  DW_CFA_def_cfa_offset: 8
  DW_CFA_advance_loc: 5 to 000000000043583d
  DW_CFA_restore_state
  DW_CFA_advance_loc: 46 to 000000000043586b
  DW_CFA_remember_state
  DW_CFA_def_cfa_offset: 56
  DW_CFA_advance_loc: 8 to 0000000000435873
  DW_CFA_def_cfa_offset: 48
  DW_CFA_advance_loc: 1 to 0000000000435874
  DW_CFA_def_cfa_offset: 40
  DW_CFA_advance_loc: 2 to 0000000000435876
  DW_CFA_def_cfa_offset: 32
  DW_CFA_advance_loc: 2 to 0000000000435878
  DW_CFA_def_cfa_offset: 24
  DW_CFA_advance_loc: 2 to 000000000043587a
  DW_CFA_def_cfa_offset: 16
  DW_CFA_advance_loc: 2 to 000000000043587c
  DW_CFA_def_cfa_offset: 8
  DW_CFA_advance_loc: 5 to 0000000000435881
  DW_CFA_restore_state
  DW_CFA_advance_loc: 56 to 00000000004358b9
  DW_CFA_remember_state
  DW_CFA_def_cfa_offset: 56
  DW_CFA_advance_loc: 8 to 00000000004358c1
  DW_CFA_def_cfa_offset: 48
  DW_CFA_advance_loc: 1 to 00000000004358c2
  DW_CFA_def_cfa_offset: 40
  DW_CFA_advance_loc: 2 to 00000000004358c4
  DW_CFA_def_cfa_offset: 32
  DW_CFA_advance_loc: 2 to 00000000004358c6
  DW_CFA_def_cfa_offset: 24
  DW_CFA_advance_loc: 2 to 00000000004358c8
  DW_CFA_def_cfa_offset: 16
  DW_CFA_advance_loc: 2 to 00000000004358ca
  DW_CFA_def_cfa_offset: 8
  DW_CFA_advance_loc: 5 to 00000000004358cf
  DW_CFA_restore_state
  DW_CFA_advance_loc: 46 to 00000000004358fd
  DW_CFA_remember_state
  DW_CFA_def_cfa_offset: 56
  DW_CFA_advance_loc: 8 to 0000000000435905
  DW_CFA_def_cfa_offset: 48
  DW_CFA_advance_loc: 1 to 0000000000435906
  DW_CFA_def_cfa_offset: 40
  DW_CFA_advance_loc: 2 to 0000000000435908
  DW_CFA_def_cfa_offset: 32
  DW_CFA_advance_loc: 2 to 000000000043590a
  DW_CFA_def_cfa_offset: 24
  DW_CFA_advance_loc: 2 to 000000000043590c
  DW_CFA_def_cfa_offset: 16
  DW_CFA_advance_loc: 2 to 000000000043590e
  DW_CFA_def_cfa_offset: 8
  DW_CFA_advance_loc: 5 to 0000000000435913
  DW_CFA_restore_state
  DW_CFA_advance_loc: 56 to 000000000043594b
  DW_CFA_remember_state
  DW_CFA_def_cfa_offset: 56
  DW_CFA_advance_loc: 8 to 0000000000435953
  DW_CFA_def_cfa_offset: 48
  DW_CFA_advance_loc: 1 to 0000000000435954
  DW_CFA_def_cfa_offset: 40
  DW_CFA_advance_loc: 2 to 0000000000435956
  DW_CFA_def_cfa_offset: 32
  DW_CFA_advance_loc: 2 to 0000000000435958
  DW_CFA_def_cfa_offset: 24
  DW_CFA_advance_loc: 2 to 000000000043595a
  DW_CFA_def_cfa_offset: 16
  DW_CFA_advance_loc: 2 to 000000000043595c
  DW_CFA_def_cfa_offset: 8
  DW_CFA_advance_loc: 5 to 0000000000435961
  DW_CFA_restore_state
  DW_CFA_advance_loc: 46 to 000000000043598f
  DW_CFA_remember_state
  DW_CFA_def_cfa_offset: 56
  DW_CFA_advance_loc: 8 to 0000000000435997
  DW_CFA_def_cfa_offset: 48
  DW_CFA_advance_loc: 1 to 0000000000435998
  DW_CFA_def_cfa_offset: 40
  DW_CFA_advance_loc: 2 to 000000000043599a
  DW_CFA_def_cfa_offset: 32
  DW_CFA_advance_loc: 2 to 000000000043599c
  DW_CFA_def_cfa_offset: 24
  DW_CFA_advance_loc: 2 to 000000000043599e
  DW_CFA_def_cfa_offset: 16
  DW_CFA_advance_loc: 2 to 00000000004359a0
  DW_CFA_def_cfa_offset: 8
  DW_CFA_advance_loc: 5 to 00000000004359a5
  DW_CFA_restore_state
  DW_CFA_advance_loc: 56 to 00000000004359dd
  DW_CFA_remember_state
  DW_CFA_def_cfa_offset: 56
  DW_CFA_advance_loc: 8 to 00000000004359e5
  DW_CFA_def_cfa_offset: 48
  DW_CFA_advance_loc: 1 to 00000000004359e6
  DW_CFA_def_cfa_offset: 40
  DW_CFA_advance_loc: 2 to 00000000004359e8
  DW_CFA_def_cfa_offset: 32
  DW_CFA_advance_loc: 2 to 00000000004359ea
  DW_CFA_def_cfa_offset: 24
  DW_CFA_advance_loc: 2 to 00000000004359ec
  DW_CFA_def_cfa_offset: 16
  DW_CFA_advance_loc: 2 to 00000000004359ee
  DW_CFA_def_cfa_offset: 8
  DW_CFA_advance_loc: 5 to 00000000004359f3
  DW_CFA_restore_state
  DW_CFA_advance_loc: 46 to 0000000000435a21
  DW_CFA_remember_state
  DW_CFA_def_cfa_offset: 56
  DW_CFA_advance_loc: 8 to 0000000000435a29
  DW_CFA_def_cfa_offset: 48
  DW_CFA_advance_loc: 1 to 0000000000435a2a
  DW_CFA_def_cfa_offset: 40
  DW_CFA_advance_loc: 2 to 0000000000435a2c
  DW_CFA_def_cfa_offset: 32
  DW_CFA_advance_loc: 2 to 0000000000435a2e
  DW_CFA_def_cfa_offset: 24
  DW_CFA_advance_loc: 2 to 0000000000435a30
  DW_CFA_def_cfa_offset: 16
  DW_CFA_advance_loc: 2 to 0000000000435a32
  DW_CFA_def_cfa_offset: 8
  DW_CFA_advance_loc: 5 to 0000000000435a37
  DW_CFA_restore_state
  DW_CFA_advance_loc: 56 to 0000000000435a6f
  DW_CFA_remember_state
  DW_CFA_def_cfa_offset: 56
  DW_CFA_advance_loc: 8 to 0000000000435a77
  DW_CFA_def_cfa_offset: 48
  DW_CFA_advance_loc: 1 to 0000000000435a78
  DW_CFA_def_cfa_offset: 40
  DW_CFA_advance_loc: 2 to 0000000000435a7a
  DW_CFA_def_cfa_offset: 32
  DW_CFA_advance_loc: 2 to 0000000000435a7c
  DW_CFA_def_cfa_offset: 24
  DW_CFA_advance_loc: 2 to 0000000000435a7e
  DW_CFA_def_cfa_offset: 16
  DW_CFA_advance_loc: 2 to 0000000000435a80
  DW_CFA_def_cfa_offset: 8
  DW_CFA_advance_loc: 5 to 0000000000435a85
  DW_CFA_restore_state
  DW_CFA_advance_loc: 46 to 0000000000435ab3
  DW_CFA_remember_state
  DW_CFA_def_cfa_offset: 56
  DW_CFA_advance_loc: 8 to 0000000000435abb
  DW_CFA_def_cfa_offset: 48
  DW_CFA_advance_loc: 1 to 0000000000435abc
  DW_CFA_def_cfa_offset: 40
  DW_CFA_advance_loc: 2 to 0000000000435abe
  DW_CFA_def_cfa_offset: 32
  DW_CFA_advance_loc: 2 to 0000000000435ac0
  DW_CFA_def_cfa_offset: 24
  DW_CFA_advance_loc: 2 to 0000000000435ac2
  DW_CFA_def_cfa_offset: 16
  DW_CFA_advance_loc: 2 to 0000000000435ac4
  DW_CFA_def_cfa_offset: 8
  DW_CFA_advance_loc: 5 to 0000000000435ac9
  DW_CFA_restore_state
  DW_CFA_advance_loc: 56 to 0000000000435b01
  DW_CFA_remember_state
  DW_CFA_def_cfa_offset: 56
  DW_CFA_advance_loc: 8 to 0000000000435b09
  DW_CFA_def_cfa_offset: 48
  DW_CFA_advance_loc: 1 to 0000000000435b0a
  DW_CFA_def_cfa_offset: 40
  DW_CFA_advance_loc: 2 to 0000000000435b0c
  DW_CFA_def_cfa_offset: 32
  DW_CFA_advance_loc: 2 to 0000000000435b0e
  DW_CFA_def_cfa_offset: 24
  DW_CFA_advance_loc: 2 to 0000000000435b10
  DW_CFA_def_cfa_offset: 16
  DW_CFA_advance_loc: 2 to 0000000000435b12
  DW_CFA_def_cfa_offset: 8
  DW_CFA_advance_loc: 5 to 0000000000435b17
  DW_CFA_restore_state
  DW_CFA_advance_loc: 46 to 0000000000435b45
  DW_CFA_remember_state
  DW_CFA_def_cfa_offset: 56
  DW_CFA_advance_loc: 8 to 0000000000435b4d
  DW_CFA_def_cfa_offset: 48
  DW_CFA_advance_loc: 1 to 0000000000435b4e
  DW_CFA_def_cfa_offset: 40
  DW_CFA_advance_loc: 2 to 0000000000435b50
  DW_CFA_def_cfa_offset: 32
  DW_CFA_advance_loc: 2 to 0000000000435b52
  DW_CFA_def_cfa_offset: 24
  DW_CFA_advance_loc: 2 to 0000000000435b54
  DW_CFA_def_cfa_offset: 16
  DW_CFA_advance_loc: 2 to 0000000000435b56
  DW_CFA_def_cfa_offset: 8
  DW_CFA_advance_loc: 5 to 0000000000435b5b
  DW_CFA_restore_state
  DW_CFA_advance_loc: 56 to 0000000000435b93
  DW_CFA_remember_state
  DW_CFA_def_cfa_offset: 56
  DW_CFA_advance_loc: 8 to 0000000000435b9b
  DW_CFA_def_cfa_offset: 48
  DW_CFA_advance_loc: 1 to 0000000000435b9c
  DW_CFA_def_cfa_offset: 40
  DW_CFA_advance_loc: 2 to 0000000000435b9e
  DW_CFA_def_cfa_offset: 32
  DW_CFA_advance_loc: 2 to 0000000000435ba0
  DW_CFA_def_cfa_offset: 24
  DW_CFA_advance_loc: 2 to 0000000000435ba2
  DW_CFA_def_cfa_offset: 16
  DW_CFA_advance_loc: 2 to 0000000000435ba4
  DW_CFA_def_cfa_offset: 8
  DW_CFA_advance_loc: 5 to 0000000000435ba9
  DW_CFA_restore_state
  DW_CFA_advance_loc: 46 to 0000000000435bd7
  DW_CFA_remember_state
  DW_CFA_def_cfa_offset: 56
  DW_CFA_advance_loc: 8 to 0000000000435bdf
  DW_CFA_def_cfa_offset: 48
  DW_CFA_advance_loc: 1 to 0000000000435be0
  DW_CFA_def_cfa_offset: 40
  DW_CFA_advance_loc: 2 to 0000000000435be2
  DW_CFA_def_cfa_offset: 32
  DW_CFA_advance_loc: 2 to 0000000000435be4
  DW_CFA_def_cfa_offset: 24
  DW_CFA_advance_loc: 2 to 0000000000435be6
  DW_CFA_def_cfa_offset: 16
  DW_CFA_advance_loc: 2 to 0000000000435be8
  DW_CFA_def_cfa_offset: 8
  DW_CFA_advance_loc: 5 to 0000000000435bed
  DW_CFA_restore_state
  DW_CFA_advance_loc: 56 to 0000000000435c25
  DW_CFA_remember_state
  DW_CFA_def_cfa_offset: 56
  DW_CFA_advance_loc: 8 to 0000000000435c2d
  DW_CFA_def_cfa_offset: 48
  DW_CFA_advance_loc: 1 to 0000000000435c2e
  DW_CFA_def_cfa_offset: 40
  DW_CFA_advance_loc: 2 to 0000000000435c30
  DW_CFA_def_cfa_offset: 32
  DW_CFA_advance_loc: 2 to 0000000000435c32
  DW_CFA_def_cfa_offset: 24
  DW_CFA_advance_loc: 2 to 0000000000435c34
  DW_CFA_def_cfa_offset: 16
  DW_CFA_advance_loc: 2 to 0000000000435c36
  DW_CFA_def_cfa_offset: 8
  DW_CFA_advance_loc: 5 to 0000000000435c3b
  DW_CFA_restore_state
  DW_CFA_advance_loc: 46 to 0000000000435c69
  DW_CFA_remember_state
  DW_CFA_def_cfa_offset: 56
  DW_CFA_advance_loc: 8 to 0000000000435c71
  DW_CFA_def_cfa_offset: 48
  DW_CFA_advance_loc: 1 to 0000000000435c72
  DW_CFA_def_cfa_offset: 40
  DW_CFA_advance_loc: 2 to 0000000000435c74
  DW_CFA_def_cfa_offset: 32
  DW_CFA_advance_loc: 2 to 0000000000435c76
  DW_CFA_def_cfa_offset: 24
  DW_CFA_advance_loc: 2 to 0000000000435c78
  DW_CFA_def_cfa_offset: 16
  DW_CFA_advance_loc: 2 to 0000000000435c7a
  DW_CFA_def_cfa_offset: 8
  DW_CFA_advance_loc: 5 to 0000000000435c7f
  DW_CFA_restore_state
  DW_CFA_advance_loc: 56 to 0000000000435cb7
  DW_CFA_remember_state
  DW_CFA_def_cfa_offset: 56
  DW_CFA_advance_loc: 8 to 0000000000435cbf
  DW_CFA_def_cfa_offset: 48
  DW_CFA_advance_loc: 1 to 0000000000435cc0
  DW_CFA_def_cfa_offset: 40
  DW_CFA_advance_loc: 2 to 0000000000435cc2
  DW_CFA_def_cfa_offset: 32
  DW_CFA_advance_loc: 2 to 0000000000435cc4
  DW_CFA_def_cfa_offset: 24
  DW_CFA_advance_loc: 2 to 0000000000435cc6
  DW_CFA_def_cfa_offset: 16
  DW_CFA_advance_loc: 2 to 0000000000435cc8
  DW_CFA_def_cfa_offset: 8
  DW_CFA_advance_loc: 5 to 0000000000435ccd
  DW_CFA_restore_state
  DW_CFA_advance_loc: 46 to 0000000000435cfb
  DW_CFA_remember_state
  DW_CFA_def_cfa_offset: 56
  DW_CFA_advance_loc: 8 to 0000000000435d03
  DW_CFA_def_cfa_offset: 48
  DW_CFA_advance_loc: 1 to 0000000000435d04
  DW_CFA_def_cfa_offset: 40
  DW_CFA_advance_loc: 2 to 0000000000435d06
  DW_CFA_def_cfa_offset: 32
  DW_CFA_advance_loc: 2 to 0000000000435d08
  DW_CFA_def_cfa_offset: 24
  DW_CFA_advance_loc: 2 to 0000000000435d0a
  DW_CFA_def_cfa_offset: 16
  DW_CFA_advance_loc: 2 to 0000000000435d0c
  DW_CFA_def_cfa_offset: 8
  DW_CFA_advance_loc: 5 to 0000000000435d11
  DW_CFA_restore_state
  DW_CFA_advance_loc: 56 to 0000000000435d49
  DW_CFA_remember_state
  DW_CFA_def_cfa_offset: 56
  DW_CFA_advance_loc: 8 to 0000000000435d51
  DW_CFA_def_cfa_offset: 48
  DW_CFA_advance_loc: 1 to 0000000000435d52
  DW_CFA_def_cfa_offset: 40
  DW_CFA_advance_loc: 2 to 0000000000435d54
  DW_CFA_def_cfa_offset: 32
  DW_CFA_advance_loc: 2 to 0000000000435d56
  DW_CFA_def_cfa_offset: 24
  DW_CFA_advance_loc: 2 to 0000000000435d58
  DW_CFA_def_cfa_offset: 16
  DW_CFA_advance_loc: 2 to 0000000000435d5a
  DW_CFA_def_cfa_offset: 8
  DW_CFA_advance_loc: 5 to 0000000000435d5f
  DW_CFA_restore_state
  DW_CFA_advance_loc: 46 to 0000000000435d8d
  DW_CFA_remember_state
  DW_CFA_def_cfa_offset: 56
  DW_CFA_advance_loc: 8 to 0000000000435d95
  DW_CFA_def_cfa_offset: 48
  DW_CFA_advance_loc: 1 to 0000000000435d96
  DW_CFA_def_cfa_offset: 40
  DW_CFA_advance_loc: 2 to 0000000000435d98
  DW_CFA_def_cfa_offset: 32
  DW_CFA_advance_loc: 2 to 0000000000435d9a
  DW_CFA_def_cfa_offset: 24
  DW_CFA_advance_loc: 2 to 0000000000435d9c
  DW_CFA_def_cfa_offset: 16
  DW_CFA_advance_loc: 2 to 0000000000435d9e
  DW_CFA_def_cfa_offset: 8
  DW_CFA_advance_loc: 5 to 0000000000435da3
  DW_CFA_restore_state
  DW_CFA_advance_loc: 56 to 0000000000435ddb
  DW_CFA_remember_state
  DW_CFA_def_cfa_offset: 56
  DW_CFA_advance_loc: 8 to 0000000000435de3
  DW_CFA_def_cfa_offset: 48
  DW_CFA_advance_loc: 1 to 0000000000435de4
  DW_CFA_def_cfa_offset: 40
  DW_CFA_advance_loc: 2 to 0000000000435de6
  DW_CFA_def_cfa_offset: 32
  DW_CFA_advance_loc: 2 to 0000000000435de8
  DW_CFA_def_cfa_offset: 24
  DW_CFA_advance_loc: 2 to 0000000000435dea
  DW_CFA_def_cfa_offset: 16
  DW_CFA_advance_loc: 2 to 0000000000435dec
  DW_CFA_def_cfa_offset: 8
  DW_CFA_advance_loc: 5 to 0000000000435df1
  DW_CFA_restore_state
  DW_CFA_advance_loc: 46 to 0000000000435e1f
  DW_CFA_remember_state
  DW_CFA_def_cfa_offset: 56
  DW_CFA_advance_loc: 8 to 0000000000435e27
  DW_CFA_def_cfa_offset: 48
  DW_CFA_advance_loc: 1 to 0000000000435e28
  DW_CFA_def_cfa_offset: 40
  DW_CFA_advance_loc: 2 to 0000000000435e2a
  DW_CFA_def_cfa_offset: 32
  DW_CFA_advance_loc: 2 to 0000000000435e2c
  DW_CFA_def_cfa_offset: 24
  DW_CFA_advance_loc: 2 to 0000000000435e2e
  DW_CFA_def_cfa_offset: 16
  DW_CFA_advance_loc: 2 to 0000000000435e30
  DW_CFA_def_cfa_offset: 8
  DW_CFA_advance_loc: 5 to 0000000000435e35
  DW_CFA_restore_state
  DW_CFA_advance_loc: 56 to 0000000000435e6d
  DW_CFA_remember_state
  DW_CFA_def_cfa_offset: 56
  DW_CFA_advance_loc: 8 to 0000000000435e75
  DW_CFA_def_cfa_offset: 48
  DW_CFA_advance_loc: 1 to 0000000000435e76
  DW_CFA_def_cfa_offset: 40
  DW_CFA_advance_loc: 2 to 0000000000435e78
  DW_CFA_def_cfa_offset: 32
  DW_CFA_advance_loc: 2 to 0000000000435e7a
  DW_CFA_def_cfa_offset: 24
  DW_CFA_advance_loc: 2 to 0000000000435e7c
  DW_CFA_def_cfa_offset: 16
  DW_CFA_advance_loc: 2 to 0000000000435e7e
  DW_CFA_def_cfa_offset: 8
  DW_CFA_advance_loc: 5 to 0000000000435e83
  DW_CFA_restore_state
  DW_CFA_advance_loc: 46 to 0000000000435eb1
  DW_CFA_remember_state
  DW_CFA_def_cfa_offset: 56
  DW_CFA_advance_loc: 8 to 0000000000435eb9
  DW_CFA_def_cfa_offset: 48
  DW_CFA_advance_loc: 1 to 0000000000435eba
  DW_CFA_def_cfa_offset: 40
  DW_CFA_advance_loc: 2 to 0000000000435ebc
  DW_CFA_def_cfa_offset: 32
  DW_CFA_advance_loc: 2 to 0000000000435ebe
  DW_CFA_def_cfa_offset: 24
  DW_CFA_advance_loc: 2 to 0000000000435ec0
  DW_CFA_def_cfa_offset: 16
  DW_CFA_advance_loc: 2 to 0000000000435ec2
  DW_CFA_def_cfa_offset: 8
  DW_CFA_advance_loc: 5 to 0000000000435ec7
  DW_CFA_restore_state
  DW_CFA_advance_loc: 56 to 0000000000435eff
  DW_CFA_remember_state
  DW_CFA_def_cfa_offset: 56
  DW_CFA_advance_loc: 8 to 0000000000435f07
  DW_CFA_def_cfa_offset: 48
  DW_CFA_advance_loc: 1 to 0000000000435f08
  DW_CFA_def_cfa_offset: 40
  DW_CFA_advance_loc: 2 to 0000000000435f0a
  DW_CFA_def_cfa_offset: 32
  DW_CFA_advance_loc: 2 to 0000000000435f0c
  DW_CFA_def_cfa_offset: 24
  DW_CFA_advance_loc: 2 to 0000000000435f0e
  DW_CFA_def_cfa_offset: 16
  DW_CFA_advance_loc: 2 to 0000000000435f10
  DW_CFA_def_cfa_offset: 8
  DW_CFA_advance_loc: 5 to 0000000000435f15
  DW_CFA_restore_state
  DW_CFA_advance_loc: 46 to 0000000000435f43
  DW_CFA_remember_state
  DW_CFA_def_cfa_offset: 56
  DW_CFA_advance_loc: 8 to 0000000000435f4b
  DW_CFA_def_cfa_offset: 48
  DW_CFA_advance_loc: 1 to 0000000000435f4c
  DW_CFA_def_cfa_offset: 40
  DW_CFA_advance_loc: 2 to 0000000000435f4e
  DW_CFA_def_cfa_offset: 32
  DW_CFA_advance_loc: 2 to 0000000000435f50
  DW_CFA_def_cfa_offset: 24
  DW_CFA_advance_loc: 2 to 0000000000435f52
  DW_CFA_def_cfa_offset: 16
  DW_CFA_advance_loc: 2 to 0000000000435f54
  DW_CFA_def_cfa_offset: 8
  DW_CFA_advance_loc: 5 to 0000000000435f59
  DW_CFA_restore_state
  DW_CFA_advance_loc: 56 to 0000000000435f91
  DW_CFA_remember_state
  DW_CFA_def_cfa_offset: 56
  DW_CFA_advance_loc: 8 to 0000000000435f99
  DW_CFA_def_cfa_offset: 48
  DW_CFA_advance_loc: 1 to 0000000000435f9a
  DW_CFA_def_cfa_offset: 40
  DW_CFA_advance_loc: 2 to 0000000000435f9c
  DW_CFA_def_cfa_offset: 32
  DW_CFA_advance_loc: 2 to 0000000000435f9e
  DW_CFA_def_cfa_offset: 24
  DW_CFA_advance_loc: 2 to 0000000000435fa0
  DW_CFA_def_cfa_offset: 16
  DW_CFA_advance_loc: 2 to 0000000000435fa2
  DW_CFA_def_cfa_offset: 8
  DW_CFA_advance_loc: 5 to 0000000000435fa7
  DW_CFA_restore_state
  DW_CFA_advance_loc: 46 to 0000000000435fd5
  DW_CFA_remember_state
  DW_CFA_def_cfa_offset: 56
  DW_CFA_advance_loc: 8 to 0000000000435fdd
  DW_CFA_def_cfa_offset: 48
  DW_CFA_advance_loc: 1 to 0000000000435fde
  DW_CFA_def_cfa_offset: 40
  DW_CFA_advance_loc: 2 to 0000000000435fe0
  DW_CFA_def_cfa_offset: 32
  DW_CFA_advance_loc: 2 to 0000000000435fe2
  DW_CFA_def_cfa_offset: 24
  DW_CFA_advance_loc: 2 to 0000000000435fe4
  DW_CFA_def_cfa_offset: 16
  DW_CFA_advance_loc: 2 to 0000000000435fe6
  DW_CFA_def_cfa_offset: 8
  DW_CFA_advance_loc: 5 to 0000000000435feb
  DW_CFA_restore_state
  DW_CFA_advance_loc: 56 to 0000000000436023
  DW_CFA_remember_state
  DW_CFA_def_cfa_offset: 56
  DW_CFA_advance_loc: 8 to 000000000043602b
  DW_CFA_def_cfa_offset: 48
  DW_CFA_advance_loc: 1 to 000000000043602c
  DW_CFA_def_cfa_offset: 40
  DW_CFA_advance_loc: 2 to 000000000043602e
  DW_CFA_def_cfa_offset: 32
  DW_CFA_advance_loc: 2 to 0000000000436030
  DW_CFA_def_cfa_offset: 24
  DW_CFA_advance_loc: 2 to 0000000000436032
  DW_CFA_def_cfa_offset: 16
  DW_CFA_advance_loc: 2 to 0000000000436034
  DW_CFA_def_cfa_offset: 8
  DW_CFA_advance_loc: 5 to 0000000000436039
  DW_CFA_restore_state
  DW_CFA_advance_loc: 46 to 0000000000436067
  DW_CFA_remember_state
  DW_CFA_def_cfa_offset: 56
  DW_CFA_advance_loc: 8 to 000000000043606f
  DW_CFA_def_cfa_offset: 48
  DW_CFA_advance_loc: 1 to 0000000000436070
  DW_CFA_def_cfa_offset: 40
  DW_CFA_advance_loc: 2 to 0000000000436072
  DW_CFA_def_cfa_offset: 32
  DW_CFA_advance_loc: 2 to 0000000000436074
  DW_CFA_def_cfa_offset: 24
  DW_CFA_advance_loc: 2 to 0000000000436076
  DW_CFA_def_cfa_offset: 16
  DW_CFA_advance_loc: 2 to 0000000000436078
  DW_CFA_def_cfa_offset: 8
  DW_CFA_advance_loc: 5 to 000000000043607d
  DW_CFA_restore_state
  DW_CFA_advance_loc: 56 to 00000000004360b5
  DW_CFA_remember_state
  DW_CFA_def_cfa_offset: 56
  DW_CFA_advance_loc: 8 to 00000000004360bd
  DW_CFA_def_cfa_offset: 48
  DW_CFA_advance_loc: 1 to 00000000004360be
  DW_CFA_def_cfa_offset: 40
  DW_CFA_advance_loc: 2 to 00000000004360c0
  DW_CFA_def_cfa_offset: 32
  DW_CFA_advance_loc: 2 to 00000000004360c2
  DW_CFA_def_cfa_offset: 24
  DW_CFA_advance_loc: 2 to 00000000004360c4
  DW_CFA_def_cfa_offset: 16
  DW_CFA_advance_loc: 2 to 00000000004360c6
  DW_CFA_def_cfa_offset: 8
  DW_CFA_advance_loc: 5 to 00000000004360cb
  DW_CFA_restore_state
  DW_CFA_advance_loc: 46 to 00000000004360f9
  DW_CFA_remember_state
  DW_CFA_def_cfa_offset: 56
  DW_CFA_advance_loc: 8 to 0000000000436101
  DW_CFA_def_cfa_offset: 48
  DW_CFA_advance_loc: 1 to 0000000000436102
  DW_CFA_def_cfa_offset: 40
  DW_CFA_advance_loc: 2 to 0000000000436104
  DW_CFA_def_cfa_offset: 32
  DW_CFA_advance_loc: 2 to 0000000000436106
  DW_CFA_def_cfa_offset: 24
  DW_CFA_advance_loc: 2 to 0000000000436108
  DW_CFA_def_cfa_offset: 16
  DW_CFA_advance_loc: 2 to 000000000043610a
  DW_CFA_def_cfa_offset: 8
  DW_CFA_advance_loc: 5 to 000000000043610f
  DW_CFA_restore_state
  DW_CFA_advance_loc: 56 to 0000000000436147
  DW_CFA_remember_state
  DW_CFA_def_cfa_offset: 56
  DW_CFA_advance_loc: 8 to 000000000043614f
  DW_CFA_def_cfa_offset: 48
  DW_CFA_advance_loc: 1 to 0000000000436150
  DW_CFA_def_cfa_offset: 40
  DW_CFA_advance_loc: 2 to 0000000000436152
  DW_CFA_def_cfa_offset: 32
  DW_CFA_advance_loc: 2 to 0000000000436154
  DW_CFA_def_cfa_offset: 24
  DW_CFA_advance_loc: 2 to 0000000000436156
  DW_CFA_def_cfa_offset: 16
  DW_CFA_advance_loc: 2 to 0000000000436158
  DW_CFA_def_cfa_offset: 8
  DW_CFA_advance_loc: 5 to 000000000043615d
  DW_CFA_restore_state
  DW_CFA_advance_loc: 46 to 000000000043618b
  DW_CFA_remember_state
  DW_CFA_def_cfa_offset: 56
  DW_CFA_advance_loc: 8 to 0000000000436193
  DW_CFA_def_cfa_offset: 48
  DW_CFA_advance_loc: 1 to 0000000000436194
  DW_CFA_def_cfa_offset: 40
  DW_CFA_advance_loc: 2 to 0000000000436196
  DW_CFA_def_cfa_offset: 32
  DW_CFA_advance_loc: 2 to 0000000000436198
  DW_CFA_def_cfa_offset: 24
  DW_CFA_advance_loc: 2 to 000000000043619a
  DW_CFA_def_cfa_offset: 16
  DW_CFA_advance_loc: 2 to 000000000043619c
  DW_CFA_def_cfa_offset: 8
  DW_CFA_advance_loc: 5 to 00000000004361a1
  DW_CFA_restore_state
  DW_CFA_advance_loc: 56 to 00000000004361d9
  DW_CFA_remember_state
  DW_CFA_def_cfa_offset: 56
  DW_CFA_advance_loc: 8 to 00000000004361e1
  DW_CFA_def_cfa_offset: 48
  DW_CFA_advance_loc: 1 to 00000000004361e2
  DW_CFA_def_cfa_offset: 40
  DW_CFA_advance_loc: 2 to 00000000004361e4
  DW_CFA_def_cfa_offset: 32
  DW_CFA_advance_loc: 2 to 00000000004361e6
  DW_CFA_def_cfa_offset: 24
  DW_CFA_advance_loc: 2 to 00000000004361e8
  DW_CFA_def_cfa_offset: 16
  DW_CFA_advance_loc: 2 to 00000000004361ea
  DW_CFA_def_cfa_offset: 8
  DW_CFA_advance_loc: 5 to 00000000004361ef
  DW_CFA_restore_state
  DW_CFA_advance_loc: 46 to 000000000043621d
  DW_CFA_remember_state
  DW_CFA_def_cfa_offset: 56
  DW_CFA_advance_loc: 8 to 0000000000436225
  DW_CFA_def_cfa_offset: 48
  DW_CFA_advance_loc: 1 to 0000000000436226
  DW_CFA_def_cfa_offset: 40
  DW_CFA_advance_loc: 2 to 0000000000436228
  DW_CFA_def_cfa_offset: 32
  DW_CFA_advance_loc: 2 to 000000000043622a
  DW_CFA_def_cfa_offset: 24
  DW_CFA_advance_loc: 2 to 000000000043622c
  DW_CFA_def_cfa_offset: 16
  DW_CFA_advance_loc: 2 to 000000000043622e
  DW_CFA_def_cfa_offset: 8
  DW_CFA_advance_loc: 5 to 0000000000436233
  DW_CFA_restore_state
  DW_CFA_advance_loc2: 3703 to 00000000004370aa
  DW_CFA_remember_state
  DW_CFA_def_cfa_offset: 56
  DW_CFA_advance_loc: 8 to 00000000004370b2
  DW_CFA_def_cfa_offset: 48
  DW_CFA_advance_loc: 1 to 00000000004370b3
  DW_CFA_def_cfa_offset: 40
  DW_CFA_advance_loc: 2 to 00000000004370b5
  DW_CFA_def_cfa_offset: 32
  DW_CFA_advance_loc: 2 to 00000000004370b7
  DW_CFA_def_cfa_offset: 24
  DW_CFA_advance_loc: 2 to 00000000004370b9
  DW_CFA_def_cfa_offset: 16
  DW_CFA_advance_loc: 2 to 00000000004370bb
  DW_CFA_def_cfa_offset: 8
  DW_CFA_advance_loc: 5 to 00000000004370c0
  DW_CFA_restore_state
  DW_CFA_advance_loc1: 171 to 000000000043716b
  DW_CFA_remember_state
  DW_CFA_def_cfa_offset: 56
  DW_CFA_advance_loc: 8 to 0000000000437173
  DW_CFA_def_cfa_offset: 48
  DW_CFA_advance_loc: 1 to 0000000000437174
  DW_CFA_def_cfa_offset: 40
  DW_CFA_advance_loc: 2 to 0000000000437176
  DW_CFA_def_cfa_offset: 32
  DW_CFA_advance_loc: 2 to 0000000000437178
  DW_CFA_def_cfa_offset: 24
  DW_CFA_advance_loc: 2 to 000000000043717a
  DW_CFA_def_cfa_offset: 16
  DW_CFA_advance_loc: 2 to 000000000043717c
  DW_CFA_def_cfa_offset: 8
  DW_CFA_advance_loc: 5 to 0000000000437181
  DW_CFA_restore_state
  DW_CFA_advance_loc1: 106 to 00000000004371eb
  DW_CFA_remember_state
  DW_CFA_def_cfa_offset: 56
  DW_CFA_advance_loc: 8 to 00000000004371f3
  DW_CFA_def_cfa_offset: 48
  DW_CFA_advance_loc: 1 to 00000000004371f4
  DW_CFA_def_cfa_offset: 40
  DW_CFA_advance_loc: 2 to 00000000004371f6
  DW_CFA_def_cfa_offset: 32
  DW_CFA_advance_loc: 2 to 00000000004371f8
  DW_CFA_def_cfa_offset: 24
  DW_CFA_advance_loc: 2 to 00000000004371fa
  DW_CFA_def_cfa_offset: 16
  DW_CFA_advance_loc: 2 to 00000000004371fc
  DW_CFA_def_cfa_offset: 8
  DW_CFA_advance_loc: 5 to 0000000000437201
  DW_CFA_restore_state
  DW_CFA_advance_loc1: 137 to 000000000043728a
  DW_CFA_remember_state
  DW_CFA_def_cfa_offset: 56
  DW_CFA_advance_loc: 8 to 0000000000437292
  DW_CFA_def_cfa_offset: 48
  DW_CFA_advance_loc: 1 to 0000000000437293
  DW_CFA_def_cfa_offset: 40
  DW_CFA_advance_loc: 2 to 0000000000437295
  DW_CFA_def_cfa_offset: 32
  DW_CFA_advance_loc: 2 to 0000000000437297
  DW_CFA_def_cfa_offset: 24
  DW_CFA_advance_loc: 2 to 0000000000437299
  DW_CFA_def_cfa_offset: 16
  DW_CFA_advance_loc: 2 to 000000000043729b
  DW_CFA_def_cfa_offset: 8
  DW_CFA_advance_loc: 5 to 00000000004372a0
  DW_CFA_restore_state
  DW_CFA_advance_loc1: 123 to 000000000043731b
  DW_CFA_remember_state
  DW_CFA_def_cfa_offset: 56
  DW_CFA_advance_loc: 8 to 0000000000437323
  DW_CFA_def_cfa_offset: 48
  DW_CFA_advance_loc: 1 to 0000000000437324
  DW_CFA_def_cfa_offset: 40
  DW_CFA_advance_loc: 2 to 0000000000437326
  DW_CFA_def_cfa_offset: 32
  DW_CFA_advance_loc: 2 to 0000000000437328
  DW_CFA_def_cfa_offset: 24
  DW_CFA_advance_loc: 2 to 000000000043732a
  DW_CFA_def_cfa_offset: 16
  DW_CFA_advance_loc: 2 to 000000000043732c
  DW_CFA_def_cfa_offset: 8
  DW_CFA_advance_loc: 5 to 0000000000437331
  DW_CFA_restore_state
  DW_CFA_advance_loc1: 130 to 00000000004373b3
  DW_CFA_remember_state
  DW_CFA_def_cfa_offset: 56
  DW_CFA_advance_loc: 8 to 00000000004373bb
  DW_CFA_def_cfa_offset: 48
  DW_CFA_advance_loc: 1 to 00000000004373bc
  DW_CFA_def_cfa_offset: 40
  DW_CFA_advance_loc: 2 to 00000000004373be
  DW_CFA_def_cfa_offset: 32
  DW_CFA_advance_loc: 2 to 00000000004373c0
  DW_CFA_def_cfa_offset: 24
  DW_CFA_advance_loc: 2 to 00000000004373c2
  DW_CFA_def_cfa_offset: 16
  DW_CFA_advance_loc: 2 to 00000000004373c4
  DW_CFA_def_cfa_offset: 8
  DW_CFA_advance_loc: 5 to 00000000004373c9
  DW_CFA_restore_state
  DW_CFA_advance_loc: 55 to 0000000000437400
  DW_CFA_remember_state
  DW_CFA_def_cfa_offset: 56
  DW_CFA_advance_loc: 11 to 000000000043740b
  DW_CFA_def_cfa_offset: 48
  DW_CFA_advance_loc: 1 to 000000000043740c
  DW_CFA_def_cfa_offset: 40
  DW_CFA_advance_loc: 2 to 000000000043740e
  DW_CFA_def_cfa_offset: 32
  DW_CFA_advance_loc: 2 to 0000000000437410
  DW_CFA_def_cfa_offset: 24
  DW_CFA_advance_loc: 2 to 0000000000437412
  DW_CFA_def_cfa_offset: 16
  DW_CFA_advance_loc: 2 to 0000000000437414
  DW_CFA_def_cfa_offset: 8
  DW_CFA_advance_loc: 5 to 0000000000437419
  DW_CFA_restore_state
  DW_CFA_advance_loc1: 65 to 000000000043745a
  DW_CFA_remember_state
  DW_CFA_def_cfa_offset: 56
  DW_CFA_advance_loc: 8 to 0000000000437462
  DW_CFA_def_cfa_offset: 48
  DW_CFA_advance_loc: 1 to 0000000000437463
  DW_CFA_def_cfa_offset: 40
  DW_CFA_advance_loc: 2 to 0000000000437465
  DW_CFA_def_cfa_offset: 32
  DW_CFA_advance_loc: 2 to 0000000000437467
  DW_CFA_def_cfa_offset: 24
  DW_CFA_advance_loc: 2 to 0000000000437469
  DW_CFA_def_cfa_offset: 16
  DW_CFA_advance_loc: 2 to 000000000043746b
  DW_CFA_def_cfa_offset: 8
  DW_CFA_advance_loc: 5 to 0000000000437470
  DW_CFA_restore_state
  DW_CFA_advance_loc: 55 to 00000000004374a7
  DW_CFA_remember_state
  DW_CFA_def_cfa_offset: 56
  DW_CFA_advance_loc: 11 to 00000000004374b2
  DW_CFA_def_cfa_offset: 48
  DW_CFA_advance_loc: 1 to 00000000004374b3
  DW_CFA_def_cfa_offset: 40
  DW_CFA_advance_loc: 2 to 00000000004374b5
  DW_CFA_def_cfa_offset: 32
  DW_CFA_advance_loc: 2 to 00000000004374b7
  DW_CFA_def_cfa_offset: 24
  DW_CFA_advance_loc: 2 to 00000000004374b9
  DW_CFA_def_cfa_offset: 16
  DW_CFA_advance_loc: 2 to 00000000004374bb
  DW_CFA_def_cfa_offset: 8
  DW_CFA_advance_loc: 5 to 00000000004374c0
  DW_CFA_restore_state
  DW_CFA_advance_loc1: 65 to 0000000000437501
  DW_CFA_remember_state
  DW_CFA_def_cfa_offset: 56
  DW_CFA_advance_loc: 8 to 0000000000437509
  DW_CFA_def_cfa_offset: 48
  DW_CFA_advance_loc: 1 to 000000000043750a
  DW_CFA_def_cfa_offset: 40
  DW_CFA_advance_loc: 2 to 000000000043750c
  DW_CFA_def_cfa_offset: 32
  DW_CFA_advance_loc: 2 to 000000000043750e
  DW_CFA_def_cfa_offset: 24
  DW_CFA_advance_loc: 2 to 0000000000437510
  DW_CFA_def_cfa_offset: 16
  DW_CFA_advance_loc: 2 to 0000000000437512
  DW_CFA_def_cfa_offset: 8
  DW_CFA_advance_loc: 5 to 0000000000437517
  DW_CFA_restore_state
  DW_CFA_advance_loc: 55 to 000000000043754e
  DW_CFA_remember_state
  DW_CFA_def_cfa_offset: 56
  DW_CFA_advance_loc: 11 to 0000000000437559
  DW_CFA_def_cfa_offset: 48
  DW_CFA_advance_loc: 1 to 000000000043755a
  DW_CFA_def_cfa_offset: 40
  DW_CFA_advance_loc: 2 to 000000000043755c
  DW_CFA_def_cfa_offset: 32
  DW_CFA_advance_loc: 2 to 000000000043755e
  DW_CFA_def_cfa_offset: 24
  DW_CFA_advance_loc: 2 to 0000000000437560
  DW_CFA_def_cfa_offset: 16
  DW_CFA_advance_loc: 2 to 0000000000437562
  DW_CFA_def_cfa_offset: 8
  DW_CFA_advance_loc: 5 to 0000000000437567
  DW_CFA_restore_state
  DW_CFA_advance_loc1: 65 to 00000000004375a8
  DW_CFA_remember_state
  DW_CFA_def_cfa_offset: 56
  DW_CFA_advance_loc: 8 to 00000000004375b0
  DW_CFA_def_cfa_offset: 48
  DW_CFA_advance_loc: 1 to 00000000004375b1
  DW_CFA_def_cfa_offset: 40
  DW_CFA_advance_loc: 2 to 00000000004375b3
  DW_CFA_def_cfa_offset: 32
  DW_CFA_advance_loc: 2 to 00000000004375b5
  DW_CFA_def_cfa_offset: 24
  DW_CFA_advance_loc: 2 to 00000000004375b7
  DW_CFA_def_cfa_offset: 16
  DW_CFA_advance_loc: 2 to 00000000004375b9
  DW_CFA_def_cfa_offset: 8
  DW_CFA_advance_loc: 5 to 00000000004375be
  DW_CFA_restore_state
  DW_CFA_advance_loc: 46 to 00000000004375ec
  DW_CFA_remember_state
  DW_CFA_def_cfa_offset: 56
  DW_CFA_advance_loc: 11 to 00000000004375f7
  DW_CFA_def_cfa_offset: 48
  DW_CFA_advance_loc: 1 to 00000000004375f8
  DW_CFA_def_cfa_offset: 40
  DW_CFA_advance_loc: 2 to 00000000004375fa
  DW_CFA_def_cfa_offset: 32
  DW_CFA_advance_loc: 2 to 00000000004375fc
  DW_CFA_def_cfa_offset: 24
  DW_CFA_advance_loc: 2 to 00000000004375fe
  DW_CFA_def_cfa_offset: 16
  DW_CFA_advance_loc: 2 to 0000000000437600
  DW_CFA_def_cfa_offset: 8
  DW_CFA_advance_loc: 5 to 0000000000437605
  DW_CFA_restore_state
  DW_CFA_advance_loc: 61 to 0000000000437642
  DW_CFA_remember_state
  DW_CFA_def_cfa_offset: 56
  DW_CFA_advance_loc: 11 to 000000000043764d
  DW_CFA_def_cfa_offset: 48
  DW_CFA_advance_loc: 1 to 000000000043764e
  DW_CFA_def_cfa_offset: 40
  DW_CFA_advance_loc: 2 to 0000000000437650
  DW_CFA_def_cfa_offset: 32
  DW_CFA_advance_loc: 2 to 0000000000437652
  DW_CFA_def_cfa_offset: 24
  DW_CFA_advance_loc: 2 to 0000000000437654
  DW_CFA_def_cfa_offset: 16
  DW_CFA_advance_loc: 2 to 0000000000437656
  DW_CFA_def_cfa_offset: 8
  DW_CFA_advance_loc: 5 to 000000000043765b
  DW_CFA_restore_state
  DW_CFA_advance_loc: 51 to 000000000043768e
  DW_CFA_remember_state
  DW_CFA_def_cfa_offset: 56
  DW_CFA_advance_loc: 8 to 0000000000437696
  DW_CFA_def_cfa_offset: 48
  DW_CFA_advance_loc: 1 to 0000000000437697
  DW_CFA_def_cfa_offset: 40
  DW_CFA_advance_loc: 2 to 0000000000437699
  DW_CFA_def_cfa_offset: 32
  DW_CFA_advance_loc: 2 to 000000000043769b
  DW_CFA_def_cfa_offset: 24
  DW_CFA_advance_loc: 2 to 000000000043769d
  DW_CFA_def_cfa_offset: 16
  DW_CFA_advance_loc: 2 to 000000000043769f
  DW_CFA_def_cfa_offset: 8
  DW_CFA_advance_loc: 5 to 00000000004376a4
  DW_CFA_restore_state
  DW_CFA_advance_loc: 57 to 00000000004376dd
  DW_CFA_remember_state
  DW_CFA_def_cfa_offset: 56
  DW_CFA_advance_loc: 11 to 00000000004376e8
  DW_CFA_def_cfa_offset: 48
  DW_CFA_advance_loc: 1 to 00000000004376e9
  DW_CFA_def_cfa_offset: 40
  DW_CFA_advance_loc: 2 to 00000000004376eb
  DW_CFA_def_cfa_offset: 32
  DW_CFA_advance_loc: 2 to 00000000004376ed
  DW_CFA_def_cfa_offset: 24
  DW_CFA_advance_loc: 2 to 00000000004376ef
  DW_CFA_def_cfa_offset: 16
  DW_CFA_advance_loc: 2 to 00000000004376f1
  DW_CFA_def_cfa_offset: 8
  DW_CFA_advance_loc: 5 to 00000000004376f6
  DW_CFA_restore_state
  DW_CFA_advance_loc: 47 to 0000000000437725
  DW_CFA_remember_state
  DW_CFA_def_cfa_offset: 56
  DW_CFA_advance_loc: 8 to 000000000043772d
  DW_CFA_def_cfa_offset: 48
  DW_CFA_advance_loc: 1 to 000000000043772e
  DW_CFA_def_cfa_offset: 40
  DW_CFA_advance_loc: 2 to 0000000000437730
  DW_CFA_def_cfa_offset: 32
  DW_CFA_advance_loc: 2 to 0000000000437732
  DW_CFA_def_cfa_offset: 24
  DW_CFA_advance_loc: 2 to 0000000000437734
  DW_CFA_def_cfa_offset: 16
  DW_CFA_advance_loc: 2 to 0000000000437736
  DW_CFA_def_cfa_offset: 8
  DW_CFA_advance_loc: 5 to 000000000043773b
  DW_CFA_restore_state
  DW_CFA_advance_loc1: 101 to 00000000004377a0
  DW_CFA_remember_state
  DW_CFA_def_cfa_offset: 56
  DW_CFA_advance_loc: 8 to 00000000004377a8
  DW_CFA_def_cfa_offset: 48
  DW_CFA_advance_loc: 1 to 00000000004377a9
  DW_CFA_def_cfa_offset: 40
  DW_CFA_advance_loc: 2 to 00000000004377ab
  DW_CFA_def_cfa_offset: 32
  DW_CFA_advance_loc: 2 to 00000000004377ad
  DW_CFA_def_cfa_offset: 24
  DW_CFA_advance_loc: 2 to 00000000004377af
  DW_CFA_def_cfa_offset: 16
  DW_CFA_advance_loc: 2 to 00000000004377b1
  DW_CFA_def_cfa_offset: 8
  DW_CFA_advance_loc: 5 to 00000000004377b6
  DW_CFA_restore_state
  DW_CFA_advance_loc1: 66 to 00000000004377f8
  DW_CFA_remember_state
  DW_CFA_def_cfa_offset: 56
  DW_CFA_advance_loc: 8 to 0000000000437800
  DW_CFA_def_cfa_offset: 48
  DW_CFA_advance_loc: 1 to 0000000000437801
  DW_CFA_def_cfa_offset: 40
  DW_CFA_advance_loc: 2 to 0000000000437803
  DW_CFA_def_cfa_offset: 32
  DW_CFA_advance_loc: 2 to 0000000000437805
  DW_CFA_def_cfa_offset: 24
  DW_CFA_advance_loc: 2 to 0000000000437807
  DW_CFA_def_cfa_offset: 16
  DW_CFA_advance_loc: 2 to 0000000000437809
  DW_CFA_def_cfa_offset: 8
  DW_CFA_advance_loc: 5 to 000000000043780e
  DW_CFA_restore_state
  DW_CFA_advance_loc: 46 to 000000000043783c
  DW_CFA_remember_state
  DW_CFA_def_cfa_offset: 56
  DW_CFA_advance_loc: 8 to 0000000000437844
  DW_CFA_def_cfa_offset: 48
  DW_CFA_advance_loc: 1 to 0000000000437845
  DW_CFA_def_cfa_offset: 40
  DW_CFA_advance_loc: 2 to 0000000000437847
  DW_CFA_def_cfa_offset: 32
  DW_CFA_advance_loc: 2 to 0000000000437849
  DW_CFA_def_cfa_offset: 24
  DW_CFA_advance_loc: 2 to 000000000043784b
  DW_CFA_def_cfa_offset: 16
  DW_CFA_advance_loc: 2 to 000000000043784d
  DW_CFA_def_cfa_offset: 8
  DW_CFA_advance_loc: 5 to 0000000000437852
  DW_CFA_restore_state
  DW_CFA_advance_loc: 56 to 000000000043788a
  DW_CFA_remember_state
  DW_CFA_def_cfa_offset: 56
  DW_CFA_advance_loc: 8 to 0000000000437892
  DW_CFA_def_cfa_offset: 48
  DW_CFA_advance_loc: 1 to 0000000000437893
  DW_CFA_def_cfa_offset: 40
  DW_CFA_advance_loc: 2 to 0000000000437895
  DW_CFA_def_cfa_offset: 32
  DW_CFA_advance_loc: 2 to 0000000000437897
  DW_CFA_def_cfa_offset: 24
  DW_CFA_advance_loc: 2 to 0000000000437899
  DW_CFA_def_cfa_offset: 16
  DW_CFA_advance_loc: 2 to 000000000043789b
  DW_CFA_def_cfa_offset: 8
  DW_CFA_advance_loc: 5 to 00000000004378a0
  DW_CFA_restore_state
  DW_CFA_advance_loc: 46 to 00000000004378ce
  DW_CFA_remember_state
  DW_CFA_def_cfa_offset: 56
  DW_CFA_advance_loc: 8 to 00000000004378d6
  DW_CFA_def_cfa_offset: 48
  DW_CFA_advance_loc: 1 to 00000000004378d7
  DW_CFA_def_cfa_offset: 40
  DW_CFA_advance_loc: 2 to 00000000004378d9
  DW_CFA_def_cfa_offset: 32
  DW_CFA_advance_loc: 2 to 00000000004378db
  DW_CFA_def_cfa_offset: 24
  DW_CFA_advance_loc: 2 to 00000000004378dd
  DW_CFA_def_cfa_offset: 16
  DW_CFA_advance_loc: 2 to 00000000004378df
  DW_CFA_def_cfa_offset: 8
  DW_CFA_advance_loc: 5 to 00000000004378e4
  DW_CFA_restore_state
  DW_CFA_advance_loc: 56 to 000000000043791c
  DW_CFA_remember_state
  DW_CFA_def_cfa_offset: 56
  DW_CFA_advance_loc: 8 to 0000000000437924
  DW_CFA_def_cfa_offset: 48
  DW_CFA_advance_loc: 1 to 0000000000437925
  DW_CFA_def_cfa_offset: 40
  DW_CFA_advance_loc: 2 to 0000000000437927
  DW_CFA_def_cfa_offset: 32
  DW_CFA_advance_loc: 2 to 0000000000437929
  DW_CFA_def_cfa_offset: 24
  DW_CFA_advance_loc: 2 to 000000000043792b
  DW_CFA_def_cfa_offset: 16
  DW_CFA_advance_loc: 2 to 000000000043792d
  DW_CFA_def_cfa_offset: 8
  DW_CFA_advance_loc: 5 to 0000000000437932
  DW_CFA_restore_state
  DW_CFA_advance_loc: 46 to 0000000000437960
  DW_CFA_remember_state
  DW_CFA_def_cfa_offset: 56
  DW_CFA_advance_loc: 8 to 0000000000437968
  DW_CFA_def_cfa_offset: 48
  DW_CFA_advance_loc: 1 to 0000000000437969
  DW_CFA_def_cfa_offset: 40
  DW_CFA_advance_loc: 2 to 000000000043796b
  DW_CFA_def_cfa_offset: 32
  DW_CFA_advance_loc: 2 to 000000000043796d
  DW_CFA_def_cfa_offset: 24
  DW_CFA_advance_loc: 2 to 000000000043796f
  DW_CFA_def_cfa_offset: 16
  DW_CFA_advance_loc: 2 to 0000000000437971
  DW_CFA_def_cfa_offset: 8
  DW_CFA_advance_loc: 5 to 0000000000437976
  DW_CFA_restore_state
  DW_CFA_advance_loc: 56 to 00000000004379ae
  DW_CFA_remember_state
  DW_CFA_def_cfa_offset: 56
  DW_CFA_advance_loc: 8 to 00000000004379b6
  DW_CFA_def_cfa_offset: 48
  DW_CFA_advance_loc: 1 to 00000000004379b7
  DW_CFA_def_cfa_offset: 40
  DW_CFA_advance_loc: 2 to 00000000004379b9
  DW_CFA_def_cfa_offset: 32
  DW_CFA_advance_loc: 2 to 00000000004379bb
  DW_CFA_def_cfa_offset: 24
  DW_CFA_advance_loc: 2 to 00000000004379bd
  DW_CFA_def_cfa_offset: 16
  DW_CFA_advance_loc: 2 to 00000000004379bf
  DW_CFA_def_cfa_offset: 8
  DW_CFA_advance_loc: 5 to 00000000004379c4
  DW_CFA_restore_state
  DW_CFA_advance_loc: 46 to 00000000004379f2
  DW_CFA_remember_state
  DW_CFA_def_cfa_offset: 56
  DW_CFA_advance_loc: 8 to 00000000004379fa
  DW_CFA_def_cfa_offset: 48
  DW_CFA_advance_loc: 1 to 00000000004379fb
  DW_CFA_def_cfa_offset: 40
  DW_CFA_advance_loc: 2 to 00000000004379fd
  DW_CFA_def_cfa_offset: 32
  DW_CFA_advance_loc: 2 to 00000000004379ff
  DW_CFA_def_cfa_offset: 24
  DW_CFA_advance_loc: 2 to 0000000000437a01
  DW_CFA_def_cfa_offset: 16
  DW_CFA_advance_loc: 2 to 0000000000437a03
  DW_CFA_def_cfa_offset: 8
  DW_CFA_advance_loc: 5 to 0000000000437a08
  DW_CFA_restore_state
  DW_CFA_advance_loc: 56 to 0000000000437a40
  DW_CFA_remember_state
  DW_CFA_def_cfa_offset: 56
  DW_CFA_advance_loc: 8 to 0000000000437a48
  DW_CFA_def_cfa_offset: 48
  DW_CFA_advance_loc: 1 to 0000000000437a49
  DW_CFA_def_cfa_offset: 40
  DW_CFA_advance_loc: 2 to 0000000000437a4b
  DW_CFA_def_cfa_offset: 32
  DW_CFA_advance_loc: 2 to 0000000000437a4d
  DW_CFA_def_cfa_offset: 24
  DW_CFA_advance_loc: 2 to 0000000000437a4f
  DW_CFA_def_cfa_offset: 16
  DW_CFA_advance_loc: 2 to 0000000000437a51
  DW_CFA_def_cfa_offset: 8
  DW_CFA_advance_loc: 5 to 0000000000437a56
  DW_CFA_restore_state
  DW_CFA_advance_loc: 46 to 0000000000437a84
  DW_CFA_remember_state
  DW_CFA_def_cfa_offset: 56
  DW_CFA_advance_loc: 8 to 0000000000437a8c
  DW_CFA_def_cfa_offset: 48
  DW_CFA_advance_loc: 1 to 0000000000437a8d
  DW_CFA_def_cfa_offset: 40
  DW_CFA_advance_loc: 2 to 0000000000437a8f
  DW_CFA_def_cfa_offset: 32
  DW_CFA_advance_loc: 2 to 0000000000437a91
  DW_CFA_def_cfa_offset: 24
  DW_CFA_advance_loc: 2 to 0000000000437a93
  DW_CFA_def_cfa_offset: 16
  DW_CFA_advance_loc: 2 to 0000000000437a95
  DW_CFA_def_cfa_offset: 8
  DW_CFA_advance_loc: 5 to 0000000000437a9a
  DW_CFA_restore_state
  DW_CFA_advance_loc: 56 to 0000000000437ad2
  DW_CFA_remember_state
  DW_CFA_def_cfa_offset: 56
  DW_CFA_advance_loc: 8 to 0000000000437ada
  DW_CFA_def_cfa_offset: 48
  DW_CFA_advance_loc: 1 to 0000000000437adb
  DW_CFA_def_cfa_offset: 40
  DW_CFA_advance_loc: 2 to 0000000000437add
  DW_CFA_def_cfa_offset: 32
  DW_CFA_advance_loc: 2 to 0000000000437adf
  DW_CFA_def_cfa_offset: 24
  DW_CFA_advance_loc: 2 to 0000000000437ae1
  DW_CFA_def_cfa_offset: 16
  DW_CFA_advance_loc: 2 to 0000000000437ae3
  DW_CFA_def_cfa_offset: 8
  DW_CFA_advance_loc: 5 to 0000000000437ae8
  DW_CFA_restore_state
  DW_CFA_advance_loc: 46 to 0000000000437b16
  DW_CFA_remember_state
  DW_CFA_def_cfa_offset: 56
  DW_CFA_advance_loc: 8 to 0000000000437b1e
  DW_CFA_def_cfa_offset: 48
  DW_CFA_advance_loc: 1 to 0000000000437b1f
  DW_CFA_def_cfa_offset: 40
  DW_CFA_advance_loc: 2 to 0000000000437b21
  DW_CFA_def_cfa_offset: 32
  DW_CFA_advance_loc: 2 to 0000000000437b23
  DW_CFA_def_cfa_offset: 24
  DW_CFA_advance_loc: 2 to 0000000000437b25
  DW_CFA_def_cfa_offset: 16
  DW_CFA_advance_loc: 2 to 0000000000437b27
  DW_CFA_def_cfa_offset: 8
  DW_CFA_advance_loc: 5 to 0000000000437b2c
  DW_CFA_restore_state
  DW_CFA_advance_loc: 56 to 0000000000437b64
  DW_CFA_remember_state
  DW_CFA_def_cfa_offset: 56
  DW_CFA_advance_loc: 8 to 0000000000437b6c
  DW_CFA_def_cfa_offset: 48
  DW_CFA_advance_loc: 1 to 0000000000437b6d
  DW_CFA_def_cfa_offset: 40
  DW_CFA_advance_loc: 2 to 0000000000437b6f
  DW_CFA_def_cfa_offset: 32
  DW_CFA_advance_loc: 2 to 0000000000437b71
  DW_CFA_def_cfa_offset: 24
  DW_CFA_advance_loc: 2 to 0000000000437b73
  DW_CFA_def_cfa_offset: 16
  DW_CFA_advance_loc: 2 to 0000000000437b75
  DW_CFA_def_cfa_offset: 8
  DW_CFA_advance_loc: 5 to 0000000000437b7a
  DW_CFA_restore_state
  DW_CFA_advance_loc: 46 to 0000000000437ba8
  DW_CFA_remember_state
  DW_CFA_def_cfa_offset: 56
  DW_CFA_advance_loc: 8 to 0000000000437bb0
  DW_CFA_def_cfa_offset: 48
  DW_CFA_advance_loc: 1 to 0000000000437bb1
  DW_CFA_def_cfa_offset: 40
  DW_CFA_advance_loc: 2 to 0000000000437bb3
  DW_CFA_def_cfa_offset: 32
  DW_CFA_advance_loc: 2 to 0000000000437bb5
  DW_CFA_def_cfa_offset: 24
  DW_CFA_advance_loc: 2 to 0000000000437bb7
  DW_CFA_def_cfa_offset: 16
  DW_CFA_advance_loc: 2 to 0000000000437bb9
  DW_CFA_def_cfa_offset: 8
  DW_CFA_advance_loc: 5 to 0000000000437bbe
  DW_CFA_restore_state
  DW_CFA_advance_loc: 56 to 0000000000437bf6
  DW_CFA_remember_state
  DW_CFA_def_cfa_offset: 56
  DW_CFA_advance_loc: 8 to 0000000000437bfe
  DW_CFA_def_cfa_offset: 48
  DW_CFA_advance_loc: 1 to 0000000000437bff
  DW_CFA_def_cfa_offset: 40
  DW_CFA_advance_loc: 2 to 0000000000437c01
  DW_CFA_def_cfa_offset: 32
  DW_CFA_advance_loc: 2 to 0000000000437c03
  DW_CFA_def_cfa_offset: 24
  DW_CFA_advance_loc: 2 to 0000000000437c05
  DW_CFA_def_cfa_offset: 16
  DW_CFA_advance_loc: 2 to 0000000000437c07
  DW_CFA_def_cfa_offset: 8
  DW_CFA_advance_loc: 5 to 0000000000437c0c
  DW_CFA_restore_state
  DW_CFA_advance_loc: 46 to 0000000000437c3a
  DW_CFA_remember_state
  DW_CFA_def_cfa_offset: 56
  DW_CFA_advance_loc: 8 to 0000000000437c42
  DW_CFA_def_cfa_offset: 48
  DW_CFA_advance_loc: 1 to 0000000000437c43
  DW_CFA_def_cfa_offset: 40
  DW_CFA_advance_loc: 2 to 0000000000437c45
  DW_CFA_def_cfa_offset: 32
  DW_CFA_advance_loc: 2 to 0000000000437c47
  DW_CFA_def_cfa_offset: 24
  DW_CFA_advance_loc: 2 to 0000000000437c49
  DW_CFA_def_cfa_offset: 16
  DW_CFA_advance_loc: 2 to 0000000000437c4b
  DW_CFA_def_cfa_offset: 8
  DW_CFA_advance_loc: 5 to 0000000000437c50
  DW_CFA_restore_state
  DW_CFA_advance_loc: 56 to 0000000000437c88
  DW_CFA_remember_state
  DW_CFA_def_cfa_offset: 56
  DW_CFA_advance_loc: 8 to 0000000000437c90
  DW_CFA_def_cfa_offset: 48
  DW_CFA_advance_loc: 1 to 0000000000437c91
  DW_CFA_def_cfa_offset: 40
  DW_CFA_advance_loc: 2 to 0000000000437c93
  DW_CFA_def_cfa_offset: 32
  DW_CFA_advance_loc: 2 to 0000000000437c95
  DW_CFA_def_cfa_offset: 24
  DW_CFA_advance_loc: 2 to 0000000000437c97
  DW_CFA_def_cfa_offset: 16
  DW_CFA_advance_loc: 2 to 0000000000437c99
  DW_CFA_def_cfa_offset: 8
  DW_CFA_advance_loc: 5 to 0000000000437c9e
  DW_CFA_restore_state
  DW_CFA_advance_loc: 46 to 0000000000437ccc
  DW_CFA_remember_state
  DW_CFA_def_cfa_offset: 56
  DW_CFA_advance_loc: 8 to 0000000000437cd4
  DW_CFA_def_cfa_offset: 48
  DW_CFA_advance_loc: 1 to 0000000000437cd5
  DW_CFA_def_cfa_offset: 40
  DW_CFA_advance_loc: 2 to 0000000000437cd7
  DW_CFA_def_cfa_offset: 32
  DW_CFA_advance_loc: 2 to 0000000000437cd9
  DW_CFA_def_cfa_offset: 24
  DW_CFA_advance_loc: 2 to 0000000000437cdb
  DW_CFA_def_cfa_offset: 16
  DW_CFA_advance_loc: 2 to 0000000000437cdd
  DW_CFA_def_cfa_offset: 8
  DW_CFA_advance_loc: 5 to 0000000000437ce2
  DW_CFA_restore_state
  DW_CFA_advance_loc: 56 to 0000000000437d1a
  DW_CFA_remember_state
  DW_CFA_def_cfa_offset: 56
  DW_CFA_advance_loc: 8 to 0000000000437d22
  DW_CFA_def_cfa_offset: 48
  DW_CFA_advance_loc: 1 to 0000000000437d23
  DW_CFA_def_cfa_offset: 40
  DW_CFA_advance_loc: 2 to 0000000000437d25
  DW_CFA_def_cfa_offset: 32
  DW_CFA_advance_loc: 2 to 0000000000437d27
  DW_CFA_def_cfa_offset: 24
  DW_CFA_advance_loc: 2 to 0000000000437d29
  DW_CFA_def_cfa_offset: 16
  DW_CFA_advance_loc: 2 to 0000000000437d2b
  DW_CFA_def_cfa_offset: 8
  DW_CFA_advance_loc: 5 to 0000000000437d30
  DW_CFA_restore_state
  DW_CFA_advance_loc: 46 to 0000000000437d5e
  DW_CFA_remember_state
  DW_CFA_def_cfa_offset: 56
  DW_CFA_advance_loc: 8 to 0000000000437d66
  DW_CFA_def_cfa_offset: 48
  DW_CFA_advance_loc: 1 to 0000000000437d67
  DW_CFA_def_cfa_offset: 40
  DW_CFA_advance_loc: 2 to 0000000000437d69
  DW_CFA_def_cfa_offset: 32
  DW_CFA_advance_loc: 2 to 0000000000437d6b
  DW_CFA_def_cfa_offset: 24
  DW_CFA_advance_loc: 2 to 0000000000437d6d
  DW_CFA_def_cfa_offset: 16
  DW_CFA_advance_loc: 2 to 0000000000437d6f
  DW_CFA_def_cfa_offset: 8
  DW_CFA_advance_loc: 5 to 0000000000437d74
  DW_CFA_restore_state
  DW_CFA_advance_loc: 56 to 0000000000437dac
  DW_CFA_remember_state
  DW_CFA_def_cfa_offset: 56
  DW_CFA_advance_loc: 8 to 0000000000437db4
  DW_CFA_def_cfa_offset: 48
  DW_CFA_advance_loc: 1 to 0000000000437db5
  DW_CFA_def_cfa_offset: 40
  DW_CFA_advance_loc: 2 to 0000000000437db7
  DW_CFA_def_cfa_offset: 32
  DW_CFA_advance_loc: 2 to 0000000000437db9
  DW_CFA_def_cfa_offset: 24
  DW_CFA_advance_loc: 2 to 0000000000437dbb
  DW_CFA_def_cfa_offset: 16
  DW_CFA_advance_loc: 2 to 0000000000437dbd
  DW_CFA_def_cfa_offset: 8
  DW_CFA_advance_loc: 5 to 0000000000437dc2
  DW_CFA_restore_state
  DW_CFA_advance_loc: 46 to 0000000000437df0
  DW_CFA_remember_state
  DW_CFA_def_cfa_offset: 56
  DW_CFA_advance_loc: 8 to 0000000000437df8
  DW_CFA_def_cfa_offset: 48
  DW_CFA_advance_loc: 1 to 0000000000437df9
  DW_CFA_def_cfa_offset: 40
  DW_CFA_advance_loc: 2 to 0000000000437dfb
  DW_CFA_def_cfa_offset: 32
  DW_CFA_advance_loc: 2 to 0000000000437dfd
  DW_CFA_def_cfa_offset: 24
  DW_CFA_advance_loc: 2 to 0000000000437dff
  DW_CFA_def_cfa_offset: 16
  DW_CFA_advance_loc: 2 to 0000000000437e01
  DW_CFA_def_cfa_offset: 8
  DW_CFA_advance_loc: 5 to 0000000000437e06
  DW_CFA_restore_state
  DW_CFA_advance_loc: 56 to 0000000000437e3e
  DW_CFA_remember_state
  DW_CFA_def_cfa_offset: 56
  DW_CFA_advance_loc: 8 to 0000000000437e46
  DW_CFA_def_cfa_offset: 48
  DW_CFA_advance_loc: 1 to 0000000000437e47
  DW_CFA_def_cfa_offset: 40
  DW_CFA_advance_loc: 2 to 0000000000437e49
  DW_CFA_def_cfa_offset: 32
  DW_CFA_advance_loc: 2 to 0000000000437e4b
  DW_CFA_def_cfa_offset: 24
  DW_CFA_advance_loc: 2 to 0000000000437e4d
  DW_CFA_def_cfa_offset: 16
  DW_CFA_advance_loc: 2 to 0000000000437e4f
  DW_CFA_def_cfa_offset: 8
  DW_CFA_advance_loc: 5 to 0000000000437e54
  DW_CFA_restore_state
  DW_CFA_advance_loc: 46 to 0000000000437e82
  DW_CFA_remember_state
  DW_CFA_def_cfa_offset: 56
  DW_CFA_advance_loc: 8 to 0000000000437e8a
  DW_CFA_def_cfa_offset: 48
  DW_CFA_advance_loc: 1 to 0000000000437e8b
  DW_CFA_def_cfa_offset: 40
  DW_CFA_advance_loc: 2 to 0000000000437e8d
  DW_CFA_def_cfa_offset: 32
  DW_CFA_advance_loc: 2 to 0000000000437e8f
  DW_CFA_def_cfa_offset: 24
  DW_CFA_advance_loc: 2 to 0000000000437e91
  DW_CFA_def_cfa_offset: 16
  DW_CFA_advance_loc: 2 to 0000000000437e93
  DW_CFA_def_cfa_offset: 8
  DW_CFA_advance_loc: 5 to 0000000000437e98
  DW_CFA_restore_state
  DW_CFA_advance_loc: 56 to 0000000000437ed0
  DW_CFA_remember_state
  DW_CFA_def_cfa_offset: 56
  DW_CFA_advance_loc: 8 to 0000000000437ed8
  DW_CFA_def_cfa_offset: 48
  DW_CFA_advance_loc: 1 to 0000000000437ed9
  DW_CFA_def_cfa_offset: 40
  DW_CFA_advance_loc: 2 to 0000000000437edb
  DW_CFA_def_cfa_offset: 32
  DW_CFA_advance_loc: 2 to 0000000000437edd
  DW_CFA_def_cfa_offset: 24
  DW_CFA_advance_loc: 2 to 0000000000437edf
  DW_CFA_def_cfa_offset: 16
  DW_CFA_advance_loc: 2 to 0000000000437ee1
  DW_CFA_def_cfa_offset: 8
  DW_CFA_advance_loc: 5 to 0000000000437ee6
  DW_CFA_restore_state
  DW_CFA_advance_loc: 46 to 0000000000437f14
  DW_CFA_remember_state
  DW_CFA_def_cfa_offset: 56
  DW_CFA_advance_loc: 8 to 0000000000437f1c
  DW_CFA_def_cfa_offset: 48
  DW_CFA_advance_loc: 1 to 0000000000437f1d
  DW_CFA_def_cfa_offset: 40
  DW_CFA_advance_loc: 2 to 0000000000437f1f
  DW_CFA_def_cfa_offset: 32
  DW_CFA_advance_loc: 2 to 0000000000437f21
  DW_CFA_def_cfa_offset: 24
  DW_CFA_advance_loc: 2 to 0000000000437f23
  DW_CFA_def_cfa_offset: 16
  DW_CFA_advance_loc: 2 to 0000000000437f25
  DW_CFA_def_cfa_offset: 8
  DW_CFA_advance_loc: 5 to 0000000000437f2a
  DW_CFA_restore_state
  DW_CFA_advance_loc: 56 to 0000000000437f62
  DW_CFA_remember_state
  DW_CFA_def_cfa_offset: 56
  DW_CFA_advance_loc: 8 to 0000000000437f6a
  DW_CFA_def_cfa_offset: 48
  DW_CFA_advance_loc: 1 to 0000000000437f6b
  DW_CFA_def_cfa_offset: 40
  DW_CFA_advance_loc: 2 to 0000000000437f6d
  DW_CFA_def_cfa_offset: 32
  DW_CFA_advance_loc: 2 to 0000000000437f6f
  DW_CFA_def_cfa_offset: 24
  DW_CFA_advance_loc: 2 to 0000000000437f71
  DW_CFA_def_cfa_offset: 16
  DW_CFA_advance_loc: 2 to 0000000000437f73
  DW_CFA_def_cfa_offset: 8
  DW_CFA_advance_loc: 5 to 0000000000437f78
  DW_CFA_restore_state
  DW_CFA_advance_loc: 46 to 0000000000437fa6
  DW_CFA_remember_state
  DW_CFA_def_cfa_offset: 56
  DW_CFA_advance_loc: 8 to 0000000000437fae
  DW_CFA_def_cfa_offset: 48
  DW_CFA_advance_loc: 1 to 0000000000437faf
  DW_CFA_def_cfa_offset: 40
  DW_CFA_advance_loc: 2 to 0000000000437fb1
  DW_CFA_def_cfa_offset: 32
  DW_CFA_advance_loc: 2 to 0000000000437fb3
  DW_CFA_def_cfa_offset: 24
  DW_CFA_advance_loc: 2 to 0000000000437fb5
  DW_CFA_def_cfa_offset: 16
  DW_CFA_advance_loc: 2 to 0000000000437fb7
  DW_CFA_def_cfa_offset: 8
  DW_CFA_advance_loc: 5 to 0000000000437fbc
  DW_CFA_restore_state
  DW_CFA_advance_loc: 56 to 0000000000437ff4
  DW_CFA_remember_state
  DW_CFA_def_cfa_offset: 56
  DW_CFA_advance_loc: 8 to 0000000000437ffc
  DW_CFA_def_cfa_offset: 48
  DW_CFA_advance_loc: 1 to 0000000000437ffd
  DW_CFA_def_cfa_offset: 40
  DW_CFA_advance_loc: 2 to 0000000000437fff
  DW_CFA_def_cfa_offset: 32
  DW_CFA_advance_loc: 2 to 0000000000438001
  DW_CFA_def_cfa_offset: 24
  DW_CFA_advance_loc: 2 to 0000000000438003
  DW_CFA_def_cfa_offset: 16
  DW_CFA_advance_loc: 2 to 0000000000438005
  DW_CFA_def_cfa_offset: 8
  DW_CFA_advance_loc: 5 to 000000000043800a
  DW_CFA_restore_state
  DW_CFA_advance_loc: 46 to 0000000000438038
  DW_CFA_remember_state
  DW_CFA_def_cfa_offset: 56
  DW_CFA_advance_loc: 8 to 0000000000438040
  DW_CFA_def_cfa_offset: 48
  DW_CFA_advance_loc: 1 to 0000000000438041
  DW_CFA_def_cfa_offset: 40
  DW_CFA_advance_loc: 2 to 0000000000438043
  DW_CFA_def_cfa_offset: 32
  DW_CFA_advance_loc: 2 to 0000000000438045
  DW_CFA_def_cfa_offset: 24
  DW_CFA_advance_loc: 2 to 0000000000438047
  DW_CFA_def_cfa_offset: 16
  DW_CFA_advance_loc: 2 to 0000000000438049
  DW_CFA_def_cfa_offset: 8
  DW_CFA_advance_loc: 5 to 000000000043804e
  DW_CFA_restore_state
  DW_CFA_advance_loc: 56 to 0000000000438086
  DW_CFA_remember_state
  DW_CFA_def_cfa_offset: 56
  DW_CFA_advance_loc: 8 to 000000000043808e
  DW_CFA_def_cfa_offset: 48
  DW_CFA_advance_loc: 1 to 000000000043808f
  DW_CFA_def_cfa_offset: 40
  DW_CFA_advance_loc: 2 to 0000000000438091
  DW_CFA_def_cfa_offset: 32
  DW_CFA_advance_loc: 2 to 0000000000438093
  DW_CFA_def_cfa_offset: 24
  DW_CFA_advance_loc: 2 to 0000000000438095
  DW_CFA_def_cfa_offset: 16
  DW_CFA_advance_loc: 2 to 0000000000438097
  DW_CFA_def_cfa_offset: 8
  DW_CFA_advance_loc: 5 to 000000000043809c
  DW_CFA_restore_state
  DW_CFA_advance_loc: 46 to 00000000004380ca
  DW_CFA_remember_state
  DW_CFA_def_cfa_offset: 56
  DW_CFA_advance_loc: 8 to 00000000004380d2
  DW_CFA_def_cfa_offset: 48
  DW_CFA_advance_loc: 1 to 00000000004380d3
  DW_CFA_def_cfa_offset: 40
  DW_CFA_advance_loc: 2 to 00000000004380d5
  DW_CFA_def_cfa_offset: 32
  DW_CFA_advance_loc: 2 to 00000000004380d7
  DW_CFA_def_cfa_offset: 24
  DW_CFA_advance_loc: 2 to 00000000004380d9
  DW_CFA_def_cfa_offset: 16
  DW_CFA_advance_loc: 2 to 00000000004380db
  DW_CFA_def_cfa_offset: 8
  DW_CFA_advance_loc: 5 to 00000000004380e0
  DW_CFA_restore_state
  DW_CFA_advance_loc: 56 to 0000000000438118
  DW_CFA_remember_state
  DW_CFA_def_cfa_offset: 56
  DW_CFA_advance_loc: 8 to 0000000000438120
  DW_CFA_def_cfa_offset: 48
  DW_CFA_advance_loc: 1 to 0000000000438121
  DW_CFA_def_cfa_offset: 40
  DW_CFA_advance_loc: 2 to 0000000000438123
  DW_CFA_def_cfa_offset: 32
  DW_CFA_advance_loc: 2 to 0000000000438125
  DW_CFA_def_cfa_offset: 24
  DW_CFA_advance_loc: 2 to 0000000000438127
  DW_CFA_def_cfa_offset: 16
  DW_CFA_advance_loc: 2 to 0000000000438129
  DW_CFA_def_cfa_offset: 8
  DW_CFA_advance_loc: 5 to 000000000043812e
  DW_CFA_restore_state
  DW_CFA_advance_loc: 46 to 000000000043815c
  DW_CFA_remember_state
  DW_CFA_def_cfa_offset: 56
  DW_CFA_advance_loc: 8 to 0000000000438164
  DW_CFA_def_cfa_offset: 48
  DW_CFA_advance_loc: 1 to 0000000000438165
  DW_CFA_def_cfa_offset: 40
  DW_CFA_advance_loc: 2 to 0000000000438167
  DW_CFA_def_cfa_offset: 32
  DW_CFA_advance_loc: 2 to 0000000000438169
  DW_CFA_def_cfa_offset: 24
  DW_CFA_advance_loc: 2 to 000000000043816b
  DW_CFA_def_cfa_offset: 16
  DW_CFA_advance_loc: 2 to 000000000043816d
  DW_CFA_def_cfa_offset: 8
  DW_CFA_advance_loc: 5 to 0000000000438172
  DW_CFA_restore_state
  DW_CFA_advance_loc: 56 to 00000000004381aa
  DW_CFA_remember_state
  DW_CFA_def_cfa_offset: 56
  DW_CFA_advance_loc: 8 to 00000000004381b2
  DW_CFA_def_cfa_offset: 48
  DW_CFA_advance_loc: 1 to 00000000004381b3
  DW_CFA_def_cfa_offset: 40
  DW_CFA_advance_loc: 2 to 00000000004381b5
  DW_CFA_def_cfa_offset: 32
  DW_CFA_advance_loc: 2 to 00000000004381b7
  DW_CFA_def_cfa_offset: 24
  DW_CFA_advance_loc: 2 to 00000000004381b9
  DW_CFA_def_cfa_offset: 16
  DW_CFA_advance_loc: 2 to 00000000004381bb
  DW_CFA_def_cfa_offset: 8
  DW_CFA_advance_loc: 5 to 00000000004381c0
  DW_CFA_restore_state
  DW_CFA_advance_loc: 46 to 00000000004381ee
  DW_CFA_remember_state
  DW_CFA_def_cfa_offset: 56
  DW_CFA_advance_loc: 8 to 00000000004381f6
  DW_CFA_def_cfa_offset: 48
  DW_CFA_advance_loc: 1 to 00000000004381f7
  DW_CFA_def_cfa_offset: 40
  DW_CFA_advance_loc: 2 to 00000000004381f9
  DW_CFA_def_cfa_offset: 32
  DW_CFA_advance_loc: 2 to 00000000004381fb
  DW_CFA_def_cfa_offset: 24
  DW_CFA_advance_loc: 2 to 00000000004381fd
  DW_CFA_def_cfa_offset: 16
  DW_CFA_advance_loc: 2 to 00000000004381ff
  DW_CFA_def_cfa_offset: 8
  DW_CFA_advance_loc: 5 to 0000000000438204
  DW_CFA_restore_state
  DW_CFA_advance_loc: 56 to 000000000043823c
  DW_CFA_remember_state
  DW_CFA_def_cfa_offset: 56
  DW_CFA_advance_loc: 8 to 0000000000438244
  DW_CFA_def_cfa_offset: 48
  DW_CFA_advance_loc: 1 to 0000000000438245
  DW_CFA_def_cfa_offset: 40
  DW_CFA_advance_loc: 2 to 0000000000438247
  DW_CFA_def_cfa_offset: 32
  DW_CFA_advance_loc: 2 to 0000000000438249
  DW_CFA_def_cfa_offset: 24
  DW_CFA_advance_loc: 2 to 000000000043824b
  DW_CFA_def_cfa_offset: 16
  DW_CFA_advance_loc: 2 to 000000000043824d
  DW_CFA_def_cfa_offset: 8
  DW_CFA_advance_loc: 5 to 0000000000438252
  DW_CFA_restore_state
  DW_CFA_advance_loc: 46 to 0000000000438280
  DW_CFA_remember_state
  DW_CFA_def_cfa_offset: 56
  DW_CFA_advance_loc: 8 to 0000000000438288
  DW_CFA_def_cfa_offset: 48
  DW_CFA_advance_loc: 1 to 0000000000438289
  DW_CFA_def_cfa_offset: 40
  DW_CFA_advance_loc: 2 to 000000000043828b
  DW_CFA_def_cfa_offset: 32
  DW_CFA_advance_loc: 2 to 000000000043828d
  DW_CFA_def_cfa_offset: 24
  DW_CFA_advance_loc: 2 to 000000000043828f
  DW_CFA_def_cfa_offset: 16
  DW_CFA_advance_loc: 2 to 0000000000438291
  DW_CFA_def_cfa_offset: 8
  DW_CFA_advance_loc: 5 to 0000000000438296
  DW_CFA_restore_state
  DW_CFA_advance_loc: 56 to 00000000004382ce
  DW_CFA_remember_state
  DW_CFA_def_cfa_offset: 56
  DW_CFA_advance_loc: 8 to 00000000004382d6
  DW_CFA_def_cfa_offset: 48
  DW_CFA_advance_loc: 1 to 00000000004382d7
  DW_CFA_def_cfa_offset: 40
  DW_CFA_advance_loc: 2 to 00000000004382d9
  DW_CFA_def_cfa_offset: 32
  DW_CFA_advance_loc: 2 to 00000000004382db
  DW_CFA_def_cfa_offset: 24
  DW_CFA_advance_loc: 2 to 00000000004382dd
  DW_CFA_def_cfa_offset: 16
  DW_CFA_advance_loc: 2 to 00000000004382df
  DW_CFA_def_cfa_offset: 8
  DW_CFA_advance_loc: 5 to 00000000004382e4
  DW_CFA_restore_state
  DW_CFA_advance_loc: 46 to 0000000000438312
  DW_CFA_remember_state
  DW_CFA_def_cfa_offset: 56
  DW_CFA_advance_loc: 8 to 000000000043831a
  DW_CFA_def_cfa_offset: 48
  DW_CFA_advance_loc: 1 to 000000000043831b
  DW_CFA_def_cfa_offset: 40
  DW_CFA_advance_loc: 2 to 000000000043831d
  DW_CFA_def_cfa_offset: 32
  DW_CFA_advance_loc: 2 to 000000000043831f
  DW_CFA_def_cfa_offset: 24
  DW_CFA_advance_loc: 2 to 0000000000438321
  DW_CFA_def_cfa_offset: 16
  DW_CFA_advance_loc: 2 to 0000000000438323
  DW_CFA_def_cfa_offset: 8
  DW_CFA_advance_loc: 5 to 0000000000438328
  DW_CFA_restore_state
  DW_CFA_advance_loc: 56 to 0000000000438360
  DW_CFA_remember_state
  DW_CFA_def_cfa_offset: 56
  DW_CFA_advance_loc: 8 to 0000000000438368
  DW_CFA_def_cfa_offset: 48
  DW_CFA_advance_loc: 1 to 0000000000438369
  DW_CFA_def_cfa_offset: 40
  DW_CFA_advance_loc: 2 to 000000000043836b
  DW_CFA_def_cfa_offset: 32
  DW_CFA_advance_loc: 2 to 000000000043836d
  DW_CFA_def_cfa_offset: 24
  DW_CFA_advance_loc: 2 to 000000000043836f
  DW_CFA_def_cfa_offset: 16
  DW_CFA_advance_loc: 2 to 0000000000438371
  DW_CFA_def_cfa_offset: 8
  DW_CFA_advance_loc: 5 to 0000000000438376
  DW_CFA_restore_state
  DW_CFA_advance_loc: 46 to 00000000004383a4
  DW_CFA_remember_state
  DW_CFA_def_cfa_offset: 56
  DW_CFA_advance_loc: 8 to 00000000004383ac
  DW_CFA_def_cfa_offset: 48
  DW_CFA_advance_loc: 1 to 00000000004383ad
  DW_CFA_def_cfa_offset: 40
  DW_CFA_advance_loc: 2 to 00000000004383af
  DW_CFA_def_cfa_offset: 32
  DW_CFA_advance_loc: 2 to 00000000004383b1
  DW_CFA_def_cfa_offset: 24
  DW_CFA_advance_loc: 2 to 00000000004383b3
  DW_CFA_def_cfa_offset: 16
  DW_CFA_advance_loc: 2 to 00000000004383b5
  DW_CFA_def_cfa_offset: 8
  DW_CFA_advance_loc: 5 to 00000000004383ba
  DW_CFA_restore_state
  DW_CFA_advance_loc: 56 to 00000000004383f2
  DW_CFA_remember_state
  DW_CFA_def_cfa_offset: 56
  DW_CFA_advance_loc: 8 to 00000000004383fa
  DW_CFA_def_cfa_offset: 48
  DW_CFA_advance_loc: 1 to 00000000004383fb
  DW_CFA_def_cfa_offset: 40
  DW_CFA_advance_loc: 2 to 00000000004383fd
  DW_CFA_def_cfa_offset: 32
  DW_CFA_advance_loc: 2 to 00000000004383ff
  DW_CFA_def_cfa_offset: 24
  DW_CFA_advance_loc: 2 to 0000000000438401
  DW_CFA_def_cfa_offset: 16
  DW_CFA_advance_loc: 2 to 0000000000438403
  DW_CFA_def_cfa_offset: 8
  DW_CFA_advance_loc: 5 to 0000000000438408
  DW_CFA_restore_state
  DW_CFA_advance_loc: 46 to 0000000000438436
  DW_CFA_remember_state
  DW_CFA_def_cfa_offset: 56
  DW_CFA_advance_loc: 8 to 000000000043843e
  DW_CFA_def_cfa_offset: 48
  DW_CFA_advance_loc: 1 to 000000000043843f
  DW_CFA_def_cfa_offset: 40
  DW_CFA_advance_loc: 2 to 0000000000438441
  DW_CFA_def_cfa_offset: 32
  DW_CFA_advance_loc: 2 to 0000000000438443
  DW_CFA_def_cfa_offset: 24
  DW_CFA_advance_loc: 2 to 0000000000438445
  DW_CFA_def_cfa_offset: 16
  DW_CFA_advance_loc: 2 to 0000000000438447
  DW_CFA_def_cfa_offset: 8
  DW_CFA_advance_loc: 5 to 000000000043844c
  DW_CFA_restore_state
  DW_CFA_advance_loc: 56 to 0000000000438484
  DW_CFA_remember_state
  DW_CFA_def_cfa_offset: 56
  DW_CFA_advance_loc: 8 to 000000000043848c
  DW_CFA_def_cfa_offset: 48
  DW_CFA_advance_loc: 1 to 000000000043848d
  DW_CFA_def_cfa_offset: 40
  DW_CFA_advance_loc: 2 to 000000000043848f
  DW_CFA_def_cfa_offset: 32
  DW_CFA_advance_loc: 2 to 0000000000438491
  DW_CFA_def_cfa_offset: 24
  DW_CFA_advance_loc: 2 to 0000000000438493
  DW_CFA_def_cfa_offset: 16
  DW_CFA_advance_loc: 2 to 0000000000438495
  DW_CFA_def_cfa_offset: 8
  DW_CFA_advance_loc: 5 to 000000000043849a
  DW_CFA_restore_state
  DW_CFA_advance_loc: 46 to 00000000004384c8
  DW_CFA_remember_state
  DW_CFA_def_cfa_offset: 56
  DW_CFA_advance_loc: 8 to 00000000004384d0
  DW_CFA_def_cfa_offset: 48
  DW_CFA_advance_loc: 1 to 00000000004384d1
  DW_CFA_def_cfa_offset: 40
  DW_CFA_advance_loc: 2 to 00000000004384d3
  DW_CFA_def_cfa_offset: 32
  DW_CFA_advance_loc: 2 to 00000000004384d5
  DW_CFA_def_cfa_offset: 24
  DW_CFA_advance_loc: 2 to 00000000004384d7
  DW_CFA_def_cfa_offset: 16
  DW_CFA_advance_loc: 2 to 00000000004384d9
  DW_CFA_def_cfa_offset: 8
  DW_CFA_advance_loc: 5 to 00000000004384de
  DW_CFA_restore_state
  DW_CFA_advance_loc: 56 to 0000000000438516
  DW_CFA_remember_state
  DW_CFA_def_cfa_offset: 56
  DW_CFA_advance_loc: 8 to 000000000043851e
  DW_CFA_def_cfa_offset: 48
  DW_CFA_advance_loc: 1 to 000000000043851f
  DW_CFA_def_cfa_offset: 40
  DW_CFA_advance_loc: 2 to 0000000000438521
  DW_CFA_def_cfa_offset: 32
  DW_CFA_advance_loc: 2 to 0000000000438523
  DW_CFA_def_cfa_offset: 24
  DW_CFA_advance_loc: 2 to 0000000000438525
  DW_CFA_def_cfa_offset: 16
  DW_CFA_advance_loc: 2 to 0000000000438527
  DW_CFA_def_cfa_offset: 8
  DW_CFA_advance_loc: 5 to 000000000043852c
  DW_CFA_restore_state
  DW_CFA_advance_loc: 46 to 000000000043855a
  DW_CFA_remember_state
  DW_CFA_def_cfa_offset: 56
  DW_CFA_advance_loc: 8 to 0000000000438562
  DW_CFA_def_cfa_offset: 48
  DW_CFA_advance_loc: 1 to 0000000000438563
  DW_CFA_def_cfa_offset: 40
  DW_CFA_advance_loc: 2 to 0000000000438565
  DW_CFA_def_cfa_offset: 32
  DW_CFA_advance_loc: 2 to 0000000000438567
  DW_CFA_def_cfa_offset: 24
  DW_CFA_advance_loc: 2 to 0000000000438569
  DW_CFA_def_cfa_offset: 16
  DW_CFA_advance_loc: 2 to 000000000043856b
  DW_CFA_def_cfa_offset: 8
  DW_CFA_advance_loc: 5 to 0000000000438570
  DW_CFA_restore_state
  DW_CFA_advance_loc: 56 to 00000000004385a8
  DW_CFA_remember_state
  DW_CFA_def_cfa_offset: 56
  DW_CFA_advance_loc: 8 to 00000000004385b0
  DW_CFA_def_cfa_offset: 48
  DW_CFA_advance_loc: 1 to 00000000004385b1
  DW_CFA_def_cfa_offset: 40
  DW_CFA_advance_loc: 2 to 00000000004385b3
  DW_CFA_def_cfa_offset: 32
  DW_CFA_advance_loc: 2 to 00000000004385b5
  DW_CFA_def_cfa_offset: 24
  DW_CFA_advance_loc: 2 to 00000000004385b7
  DW_CFA_def_cfa_offset: 16
  DW_CFA_advance_loc: 2 to 00000000004385b9
  DW_CFA_def_cfa_offset: 8
  DW_CFA_advance_loc: 5 to 00000000004385be
  DW_CFA_restore_state
  DW_CFA_advance_loc: 46 to 00000000004385ec
  DW_CFA_remember_state
  DW_CFA_def_cfa_offset: 56
  DW_CFA_advance_loc: 8 to 00000000004385f4
  DW_CFA_def_cfa_offset: 48
  DW_CFA_advance_loc: 1 to 00000000004385f5
  DW_CFA_def_cfa_offset: 40
  DW_CFA_advance_loc: 2 to 00000000004385f7
  DW_CFA_def_cfa_offset: 32
  DW_CFA_advance_loc: 2 to 00000000004385f9
  DW_CFA_def_cfa_offset: 24
  DW_CFA_advance_loc: 2 to 00000000004385fb
  DW_CFA_def_cfa_offset: 16
  DW_CFA_advance_loc: 2 to 00000000004385fd
  DW_CFA_def_cfa_offset: 8
  DW_CFA_advance_loc: 5 to 0000000000438602
  DW_CFA_restore_state
  DW_CFA_advance_loc: 56 to 000000000043863a
  DW_CFA_remember_state
  DW_CFA_def_cfa_offset: 56
  DW_CFA_advance_loc: 8 to 0000000000438642
  DW_CFA_def_cfa_offset: 48
  DW_CFA_advance_loc: 1 to 0000000000438643
  DW_CFA_def_cfa_offset: 40
  DW_CFA_advance_loc: 2 to 0000000000438645
  DW_CFA_def_cfa_offset: 32
  DW_CFA_advance_loc: 2 to 0000000000438647
  DW_CFA_def_cfa_offset: 24
  DW_CFA_advance_loc: 2 to 0000000000438649
  DW_CFA_def_cfa_offset: 16
  DW_CFA_advance_loc: 2 to 000000000043864b
  DW_CFA_def_cfa_offset: 8
  DW_CFA_advance_loc: 5 to 0000000000438650
  DW_CFA_restore_state
  DW_CFA_advance_loc: 46 to 000000000043867e
  DW_CFA_remember_state
  DW_CFA_def_cfa_offset: 56
  DW_CFA_advance_loc: 8 to 0000000000438686
  DW_CFA_def_cfa_offset: 48
  DW_CFA_advance_loc: 1 to 0000000000438687
  DW_CFA_def_cfa_offset: 40
  DW_CFA_advance_loc: 2 to 0000000000438689
  DW_CFA_def_cfa_offset: 32
  DW_CFA_advance_loc: 2 to 000000000043868b
  DW_CFA_def_cfa_offset: 24
  DW_CFA_advance_loc: 2 to 000000000043868d
  DW_CFA_def_cfa_offset: 16
  DW_CFA_advance_loc: 2 to 000000000043868f
  DW_CFA_def_cfa_offset: 8
  DW_CFA_advance_loc: 5 to 0000000000438694
  DW_CFA_restore_state
  DW_CFA_advance_loc: 56 to 00000000004386cc
  DW_CFA_remember_state
  DW_CFA_def_cfa_offset: 56
  DW_CFA_advance_loc: 8 to 00000000004386d4
  DW_CFA_def_cfa_offset: 48
  DW_CFA_advance_loc: 1 to 00000000004386d5
  DW_CFA_def_cfa_offset: 40
  DW_CFA_advance_loc: 2 to 00000000004386d7
  DW_CFA_def_cfa_offset: 32
  DW_CFA_advance_loc: 2 to 00000000004386d9
  DW_CFA_def_cfa_offset: 24
  DW_CFA_advance_loc: 2 to 00000000004386db
  DW_CFA_def_cfa_offset: 16
  DW_CFA_advance_loc: 2 to 00000000004386dd
  DW_CFA_def_cfa_offset: 8
  DW_CFA_advance_loc: 5 to 00000000004386e2
  DW_CFA_restore_state
  DW_CFA_advance_loc: 46 to 0000000000438710
  DW_CFA_remember_state
  DW_CFA_def_cfa_offset: 56
  DW_CFA_advance_loc: 8 to 0000000000438718
  DW_CFA_def_cfa_offset: 48
  DW_CFA_advance_loc: 1 to 0000000000438719
  DW_CFA_def_cfa_offset: 40
  DW_CFA_advance_loc: 2 to 000000000043871b
  DW_CFA_def_cfa_offset: 32
  DW_CFA_advance_loc: 2 to 000000000043871d
  DW_CFA_def_cfa_offset: 24
  DW_CFA_advance_loc: 2 to 000000000043871f
  DW_CFA_def_cfa_offset: 16
  DW_CFA_advance_loc: 2 to 0000000000438721
  DW_CFA_def_cfa_offset: 8
  DW_CFA_advance_loc: 5 to 0000000000438726
  DW_CFA_restore_state
  DW_CFA_advance_loc: 56 to 000000000043875e
  DW_CFA_remember_state
  DW_CFA_def_cfa_offset: 56
  DW_CFA_advance_loc: 8 to 0000000000438766
  DW_CFA_def_cfa_offset: 48
  DW_CFA_advance_loc: 1 to 0000000000438767
  DW_CFA_def_cfa_offset: 40
  DW_CFA_advance_loc: 2 to 0000000000438769
  DW_CFA_def_cfa_offset: 32
  DW_CFA_advance_loc: 2 to 000000000043876b
  DW_CFA_def_cfa_offset: 24
  DW_CFA_advance_loc: 2 to 000000000043876d
  DW_CFA_def_cfa_offset: 16
  DW_CFA_advance_loc: 2 to 000000000043876f
  DW_CFA_def_cfa_offset: 8
  DW_CFA_advance_loc: 5 to 0000000000438774
  DW_CFA_restore_state
  DW_CFA_advance_loc: 46 to 00000000004387a2
  DW_CFA_remember_state
  DW_CFA_def_cfa_offset: 56
  DW_CFA_advance_loc: 8 to 00000000004387aa
  DW_CFA_def_cfa_offset: 48
  DW_CFA_advance_loc: 1 to 00000000004387ab
  DW_CFA_def_cfa_offset: 40
  DW_CFA_advance_loc: 2 to 00000000004387ad
  DW_CFA_def_cfa_offset: 32
  DW_CFA_advance_loc: 2 to 00000000004387af
  DW_CFA_def_cfa_offset: 24
  DW_CFA_advance_loc: 2 to 00000000004387b1
  DW_CFA_def_cfa_offset: 16
  DW_CFA_advance_loc: 2 to 00000000004387b3
  DW_CFA_def_cfa_offset: 8
  DW_CFA_advance_loc: 5 to 00000000004387b8
  DW_CFA_restore_state
  DW_CFA_advance_loc: 56 to 00000000004387f0
  DW_CFA_remember_state
  DW_CFA_def_cfa_offset: 56
  DW_CFA_advance_loc: 8 to 00000000004387f8
  DW_CFA_def_cfa_offset: 48
  DW_CFA_advance_loc: 1 to 00000000004387f9
  DW_CFA_def_cfa_offset: 40
  DW_CFA_advance_loc: 2 to 00000000004387fb
  DW_CFA_def_cfa_offset: 32
  DW_CFA_advance_loc: 2 to 00000000004387fd
  DW_CFA_def_cfa_offset: 24
  DW_CFA_advance_loc: 2 to 00000000004387ff
  DW_CFA_def_cfa_offset: 16
  DW_CFA_advance_loc: 2 to 0000000000438801
  DW_CFA_def_cfa_offset: 8
  DW_CFA_advance_loc: 5 to 0000000000438806
  DW_CFA_restore_state
  DW_CFA_advance_loc: 46 to 0000000000438834
  DW_CFA_remember_state
  DW_CFA_def_cfa_offset: 56
  DW_CFA_advance_loc: 8 to 000000000043883c
  DW_CFA_def_cfa_offset: 48
  DW_CFA_advance_loc: 1 to 000000000043883d
  DW_CFA_def_cfa_offset: 40
  DW_CFA_advance_loc: 2 to 000000000043883f
  DW_CFA_def_cfa_offset: 32
  DW_CFA_advance_loc: 2 to 0000000000438841
  DW_CFA_def_cfa_offset: 24
  DW_CFA_advance_loc: 2 to 0000000000438843
  DW_CFA_def_cfa_offset: 16
  DW_CFA_advance_loc: 2 to 0000000000438845
  DW_CFA_def_cfa_offset: 8
  DW_CFA_advance_loc: 5 to 000000000043884a
  DW_CFA_restore_state
  DW_CFA_advance_loc: 56 to 0000000000438882
  DW_CFA_remember_state
  DW_CFA_def_cfa_offset: 56
  DW_CFA_advance_loc: 8 to 000000000043888a
  DW_CFA_def_cfa_offset: 48
  DW_CFA_advance_loc: 1 to 000000000043888b
  DW_CFA_def_cfa_offset: 40
  DW_CFA_advance_loc: 2 to 000000000043888d
  DW_CFA_def_cfa_offset: 32
  DW_CFA_advance_loc: 2 to 000000000043888f
  DW_CFA_def_cfa_offset: 24
  DW_CFA_advance_loc: 2 to 0000000000438891
  DW_CFA_def_cfa_offset: 16
  DW_CFA_advance_loc: 2 to 0000000000438893
  DW_CFA_def_cfa_offset: 8
  DW_CFA_advance_loc: 5 to 0000000000438898
  DW_CFA_restore_state
  DW_CFA_advance_loc: 46 to 00000000004388c6
  DW_CFA_remember_state
  DW_CFA_def_cfa_offset: 56
  DW_CFA_advance_loc: 8 to 00000000004388ce
  DW_CFA_def_cfa_offset: 48
  DW_CFA_advance_loc: 1 to 00000000004388cf
  DW_CFA_def_cfa_offset: 40
  DW_CFA_advance_loc: 2 to 00000000004388d1
  DW_CFA_def_cfa_offset: 32
  DW_CFA_advance_loc: 2 to 00000000004388d3
  DW_CFA_def_cfa_offset: 24
  DW_CFA_advance_loc: 2 to 00000000004388d5
  DW_CFA_def_cfa_offset: 16
  DW_CFA_advance_loc: 2 to 00000000004388d7
  DW_CFA_def_cfa_offset: 8
  DW_CFA_advance_loc: 5 to 00000000004388dc
  DW_CFA_restore_state
  DW_CFA_advance_loc: 56 to 0000000000438914
  DW_CFA_remember_state
  DW_CFA_def_cfa_offset: 56
  DW_CFA_advance_loc: 8 to 000000000043891c
  DW_CFA_def_cfa_offset: 48
  DW_CFA_advance_loc: 1 to 000000000043891d
  DW_CFA_def_cfa_offset: 40
  DW_CFA_advance_loc: 2 to 000000000043891f
  DW_CFA_def_cfa_offset: 32
  DW_CFA_advance_loc: 2 to 0000000000438921
  DW_CFA_def_cfa_offset: 24
  DW_CFA_advance_loc: 2 to 0000000000438923
  DW_CFA_def_cfa_offset: 16
  DW_CFA_advance_loc: 2 to 0000000000438925
  DW_CFA_def_cfa_offset: 8
  DW_CFA_advance_loc: 5 to 000000000043892a
  DW_CFA_restore_state
  DW_CFA_advance_loc: 46 to 0000000000438958
  DW_CFA_remember_state
  DW_CFA_def_cfa_offset: 56
  DW_CFA_advance_loc: 8 to 0000000000438960
  DW_CFA_def_cfa_offset: 48
  DW_CFA_advance_loc: 1 to 0000000000438961
  DW_CFA_def_cfa_offset: 40
  DW_CFA_advance_loc: 2 to 0000000000438963
  DW_CFA_def_cfa_offset: 32
  DW_CFA_advance_loc: 2 to 0000000000438965
  DW_CFA_def_cfa_offset: 24
  DW_CFA_advance_loc: 2 to 0000000000438967
  DW_CFA_def_cfa_offset: 16
  DW_CFA_advance_loc: 2 to 0000000000438969
  DW_CFA_def_cfa_offset: 8
  DW_CFA_advance_loc: 5 to 000000000043896e
  DW_CFA_restore_state
  DW_CFA_advance_loc: 56 to 00000000004389a6
  DW_CFA_remember_state
  DW_CFA_def_cfa_offset: 56
  DW_CFA_advance_loc: 8 to 00000000004389ae
  DW_CFA_def_cfa_offset: 48
  DW_CFA_advance_loc: 1 to 00000000004389af
  DW_CFA_def_cfa_offset: 40
  DW_CFA_advance_loc: 2 to 00000000004389b1
  DW_CFA_def_cfa_offset: 32
  DW_CFA_advance_loc: 2 to 00000000004389b3
  DW_CFA_def_cfa_offset: 24
  DW_CFA_advance_loc: 2 to 00000000004389b5
  DW_CFA_def_cfa_offset: 16
  DW_CFA_advance_loc: 2 to 00000000004389b7
  DW_CFA_def_cfa_offset: 8
  DW_CFA_advance_loc: 5 to 00000000004389bc
  DW_CFA_restore_state
  DW_CFA_advance_loc: 46 to 00000000004389ea
  DW_CFA_remember_state
  DW_CFA_def_cfa_offset: 56
  DW_CFA_advance_loc: 8 to 00000000004389f2
  DW_CFA_def_cfa_offset: 48
  DW_CFA_advance_loc: 1 to 00000000004389f3
  DW_CFA_def_cfa_offset: 40
  DW_CFA_advance_loc: 2 to 00000000004389f5
  DW_CFA_def_cfa_offset: 32
  DW_CFA_advance_loc: 2 to 00000000004389f7
  DW_CFA_def_cfa_offset: 24
  DW_CFA_advance_loc: 2 to 00000000004389f9
  DW_CFA_def_cfa_offset: 16
  DW_CFA_advance_loc: 2 to 00000000004389fb
  DW_CFA_def_cfa_offset: 8
  DW_CFA_advance_loc: 5 to 0000000000438a00
  DW_CFA_restore_state
  DW_CFA_advance_loc: 56 to 0000000000438a38
  DW_CFA_remember_state
  DW_CFA_def_cfa_offset: 56
  DW_CFA_advance_loc: 8 to 0000000000438a40
  DW_CFA_def_cfa_offset: 48
  DW_CFA_advance_loc: 1 to 0000000000438a41
  DW_CFA_def_cfa_offset: 40
  DW_CFA_advance_loc: 2 to 0000000000438a43
  DW_CFA_def_cfa_offset: 32
  DW_CFA_advance_loc: 2 to 0000000000438a45
  DW_CFA_def_cfa_offset: 24
  DW_CFA_advance_loc: 2 to 0000000000438a47
  DW_CFA_def_cfa_offset: 16
  DW_CFA_advance_loc: 2 to 0000000000438a49
  DW_CFA_def_cfa_offset: 8
  DW_CFA_advance_loc: 5 to 0000000000438a4e
  DW_CFA_restore_state
  DW_CFA_advance_loc: 46 to 0000000000438a7c
  DW_CFA_remember_state
  DW_CFA_def_cfa_offset: 56
  DW_CFA_advance_loc: 8 to 0000000000438a84
  DW_CFA_def_cfa_offset: 48
  DW_CFA_advance_loc: 1 to 0000000000438a85
  DW_CFA_def_cfa_offset: 40
  DW_CFA_advance_loc: 2 to 0000000000438a87
  DW_CFA_def_cfa_offset: 32
  DW_CFA_advance_loc: 2 to 0000000000438a89
  DW_CFA_def_cfa_offset: 24
  DW_CFA_advance_loc: 2 to 0000000000438a8b
  DW_CFA_def_cfa_offset: 16
  DW_CFA_advance_loc: 2 to 0000000000438a8d
  DW_CFA_def_cfa_offset: 8
  DW_CFA_advance_loc: 5 to 0000000000438a92
  DW_CFA_restore_state
  DW_CFA_advance_loc: 56 to 0000000000438aca
  DW_CFA_remember_state
  DW_CFA_def_cfa_offset: 56
  DW_CFA_advance_loc: 8 to 0000000000438ad2
  DW_CFA_def_cfa_offset: 48
  DW_CFA_advance_loc: 1 to 0000000000438ad3
  DW_CFA_def_cfa_offset: 40
  DW_CFA_advance_loc: 2 to 0000000000438ad5
  DW_CFA_def_cfa_offset: 32
  DW_CFA_advance_loc: 2 to 0000000000438ad7
  DW_CFA_def_cfa_offset: 24
  DW_CFA_advance_loc: 2 to 0000000000438ad9
  DW_CFA_def_cfa_offset: 16
  DW_CFA_advance_loc: 2 to 0000000000438adb
  DW_CFA_def_cfa_offset: 8
  DW_CFA_advance_loc: 5 to 0000000000438ae0
  DW_CFA_restore_state
  DW_CFA_advance_loc: 46 to 0000000000438b0e
  DW_CFA_remember_state
  DW_CFA_def_cfa_offset: 56
  DW_CFA_advance_loc: 8 to 0000000000438b16
  DW_CFA_def_cfa_offset: 48
  DW_CFA_advance_loc: 1 to 0000000000438b17
  DW_CFA_def_cfa_offset: 40
  DW_CFA_advance_loc: 2 to 0000000000438b19
  DW_CFA_def_cfa_offset: 32
  DW_CFA_advance_loc: 2 to 0000000000438b1b
  DW_CFA_def_cfa_offset: 24
  DW_CFA_advance_loc: 2 to 0000000000438b1d
  DW_CFA_def_cfa_offset: 16
  DW_CFA_advance_loc: 2 to 0000000000438b1f
  DW_CFA_def_cfa_offset: 8
  DW_CFA_advance_loc: 5 to 0000000000438b24
  DW_CFA_restore_state
  DW_CFA_advance_loc: 56 to 0000000000438b5c
  DW_CFA_remember_state
  DW_CFA_def_cfa_offset: 56
  DW_CFA_advance_loc: 8 to 0000000000438b64
  DW_CFA_def_cfa_offset: 48
  DW_CFA_advance_loc: 1 to 0000000000438b65
  DW_CFA_def_cfa_offset: 40
  DW_CFA_advance_loc: 2 to 0000000000438b67
  DW_CFA_def_cfa_offset: 32
  DW_CFA_advance_loc: 2 to 0000000000438b69
  DW_CFA_def_cfa_offset: 24
  DW_CFA_advance_loc: 2 to 0000000000438b6b
  DW_CFA_def_cfa_offset: 16
  DW_CFA_advance_loc: 2 to 0000000000438b6d
  DW_CFA_def_cfa_offset: 8
  DW_CFA_advance_loc: 5 to 0000000000438b72
  DW_CFA_restore_state
  DW_CFA_advance_loc: 46 to 0000000000438ba0
  DW_CFA_remember_state
  DW_CFA_def_cfa_offset: 56
  DW_CFA_advance_loc: 8 to 0000000000438ba8
  DW_CFA_def_cfa_offset: 48
  DW_CFA_advance_loc: 1 to 0000000000438ba9
  DW_CFA_def_cfa_offset: 40
  DW_CFA_advance_loc: 2 to 0000000000438bab
  DW_CFA_def_cfa_offset: 32
  DW_CFA_advance_loc: 2 to 0000000000438bad
  DW_CFA_def_cfa_offset: 24
  DW_CFA_advance_loc: 2 to 0000000000438baf
  DW_CFA_def_cfa_offset: 16
  DW_CFA_advance_loc: 2 to 0000000000438bb1
  DW_CFA_def_cfa_offset: 8
  DW_CFA_advance_loc: 5 to 0000000000438bb6
  DW_CFA_restore_state
  DW_CFA_advance_loc: 56 to 0000000000438bee
  DW_CFA_remember_state
  DW_CFA_def_cfa_offset: 56
  DW_CFA_advance_loc: 8 to 0000000000438bf6
  DW_CFA_def_cfa_offset: 48
  DW_CFA_advance_loc: 1 to 0000000000438bf7
  DW_CFA_def_cfa_offset: 40
  DW_CFA_advance_loc: 2 to 0000000000438bf9
  DW_CFA_def_cfa_offset: 32
  DW_CFA_advance_loc: 2 to 0000000000438bfb
  DW_CFA_def_cfa_offset: 24
  DW_CFA_advance_loc: 2 to 0000000000438bfd
  DW_CFA_def_cfa_offset: 16
  DW_CFA_advance_loc: 2 to 0000000000438bff
  DW_CFA_def_cfa_offset: 8
  DW_CFA_advance_loc: 5 to 0000000000438c04
  DW_CFA_restore_state
  DW_CFA_advance_loc: 46 to 0000000000438c32
  DW_CFA_remember_state
  DW_CFA_def_cfa_offset: 56
  DW_CFA_advance_loc: 8 to 0000000000438c3a
  DW_CFA_def_cfa_offset: 48
  DW_CFA_advance_loc: 1 to 0000000000438c3b
  DW_CFA_def_cfa_offset: 40
  DW_CFA_advance_loc: 2 to 0000000000438c3d
  DW_CFA_def_cfa_offset: 32
  DW_CFA_advance_loc: 2 to 0000000000438c3f
  DW_CFA_def_cfa_offset: 24
  DW_CFA_advance_loc: 2 to 0000000000438c41
  DW_CFA_def_cfa_offset: 16
  DW_CFA_advance_loc: 2 to 0000000000438c43
  DW_CFA_def_cfa_offset: 8
  DW_CFA_advance_loc: 5 to 0000000000438c48
  DW_CFA_restore_state
  DW_CFA_advance_loc: 56 to 0000000000438c80
  DW_CFA_remember_state
  DW_CFA_def_cfa_offset: 56
  DW_CFA_advance_loc: 8 to 0000000000438c88
  DW_CFA_def_cfa_offset: 48
  DW_CFA_advance_loc: 1 to 0000000000438c89
  DW_CFA_def_cfa_offset: 40
  DW_CFA_advance_loc: 2 to 0000000000438c8b
  DW_CFA_def_cfa_offset: 32
  DW_CFA_advance_loc: 2 to 0000000000438c8d
  DW_CFA_def_cfa_offset: 24
  DW_CFA_advance_loc: 2 to 0000000000438c8f
  DW_CFA_def_cfa_offset: 16
  DW_CFA_advance_loc: 2 to 0000000000438c91
  DW_CFA_def_cfa_offset: 8
  DW_CFA_advance_loc: 5 to 0000000000438c96
  DW_CFA_restore_state
  DW_CFA_advance_loc: 46 to 0000000000438cc4
  DW_CFA_remember_state
  DW_CFA_def_cfa_offset: 56
  DW_CFA_advance_loc: 8 to 0000000000438ccc
  DW_CFA_def_cfa_offset: 48
  DW_CFA_advance_loc: 1 to 0000000000438ccd
  DW_CFA_def_cfa_offset: 40
  DW_CFA_advance_loc: 2 to 0000000000438ccf
  DW_CFA_def_cfa_offset: 32
  DW_CFA_advance_loc: 2 to 0000000000438cd1
  DW_CFA_def_cfa_offset: 24
  DW_CFA_advance_loc: 2 to 0000000000438cd3
  DW_CFA_def_cfa_offset: 16
  DW_CFA_advance_loc: 2 to 0000000000438cd5
  DW_CFA_def_cfa_offset: 8
  DW_CFA_advance_loc: 5 to 0000000000438cda
  DW_CFA_restore_state
  DW_CFA_advance_loc: 56 to 0000000000438d12
  DW_CFA_remember_state
  DW_CFA_def_cfa_offset: 56
  DW_CFA_advance_loc: 8 to 0000000000438d1a
  DW_CFA_def_cfa_offset: 48
  DW_CFA_advance_loc: 1 to 0000000000438d1b
  DW_CFA_def_cfa_offset: 40
  DW_CFA_advance_loc: 2 to 0000000000438d1d
  DW_CFA_def_cfa_offset: 32
  DW_CFA_advance_loc: 2 to 0000000000438d1f
  DW_CFA_def_cfa_offset: 24
  DW_CFA_advance_loc: 2 to 0000000000438d21
  DW_CFA_def_cfa_offset: 16
  DW_CFA_advance_loc: 2 to 0000000000438d23
  DW_CFA_def_cfa_offset: 8
  DW_CFA_advance_loc: 5 to 0000000000438d28
  DW_CFA_restore_state
  DW_CFA_advance_loc: 46 to 0000000000438d56
  DW_CFA_remember_state
  DW_CFA_def_cfa_offset: 56
  DW_CFA_advance_loc: 8 to 0000000000438d5e
  DW_CFA_def_cfa_offset: 48
  DW_CFA_advance_loc: 1 to 0000000000438d5f
  DW_CFA_def_cfa_offset: 40
  DW_CFA_advance_loc: 2 to 0000000000438d61
  DW_CFA_def_cfa_offset: 32
  DW_CFA_advance_loc: 2 to 0000000000438d63
  DW_CFA_def_cfa_offset: 24
  DW_CFA_advance_loc: 2 to 0000000000438d65
  DW_CFA_def_cfa_offset: 16
  DW_CFA_advance_loc: 2 to 0000000000438d67
  DW_CFA_def_cfa_offset: 8
  DW_CFA_advance_loc: 5 to 0000000000438d6c
  DW_CFA_restore_state
  DW_CFA_advance_loc: 56 to 0000000000438da4
  DW_CFA_remember_state
  DW_CFA_def_cfa_offset: 56
  DW_CFA_advance_loc: 8 to 0000000000438dac
  DW_CFA_def_cfa_offset: 48
  DW_CFA_advance_loc: 1 to 0000000000438dad
  DW_CFA_def_cfa_offset: 40
  DW_CFA_advance_loc: 2 to 0000000000438daf
  DW_CFA_def_cfa_offset: 32
  DW_CFA_advance_loc: 2 to 0000000000438db1
  DW_CFA_def_cfa_offset: 24
  DW_CFA_advance_loc: 2 to 0000000000438db3
  DW_CFA_def_cfa_offset: 16
  DW_CFA_advance_loc: 2 to 0000000000438db5
  DW_CFA_def_cfa_offset: 8
  DW_CFA_advance_loc: 5 to 0000000000438dba
  DW_CFA_restore_state
  DW_CFA_advance_loc: 46 to 0000000000438de8
  DW_CFA_remember_state
  DW_CFA_def_cfa_offset: 56
  DW_CFA_advance_loc: 8 to 0000000000438df0
  DW_CFA_def_cfa_offset: 48
  DW_CFA_advance_loc: 1 to 0000000000438df1
  DW_CFA_def_cfa_offset: 40
  DW_CFA_advance_loc: 2 to 0000000000438df3
  DW_CFA_def_cfa_offset: 32
  DW_CFA_advance_loc: 2 to 0000000000438df5
  DW_CFA_def_cfa_offset: 24
  DW_CFA_advance_loc: 2 to 0000000000438df7
  DW_CFA_def_cfa_offset: 16
  DW_CFA_advance_loc: 2 to 0000000000438df9
  DW_CFA_def_cfa_offset: 8
  DW_CFA_advance_loc: 5 to 0000000000438dfe
  DW_CFA_restore_state
  DW_CFA_advance_loc: 56 to 0000000000438e36
  DW_CFA_remember_state
  DW_CFA_def_cfa_offset: 56
  DW_CFA_advance_loc: 8 to 0000000000438e3e
  DW_CFA_def_cfa_offset: 48
  DW_CFA_advance_loc: 1 to 0000000000438e3f
  DW_CFA_def_cfa_offset: 40
  DW_CFA_advance_loc: 2 to 0000000000438e41
  DW_CFA_def_cfa_offset: 32
  DW_CFA_advance_loc: 2 to 0000000000438e43
  DW_CFA_def_cfa_offset: 24
  DW_CFA_advance_loc: 2 to 0000000000438e45
  DW_CFA_def_cfa_offset: 16
  DW_CFA_advance_loc: 2 to 0000000000438e47
  DW_CFA_def_cfa_offset: 8
  DW_CFA_advance_loc: 5 to 0000000000438e4c
  DW_CFA_restore_state
  DW_CFA_advance_loc: 46 to 0000000000438e7a
  DW_CFA_remember_state
  DW_CFA_def_cfa_offset: 56
  DW_CFA_advance_loc: 8 to 0000000000438e82
  DW_CFA_def_cfa_offset: 48
  DW_CFA_advance_loc: 1 to 0000000000438e83
  DW_CFA_def_cfa_offset: 40
  DW_CFA_advance_loc: 2 to 0000000000438e85
  DW_CFA_def_cfa_offset: 32
  DW_CFA_advance_loc: 2 to 0000000000438e87
  DW_CFA_def_cfa_offset: 24
  DW_CFA_advance_loc: 2 to 0000000000438e89
  DW_CFA_def_cfa_offset: 16
  DW_CFA_advance_loc: 2 to 0000000000438e8b
  DW_CFA_def_cfa_offset: 8
  DW_CFA_advance_loc: 5 to 0000000000438e90
  DW_CFA_restore_state
  DW_CFA_advance_loc: 56 to 0000000000438ec8
  DW_CFA_remember_state
  DW_CFA_def_cfa_offset: 56
  DW_CFA_advance_loc: 8 to 0000000000438ed0
  DW_CFA_def_cfa_offset: 48
  DW_CFA_advance_loc: 1 to 0000000000438ed1
  DW_CFA_def_cfa_offset: 40
  DW_CFA_advance_loc: 2 to 0000000000438ed3
  DW_CFA_def_cfa_offset: 32
  DW_CFA_advance_loc: 2 to 0000000000438ed5
  DW_CFA_def_cfa_offset: 24
  DW_CFA_advance_loc: 2 to 0000000000438ed7
  DW_CFA_def_cfa_offset: 16
  DW_CFA_advance_loc: 2 to 0000000000438ed9
  DW_CFA_def_cfa_offset: 8
  DW_CFA_advance_loc: 5 to 0000000000438ede
  DW_CFA_restore_state
  DW_CFA_advance_loc: 46 to 0000000000438f0c
  DW_CFA_remember_state
  DW_CFA_def_cfa_offset: 56
  DW_CFA_advance_loc: 8 to 0000000000438f14
  DW_CFA_def_cfa_offset: 48
  DW_CFA_advance_loc: 1 to 0000000000438f15
  DW_CFA_def_cfa_offset: 40
  DW_CFA_advance_loc: 2 to 0000000000438f17
  DW_CFA_def_cfa_offset: 32
  DW_CFA_advance_loc: 2 to 0000000000438f19
  DW_CFA_def_cfa_offset: 24
  DW_CFA_advance_loc: 2 to 0000000000438f1b
  DW_CFA_def_cfa_offset: 16
  DW_CFA_advance_loc: 2 to 0000000000438f1d
  DW_CFA_def_cfa_offset: 8
  DW_CFA_advance_loc: 5 to 0000000000438f22
  DW_CFA_restore_state
  DW_CFA_advance_loc: 56 to 0000000000438f5a
  DW_CFA_remember_state
  DW_CFA_def_cfa_offset: 56
  DW_CFA_advance_loc: 8 to 0000000000438f62
  DW_CFA_def_cfa_offset: 48
  DW_CFA_advance_loc: 1 to 0000000000438f63
  DW_CFA_def_cfa_offset: 40
  DW_CFA_advance_loc: 2 to 0000000000438f65
  DW_CFA_def_cfa_offset: 32
  DW_CFA_advance_loc: 2 to 0000000000438f67
  DW_CFA_def_cfa_offset: 24
  DW_CFA_advance_loc: 2 to 0000000000438f69
  DW_CFA_def_cfa_offset: 16
  DW_CFA_advance_loc: 2 to 0000000000438f6b
  DW_CFA_def_cfa_offset: 8
  DW_CFA_advance_loc: 5 to 0000000000438f70
  DW_CFA_restore_state
  DW_CFA_advance_loc: 46 to 0000000000438f9e
  DW_CFA_remember_state
  DW_CFA_def_cfa_offset: 56
  DW_CFA_advance_loc: 8 to 0000000000438fa6
  DW_CFA_def_cfa_offset: 48
  DW_CFA_advance_loc: 1 to 0000000000438fa7
  DW_CFA_def_cfa_offset: 40
  DW_CFA_advance_loc: 2 to 0000000000438fa9
  DW_CFA_def_cfa_offset: 32
  DW_CFA_advance_loc: 2 to 0000000000438fab
  DW_CFA_def_cfa_offset: 24
  DW_CFA_advance_loc: 2 to 0000000000438fad
  DW_CFA_def_cfa_offset: 16
  DW_CFA_advance_loc: 2 to 0000000000438faf
  DW_CFA_def_cfa_offset: 8
  DW_CFA_advance_loc: 5 to 0000000000438fb4
  DW_CFA_restore_state
  DW_CFA_advance_loc: 56 to 0000000000438fec
  DW_CFA_remember_state
  DW_CFA_def_cfa_offset: 56
  DW_CFA_advance_loc: 8 to 0000000000438ff4
  DW_CFA_def_cfa_offset: 48
  DW_CFA_advance_loc: 1 to 0000000000438ff5
  DW_CFA_def_cfa_offset: 40
  DW_CFA_advance_loc: 2 to 0000000000438ff7
  DW_CFA_def_cfa_offset: 32
  DW_CFA_advance_loc: 2 to 0000000000438ff9
  DW_CFA_def_cfa_offset: 24
  DW_CFA_advance_loc: 2 to 0000000000438ffb
  DW_CFA_def_cfa_offset: 16
  DW_CFA_advance_loc: 2 to 0000000000438ffd
  DW_CFA_def_cfa_offset: 8
  DW_CFA_advance_loc: 5 to 0000000000439002
  DW_CFA_restore_state
  DW_CFA_advance_loc: 46 to 0000000000439030
  DW_CFA_remember_state
  DW_CFA_def_cfa_offset: 56
  DW_CFA_advance_loc: 8 to 0000000000439038
  DW_CFA_def_cfa_offset: 48
  DW_CFA_advance_loc: 1 to 0000000000439039
  DW_CFA_def_cfa_offset: 40
  DW_CFA_advance_loc: 2 to 000000000043903b
  DW_CFA_def_cfa_offset: 32
  DW_CFA_advance_loc: 2 to 000000000043903d
  DW_CFA_def_cfa_offset: 24
  DW_CFA_advance_loc: 2 to 000000000043903f
  DW_CFA_def_cfa_offset: 16
  DW_CFA_advance_loc: 2 to 0000000000439041
  DW_CFA_def_cfa_offset: 8
  DW_CFA_advance_loc: 5 to 0000000000439046
  DW_CFA_restore_state
  DW_CFA_advance_loc: 56 to 000000000043907e
  DW_CFA_remember_state
  DW_CFA_def_cfa_offset: 56
  DW_CFA_advance_loc: 8 to 0000000000439086
  DW_CFA_def_cfa_offset: 48
  DW_CFA_advance_loc: 1 to 0000000000439087
  DW_CFA_def_cfa_offset: 40
  DW_CFA_advance_loc: 2 to 0000000000439089
  DW_CFA_def_cfa_offset: 32
  DW_CFA_advance_loc: 2 to 000000000043908b
  DW_CFA_def_cfa_offset: 24
  DW_CFA_advance_loc: 2 to 000000000043908d
  DW_CFA_def_cfa_offset: 16
  DW_CFA_advance_loc: 2 to 000000000043908f
  DW_CFA_def_cfa_offset: 8
  DW_CFA_advance_loc: 5 to 0000000000439094
  DW_CFA_restore_state
  DW_CFA_advance_loc: 46 to 00000000004390c2
  DW_CFA_remember_state
  DW_CFA_def_cfa_offset: 56
  DW_CFA_advance_loc: 8 to 00000000004390ca
  DW_CFA_def_cfa_offset: 48
  DW_CFA_advance_loc: 1 to 00000000004390cb
  DW_CFA_def_cfa_offset: 40
  DW_CFA_advance_loc: 2 to 00000000004390cd
  DW_CFA_def_cfa_offset: 32
  DW_CFA_advance_loc: 2 to 00000000004390cf
  DW_CFA_def_cfa_offset: 24
  DW_CFA_advance_loc: 2 to 00000000004390d1
  DW_CFA_def_cfa_offset: 16
  DW_CFA_advance_loc: 2 to 00000000004390d3
  DW_CFA_def_cfa_offset: 8
  DW_CFA_advance_loc: 5 to 00000000004390d8
  DW_CFA_restore_state
  DW_CFA_advance_loc: 56 to 0000000000439110
  DW_CFA_remember_state
  DW_CFA_def_cfa_offset: 56
  DW_CFA_advance_loc: 8 to 0000000000439118
  DW_CFA_def_cfa_offset: 48
  DW_CFA_advance_loc: 1 to 0000000000439119
  DW_CFA_def_cfa_offset: 40
  DW_CFA_advance_loc: 2 to 000000000043911b
  DW_CFA_def_cfa_offset: 32
  DW_CFA_advance_loc: 2 to 000000000043911d
  DW_CFA_def_cfa_offset: 24
  DW_CFA_advance_loc: 2 to 000000000043911f
  DW_CFA_def_cfa_offset: 16
  DW_CFA_advance_loc: 2 to 0000000000439121
  DW_CFA_def_cfa_offset: 8
  DW_CFA_advance_loc: 5 to 0000000000439126
  DW_CFA_restore_state
  DW_CFA_advance_loc: 46 to 0000000000439154
  DW_CFA_remember_state
  DW_CFA_def_cfa_offset: 56
  DW_CFA_advance_loc: 8 to 000000000043915c
  DW_CFA_def_cfa_offset: 48
  DW_CFA_advance_loc: 1 to 000000000043915d
  DW_CFA_def_cfa_offset: 40
  DW_CFA_advance_loc: 2 to 000000000043915f
  DW_CFA_def_cfa_offset: 32
  DW_CFA_advance_loc: 2 to 0000000000439161
  DW_CFA_def_cfa_offset: 24
  DW_CFA_advance_loc: 2 to 0000000000439163
  DW_CFA_def_cfa_offset: 16
  DW_CFA_advance_loc: 2 to 0000000000439165
  DW_CFA_def_cfa_offset: 8
  DW_CFA_advance_loc: 5 to 000000000043916a
  DW_CFA_restore_state
  DW_CFA_advance_loc: 56 to 00000000004391a2
  DW_CFA_remember_state
  DW_CFA_def_cfa_offset: 56
  DW_CFA_advance_loc: 8 to 00000000004391aa
  DW_CFA_def_cfa_offset: 48
  DW_CFA_advance_loc: 1 to 00000000004391ab
  DW_CFA_def_cfa_offset: 40
  DW_CFA_advance_loc: 2 to 00000000004391ad
  DW_CFA_def_cfa_offset: 32
  DW_CFA_advance_loc: 2 to 00000000004391af
  DW_CFA_def_cfa_offset: 24
  DW_CFA_advance_loc: 2 to 00000000004391b1
  DW_CFA_def_cfa_offset: 16
  DW_CFA_advance_loc: 2 to 00000000004391b3
  DW_CFA_def_cfa_offset: 8
  DW_CFA_advance_loc: 5 to 00000000004391b8
  DW_CFA_restore_state
  DW_CFA_advance_loc: 46 to 00000000004391e6
  DW_CFA_remember_state
  DW_CFA_def_cfa_offset: 56
  DW_CFA_advance_loc: 8 to 00000000004391ee
  DW_CFA_def_cfa_offset: 48
  DW_CFA_advance_loc: 1 to 00000000004391ef
  DW_CFA_def_cfa_offset: 40
  DW_CFA_advance_loc: 2 to 00000000004391f1
  DW_CFA_def_cfa_offset: 32
  DW_CFA_advance_loc: 2 to 00000000004391f3
  DW_CFA_def_cfa_offset: 24
  DW_CFA_advance_loc: 2 to 00000000004391f5
  DW_CFA_def_cfa_offset: 16
  DW_CFA_advance_loc: 2 to 00000000004391f7
  DW_CFA_def_cfa_offset: 8
  DW_CFA_advance_loc: 5 to 00000000004391fc
  DW_CFA_restore_state
  DW_CFA_advance_loc: 56 to 0000000000439234
  DW_CFA_remember_state
  DW_CFA_def_cfa_offset: 56
  DW_CFA_advance_loc: 8 to 000000000043923c
  DW_CFA_def_cfa_offset: 48
  DW_CFA_advance_loc: 1 to 000000000043923d
  DW_CFA_def_cfa_offset: 40
  DW_CFA_advance_loc: 2 to 000000000043923f
  DW_CFA_def_cfa_offset: 32
  DW_CFA_advance_loc: 2 to 0000000000439241
  DW_CFA_def_cfa_offset: 24
  DW_CFA_advance_loc: 2 to 0000000000439243
  DW_CFA_def_cfa_offset: 16
  DW_CFA_advance_loc: 2 to 0000000000439245
  DW_CFA_def_cfa_offset: 8
  DW_CFA_advance_loc: 5 to 000000000043924a
  DW_CFA_restore_state
  DW_CFA_advance_loc: 46 to 0000000000439278
  DW_CFA_remember_state
  DW_CFA_def_cfa_offset: 56
  DW_CFA_advance_loc: 8 to 0000000000439280
  DW_CFA_def_cfa_offset: 48
  DW_CFA_advance_loc: 1 to 0000000000439281
  DW_CFA_def_cfa_offset: 40
  DW_CFA_advance_loc: 2 to 0000000000439283
  DW_CFA_def_cfa_offset: 32
  DW_CFA_advance_loc: 2 to 0000000000439285
  DW_CFA_def_cfa_offset: 24
  DW_CFA_advance_loc: 2 to 0000000000439287
  DW_CFA_def_cfa_offset: 16
  DW_CFA_advance_loc: 2 to 0000000000439289
  DW_CFA_def_cfa_offset: 8
  DW_CFA_advance_loc: 5 to 000000000043928e
  DW_CFA_restore_state
  DW_CFA_advance_loc: 56 to 00000000004392c6
  DW_CFA_remember_state
  DW_CFA_def_cfa_offset: 56
  DW_CFA_advance_loc: 8 to 00000000004392ce
  DW_CFA_def_cfa_offset: 48
  DW_CFA_advance_loc: 1 to 00000000004392cf
  DW_CFA_def_cfa_offset: 40
  DW_CFA_advance_loc: 2 to 00000000004392d1
  DW_CFA_def_cfa_offset: 32
  DW_CFA_advance_loc: 2 to 00000000004392d3
  DW_CFA_def_cfa_offset: 24
  DW_CFA_advance_loc: 2 to 00000000004392d5
  DW_CFA_def_cfa_offset: 16
  DW_CFA_advance_loc: 2 to 00000000004392d7
  DW_CFA_def_cfa_offset: 8
  DW_CFA_advance_loc: 5 to 00000000004392dc
  DW_CFA_restore_state
  DW_CFA_advance_loc: 46 to 000000000043930a
  DW_CFA_remember_state
  DW_CFA_def_cfa_offset: 56
  DW_CFA_advance_loc: 8 to 0000000000439312
  DW_CFA_def_cfa_offset: 48
  DW_CFA_advance_loc: 1 to 0000000000439313
  DW_CFA_def_cfa_offset: 40
  DW_CFA_advance_loc: 2 to 0000000000439315
  DW_CFA_def_cfa_offset: 32
  DW_CFA_advance_loc: 2 to 0000000000439317
  DW_CFA_def_cfa_offset: 24
  DW_CFA_advance_loc: 2 to 0000000000439319
  DW_CFA_def_cfa_offset: 16
  DW_CFA_advance_loc: 2 to 000000000043931b
  DW_CFA_def_cfa_offset: 8
  DW_CFA_advance_loc: 5 to 0000000000439320
  DW_CFA_restore_state
  DW_CFA_advance_loc: 56 to 0000000000439358
  DW_CFA_remember_state
  DW_CFA_def_cfa_offset: 56
  DW_CFA_advance_loc: 8 to 0000000000439360
  DW_CFA_def_cfa_offset: 48
  DW_CFA_advance_loc: 1 to 0000000000439361
  DW_CFA_def_cfa_offset: 40
  DW_CFA_advance_loc: 2 to 0000000000439363
  DW_CFA_def_cfa_offset: 32
  DW_CFA_advance_loc: 2 to 0000000000439365
  DW_CFA_def_cfa_offset: 24
  DW_CFA_advance_loc: 2 to 0000000000439367
  DW_CFA_def_cfa_offset: 16
  DW_CFA_advance_loc: 2 to 0000000000439369
  DW_CFA_def_cfa_offset: 8
  DW_CFA_advance_loc: 5 to 000000000043936e
  DW_CFA_restore_state
  DW_CFA_advance_loc: 46 to 000000000043939c
  DW_CFA_remember_state
  DW_CFA_def_cfa_offset: 56
  DW_CFA_advance_loc: 8 to 00000000004393a4
  DW_CFA_def_cfa_offset: 48
  DW_CFA_advance_loc: 1 to 00000000004393a5
  DW_CFA_def_cfa_offset: 40
  DW_CFA_advance_loc: 2 to 00000000004393a7
  DW_CFA_def_cfa_offset: 32
  DW_CFA_advance_loc: 2 to 00000000004393a9
  DW_CFA_def_cfa_offset: 24
  DW_CFA_advance_loc: 2 to 00000000004393ab
  DW_CFA_def_cfa_offset: 16
  DW_CFA_advance_loc: 2 to 00000000004393ad
  DW_CFA_def_cfa_offset: 8
  DW_CFA_advance_loc: 5 to 00000000004393b2
  DW_CFA_restore_state
  DW_CFA_advance_loc: 56 to 00000000004393ea
  DW_CFA_remember_state
  DW_CFA_def_cfa_offset: 56
  DW_CFA_advance_loc: 8 to 00000000004393f2
  DW_CFA_def_cfa_offset: 48
  DW_CFA_advance_loc: 1 to 00000000004393f3
  DW_CFA_def_cfa_offset: 40
  DW_CFA_advance_loc: 2 to 00000000004393f5
  DW_CFA_def_cfa_offset: 32
  DW_CFA_advance_loc: 2 to 00000000004393f7
  DW_CFA_def_cfa_offset: 24
  DW_CFA_advance_loc: 2 to 00000000004393f9
  DW_CFA_def_cfa_offset: 16
  DW_CFA_advance_loc: 2 to 00000000004393fb
  DW_CFA_def_cfa_offset: 8
  DW_CFA_advance_loc: 5 to 0000000000439400
  DW_CFA_restore_state
  DW_CFA_advance_loc: 46 to 000000000043942e
  DW_CFA_remember_state
  DW_CFA_def_cfa_offset: 56
  DW_CFA_advance_loc: 8 to 0000000000439436
  DW_CFA_def_cfa_offset: 48
  DW_CFA_advance_loc: 1 to 0000000000439437
  DW_CFA_def_cfa_offset: 40
  DW_CFA_advance_loc: 2 to 0000000000439439
  DW_CFA_def_cfa_offset: 32
  DW_CFA_advance_loc: 2 to 000000000043943b
  DW_CFA_def_cfa_offset: 24
  DW_CFA_advance_loc: 2 to 000000000043943d
  DW_CFA_def_cfa_offset: 16
  DW_CFA_advance_loc: 2 to 000000000043943f
  DW_CFA_def_cfa_offset: 8
  DW_CFA_advance_loc: 5 to 0000000000439444
  DW_CFA_restore_state
  DW_CFA_advance_loc: 56 to 000000000043947c
  DW_CFA_remember_state
  DW_CFA_def_cfa_offset: 56
  DW_CFA_advance_loc: 8 to 0000000000439484
  DW_CFA_def_cfa_offset: 48
  DW_CFA_advance_loc: 1 to 0000000000439485
  DW_CFA_def_cfa_offset: 40
  DW_CFA_advance_loc: 2 to 0000000000439487
  DW_CFA_def_cfa_offset: 32
  DW_CFA_advance_loc: 2 to 0000000000439489
  DW_CFA_def_cfa_offset: 24
  DW_CFA_advance_loc: 2 to 000000000043948b
  DW_CFA_def_cfa_offset: 16
  DW_CFA_advance_loc: 2 to 000000000043948d
  DW_CFA_def_cfa_offset: 8
  DW_CFA_advance_loc: 5 to 0000000000439492
  DW_CFA_restore_state
  DW_CFA_advance_loc: 46 to 00000000004394c0
  DW_CFA_remember_state
  DW_CFA_def_cfa_offset: 56
  DW_CFA_advance_loc: 8 to 00000000004394c8
  DW_CFA_def_cfa_offset: 48
  DW_CFA_advance_loc: 1 to 00000000004394c9
  DW_CFA_def_cfa_offset: 40
  DW_CFA_advance_loc: 2 to 00000000004394cb
  DW_CFA_def_cfa_offset: 32
  DW_CFA_advance_loc: 2 to 00000000004394cd
  DW_CFA_def_cfa_offset: 24
  DW_CFA_advance_loc: 2 to 00000000004394cf
  DW_CFA_def_cfa_offset: 16
  DW_CFA_advance_loc: 2 to 00000000004394d1
  DW_CFA_def_cfa_offset: 8
  DW_CFA_advance_loc: 5 to 00000000004394d6
  DW_CFA_restore_state
  DW_CFA_advance_loc: 56 to 000000000043950e
  DW_CFA_remember_state
  DW_CFA_def_cfa_offset: 56
  DW_CFA_advance_loc: 8 to 0000000000439516
  DW_CFA_def_cfa_offset: 48
  DW_CFA_advance_loc: 1 to 0000000000439517
  DW_CFA_def_cfa_offset: 40
  DW_CFA_advance_loc: 2 to 0000000000439519
  DW_CFA_def_cfa_offset: 32
  DW_CFA_advance_loc: 2 to 000000000043951b
  DW_CFA_def_cfa_offset: 24
  DW_CFA_advance_loc: 2 to 000000000043951d
  DW_CFA_def_cfa_offset: 16
  DW_CFA_advance_loc: 2 to 000000000043951f
  DW_CFA_def_cfa_offset: 8
  DW_CFA_advance_loc: 5 to 0000000000439524
  DW_CFA_restore_state
  DW_CFA_advance_loc: 46 to 0000000000439552
  DW_CFA_remember_state
  DW_CFA_def_cfa_offset: 56
  DW_CFA_advance_loc: 8 to 000000000043955a
  DW_CFA_def_cfa_offset: 48
  DW_CFA_advance_loc: 1 to 000000000043955b
  DW_CFA_def_cfa_offset: 40
  DW_CFA_advance_loc: 2 to 000000000043955d
  DW_CFA_def_cfa_offset: 32
  DW_CFA_advance_loc: 2 to 000000000043955f
  DW_CFA_def_cfa_offset: 24
  DW_CFA_advance_loc: 2 to 0000000000439561
  DW_CFA_def_cfa_offset: 16
  DW_CFA_advance_loc: 2 to 0000000000439563
  DW_CFA_def_cfa_offset: 8
  DW_CFA_advance_loc: 5 to 0000000000439568
  DW_CFA_restore_state
  DW_CFA_advance_loc: 56 to 00000000004395a0
  DW_CFA_remember_state
  DW_CFA_def_cfa_offset: 56
  DW_CFA_advance_loc: 8 to 00000000004395a8
  DW_CFA_def_cfa_offset: 48
  DW_CFA_advance_loc: 1 to 00000000004395a9
  DW_CFA_def_cfa_offset: 40
  DW_CFA_advance_loc: 2 to 00000000004395ab
  DW_CFA_def_cfa_offset: 32
  DW_CFA_advance_loc: 2 to 00000000004395ad
  DW_CFA_def_cfa_offset: 24
  DW_CFA_advance_loc: 2 to 00000000004395af
  DW_CFA_def_cfa_offset: 16
  DW_CFA_advance_loc: 2 to 00000000004395b1
  DW_CFA_def_cfa_offset: 8
  DW_CFA_advance_loc: 5 to 00000000004395b6
  DW_CFA_restore_state
  DW_CFA_advance_loc: 46 to 00000000004395e4
  DW_CFA_remember_state
  DW_CFA_def_cfa_offset: 56
  DW_CFA_advance_loc: 8 to 00000000004395ec
  DW_CFA_def_cfa_offset: 48
  DW_CFA_advance_loc: 1 to 00000000004395ed
  DW_CFA_def_cfa_offset: 40
  DW_CFA_advance_loc: 2 to 00000000004395ef
  DW_CFA_def_cfa_offset: 32
  DW_CFA_advance_loc: 2 to 00000000004395f1
  DW_CFA_def_cfa_offset: 24
  DW_CFA_advance_loc: 2 to 00000000004395f3
  DW_CFA_def_cfa_offset: 16
  DW_CFA_advance_loc: 2 to 00000000004395f5
  DW_CFA_def_cfa_offset: 8
  DW_CFA_advance_loc: 5 to 00000000004395fa
  DW_CFA_restore_state
  DW_CFA_advance_loc: 56 to 0000000000439632
  DW_CFA_remember_state
  DW_CFA_def_cfa_offset: 56
  DW_CFA_advance_loc: 8 to 000000000043963a
  DW_CFA_def_cfa_offset: 48
  DW_CFA_advance_loc: 1 to 000000000043963b
  DW_CFA_def_cfa_offset: 40
  DW_CFA_advance_loc: 2 to 000000000043963d
  DW_CFA_def_cfa_offset: 32
  DW_CFA_advance_loc: 2 to 000000000043963f
  DW_CFA_def_cfa_offset: 24
  DW_CFA_advance_loc: 2 to 0000000000439641
  DW_CFA_def_cfa_offset: 16
  DW_CFA_advance_loc: 2 to 0000000000439643
  DW_CFA_def_cfa_offset: 8
  DW_CFA_advance_loc: 5 to 0000000000439648
  DW_CFA_restore_state
  DW_CFA_advance_loc: 46 to 0000000000439676
  DW_CFA_remember_state
  DW_CFA_def_cfa_offset: 56
  DW_CFA_advance_loc: 8 to 000000000043967e
  DW_CFA_def_cfa_offset: 48
  DW_CFA_advance_loc: 1 to 000000000043967f
  DW_CFA_def_cfa_offset: 40
  DW_CFA_advance_loc: 2 to 0000000000439681
  DW_CFA_def_cfa_offset: 32
  DW_CFA_advance_loc: 2 to 0000000000439683
  DW_CFA_def_cfa_offset: 24
  DW_CFA_advance_loc: 2 to 0000000000439685
  DW_CFA_def_cfa_offset: 16
  DW_CFA_advance_loc: 2 to 0000000000439687
  DW_CFA_def_cfa_offset: 8
  DW_CFA_advance_loc: 5 to 000000000043968c
  DW_CFA_restore_state
  DW_CFA_advance_loc: 56 to 00000000004396c4
  DW_CFA_remember_state
  DW_CFA_def_cfa_offset: 56
  DW_CFA_advance_loc: 8 to 00000000004396cc
  DW_CFA_def_cfa_offset: 48
  DW_CFA_advance_loc: 1 to 00000000004396cd
  DW_CFA_def_cfa_offset: 40
  DW_CFA_advance_loc: 2 to 00000000004396cf
  DW_CFA_def_cfa_offset: 32
  DW_CFA_advance_loc: 2 to 00000000004396d1
  DW_CFA_def_cfa_offset: 24
  DW_CFA_advance_loc: 2 to 00000000004396d3
  DW_CFA_def_cfa_offset: 16
  DW_CFA_advance_loc: 2 to 00000000004396d5
  DW_CFA_def_cfa_offset: 8
  DW_CFA_advance_loc: 5 to 00000000004396da
  DW_CFA_restore_state
  DW_CFA_advance_loc: 46 to 0000000000439708
  DW_CFA_remember_state
  DW_CFA_def_cfa_offset: 56
  DW_CFA_advance_loc: 8 to 0000000000439710
  DW_CFA_def_cfa_offset: 48
  DW_CFA_advance_loc: 1 to 0000000000439711
  DW_CFA_def_cfa_offset: 40
  DW_CFA_advance_loc: 2 to 0000000000439713
  DW_CFA_def_cfa_offset: 32
  DW_CFA_advance_loc: 2 to 0000000000439715
  DW_CFA_def_cfa_offset: 24
  DW_CFA_advance_loc: 2 to 0000000000439717
  DW_CFA_def_cfa_offset: 16
  DW_CFA_advance_loc: 2 to 0000000000439719
  DW_CFA_def_cfa_offset: 8
  DW_CFA_advance_loc: 5 to 000000000043971e
  DW_CFA_restore_state
  DW_CFA_advance_loc: 56 to 0000000000439756
  DW_CFA_remember_state
  DW_CFA_def_cfa_offset: 56
  DW_CFA_advance_loc: 8 to 000000000043975e
  DW_CFA_def_cfa_offset: 48
  DW_CFA_advance_loc: 1 to 000000000043975f
  DW_CFA_def_cfa_offset: 40
  DW_CFA_advance_loc: 2 to 0000000000439761
  DW_CFA_def_cfa_offset: 32
  DW_CFA_advance_loc: 2 to 0000000000439763
  DW_CFA_def_cfa_offset: 24
  DW_CFA_advance_loc: 2 to 0000000000439765
  DW_CFA_def_cfa_offset: 16
  DW_CFA_advance_loc: 2 to 0000000000439767
  DW_CFA_def_cfa_offset: 8
  DW_CFA_advance_loc: 5 to 000000000043976c
  DW_CFA_restore_state
  DW_CFA_advance_loc: 46 to 000000000043979a
  DW_CFA_remember_state
  DW_CFA_def_cfa_offset: 56
  DW_CFA_advance_loc: 8 to 00000000004397a2
  DW_CFA_def_cfa_offset: 48
  DW_CFA_advance_loc: 1 to 00000000004397a3
  DW_CFA_def_cfa_offset: 40
  DW_CFA_advance_loc: 2 to 00000000004397a5
  DW_CFA_def_cfa_offset: 32
  DW_CFA_advance_loc: 2 to 00000000004397a7
  DW_CFA_def_cfa_offset: 24
  DW_CFA_advance_loc: 2 to 00000000004397a9
  DW_CFA_def_cfa_offset: 16
  DW_CFA_advance_loc: 2 to 00000000004397ab
  DW_CFA_def_cfa_offset: 8
  DW_CFA_advance_loc: 5 to 00000000004397b0
  DW_CFA_restore_state
  DW_CFA_advance_loc: 56 to 00000000004397e8
  DW_CFA_remember_state
  DW_CFA_def_cfa_offset: 56
  DW_CFA_advance_loc: 8 to 00000000004397f0
  DW_CFA_def_cfa_offset: 48
  DW_CFA_advance_loc: 1 to 00000000004397f1
  DW_CFA_def_cfa_offset: 40
  DW_CFA_advance_loc: 2 to 00000000004397f3
  DW_CFA_def_cfa_offset: 32
  DW_CFA_advance_loc: 2 to 00000000004397f5
  DW_CFA_def_cfa_offset: 24
  DW_CFA_advance_loc: 2 to 00000000004397f7
  DW_CFA_def_cfa_offset: 16
  DW_CFA_advance_loc: 2 to 00000000004397f9
  DW_CFA_def_cfa_offset: 8
  DW_CFA_advance_loc: 5 to 00000000004397fe
  DW_CFA_restore_state
  DW_CFA_advance_loc: 46 to 000000000043982c
  DW_CFA_remember_state
  DW_CFA_def_cfa_offset: 56
  DW_CFA_advance_loc: 8 to 0000000000439834
  DW_CFA_def_cfa_offset: 48
  DW_CFA_advance_loc: 1 to 0000000000439835
  DW_CFA_def_cfa_offset: 40
  DW_CFA_advance_loc: 2 to 0000000000439837
  DW_CFA_def_cfa_offset: 32
  DW_CFA_advance_loc: 2 to 0000000000439839
  DW_CFA_def_cfa_offset: 24
  DW_CFA_advance_loc: 2 to 000000000043983b
  DW_CFA_def_cfa_offset: 16
  DW_CFA_advance_loc: 2 to 000000000043983d
  DW_CFA_def_cfa_offset: 8
  DW_CFA_advance_loc: 5 to 0000000000439842
  DW_CFA_restore_state
  DW_CFA_advance_loc: 56 to 000000000043987a
  DW_CFA_remember_state
  DW_CFA_def_cfa_offset: 56
  DW_CFA_advance_loc: 8 to 0000000000439882
  DW_CFA_def_cfa_offset: 48
  DW_CFA_advance_loc: 1 to 0000000000439883
  DW_CFA_def_cfa_offset: 40
  DW_CFA_advance_loc: 2 to 0000000000439885
  DW_CFA_def_cfa_offset: 32
  DW_CFA_advance_loc: 2 to 0000000000439887
  DW_CFA_def_cfa_offset: 24
  DW_CFA_advance_loc: 2 to 0000000000439889
  DW_CFA_def_cfa_offset: 16
  DW_CFA_advance_loc: 2 to 000000000043988b
  DW_CFA_def_cfa_offset: 8
  DW_CFA_advance_loc: 5 to 0000000000439890
  DW_CFA_restore_state
  DW_CFA_advance_loc: 46 to 00000000004398be
  DW_CFA_remember_state
  DW_CFA_def_cfa_offset: 56
  DW_CFA_advance_loc: 8 to 00000000004398c6
  DW_CFA_def_cfa_offset: 48
  DW_CFA_advance_loc: 1 to 00000000004398c7
  DW_CFA_def_cfa_offset: 40
  DW_CFA_advance_loc: 2 to 00000000004398c9
  DW_CFA_def_cfa_offset: 32
  DW_CFA_advance_loc: 2 to 00000000004398cb
  DW_CFA_def_cfa_offset: 24
  DW_CFA_advance_loc: 2 to 00000000004398cd
  DW_CFA_def_cfa_offset: 16
  DW_CFA_advance_loc: 2 to 00000000004398cf
  DW_CFA_def_cfa_offset: 8
  DW_CFA_advance_loc: 5 to 00000000004398d4
  DW_CFA_restore_state
  DW_CFA_advance_loc: 56 to 000000000043990c
  DW_CFA_remember_state
  DW_CFA_def_cfa_offset: 56
  DW_CFA_advance_loc: 8 to 0000000000439914
  DW_CFA_def_cfa_offset: 48
  DW_CFA_advance_loc: 1 to 0000000000439915
  DW_CFA_def_cfa_offset: 40
  DW_CFA_advance_loc: 2 to 0000000000439917
  DW_CFA_def_cfa_offset: 32
  DW_CFA_advance_loc: 2 to 0000000000439919
  DW_CFA_def_cfa_offset: 24
  DW_CFA_advance_loc: 2 to 000000000043991b
  DW_CFA_def_cfa_offset: 16
  DW_CFA_advance_loc: 2 to 000000000043991d
  DW_CFA_def_cfa_offset: 8
  DW_CFA_advance_loc: 5 to 0000000000439922
  DW_CFA_restore_state
  DW_CFA_advance_loc: 46 to 0000000000439950
  DW_CFA_remember_state
  DW_CFA_def_cfa_offset: 56
  DW_CFA_advance_loc: 8 to 0000000000439958
  DW_CFA_def_cfa_offset: 48
  DW_CFA_advance_loc: 1 to 0000000000439959
  DW_CFA_def_cfa_offset: 40
  DW_CFA_advance_loc: 2 to 000000000043995b
  DW_CFA_def_cfa_offset: 32
  DW_CFA_advance_loc: 2 to 000000000043995d
  DW_CFA_def_cfa_offset: 24
  DW_CFA_advance_loc: 2 to 000000000043995f
  DW_CFA_def_cfa_offset: 16
  DW_CFA_advance_loc: 2 to 0000000000439961
  DW_CFA_def_cfa_offset: 8
  DW_CFA_advance_loc: 5 to 0000000000439966
  DW_CFA_restore_state
  DW_CFA_advance_loc: 56 to 000000000043999e
  DW_CFA_remember_state
  DW_CFA_def_cfa_offset: 56
  DW_CFA_advance_loc: 8 to 00000000004399a6
  DW_CFA_def_cfa_offset: 48
  DW_CFA_advance_loc: 1 to 00000000004399a7
  DW_CFA_def_cfa_offset: 40
  DW_CFA_advance_loc: 2 to 00000000004399a9
  DW_CFA_def_cfa_offset: 32
  DW_CFA_advance_loc: 2 to 00000000004399ab
  DW_CFA_def_cfa_offset: 24
  DW_CFA_advance_loc: 2 to 00000000004399ad
  DW_CFA_def_cfa_offset: 16
  DW_CFA_advance_loc: 2 to 00000000004399af
  DW_CFA_def_cfa_offset: 8
  DW_CFA_advance_loc: 5 to 00000000004399b4
  DW_CFA_restore_state
  DW_CFA_advance_loc: 46 to 00000000004399e2
  DW_CFA_remember_state
  DW_CFA_def_cfa_offset: 56
  DW_CFA_advance_loc: 8 to 00000000004399ea
  DW_CFA_def_cfa_offset: 48
  DW_CFA_advance_loc: 1 to 00000000004399eb
  DW_CFA_def_cfa_offset: 40
  DW_CFA_advance_loc: 2 to 00000000004399ed
  DW_CFA_def_cfa_offset: 32
  DW_CFA_advance_loc: 2 to 00000000004399ef
  DW_CFA_def_cfa_offset: 24
  DW_CFA_advance_loc: 2 to 00000000004399f1
  DW_CFA_def_cfa_offset: 16
  DW_CFA_advance_loc: 2 to 00000000004399f3
  DW_CFA_def_cfa_offset: 8
  DW_CFA_advance_loc: 5 to 00000000004399f8
  DW_CFA_restore_state
  DW_CFA_advance_loc: 56 to 0000000000439a30
  DW_CFA_remember_state
  DW_CFA_def_cfa_offset: 56
  DW_CFA_advance_loc: 8 to 0000000000439a38
  DW_CFA_def_cfa_offset: 48
  DW_CFA_advance_loc: 1 to 0000000000439a39
  DW_CFA_def_cfa_offset: 40
  DW_CFA_advance_loc: 2 to 0000000000439a3b
  DW_CFA_def_cfa_offset: 32
  DW_CFA_advance_loc: 2 to 0000000000439a3d
  DW_CFA_def_cfa_offset: 24
  DW_CFA_advance_loc: 2 to 0000000000439a3f
  DW_CFA_def_cfa_offset: 16
  DW_CFA_advance_loc: 2 to 0000000000439a41
  DW_CFA_def_cfa_offset: 8
  DW_CFA_advance_loc: 5 to 0000000000439a46
  DW_CFA_restore_state
  DW_CFA_advance_loc: 46 to 0000000000439a74
  DW_CFA_remember_state
  DW_CFA_def_cfa_offset: 56
  DW_CFA_advance_loc: 8 to 0000000000439a7c
  DW_CFA_def_cfa_offset: 48
  DW_CFA_advance_loc: 1 to 0000000000439a7d
  DW_CFA_def_cfa_offset: 40
  DW_CFA_advance_loc: 2 to 0000000000439a7f
  DW_CFA_def_cfa_offset: 32
  DW_CFA_advance_loc: 2 to 0000000000439a81
  DW_CFA_def_cfa_offset: 24
  DW_CFA_advance_loc: 2 to 0000000000439a83
  DW_CFA_def_cfa_offset: 16
  DW_CFA_advance_loc: 2 to 0000000000439a85
  DW_CFA_def_cfa_offset: 8
  DW_CFA_advance_loc: 5 to 0000000000439a8a
  DW_CFA_restore_state
  DW_CFA_advance_loc: 56 to 0000000000439ac2
  DW_CFA_remember_state
  DW_CFA_def_cfa_offset: 56
  DW_CFA_advance_loc: 8 to 0000000000439aca
  DW_CFA_def_cfa_offset: 48
  DW_CFA_advance_loc: 1 to 0000000000439acb
  DW_CFA_def_cfa_offset: 40
  DW_CFA_advance_loc: 2 to 0000000000439acd
  DW_CFA_def_cfa_offset: 32
  DW_CFA_advance_loc: 2 to 0000000000439acf
  DW_CFA_def_cfa_offset: 24
  DW_CFA_advance_loc: 2 to 0000000000439ad1
  DW_CFA_def_cfa_offset: 16
  DW_CFA_advance_loc: 2 to 0000000000439ad3
  DW_CFA_def_cfa_offset: 8
  DW_CFA_advance_loc: 5 to 0000000000439ad8
  DW_CFA_restore_state
  DW_CFA_advance_loc: 46 to 0000000000439b06
  DW_CFA_remember_state
  DW_CFA_def_cfa_offset: 56
  DW_CFA_advance_loc: 8 to 0000000000439b0e
  DW_CFA_def_cfa_offset: 48
  DW_CFA_advance_loc: 1 to 0000000000439b0f
  DW_CFA_def_cfa_offset: 40
  DW_CFA_advance_loc: 2 to 0000000000439b11
  DW_CFA_def_cfa_offset: 32
  DW_CFA_advance_loc: 2 to 0000000000439b13
  DW_CFA_def_cfa_offset: 24
  DW_CFA_advance_loc: 2 to 0000000000439b15
  DW_CFA_def_cfa_offset: 16
  DW_CFA_advance_loc: 2 to 0000000000439b17
  DW_CFA_def_cfa_offset: 8
  DW_CFA_advance_loc: 5 to 0000000000439b1c
  DW_CFA_restore_state
  DW_CFA_advance_loc: 56 to 0000000000439b54
  DW_CFA_remember_state
  DW_CFA_def_cfa_offset: 56
  DW_CFA_advance_loc: 8 to 0000000000439b5c
  DW_CFA_def_cfa_offset: 48
  DW_CFA_advance_loc: 1 to 0000000000439b5d
  DW_CFA_def_cfa_offset: 40
  DW_CFA_advance_loc: 2 to 0000000000439b5f
  DW_CFA_def_cfa_offset: 32
  DW_CFA_advance_loc: 2 to 0000000000439b61
  DW_CFA_def_cfa_offset: 24
  DW_CFA_advance_loc: 2 to 0000000000439b63
  DW_CFA_def_cfa_offset: 16
  DW_CFA_advance_loc: 2 to 0000000000439b65
  DW_CFA_def_cfa_offset: 8
  DW_CFA_advance_loc: 5 to 0000000000439b6a
  DW_CFA_restore_state
  DW_CFA_advance_loc: 46 to 0000000000439b98
  DW_CFA_remember_state
  DW_CFA_def_cfa_offset: 56
  DW_CFA_advance_loc: 8 to 0000000000439ba0
  DW_CFA_def_cfa_offset: 48
  DW_CFA_advance_loc: 1 to 0000000000439ba1
  DW_CFA_def_cfa_offset: 40
  DW_CFA_advance_loc: 2 to 0000000000439ba3
  DW_CFA_def_cfa_offset: 32
  DW_CFA_advance_loc: 2 to 0000000000439ba5
  DW_CFA_def_cfa_offset: 24
  DW_CFA_advance_loc: 2 to 0000000000439ba7
  DW_CFA_def_cfa_offset: 16
  DW_CFA_advance_loc: 2 to 0000000000439ba9
  DW_CFA_def_cfa_offset: 8
  DW_CFA_advance_loc: 5 to 0000000000439bae
  DW_CFA_restore_state
  DW_CFA_advance_loc: 56 to 0000000000439be6
  DW_CFA_remember_state
  DW_CFA_def_cfa_offset: 56
  DW_CFA_advance_loc: 8 to 0000000000439bee
  DW_CFA_def_cfa_offset: 48
  DW_CFA_advance_loc: 1 to 0000000000439bef
  DW_CFA_def_cfa_offset: 40
  DW_CFA_advance_loc: 2 to 0000000000439bf1
  DW_CFA_def_cfa_offset: 32
  DW_CFA_advance_loc: 2 to 0000000000439bf3
  DW_CFA_def_cfa_offset: 24
  DW_CFA_advance_loc: 2 to 0000000000439bf5
  DW_CFA_def_cfa_offset: 16
  DW_CFA_advance_loc: 2 to 0000000000439bf7
  DW_CFA_def_cfa_offset: 8
  DW_CFA_advance_loc: 5 to 0000000000439bfc
  DW_CFA_restore_state
  DW_CFA_advance_loc: 46 to 0000000000439c2a
  DW_CFA_remember_state
  DW_CFA_def_cfa_offset: 56
  DW_CFA_advance_loc: 8 to 0000000000439c32
  DW_CFA_def_cfa_offset: 48
  DW_CFA_advance_loc: 1 to 0000000000439c33
  DW_CFA_def_cfa_offset: 40
  DW_CFA_advance_loc: 2 to 0000000000439c35
  DW_CFA_def_cfa_offset: 32
  DW_CFA_advance_loc: 2 to 0000000000439c37
  DW_CFA_def_cfa_offset: 24
  DW_CFA_advance_loc: 2 to 0000000000439c39
  DW_CFA_def_cfa_offset: 16
  DW_CFA_advance_loc: 2 to 0000000000439c3b
  DW_CFA_def_cfa_offset: 8
  DW_CFA_advance_loc: 5 to 0000000000439c40
  DW_CFA_restore_state
  DW_CFA_advance_loc: 56 to 0000000000439c78
  DW_CFA_remember_state
  DW_CFA_def_cfa_offset: 56
  DW_CFA_advance_loc: 8 to 0000000000439c80
  DW_CFA_def_cfa_offset: 48
  DW_CFA_advance_loc: 1 to 0000000000439c81
  DW_CFA_def_cfa_offset: 40
  DW_CFA_advance_loc: 2 to 0000000000439c83
  DW_CFA_def_cfa_offset: 32
  DW_CFA_advance_loc: 2 to 0000000000439c85
  DW_CFA_def_cfa_offset: 24
  DW_CFA_advance_loc: 2 to 0000000000439c87
  DW_CFA_def_cfa_offset: 16
  DW_CFA_advance_loc: 2 to 0000000000439c89
  DW_CFA_def_cfa_offset: 8
  DW_CFA_advance_loc: 5 to 0000000000439c8e
  DW_CFA_restore_state
  DW_CFA_advance_loc: 46 to 0000000000439cbc
  DW_CFA_remember_state
  DW_CFA_def_cfa_offset: 56
  DW_CFA_advance_loc: 8 to 0000000000439cc4
  DW_CFA_def_cfa_offset: 48
  DW_CFA_advance_loc: 1 to 0000000000439cc5
  DW_CFA_def_cfa_offset: 40
  DW_CFA_advance_loc: 2 to 0000000000439cc7
  DW_CFA_def_cfa_offset: 32
  DW_CFA_advance_loc: 2 to 0000000000439cc9
  DW_CFA_def_cfa_offset: 24
  DW_CFA_advance_loc: 2 to 0000000000439ccb
  DW_CFA_def_cfa_offset: 16
  DW_CFA_advance_loc: 2 to 0000000000439ccd
  DW_CFA_def_cfa_offset: 8
  DW_CFA_advance_loc: 5 to 0000000000439cd2
  DW_CFA_restore_state
  DW_CFA_advance_loc: 56 to 0000000000439d0a
  DW_CFA_remember_state
  DW_CFA_def_cfa_offset: 56
  DW_CFA_advance_loc: 8 to 0000000000439d12
  DW_CFA_def_cfa_offset: 48
  DW_CFA_advance_loc: 1 to 0000000000439d13
  DW_CFA_def_cfa_offset: 40
  DW_CFA_advance_loc: 2 to 0000000000439d15
  DW_CFA_def_cfa_offset: 32
  DW_CFA_advance_loc: 2 to 0000000000439d17
  DW_CFA_def_cfa_offset: 24
  DW_CFA_advance_loc: 2 to 0000000000439d19
  DW_CFA_def_cfa_offset: 16
  DW_CFA_advance_loc: 2 to 0000000000439d1b
  DW_CFA_def_cfa_offset: 8
  DW_CFA_advance_loc: 5 to 0000000000439d20
  DW_CFA_restore_state
  DW_CFA_advance_loc: 46 to 0000000000439d4e
  DW_CFA_remember_state
  DW_CFA_def_cfa_offset: 56
  DW_CFA_advance_loc: 8 to 0000000000439d56
  DW_CFA_def_cfa_offset: 48
  DW_CFA_advance_loc: 1 to 0000000000439d57
  DW_CFA_def_cfa_offset: 40
  DW_CFA_advance_loc: 2 to 0000000000439d59
  DW_CFA_def_cfa_offset: 32
  DW_CFA_advance_loc: 2 to 0000000000439d5b
  DW_CFA_def_cfa_offset: 24
  DW_CFA_advance_loc: 2 to 0000000000439d5d
  DW_CFA_def_cfa_offset: 16
  DW_CFA_advance_loc: 2 to 0000000000439d5f
  DW_CFA_def_cfa_offset: 8
  DW_CFA_advance_loc: 5 to 0000000000439d64
  DW_CFA_restore_state
  DW_CFA_advance_loc: 56 to 0000000000439d9c
  DW_CFA_remember_state
  DW_CFA_def_cfa_offset: 56
  DW_CFA_advance_loc: 8 to 0000000000439da4
  DW_CFA_def_cfa_offset: 48
  DW_CFA_advance_loc: 1 to 0000000000439da5
  DW_CFA_def_cfa_offset: 40
  DW_CFA_advance_loc: 2 to 0000000000439da7
  DW_CFA_def_cfa_offset: 32
  DW_CFA_advance_loc: 2 to 0000000000439da9
  DW_CFA_def_cfa_offset: 24
  DW_CFA_advance_loc: 2 to 0000000000439dab
  DW_CFA_def_cfa_offset: 16
  DW_CFA_advance_loc: 2 to 0000000000439dad
  DW_CFA_def_cfa_offset: 8
  DW_CFA_advance_loc: 5 to 0000000000439db2
  DW_CFA_restore_state
  DW_CFA_advance_loc: 46 to 0000000000439de0
  DW_CFA_remember_state
  DW_CFA_def_cfa_offset: 56
  DW_CFA_advance_loc: 8 to 0000000000439de8
  DW_CFA_def_cfa_offset: 48
  DW_CFA_advance_loc: 1 to 0000000000439de9
  DW_CFA_def_cfa_offset: 40
  DW_CFA_advance_loc: 2 to 0000000000439deb
  DW_CFA_def_cfa_offset: 32
  DW_CFA_advance_loc: 2 to 0000000000439ded
  DW_CFA_def_cfa_offset: 24
  DW_CFA_advance_loc: 2 to 0000000000439def
  DW_CFA_def_cfa_offset: 16
  DW_CFA_advance_loc: 2 to 0000000000439df1
  DW_CFA_def_cfa_offset: 8
  DW_CFA_advance_loc: 5 to 0000000000439df6
  DW_CFA_restore_state
  DW_CFA_advance_loc: 56 to 0000000000439e2e
  DW_CFA_remember_state
  DW_CFA_def_cfa_offset: 56
  DW_CFA_advance_loc: 8 to 0000000000439e36
  DW_CFA_def_cfa_offset: 48
  DW_CFA_advance_loc: 1 to 0000000000439e37
  DW_CFA_def_cfa_offset: 40
  DW_CFA_advance_loc: 2 to 0000000000439e39
  DW_CFA_def_cfa_offset: 32
  DW_CFA_advance_loc: 2 to 0000000000439e3b
  DW_CFA_def_cfa_offset: 24
  DW_CFA_advance_loc: 2 to 0000000000439e3d
  DW_CFA_def_cfa_offset: 16
  DW_CFA_advance_loc: 2 to 0000000000439e3f
  DW_CFA_def_cfa_offset: 8
  DW_CFA_advance_loc: 5 to 0000000000439e44
  DW_CFA_restore_state
  DW_CFA_advance_loc: 46 to 0000000000439e72
  DW_CFA_remember_state
  DW_CFA_def_cfa_offset: 56
  DW_CFA_advance_loc: 8 to 0000000000439e7a
  DW_CFA_def_cfa_offset: 48
  DW_CFA_advance_loc: 1 to 0000000000439e7b
  DW_CFA_def_cfa_offset: 40
  DW_CFA_advance_loc: 2 to 0000000000439e7d
  DW_CFA_def_cfa_offset: 32
  DW_CFA_advance_loc: 2 to 0000000000439e7f
  DW_CFA_def_cfa_offset: 24
  DW_CFA_advance_loc: 2 to 0000000000439e81
  DW_CFA_def_cfa_offset: 16
  DW_CFA_advance_loc: 2 to 0000000000439e83
  DW_CFA_def_cfa_offset: 8
  DW_CFA_advance_loc: 5 to 0000000000439e88
  DW_CFA_restore_state
  DW_CFA_advance_loc: 56 to 0000000000439ec0
  DW_CFA_remember_state
  DW_CFA_def_cfa_offset: 56
  DW_CFA_advance_loc: 8 to 0000000000439ec8
  DW_CFA_def_cfa_offset: 48
  DW_CFA_advance_loc: 1 to 0000000000439ec9
  DW_CFA_def_cfa_offset: 40
  DW_CFA_advance_loc: 2 to 0000000000439ecb
  DW_CFA_def_cfa_offset: 32
  DW_CFA_advance_loc: 2 to 0000000000439ecd
  DW_CFA_def_cfa_offset: 24
  DW_CFA_advance_loc: 2 to 0000000000439ecf
  DW_CFA_def_cfa_offset: 16
  DW_CFA_advance_loc: 2 to 0000000000439ed1
  DW_CFA_def_cfa_offset: 8
  DW_CFA_advance_loc: 5 to 0000000000439ed6
  DW_CFA_restore_state
  DW_CFA_advance_loc: 46 to 0000000000439f04
  DW_CFA_remember_state
  DW_CFA_def_cfa_offset: 56
  DW_CFA_advance_loc: 8 to 0000000000439f0c
  DW_CFA_def_cfa_offset: 48
  DW_CFA_advance_loc: 1 to 0000000000439f0d
  DW_CFA_def_cfa_offset: 40
  DW_CFA_advance_loc: 2 to 0000000000439f0f
  DW_CFA_def_cfa_offset: 32
  DW_CFA_advance_loc: 2 to 0000000000439f11
  DW_CFA_def_cfa_offset: 24
  DW_CFA_advance_loc: 2 to 0000000000439f13
  DW_CFA_def_cfa_offset: 16
  DW_CFA_advance_loc: 2 to 0000000000439f15
  DW_CFA_def_cfa_offset: 8
  DW_CFA_advance_loc: 5 to 0000000000439f1a
  DW_CFA_restore_state
  DW_CFA_advance_loc: 56 to 0000000000439f52
  DW_CFA_remember_state
  DW_CFA_def_cfa_offset: 56
  DW_CFA_advance_loc: 8 to 0000000000439f5a
  DW_CFA_def_cfa_offset: 48
  DW_CFA_advance_loc: 1 to 0000000000439f5b
  DW_CFA_def_cfa_offset: 40
  DW_CFA_advance_loc: 2 to 0000000000439f5d
  DW_CFA_def_cfa_offset: 32
  DW_CFA_advance_loc: 2 to 0000000000439f5f
  DW_CFA_def_cfa_offset: 24
  DW_CFA_advance_loc: 2 to 0000000000439f61
  DW_CFA_def_cfa_offset: 16
  DW_CFA_advance_loc: 2 to 0000000000439f63
  DW_CFA_def_cfa_offset: 8
  DW_CFA_advance_loc: 5 to 0000000000439f68
  DW_CFA_restore_state
  DW_CFA_advance_loc: 46 to 0000000000439f96
  DW_CFA_remember_state
  DW_CFA_def_cfa_offset: 56
  DW_CFA_advance_loc: 8 to 0000000000439f9e
  DW_CFA_def_cfa_offset: 48
  DW_CFA_advance_loc: 1 to 0000000000439f9f
  DW_CFA_def_cfa_offset: 40
  DW_CFA_advance_loc: 2 to 0000000000439fa1
  DW_CFA_def_cfa_offset: 32
  DW_CFA_advance_loc: 2 to 0000000000439fa3
  DW_CFA_def_cfa_offset: 24
  DW_CFA_advance_loc: 2 to 0000000000439fa5
  DW_CFA_def_cfa_offset: 16
  DW_CFA_advance_loc: 2 to 0000000000439fa7
  DW_CFA_def_cfa_offset: 8
  DW_CFA_advance_loc: 5 to 0000000000439fac
  DW_CFA_restore_state
  DW_CFA_advance_loc: 56 to 0000000000439fe4
  DW_CFA_remember_state
  DW_CFA_def_cfa_offset: 56
  DW_CFA_advance_loc: 8 to 0000000000439fec
  DW_CFA_def_cfa_offset: 48
  DW_CFA_advance_loc: 1 to 0000000000439fed
  DW_CFA_def_cfa_offset: 40
  DW_CFA_advance_loc: 2 to 0000000000439fef
  DW_CFA_def_cfa_offset: 32
  DW_CFA_advance_loc: 2 to 0000000000439ff1
  DW_CFA_def_cfa_offset: 24
  DW_CFA_advance_loc: 2 to 0000000000439ff3
  DW_CFA_def_cfa_offset: 16
  DW_CFA_advance_loc: 2 to 0000000000439ff5
  DW_CFA_def_cfa_offset: 8
  DW_CFA_advance_loc: 5 to 0000000000439ffa
  DW_CFA_restore_state
  DW_CFA_advance_loc: 46 to 000000000043a028
  DW_CFA_remember_state
  DW_CFA_def_cfa_offset: 56
  DW_CFA_advance_loc: 8 to 000000000043a030
  DW_CFA_def_cfa_offset: 48
  DW_CFA_advance_loc: 1 to 000000000043a031
  DW_CFA_def_cfa_offset: 40
  DW_CFA_advance_loc: 2 to 000000000043a033
  DW_CFA_def_cfa_offset: 32
  DW_CFA_advance_loc: 2 to 000000000043a035
  DW_CFA_def_cfa_offset: 24
  DW_CFA_advance_loc: 2 to 000000000043a037
  DW_CFA_def_cfa_offset: 16
  DW_CFA_advance_loc: 2 to 000000000043a039
  DW_CFA_def_cfa_offset: 8
  DW_CFA_advance_loc: 5 to 000000000043a03e
  DW_CFA_restore_state
  DW_CFA_advance_loc: 56 to 000000000043a076
  DW_CFA_remember_state
  DW_CFA_def_cfa_offset: 56
  DW_CFA_advance_loc: 8 to 000000000043a07e
  DW_CFA_def_cfa_offset: 48
  DW_CFA_advance_loc: 1 to 000000000043a07f
  DW_CFA_def_cfa_offset: 40
  DW_CFA_advance_loc: 2 to 000000000043a081
  DW_CFA_def_cfa_offset: 32
  DW_CFA_advance_loc: 2 to 000000000043a083
  DW_CFA_def_cfa_offset: 24
  DW_CFA_advance_loc: 2 to 000000000043a085
  DW_CFA_def_cfa_offset: 16
  DW_CFA_advance_loc: 2 to 000000000043a087
  DW_CFA_def_cfa_offset: 8
  DW_CFA_advance_loc: 5 to 000000000043a08c
  DW_CFA_restore_state
  DW_CFA_advance_loc: 46 to 000000000043a0ba
  DW_CFA_remember_state
  DW_CFA_def_cfa_offset: 56
  DW_CFA_advance_loc: 8 to 000000000043a0c2
  DW_CFA_def_cfa_offset: 48
  DW_CFA_advance_loc: 1 to 000000000043a0c3
  DW_CFA_def_cfa_offset: 40
  DW_CFA_advance_loc: 2 to 000000000043a0c5
  DW_CFA_def_cfa_offset: 32
  DW_CFA_advance_loc: 2 to 000000000043a0c7
  DW_CFA_def_cfa_offset: 24
  DW_CFA_advance_loc: 2 to 000000000043a0c9
  DW_CFA_def_cfa_offset: 16
  DW_CFA_advance_loc: 2 to 000000000043a0cb
  DW_CFA_def_cfa_offset: 8
  DW_CFA_advance_loc: 5 to 000000000043a0d0
  DW_CFA_restore_state
  DW_CFA_advance_loc: 56 to 000000000043a108
  DW_CFA_remember_state
  DW_CFA_def_cfa_offset: 56
  DW_CFA_advance_loc: 8 to 000000000043a110
  DW_CFA_def_cfa_offset: 48
  DW_CFA_advance_loc: 1 to 000000000043a111
  DW_CFA_def_cfa_offset: 40
  DW_CFA_advance_loc: 2 to 000000000043a113
  DW_CFA_def_cfa_offset: 32
  DW_CFA_advance_loc: 2 to 000000000043a115
  DW_CFA_def_cfa_offset: 24
  DW_CFA_advance_loc: 2 to 000000000043a117
  DW_CFA_def_cfa_offset: 16
  DW_CFA_advance_loc: 2 to 000000000043a119
  DW_CFA_def_cfa_offset: 8
  DW_CFA_advance_loc: 5 to 000000000043a11e
  DW_CFA_restore_state
  DW_CFA_advance_loc: 46 to 000000000043a14c
  DW_CFA_remember_state
  DW_CFA_def_cfa_offset: 56
  DW_CFA_advance_loc: 8 to 000000000043a154
  DW_CFA_def_cfa_offset: 48
  DW_CFA_advance_loc: 1 to 000000000043a155
  DW_CFA_def_cfa_offset: 40
  DW_CFA_advance_loc: 2 to 000000000043a157
  DW_CFA_def_cfa_offset: 32
  DW_CFA_advance_loc: 2 to 000000000043a159
  DW_CFA_def_cfa_offset: 24
  DW_CFA_advance_loc: 2 to 000000000043a15b
  DW_CFA_def_cfa_offset: 16
  DW_CFA_advance_loc: 2 to 000000000043a15d
  DW_CFA_def_cfa_offset: 8
  DW_CFA_advance_loc: 5 to 000000000043a162
  DW_CFA_restore_state
  DW_CFA_advance_loc: 56 to 000000000043a19a
  DW_CFA_remember_state
  DW_CFA_def_cfa_offset: 56
  DW_CFA_advance_loc: 8 to 000000000043a1a2
  DW_CFA_def_cfa_offset: 48
  DW_CFA_advance_loc: 1 to 000000000043a1a3
  DW_CFA_def_cfa_offset: 40
  DW_CFA_advance_loc: 2 to 000000000043a1a5
  DW_CFA_def_cfa_offset: 32
  DW_CFA_advance_loc: 2 to 000000000043a1a7
  DW_CFA_def_cfa_offset: 24
  DW_CFA_advance_loc: 2 to 000000000043a1a9
  DW_CFA_def_cfa_offset: 16
  DW_CFA_advance_loc: 2 to 000000000043a1ab
  DW_CFA_def_cfa_offset: 8
  DW_CFA_advance_loc: 5 to 000000000043a1b0
  DW_CFA_restore_state
  DW_CFA_advance_loc: 46 to 000000000043a1de
  DW_CFA_remember_state
  DW_CFA_def_cfa_offset: 56
  DW_CFA_advance_loc: 8 to 000000000043a1e6
  DW_CFA_def_cfa_offset: 48
  DW_CFA_advance_loc: 1 to 000000000043a1e7
  DW_CFA_def_cfa_offset: 40
  DW_CFA_advance_loc: 2 to 000000000043a1e9
  DW_CFA_def_cfa_offset: 32
  DW_CFA_advance_loc: 2 to 000000000043a1eb
  DW_CFA_def_cfa_offset: 24
  DW_CFA_advance_loc: 2 to 000000000043a1ed
  DW_CFA_def_cfa_offset: 16
  DW_CFA_advance_loc: 2 to 000000000043a1ef
  DW_CFA_def_cfa_offset: 8
  DW_CFA_advance_loc: 5 to 000000000043a1f4
  DW_CFA_restore_state
  DW_CFA_advance_loc: 56 to 000000000043a22c
  DW_CFA_remember_state
  DW_CFA_def_cfa_offset: 56
  DW_CFA_advance_loc: 8 to 000000000043a234
  DW_CFA_def_cfa_offset: 48
  DW_CFA_advance_loc: 1 to 000000000043a235
  DW_CFA_def_cfa_offset: 40
  DW_CFA_advance_loc: 2 to 000000000043a237
  DW_CFA_def_cfa_offset: 32
  DW_CFA_advance_loc: 2 to 000000000043a239
  DW_CFA_def_cfa_offset: 24
  DW_CFA_advance_loc: 2 to 000000000043a23b
  DW_CFA_def_cfa_offset: 16
  DW_CFA_advance_loc: 2 to 000000000043a23d
  DW_CFA_def_cfa_offset: 8
  DW_CFA_advance_loc: 5 to 000000000043a242
  DW_CFA_restore_state
  DW_CFA_advance_loc: 46 to 000000000043a270
  DW_CFA_remember_state
  DW_CFA_def_cfa_offset: 56
  DW_CFA_advance_loc: 8 to 000000000043a278
  DW_CFA_def_cfa_offset: 48
  DW_CFA_advance_loc: 1 to 000000000043a279
  DW_CFA_def_cfa_offset: 40
  DW_CFA_advance_loc: 2 to 000000000043a27b
  DW_CFA_def_cfa_offset: 32
  DW_CFA_advance_loc: 2 to 000000000043a27d
  DW_CFA_def_cfa_offset: 24
  DW_CFA_advance_loc: 2 to 000000000043a27f
  DW_CFA_def_cfa_offset: 16
  DW_CFA_advance_loc: 2 to 000000000043a281
  DW_CFA_def_cfa_offset: 8
  DW_CFA_advance_loc: 5 to 000000000043a286
  DW_CFA_restore_state
  DW_CFA_advance_loc: 56 to 000000000043a2be
  DW_CFA_remember_state
  DW_CFA_def_cfa_offset: 56
  DW_CFA_advance_loc: 8 to 000000000043a2c6
  DW_CFA_def_cfa_offset: 48
  DW_CFA_advance_loc: 1 to 000000000043a2c7
  DW_CFA_def_cfa_offset: 40
  DW_CFA_advance_loc: 2 to 000000000043a2c9
  DW_CFA_def_cfa_offset: 32
  DW_CFA_advance_loc: 2 to 000000000043a2cb
  DW_CFA_def_cfa_offset: 24
  DW_CFA_advance_loc: 2 to 000000000043a2cd
  DW_CFA_def_cfa_offset: 16
  DW_CFA_advance_loc: 2 to 000000000043a2cf
  DW_CFA_def_cfa_offset: 8
  DW_CFA_advance_loc: 5 to 000000000043a2d4
  DW_CFA_restore_state
  DW_CFA_advance_loc: 46 to 000000000043a302
  DW_CFA_remember_state
  DW_CFA_def_cfa_offset: 56
  DW_CFA_advance_loc: 8 to 000000000043a30a
  DW_CFA_def_cfa_offset: 48
  DW_CFA_advance_loc: 1 to 000000000043a30b
  DW_CFA_def_cfa_offset: 40
  DW_CFA_advance_loc: 2 to 000000000043a30d
  DW_CFA_def_cfa_offset: 32
  DW_CFA_advance_loc: 2 to 000000000043a30f
  DW_CFA_def_cfa_offset: 24
  DW_CFA_advance_loc: 2 to 000000000043a311
  DW_CFA_def_cfa_offset: 16
  DW_CFA_advance_loc: 2 to 000000000043a313
  DW_CFA_def_cfa_offset: 8
  DW_CFA_advance_loc: 5 to 000000000043a318
  DW_CFA_restore_state
  DW_CFA_advance_loc: 56 to 000000000043a350
  DW_CFA_remember_state
  DW_CFA_def_cfa_offset: 56
  DW_CFA_advance_loc: 8 to 000000000043a358
  DW_CFA_def_cfa_offset: 48
  DW_CFA_advance_loc: 1 to 000000000043a359
  DW_CFA_def_cfa_offset: 40
  DW_CFA_advance_loc: 2 to 000000000043a35b
  DW_CFA_def_cfa_offset: 32
  DW_CFA_advance_loc: 2 to 000000000043a35d
  DW_CFA_def_cfa_offset: 24
  DW_CFA_advance_loc: 2 to 000000000043a35f
  DW_CFA_def_cfa_offset: 16
  DW_CFA_advance_loc: 2 to 000000000043a361
  DW_CFA_def_cfa_offset: 8
  DW_CFA_advance_loc: 5 to 000000000043a366
  DW_CFA_restore_state
  DW_CFA_advance_loc: 46 to 000000000043a394
  DW_CFA_remember_state
  DW_CFA_def_cfa_offset: 56
  DW_CFA_advance_loc: 8 to 000000000043a39c
  DW_CFA_def_cfa_offset: 48
  DW_CFA_advance_loc: 1 to 000000000043a39d
  DW_CFA_def_cfa_offset: 40
  DW_CFA_advance_loc: 2 to 000000000043a39f
  DW_CFA_def_cfa_offset: 32
  DW_CFA_advance_loc: 2 to 000000000043a3a1
  DW_CFA_def_cfa_offset: 24
  DW_CFA_advance_loc: 2 to 000000000043a3a3
  DW_CFA_def_cfa_offset: 16
  DW_CFA_advance_loc: 2 to 000000000043a3a5
  DW_CFA_def_cfa_offset: 8
  DW_CFA_advance_loc: 5 to 000000000043a3aa
  DW_CFA_restore_state
  DW_CFA_advance_loc: 56 to 000000000043a3e2
  DW_CFA_remember_state
  DW_CFA_def_cfa_offset: 56
  DW_CFA_advance_loc: 8 to 000000000043a3ea
  DW_CFA_def_cfa_offset: 48
  DW_CFA_advance_loc: 1 to 000000000043a3eb
  DW_CFA_def_cfa_offset: 40
  DW_CFA_advance_loc: 2 to 000000000043a3ed
  DW_CFA_def_cfa_offset: 32
  DW_CFA_advance_loc: 2 to 000000000043a3ef
  DW_CFA_def_cfa_offset: 24
  DW_CFA_advance_loc: 2 to 000000000043a3f1
  DW_CFA_def_cfa_offset: 16
  DW_CFA_advance_loc: 2 to 000000000043a3f3
  DW_CFA_def_cfa_offset: 8
  DW_CFA_advance_loc: 5 to 000000000043a3f8
  DW_CFA_restore_state
  DW_CFA_advance_loc: 46 to 000000000043a426
  DW_CFA_remember_state
  DW_CFA_def_cfa_offset: 56
  DW_CFA_advance_loc: 8 to 000000000043a42e
  DW_CFA_def_cfa_offset: 48
  DW_CFA_advance_loc: 1 to 000000000043a42f
  DW_CFA_def_cfa_offset: 40
  DW_CFA_advance_loc: 2 to 000000000043a431
  DW_CFA_def_cfa_offset: 32
  DW_CFA_advance_loc: 2 to 000000000043a433
  DW_CFA_def_cfa_offset: 24
  DW_CFA_advance_loc: 2 to 000000000043a435
  DW_CFA_def_cfa_offset: 16
  DW_CFA_advance_loc: 2 to 000000000043a437
  DW_CFA_def_cfa_offset: 8
  DW_CFA_advance_loc: 5 to 000000000043a43c
  DW_CFA_restore_state
  DW_CFA_advance_loc: 56 to 000000000043a474
  DW_CFA_remember_state
  DW_CFA_def_cfa_offset: 56
  DW_CFA_advance_loc: 8 to 000000000043a47c
  DW_CFA_def_cfa_offset: 48
  DW_CFA_advance_loc: 1 to 000000000043a47d
  DW_CFA_def_cfa_offset: 40
  DW_CFA_advance_loc: 2 to 000000000043a47f
  DW_CFA_def_cfa_offset: 32
  DW_CFA_advance_loc: 2 to 000000000043a481
  DW_CFA_def_cfa_offset: 24
  DW_CFA_advance_loc: 2 to 000000000043a483
  DW_CFA_def_cfa_offset: 16
  DW_CFA_advance_loc: 2 to 000000000043a485
  DW_CFA_def_cfa_offset: 8
  DW_CFA_advance_loc: 5 to 000000000043a48a
  DW_CFA_restore_state
  DW_CFA_advance_loc: 46 to 000000000043a4b8
  DW_CFA_remember_state
  DW_CFA_def_cfa_offset: 56
  DW_CFA_advance_loc: 8 to 000000000043a4c0
  DW_CFA_def_cfa_offset: 48
  DW_CFA_advance_loc: 1 to 000000000043a4c1
  DW_CFA_def_cfa_offset: 40
  DW_CFA_advance_loc: 2 to 000000000043a4c3
  DW_CFA_def_cfa_offset: 32
  DW_CFA_advance_loc: 2 to 000000000043a4c5
  DW_CFA_def_cfa_offset: 24
  DW_CFA_advance_loc: 2 to 000000000043a4c7
  DW_CFA_def_cfa_offset: 16
  DW_CFA_advance_loc: 2 to 000000000043a4c9
  DW_CFA_def_cfa_offset: 8
  DW_CFA_advance_loc: 5 to 000000000043a4ce
  DW_CFA_restore_state
  DW_CFA_advance_loc: 56 to 000000000043a506
  DW_CFA_remember_state
  DW_CFA_def_cfa_offset: 56
  DW_CFA_advance_loc: 8 to 000000000043a50e
  DW_CFA_def_cfa_offset: 48
  DW_CFA_advance_loc: 1 to 000000000043a50f
  DW_CFA_def_cfa_offset: 40
  DW_CFA_advance_loc: 2 to 000000000043a511
  DW_CFA_def_cfa_offset: 32
  DW_CFA_advance_loc: 2 to 000000000043a513
  DW_CFA_def_cfa_offset: 24
  DW_CFA_advance_loc: 2 to 000000000043a515
  DW_CFA_def_cfa_offset: 16
  DW_CFA_advance_loc: 2 to 000000000043a517
  DW_CFA_def_cfa_offset: 8
  DW_CFA_advance_loc: 5 to 000000000043a51c
  DW_CFA_restore_state
  DW_CFA_advance_loc: 46 to 000000000043a54a
  DW_CFA_remember_state
  DW_CFA_def_cfa_offset: 56
  DW_CFA_advance_loc: 8 to 000000000043a552
  DW_CFA_def_cfa_offset: 48
  DW_CFA_advance_loc: 1 to 000000000043a553
  DW_CFA_def_cfa_offset: 40
  DW_CFA_advance_loc: 2 to 000000000043a555
  DW_CFA_def_cfa_offset: 32
  DW_CFA_advance_loc: 2 to 000000000043a557
  DW_CFA_def_cfa_offset: 24
  DW_CFA_advance_loc: 2 to 000000000043a559
  DW_CFA_def_cfa_offset: 16
  DW_CFA_advance_loc: 2 to 000000000043a55b
  DW_CFA_def_cfa_offset: 8
  DW_CFA_advance_loc: 5 to 000000000043a560
  DW_CFA_restore_state
  DW_CFA_advance_loc: 56 to 000000000043a598
  DW_CFA_remember_state
  DW_CFA_def_cfa_offset: 56
  DW_CFA_advance_loc: 8 to 000000000043a5a0
  DW_CFA_def_cfa_offset: 48
  DW_CFA_advance_loc: 1 to 000000000043a5a1
  DW_CFA_def_cfa_offset: 40
  DW_CFA_advance_loc: 2 to 000000000043a5a3
  DW_CFA_def_cfa_offset: 32
  DW_CFA_advance_loc: 2 to 000000000043a5a5
  DW_CFA_def_cfa_offset: 24
  DW_CFA_advance_loc: 2 to 000000000043a5a7
  DW_CFA_def_cfa_offset: 16
  DW_CFA_advance_loc: 2 to 000000000043a5a9
  DW_CFA_def_cfa_offset: 8
  DW_CFA_advance_loc: 5 to 000000000043a5ae
  DW_CFA_restore_state
  DW_CFA_advance_loc: 46 to 000000000043a5dc
  DW_CFA_remember_state
  DW_CFA_def_cfa_offset: 56
  DW_CFA_advance_loc: 8 to 000000000043a5e4
  DW_CFA_def_cfa_offset: 48
  DW_CFA_advance_loc: 1 to 000000000043a5e5
  DW_CFA_def_cfa_offset: 40
  DW_CFA_advance_loc: 2 to 000000000043a5e7
  DW_CFA_def_cfa_offset: 32
  DW_CFA_advance_loc: 2 to 000000000043a5e9
  DW_CFA_def_cfa_offset: 24
  DW_CFA_advance_loc: 2 to 000000000043a5eb
  DW_CFA_def_cfa_offset: 16
  DW_CFA_advance_loc: 2 to 000000000043a5ed
  DW_CFA_def_cfa_offset: 8
  DW_CFA_advance_loc: 5 to 000000000043a5f2
  DW_CFA_restore_state
  DW_CFA_advance_loc: 56 to 000000000043a62a
  DW_CFA_remember_state
  DW_CFA_def_cfa_offset: 56
  DW_CFA_advance_loc: 8 to 000000000043a632
  DW_CFA_def_cfa_offset: 48
  DW_CFA_advance_loc: 1 to 000000000043a633
  DW_CFA_def_cfa_offset: 40
  DW_CFA_advance_loc: 2 to 000000000043a635
  DW_CFA_def_cfa_offset: 32
  DW_CFA_advance_loc: 2 to 000000000043a637
  DW_CFA_def_cfa_offset: 24
  DW_CFA_advance_loc: 2 to 000000000043a639
  DW_CFA_def_cfa_offset: 16
  DW_CFA_advance_loc: 2 to 000000000043a63b
  DW_CFA_def_cfa_offset: 8
  DW_CFA_advance_loc: 5 to 000000000043a640
  DW_CFA_restore_state
  DW_CFA_advance_loc: 46 to 000000000043a66e
  DW_CFA_remember_state
  DW_CFA_def_cfa_offset: 56
  DW_CFA_advance_loc: 8 to 000000000043a676
  DW_CFA_def_cfa_offset: 48
  DW_CFA_advance_loc: 1 to 000000000043a677
  DW_CFA_def_cfa_offset: 40
  DW_CFA_advance_loc: 2 to 000000000043a679
  DW_CFA_def_cfa_offset: 32
  DW_CFA_advance_loc: 2 to 000000000043a67b
  DW_CFA_def_cfa_offset: 24
  DW_CFA_advance_loc: 2 to 000000000043a67d
  DW_CFA_def_cfa_offset: 16
  DW_CFA_advance_loc: 2 to 000000000043a67f
  DW_CFA_def_cfa_offset: 8
  DW_CFA_advance_loc: 5 to 000000000043a684
  DW_CFA_restore_state
  DW_CFA_advance_loc: 56 to 000000000043a6bc
  DW_CFA_remember_state
  DW_CFA_def_cfa_offset: 56
  DW_CFA_advance_loc: 8 to 000000000043a6c4
  DW_CFA_def_cfa_offset: 48
  DW_CFA_advance_loc: 1 to 000000000043a6c5
  DW_CFA_def_cfa_offset: 40
  DW_CFA_advance_loc: 2 to 000000000043a6c7
  DW_CFA_def_cfa_offset: 32
  DW_CFA_advance_loc: 2 to 000000000043a6c9
  DW_CFA_def_cfa_offset: 24
  DW_CFA_advance_loc: 2 to 000000000043a6cb
  DW_CFA_def_cfa_offset: 16
  DW_CFA_advance_loc: 2 to 000000000043a6cd
  DW_CFA_def_cfa_offset: 8
  DW_CFA_advance_loc: 5 to 000000000043a6d2
  DW_CFA_restore_state
  DW_CFA_advance_loc: 46 to 000000000043a700
  DW_CFA_remember_state
  DW_CFA_def_cfa_offset: 56
  DW_CFA_advance_loc: 8 to 000000000043a708
  DW_CFA_def_cfa_offset: 48
  DW_CFA_advance_loc: 1 to 000000000043a709
  DW_CFA_def_cfa_offset: 40
  DW_CFA_advance_loc: 2 to 000000000043a70b
  DW_CFA_def_cfa_offset: 32
  DW_CFA_advance_loc: 2 to 000000000043a70d
  DW_CFA_def_cfa_offset: 24
  DW_CFA_advance_loc: 2 to 000000000043a70f
  DW_CFA_def_cfa_offset: 16
  DW_CFA_advance_loc: 2 to 000000000043a711
  DW_CFA_def_cfa_offset: 8
  DW_CFA_advance_loc: 5 to 000000000043a716
  DW_CFA_restore_state
  DW_CFA_advance_loc: 56 to 000000000043a74e
  DW_CFA_remember_state
  DW_CFA_def_cfa_offset: 56
  DW_CFA_advance_loc: 8 to 000000000043a756
  DW_CFA_def_cfa_offset: 48
  DW_CFA_advance_loc: 1 to 000000000043a757
  DW_CFA_def_cfa_offset: 40
  DW_CFA_advance_loc: 2 to 000000000043a759
  DW_CFA_def_cfa_offset: 32
  DW_CFA_advance_loc: 2 to 000000000043a75b
  DW_CFA_def_cfa_offset: 24
  DW_CFA_advance_loc: 2 to 000000000043a75d
  DW_CFA_def_cfa_offset: 16
  DW_CFA_advance_loc: 2 to 000000000043a75f
  DW_CFA_def_cfa_offset: 8
  DW_CFA_advance_loc: 5 to 000000000043a764
  DW_CFA_restore_state
  DW_CFA_advance_loc: 46 to 000000000043a792
  DW_CFA_remember_state
  DW_CFA_def_cfa_offset: 56
  DW_CFA_advance_loc: 8 to 000000000043a79a
  DW_CFA_def_cfa_offset: 48
  DW_CFA_advance_loc: 1 to 000000000043a79b
  DW_CFA_def_cfa_offset: 40
  DW_CFA_advance_loc: 2 to 000000000043a79d
  DW_CFA_def_cfa_offset: 32
  DW_CFA_advance_loc: 2 to 000000000043a79f
  DW_CFA_def_cfa_offset: 24
  DW_CFA_advance_loc: 2 to 000000000043a7a1
  DW_CFA_def_cfa_offset: 16
  DW_CFA_advance_loc: 2 to 000000000043a7a3
  DW_CFA_def_cfa_offset: 8
  DW_CFA_advance_loc: 5 to 000000000043a7a8
  DW_CFA_restore_state
  DW_CFA_advance_loc: 56 to 000000000043a7e0
  DW_CFA_remember_state
  DW_CFA_def_cfa_offset: 56
  DW_CFA_advance_loc: 8 to 000000000043a7e8
  DW_CFA_def_cfa_offset: 48
  DW_CFA_advance_loc: 1 to 000000000043a7e9
  DW_CFA_def_cfa_offset: 40
  DW_CFA_advance_loc: 2 to 000000000043a7eb
  DW_CFA_def_cfa_offset: 32
  DW_CFA_advance_loc: 2 to 000000000043a7ed
  DW_CFA_def_cfa_offset: 24
  DW_CFA_advance_loc: 2 to 000000000043a7ef
  DW_CFA_def_cfa_offset: 16
  DW_CFA_advance_loc: 2 to 000000000043a7f1
  DW_CFA_def_cfa_offset: 8
  DW_CFA_advance_loc: 5 to 000000000043a7f6
  DW_CFA_restore_state
  DW_CFA_advance_loc: 46 to 000000000043a824
  DW_CFA_remember_state
  DW_CFA_def_cfa_offset: 56
  DW_CFA_advance_loc: 8 to 000000000043a82c
  DW_CFA_def_cfa_offset: 48
  DW_CFA_advance_loc: 1 to 000000000043a82d
  DW_CFA_def_cfa_offset: 40
  DW_CFA_advance_loc: 2 to 000000000043a82f
  DW_CFA_def_cfa_offset: 32
  DW_CFA_advance_loc: 2 to 000000000043a831
  DW_CFA_def_cfa_offset: 24
  DW_CFA_advance_loc: 2 to 000000000043a833
  DW_CFA_def_cfa_offset: 16
  DW_CFA_advance_loc: 2 to 000000000043a835
  DW_CFA_def_cfa_offset: 8
  DW_CFA_advance_loc: 5 to 000000000043a83a
  DW_CFA_restore_state
  DW_CFA_advance_loc: 56 to 000000000043a872
  DW_CFA_remember_state
  DW_CFA_def_cfa_offset: 56
  DW_CFA_advance_loc: 8 to 000000000043a87a
  DW_CFA_def_cfa_offset: 48
  DW_CFA_advance_loc: 1 to 000000000043a87b
  DW_CFA_def_cfa_offset: 40
  DW_CFA_advance_loc: 2 to 000000000043a87d
  DW_CFA_def_cfa_offset: 32
  DW_CFA_advance_loc: 2 to 000000000043a87f
  DW_CFA_def_cfa_offset: 24
  DW_CFA_advance_loc: 2 to 000000000043a881
  DW_CFA_def_cfa_offset: 16
  DW_CFA_advance_loc: 2 to 000000000043a883
  DW_CFA_def_cfa_offset: 8
  DW_CFA_advance_loc: 5 to 000000000043a888
  DW_CFA_restore_state
  DW_CFA_advance_loc: 46 to 000000000043a8b6
  DW_CFA_remember_state
  DW_CFA_def_cfa_offset: 56
  DW_CFA_advance_loc: 8 to 000000000043a8be
  DW_CFA_def_cfa_offset: 48
  DW_CFA_advance_loc: 1 to 000000000043a8bf
  DW_CFA_def_cfa_offset: 40
  DW_CFA_advance_loc: 2 to 000000000043a8c1
  DW_CFA_def_cfa_offset: 32
  DW_CFA_advance_loc: 2 to 000000000043a8c3
  DW_CFA_def_cfa_offset: 24
  DW_CFA_advance_loc: 2 to 000000000043a8c5
  DW_CFA_def_cfa_offset: 16
  DW_CFA_advance_loc: 2 to 000000000043a8c7
  DW_CFA_def_cfa_offset: 8
  DW_CFA_advance_loc: 5 to 000000000043a8cc
  DW_CFA_restore_state
  DW_CFA_advance_loc: 56 to 000000000043a904
  DW_CFA_remember_state
  DW_CFA_def_cfa_offset: 56
  DW_CFA_advance_loc: 8 to 000000000043a90c
  DW_CFA_def_cfa_offset: 48
  DW_CFA_advance_loc: 1 to 000000000043a90d
  DW_CFA_def_cfa_offset: 40
  DW_CFA_advance_loc: 2 to 000000000043a90f
  DW_CFA_def_cfa_offset: 32
  DW_CFA_advance_loc: 2 to 000000000043a911
  DW_CFA_def_cfa_offset: 24
  DW_CFA_advance_loc: 2 to 000000000043a913
  DW_CFA_def_cfa_offset: 16
  DW_CFA_advance_loc: 2 to 000000000043a915
  DW_CFA_def_cfa_offset: 8
  DW_CFA_advance_loc: 5 to 000000000043a91a
  DW_CFA_restore_state
  DW_CFA_advance_loc: 46 to 000000000043a948
  DW_CFA_remember_state
  DW_CFA_def_cfa_offset: 56
  DW_CFA_advance_loc: 8 to 000000000043a950
  DW_CFA_def_cfa_offset: 48
  DW_CFA_advance_loc: 1 to 000000000043a951
  DW_CFA_def_cfa_offset: 40
  DW_CFA_advance_loc: 2 to 000000000043a953
  DW_CFA_def_cfa_offset: 32
  DW_CFA_advance_loc: 2 to 000000000043a955
  DW_CFA_def_cfa_offset: 24
  DW_CFA_advance_loc: 2 to 000000000043a957
  DW_CFA_def_cfa_offset: 16
  DW_CFA_advance_loc: 2 to 000000000043a959
  DW_CFA_def_cfa_offset: 8
  DW_CFA_advance_loc: 5 to 000000000043a95e
  DW_CFA_restore_state
  DW_CFA_advance_loc: 56 to 000000000043a996
  DW_CFA_remember_state
  DW_CFA_def_cfa_offset: 56
  DW_CFA_advance_loc: 8 to 000000000043a99e
  DW_CFA_def_cfa_offset: 48
  DW_CFA_advance_loc: 1 to 000000000043a99f
  DW_CFA_def_cfa_offset: 40
  DW_CFA_advance_loc: 2 to 000000000043a9a1
  DW_CFA_def_cfa_offset: 32
  DW_CFA_advance_loc: 2 to 000000000043a9a3
  DW_CFA_def_cfa_offset: 24
  DW_CFA_advance_loc: 2 to 000000000043a9a5
  DW_CFA_def_cfa_offset: 16
  DW_CFA_advance_loc: 2 to 000000000043a9a7
  DW_CFA_def_cfa_offset: 8
  DW_CFA_advance_loc: 5 to 000000000043a9ac
  DW_CFA_restore_state
  DW_CFA_advance_loc: 46 to 000000000043a9da
  DW_CFA_remember_state
  DW_CFA_def_cfa_offset: 56
  DW_CFA_advance_loc: 8 to 000000000043a9e2
  DW_CFA_def_cfa_offset: 48
  DW_CFA_advance_loc: 1 to 000000000043a9e3
  DW_CFA_def_cfa_offset: 40
  DW_CFA_advance_loc: 2 to 000000000043a9e5
  DW_CFA_def_cfa_offset: 32
  DW_CFA_advance_loc: 2 to 000000000043a9e7
  DW_CFA_def_cfa_offset: 24
  DW_CFA_advance_loc: 2 to 000000000043a9e9
  DW_CFA_def_cfa_offset: 16
  DW_CFA_advance_loc: 2 to 000000000043a9eb
  DW_CFA_def_cfa_offset: 8
  DW_CFA_advance_loc: 5 to 000000000043a9f0
  DW_CFA_restore_state
  DW_CFA_advance_loc: 56 to 000000000043aa28
  DW_CFA_remember_state
  DW_CFA_def_cfa_offset: 56
  DW_CFA_advance_loc: 8 to 000000000043aa30
  DW_CFA_def_cfa_offset: 48
  DW_CFA_advance_loc: 1 to 000000000043aa31
  DW_CFA_def_cfa_offset: 40
  DW_CFA_advance_loc: 2 to 000000000043aa33
  DW_CFA_def_cfa_offset: 32
  DW_CFA_advance_loc: 2 to 000000000043aa35
  DW_CFA_def_cfa_offset: 24
  DW_CFA_advance_loc: 2 to 000000000043aa37
  DW_CFA_def_cfa_offset: 16
  DW_CFA_advance_loc: 2 to 000000000043aa39
  DW_CFA_def_cfa_offset: 8
  DW_CFA_advance_loc: 5 to 000000000043aa3e
  DW_CFA_restore_state
  DW_CFA_advance_loc: 46 to 000000000043aa6c
  DW_CFA_remember_state
  DW_CFA_def_cfa_offset: 56
  DW_CFA_advance_loc: 8 to 000000000043aa74
  DW_CFA_def_cfa_offset: 48
  DW_CFA_advance_loc: 1 to 000000000043aa75
  DW_CFA_def_cfa_offset: 40
  DW_CFA_advance_loc: 2 to 000000000043aa77
  DW_CFA_def_cfa_offset: 32
  DW_CFA_advance_loc: 2 to 000000000043aa79
  DW_CFA_def_cfa_offset: 24
  DW_CFA_advance_loc: 2 to 000000000043aa7b
  DW_CFA_def_cfa_offset: 16
  DW_CFA_advance_loc: 2 to 000000000043aa7d
  DW_CFA_def_cfa_offset: 8
  DW_CFA_advance_loc: 5 to 000000000043aa82
  DW_CFA_restore_state
  DW_CFA_advance_loc: 56 to 000000000043aaba
  DW_CFA_remember_state
  DW_CFA_def_cfa_offset: 56
  DW_CFA_advance_loc: 8 to 000000000043aac2
  DW_CFA_def_cfa_offset: 48
  DW_CFA_advance_loc: 1 to 000000000043aac3
  DW_CFA_def_cfa_offset: 40
  DW_CFA_advance_loc: 2 to 000000000043aac5
  DW_CFA_def_cfa_offset: 32
  DW_CFA_advance_loc: 2 to 000000000043aac7
  DW_CFA_def_cfa_offset: 24
  DW_CFA_advance_loc: 2 to 000000000043aac9
  DW_CFA_def_cfa_offset: 16
  DW_CFA_advance_loc: 2 to 000000000043aacb
  DW_CFA_def_cfa_offset: 8
  DW_CFA_advance_loc: 5 to 000000000043aad0
  DW_CFA_restore_state
  DW_CFA_advance_loc: 46 to 000000000043aafe
  DW_CFA_remember_state
  DW_CFA_def_cfa_offset: 56
  DW_CFA_advance_loc: 8 to 000000000043ab06
  DW_CFA_def_cfa_offset: 48
  DW_CFA_advance_loc: 1 to 000000000043ab07
  DW_CFA_def_cfa_offset: 40
  DW_CFA_advance_loc: 2 to 000000000043ab09
  DW_CFA_def_cfa_offset: 32
  DW_CFA_advance_loc: 2 to 000000000043ab0b
  DW_CFA_def_cfa_offset: 24
  DW_CFA_advance_loc: 2 to 000000000043ab0d
  DW_CFA_def_cfa_offset: 16
  DW_CFA_advance_loc: 2 to 000000000043ab0f
  DW_CFA_def_cfa_offset: 8
  DW_CFA_advance_loc: 5 to 000000000043ab14
  DW_CFA_restore_state
  DW_CFA_advance_loc: 56 to 000000000043ab4c
  DW_CFA_remember_state
  DW_CFA_def_cfa_offset: 56
  DW_CFA_advance_loc: 8 to 000000000043ab54
  DW_CFA_def_cfa_offset: 48
  DW_CFA_advance_loc: 1 to 000000000043ab55
  DW_CFA_def_cfa_offset: 40
  DW_CFA_advance_loc: 2 to 000000000043ab57
  DW_CFA_def_cfa_offset: 32
  DW_CFA_advance_loc: 2 to 000000000043ab59
  DW_CFA_def_cfa_offset: 24
  DW_CFA_advance_loc: 2 to 000000000043ab5b
  DW_CFA_def_cfa_offset: 16
  DW_CFA_advance_loc: 2 to 000000000043ab5d
  DW_CFA_def_cfa_offset: 8
  DW_CFA_advance_loc: 5 to 000000000043ab62
  DW_CFA_restore_state
  DW_CFA_advance_loc: 46 to 000000000043ab90
  DW_CFA_remember_state
  DW_CFA_def_cfa_offset: 56
  DW_CFA_advance_loc: 8 to 000000000043ab98
  DW_CFA_def_cfa_offset: 48
  DW_CFA_advance_loc: 1 to 000000000043ab99
  DW_CFA_def_cfa_offset: 40
  DW_CFA_advance_loc: 2 to 000000000043ab9b
  DW_CFA_def_cfa_offset: 32
  DW_CFA_advance_loc: 2 to 000000000043ab9d
  DW_CFA_def_cfa_offset: 24
  DW_CFA_advance_loc: 2 to 000000000043ab9f
  DW_CFA_def_cfa_offset: 16
  DW_CFA_advance_loc: 2 to 000000000043aba1
  DW_CFA_def_cfa_offset: 8
  DW_CFA_advance_loc: 5 to 000000000043aba6
  DW_CFA_restore_state
  DW_CFA_advance_loc: 56 to 000000000043abde
  DW_CFA_remember_state
  DW_CFA_def_cfa_offset: 56
  DW_CFA_advance_loc: 8 to 000000000043abe6
  DW_CFA_def_cfa_offset: 48
  DW_CFA_advance_loc: 1 to 000000000043abe7
  DW_CFA_def_cfa_offset: 40
  DW_CFA_advance_loc: 2 to 000000000043abe9
  DW_CFA_def_cfa_offset: 32
  DW_CFA_advance_loc: 2 to 000000000043abeb
  DW_CFA_def_cfa_offset: 24
  DW_CFA_advance_loc: 2 to 000000000043abed
  DW_CFA_def_cfa_offset: 16
  DW_CFA_advance_loc: 2 to 000000000043abef
  DW_CFA_def_cfa_offset: 8
  DW_CFA_advance_loc: 5 to 000000000043abf4
  DW_CFA_restore_state
  DW_CFA_advance_loc: 46 to 000000000043ac22
  DW_CFA_remember_state
  DW_CFA_def_cfa_offset: 56
  DW_CFA_advance_loc: 8 to 000000000043ac2a
  DW_CFA_def_cfa_offset: 48
  DW_CFA_advance_loc: 1 to 000000000043ac2b
  DW_CFA_def_cfa_offset: 40
  DW_CFA_advance_loc: 2 to 000000000043ac2d
  DW_CFA_def_cfa_offset: 32
  DW_CFA_advance_loc: 2 to 000000000043ac2f
  DW_CFA_def_cfa_offset: 24
  DW_CFA_advance_loc: 2 to 000000000043ac31
  DW_CFA_def_cfa_offset: 16
  DW_CFA_advance_loc: 2 to 000000000043ac33
  DW_CFA_def_cfa_offset: 8
  DW_CFA_advance_loc: 5 to 000000000043ac38
  DW_CFA_restore_state
  DW_CFA_advance_loc: 56 to 000000000043ac70
  DW_CFA_remember_state
  DW_CFA_def_cfa_offset: 56
  DW_CFA_advance_loc: 8 to 000000000043ac78
  DW_CFA_def_cfa_offset: 48
  DW_CFA_advance_loc: 1 to 000000000043ac79
  DW_CFA_def_cfa_offset: 40
  DW_CFA_advance_loc: 2 to 000000000043ac7b
  DW_CFA_def_cfa_offset: 32
  DW_CFA_advance_loc: 2 to 000000000043ac7d
  DW_CFA_def_cfa_offset: 24
  DW_CFA_advance_loc: 2 to 000000000043ac7f
  DW_CFA_def_cfa_offset: 16
  DW_CFA_advance_loc: 2 to 000000000043ac81
  DW_CFA_def_cfa_offset: 8
  DW_CFA_advance_loc: 5 to 000000000043ac86
  DW_CFA_restore_state
  DW_CFA_advance_loc: 46 to 000000000043acb4
  DW_CFA_remember_state
  DW_CFA_def_cfa_offset: 56
  DW_CFA_advance_loc: 8 to 000000000043acbc
  DW_CFA_def_cfa_offset: 48
  DW_CFA_advance_loc: 1 to 000000000043acbd
  DW_CFA_def_cfa_offset: 40
  DW_CFA_advance_loc: 2 to 000000000043acbf
  DW_CFA_def_cfa_offset: 32
  DW_CFA_advance_loc: 2 to 000000000043acc1
  DW_CFA_def_cfa_offset: 24
  DW_CFA_advance_loc: 2 to 000000000043acc3
  DW_CFA_def_cfa_offset: 16
  DW_CFA_advance_loc: 2 to 000000000043acc5
  DW_CFA_def_cfa_offset: 8
  DW_CFA_advance_loc: 5 to 000000000043acca
  DW_CFA_restore_state
  DW_CFA_advance_loc: 56 to 000000000043ad02
  DW_CFA_remember_state
  DW_CFA_def_cfa_offset: 56
  DW_CFA_advance_loc: 8 to 000000000043ad0a
  DW_CFA_def_cfa_offset: 48
  DW_CFA_advance_loc: 1 to 000000000043ad0b
  DW_CFA_def_cfa_offset: 40
  DW_CFA_advance_loc: 2 to 000000000043ad0d
  DW_CFA_def_cfa_offset: 32
  DW_CFA_advance_loc: 2 to 000000000043ad0f
  DW_CFA_def_cfa_offset: 24
  DW_CFA_advance_loc: 2 to 000000000043ad11
  DW_CFA_def_cfa_offset: 16
  DW_CFA_advance_loc: 2 to 000000000043ad13
  DW_CFA_def_cfa_offset: 8
  DW_CFA_advance_loc: 5 to 000000000043ad18
  DW_CFA_restore_state
  DW_CFA_advance_loc: 46 to 000000000043ad46
  DW_CFA_remember_state
  DW_CFA_def_cfa_offset: 56
  DW_CFA_advance_loc: 8 to 000000000043ad4e
  DW_CFA_def_cfa_offset: 48
  DW_CFA_advance_loc: 1 to 000000000043ad4f
  DW_CFA_def_cfa_offset: 40
  DW_CFA_advance_loc: 2 to 000000000043ad51
  DW_CFA_def_cfa_offset: 32
  DW_CFA_advance_loc: 2 to 000000000043ad53
  DW_CFA_def_cfa_offset: 24
  DW_CFA_advance_loc: 2 to 000000000043ad55
  DW_CFA_def_cfa_offset: 16
  DW_CFA_advance_loc: 2 to 000000000043ad57
  DW_CFA_def_cfa_offset: 8
  DW_CFA_advance_loc: 5 to 000000000043ad5c
  DW_CFA_restore_state
  DW_CFA_advance_loc: 56 to 000000000043ad94
  DW_CFA_remember_state
  DW_CFA_def_cfa_offset: 56
  DW_CFA_advance_loc: 8 to 000000000043ad9c
  DW_CFA_def_cfa_offset: 48
  DW_CFA_advance_loc: 1 to 000000000043ad9d
  DW_CFA_def_cfa_offset: 40
  DW_CFA_advance_loc: 2 to 000000000043ad9f
  DW_CFA_def_cfa_offset: 32
  DW_CFA_advance_loc: 2 to 000000000043ada1
  DW_CFA_def_cfa_offset: 24
  DW_CFA_advance_loc: 2 to 000000000043ada3
  DW_CFA_def_cfa_offset: 16
  DW_CFA_advance_loc: 2 to 000000000043ada5
  DW_CFA_def_cfa_offset: 8
  DW_CFA_advance_loc: 5 to 000000000043adaa
  DW_CFA_restore_state
  DW_CFA_advance_loc: 46 to 000000000043add8
  DW_CFA_remember_state
  DW_CFA_def_cfa_offset: 56
  DW_CFA_advance_loc: 8 to 000000000043ade0
  DW_CFA_def_cfa_offset: 48
  DW_CFA_advance_loc: 1 to 000000000043ade1
  DW_CFA_def_cfa_offset: 40
  DW_CFA_advance_loc: 2 to 000000000043ade3
  DW_CFA_def_cfa_offset: 32
  DW_CFA_advance_loc: 2 to 000000000043ade5
  DW_CFA_def_cfa_offset: 24
  DW_CFA_advance_loc: 2 to 000000000043ade7
  DW_CFA_def_cfa_offset: 16
  DW_CFA_advance_loc: 2 to 000000000043ade9
  DW_CFA_def_cfa_offset: 8
  DW_CFA_advance_loc: 5 to 000000000043adee
  DW_CFA_restore_state
  DW_CFA_advance_loc: 56 to 000000000043ae26
  DW_CFA_remember_state
  DW_CFA_def_cfa_offset: 56
  DW_CFA_advance_loc: 8 to 000000000043ae2e
  DW_CFA_def_cfa_offset: 48
  DW_CFA_advance_loc: 1 to 000000000043ae2f
  DW_CFA_def_cfa_offset: 40
  DW_CFA_advance_loc: 2 to 000000000043ae31
  DW_CFA_def_cfa_offset: 32
  DW_CFA_advance_loc: 2 to 000000000043ae33
  DW_CFA_def_cfa_offset: 24
  DW_CFA_advance_loc: 2 to 000000000043ae35
  DW_CFA_def_cfa_offset: 16
  DW_CFA_advance_loc: 2 to 000000000043ae37
  DW_CFA_def_cfa_offset: 8
  DW_CFA_advance_loc: 5 to 000000000043ae3c
  DW_CFA_restore_state
  DW_CFA_advance_loc: 46 to 000000000043ae6a
  DW_CFA_remember_state
  DW_CFA_def_cfa_offset: 56
  DW_CFA_advance_loc: 8 to 000000000043ae72
  DW_CFA_def_cfa_offset: 48
  DW_CFA_advance_loc: 1 to 000000000043ae73
  DW_CFA_def_cfa_offset: 40
  DW_CFA_advance_loc: 2 to 000000000043ae75
  DW_CFA_def_cfa_offset: 32
  DW_CFA_advance_loc: 2 to 000000000043ae77
  DW_CFA_def_cfa_offset: 24
  DW_CFA_advance_loc: 2 to 000000000043ae79
  DW_CFA_def_cfa_offset: 16
  DW_CFA_advance_loc: 2 to 000000000043ae7b
  DW_CFA_def_cfa_offset: 8
  DW_CFA_advance_loc: 5 to 000000000043ae80
  DW_CFA_restore_state
  DW_CFA_advance_loc: 56 to 000000000043aeb8
  DW_CFA_remember_state
  DW_CFA_def_cfa_offset: 56
  DW_CFA_advance_loc: 8 to 000000000043aec0
  DW_CFA_def_cfa_offset: 48
  DW_CFA_advance_loc: 1 to 000000000043aec1
  DW_CFA_def_cfa_offset: 40
  DW_CFA_advance_loc: 2 to 000000000043aec3
  DW_CFA_def_cfa_offset: 32
  DW_CFA_advance_loc: 2 to 000000000043aec5
  DW_CFA_def_cfa_offset: 24
  DW_CFA_advance_loc: 2 to 000000000043aec7
  DW_CFA_def_cfa_offset: 16
  DW_CFA_advance_loc: 2 to 000000000043aec9
  DW_CFA_def_cfa_offset: 8
  DW_CFA_advance_loc: 5 to 000000000043aece
  DW_CFA_restore_state
  DW_CFA_advance_loc: 46 to 000000000043aefc
  DW_CFA_remember_state
  DW_CFA_def_cfa_offset: 56
  DW_CFA_advance_loc: 8 to 000000000043af04
  DW_CFA_def_cfa_offset: 48
  DW_CFA_advance_loc: 1 to 000000000043af05
  DW_CFA_def_cfa_offset: 40
  DW_CFA_advance_loc: 2 to 000000000043af07
  DW_CFA_def_cfa_offset: 32
  DW_CFA_advance_loc: 2 to 000000000043af09
  DW_CFA_def_cfa_offset: 24
  DW_CFA_advance_loc: 2 to 000000000043af0b
  DW_CFA_def_cfa_offset: 16
  DW_CFA_advance_loc: 2 to 000000000043af0d
  DW_CFA_def_cfa_offset: 8
  DW_CFA_advance_loc: 5 to 000000000043af12
  DW_CFA_restore_state
  DW_CFA_advance_loc: 56 to 000000000043af4a
  DW_CFA_remember_state
  DW_CFA_def_cfa_offset: 56
  DW_CFA_advance_loc: 8 to 000000000043af52
  DW_CFA_def_cfa_offset: 48
  DW_CFA_advance_loc: 1 to 000000000043af53
  DW_CFA_def_cfa_offset: 40
  DW_CFA_advance_loc: 2 to 000000000043af55
  DW_CFA_def_cfa_offset: 32
  DW_CFA_advance_loc: 2 to 000000000043af57
  DW_CFA_def_cfa_offset: 24
  DW_CFA_advance_loc: 2 to 000000000043af59
  DW_CFA_def_cfa_offset: 16
  DW_CFA_advance_loc: 2 to 000000000043af5b
  DW_CFA_def_cfa_offset: 8
  DW_CFA_advance_loc: 5 to 000000000043af60
  DW_CFA_restore_state
  DW_CFA_advance_loc: 46 to 000000000043af8e
  DW_CFA_remember_state
  DW_CFA_def_cfa_offset: 56
  DW_CFA_advance_loc: 8 to 000000000043af96
  DW_CFA_def_cfa_offset: 48
  DW_CFA_advance_loc: 1 to 000000000043af97
  DW_CFA_def_cfa_offset: 40
  DW_CFA_advance_loc: 2 to 000000000043af99
  DW_CFA_def_cfa_offset: 32
  DW_CFA_advance_loc: 2 to 000000000043af9b
  DW_CFA_def_cfa_offset: 24
  DW_CFA_advance_loc: 2 to 000000000043af9d
  DW_CFA_def_cfa_offset: 16
  DW_CFA_advance_loc: 2 to 000000000043af9f
  DW_CFA_def_cfa_offset: 8
  DW_CFA_advance_loc: 5 to 000000000043afa4
  DW_CFA_restore_state
  DW_CFA_advance_loc: 56 to 000000000043afdc
  DW_CFA_remember_state
  DW_CFA_def_cfa_offset: 56
  DW_CFA_advance_loc: 8 to 000000000043afe4
  DW_CFA_def_cfa_offset: 48
  DW_CFA_advance_loc: 1 to 000000000043afe5
  DW_CFA_def_cfa_offset: 40
  DW_CFA_advance_loc: 2 to 000000000043afe7
  DW_CFA_def_cfa_offset: 32
  DW_CFA_advance_loc: 2 to 000000000043afe9
  DW_CFA_def_cfa_offset: 24
  DW_CFA_advance_loc: 2 to 000000000043afeb
  DW_CFA_def_cfa_offset: 16
  DW_CFA_advance_loc: 2 to 000000000043afed
  DW_CFA_def_cfa_offset: 8
  DW_CFA_advance_loc: 5 to 000000000043aff2
  DW_CFA_restore_state
  DW_CFA_advance_loc: 46 to 000000000043b020
  DW_CFA_remember_state
  DW_CFA_def_cfa_offset: 56
  DW_CFA_advance_loc: 8 to 000000000043b028
  DW_CFA_def_cfa_offset: 48
  DW_CFA_advance_loc: 1 to 000000000043b029
  DW_CFA_def_cfa_offset: 40
  DW_CFA_advance_loc: 2 to 000000000043b02b
  DW_CFA_def_cfa_offset: 32
  DW_CFA_advance_loc: 2 to 000000000043b02d
  DW_CFA_def_cfa_offset: 24
  DW_CFA_advance_loc: 2 to 000000000043b02f
  DW_CFA_def_cfa_offset: 16
  DW_CFA_advance_loc: 2 to 000000000043b031
  DW_CFA_def_cfa_offset: 8
  DW_CFA_advance_loc: 5 to 000000000043b036
  DW_CFA_restore_state
  DW_CFA_advance_loc: 56 to 000000000043b06e
  DW_CFA_remember_state
  DW_CFA_def_cfa_offset: 56
  DW_CFA_advance_loc: 8 to 000000000043b076
  DW_CFA_def_cfa_offset: 48
  DW_CFA_advance_loc: 1 to 000000000043b077
  DW_CFA_def_cfa_offset: 40
  DW_CFA_advance_loc: 2 to 000000000043b079
  DW_CFA_def_cfa_offset: 32
  DW_CFA_advance_loc: 2 to 000000000043b07b
  DW_CFA_def_cfa_offset: 24
  DW_CFA_advance_loc: 2 to 000000000043b07d
  DW_CFA_def_cfa_offset: 16
  DW_CFA_advance_loc: 2 to 000000000043b07f
  DW_CFA_def_cfa_offset: 8
  DW_CFA_advance_loc: 5 to 000000000043b084
  DW_CFA_restore_state
  DW_CFA_advance_loc: 46 to 000000000043b0b2
  DW_CFA_remember_state
  DW_CFA_def_cfa_offset: 56
  DW_CFA_advance_loc: 8 to 000000000043b0ba
  DW_CFA_def_cfa_offset: 48
  DW_CFA_advance_loc: 1 to 000000000043b0bb
  DW_CFA_def_cfa_offset: 40
  DW_CFA_advance_loc: 2 to 000000000043b0bd
  DW_CFA_def_cfa_offset: 32
  DW_CFA_advance_loc: 2 to 000000000043b0bf
  DW_CFA_def_cfa_offset: 24
  DW_CFA_advance_loc: 2 to 000000000043b0c1
  DW_CFA_def_cfa_offset: 16
  DW_CFA_advance_loc: 2 to 000000000043b0c3
  DW_CFA_def_cfa_offset: 8
  DW_CFA_advance_loc: 5 to 000000000043b0c8
  DW_CFA_restore_state
  DW_CFA_advance_loc: 56 to 000000000043b100
  DW_CFA_remember_state
  DW_CFA_def_cfa_offset: 56
