  DW_CFA_nop
  DW_CFA_nop
  DW_CFA_nop
  DW_CFA_nop
  DW_CFA_nop
  DW_CFA_nop

00011898 0000000000000024 00011880 FDE cie=00011880 pc=00000000004722c0..00000000004722fe
  DW_CFA_advance_loc: 4 to 00000000004722c4
  DW_CFA_def_cfa_offset: 32
  DW_CFA_advance_loc: 52 to 00000000004722f8
  DW_CFA_remember_state
  DW_CFA_def_cfa_offset: 8
  DW_CFA_advance_loc: 1 to 00000000004722f9
  DW_CFA_restore_state
  DW_CFA_nop
  DW_CFA_nop
  DW_CFA_nop
  DW_CFA_nop
  DW_CFA_nop
  DW_CFA_nop
  DW_CFA_nop

000118c0 0000000000000014 ffffffff CIE
  Version:               1
  Augmentation:          ""
  Code alignment factor: 1
  Data alignment factor: -8
  Return address column: 16

  DW_CFA_def_cfa: r7 (rsp) ofs 8
  DW_CFA_offset: r16 (rip) at cfa-8
  DW_CFA_nop
  DW_CFA_nop
  DW_CFA_nop
  DW_CFA_nop
  DW_CFA_nop
  DW_CFA_nop

000118d8 0000000000000044 000118c0 FDE cie=000118c0 pc=0000000000472300..000000000047236e
  DW_CFA_advance_loc: 2 to 0000000000472302
  DW_CFA_def_cfa_offset: 16
  DW_CFA_offset: r13 (r13) at cfa-16
  DW_CFA_advance_loc: 8 to 000000000047230a
  DW_CFA_def_cfa_offset: 24
  DW_CFA_offset: r12 (r12) at cfa-24
  DW_CFA_advance_loc: 7 to 0000000000472311
  DW_CFA_def_cfa_offset: 32
  DW_CFA_offset: r6 (rbp) at cfa-32
  DW_CFA_advance_loc: 4 to 0000000000472315
  DW_CFA_def_cfa_offset: 40
  DW_CFA_offset: r3 (rbx) at cfa-40
  DW_CFA_advance_loc: 7 to 000000000047231c
  DW_CFA_def_cfa_offset: 48
  DW_CFA_advance_loc: 31 to 000000000047233b
  DW_CFA_remember_state
  DW_CFA_def_cfa_offset: 40
  DW_CFA_advance_loc: 1 to 000000000047233c
  DW_CFA_def_cfa_offset: 32
  DW_CFA_advance_loc: 1 to 000000000047233d
  DW_CFA_def_cfa_offset: 24
  DW_CFA_advance_loc: 2 to 000000000047233f
  DW_CFA_def_cfa_offset: 16
  DW_CFA_advance_loc: 2 to 0000000000472341
  DW_CFA_def_cfa_offset: 8
  DW_CFA_advance_loc: 7 to 0000000000472348
  DW_CFA_restore_state
  DW_CFA_nop
  DW_CFA_nop
  DW_CFA_nop
  DW_CFA_nop
  DW_CFA_nop
  DW_CFA_nop
  DW_CFA_nop

00011920 0000000000000014 ffffffff CIE
  Version:               1
  Augmentation:          ""
  Code alignment factor: 1
  Data alignment factor: -8
  Return address column: 16

  DW_CFA_def_cfa: r7 (rsp) ofs 8
  DW_CFA_offset: r16 (rip) at cfa-8
  DW_CFA_nop
  DW_CFA_nop
  DW_CFA_nop
  DW_CFA_nop
  DW_CFA_nop
  DW_CFA_nop

00011938 0000000000000014 00011920 FDE cie=00011920 pc=0000000000472370..000000000047239c

00011950 0000000000000014 ffffffff CIE
  Version:               1
  Augmentation:          ""
  Code alignment factor: 1
  Data alignment factor: -8
  Return address column: 16

  DW_CFA_def_cfa: r7 (rsp) ofs 8
  DW_CFA_offset: r16 (rip) at cfa-8
  DW_CFA_nop
  DW_CFA_nop
  DW_CFA_nop
  DW_CFA_nop
  DW_CFA_nop
  DW_CFA_nop

00011968 0000000000000084 00011950 FDE cie=00011950 pc=00000000004723a0..00000000004725f5
  DW_CFA_advance_loc: 2 to 00000000004723a2
  DW_CFA_def_cfa_offset: 16
  DW_CFA_offset: r15 (r15) at cfa-16
  DW_CFA_advance_loc: 2 to 00000000004723a4
  DW_CFA_def_cfa_offset: 24
  DW_CFA_offset: r14 (r14) at cfa-24
  DW_CFA_advance_loc: 2 to 00000000004723a6
  DW_CFA_def_cfa_offset: 32
  DW_CFA_offset: r13 (r13) at cfa-32
  DW_CFA_advance_loc: 5 to 00000000004723ab
  DW_CFA_def_cfa_offset: 40
  DW_CFA_offset: r12 (r12) at cfa-40
  DW_CFA_advance_loc: 4 to 00000000004723af
  DW_CFA_def_cfa_offset: 48
  DW_CFA_offset: r6 (rbp) at cfa-48
  DW_CFA_advance_loc: 4 to 00000000004723b3
  DW_CFA_def_cfa_offset: 56
  DW_CFA_offset: r3 (rbx) at cfa-56
  DW_CFA_advance_loc: 4 to 00000000004723b7
  DW_CFA_def_cfa_offset: 64
  DW_CFA_advance_loc2: 271 to 00000000004724c6
  DW_CFA_remember_state
  DW_CFA_def_cfa_offset: 56
  DW_CFA_advance_loc: 1 to 00000000004724c7
  DW_CFA_def_cfa_offset: 48
  DW_CFA_advance_loc: 1 to 00000000004724c8
  DW_CFA_def_cfa_offset: 40
  DW_CFA_advance_loc: 2 to 00000000004724ca
  DW_CFA_def_cfa_offset: 32
  DW_CFA_advance_loc: 2 to 00000000004724cc
  DW_CFA_def_cfa_offset: 24
  DW_CFA_advance_loc: 2 to 00000000004724ce
  DW_CFA_def_cfa_offset: 16
  DW_CFA_advance_loc: 2 to 00000000004724d0
  DW_CFA_def_cfa_offset: 8
  DW_CFA_advance_loc: 8 to 00000000004724d8
  DW_CFA_restore_state
  DW_CFA_advance_loc: 57 to 0000000000472511
  DW_CFA_remember_state
  DW_CFA_def_cfa_offset: 56
  DW_CFA_advance_loc: 1 to 0000000000472512
  DW_CFA_def_cfa_offset: 48
  DW_CFA_advance_loc: 1 to 0000000000472513
  DW_CFA_def_cfa_offset: 40
  DW_CFA_advance_loc: 2 to 0000000000472515
  DW_CFA_def_cfa_offset: 32
  DW_CFA_advance_loc: 2 to 0000000000472517
  DW_CFA_def_cfa_offset: 24
  DW_CFA_advance_loc: 2 to 0000000000472519
  DW_CFA_def_cfa_offset: 16
  DW_CFA_advance_loc: 2 to 000000000047251b
  DW_CFA_def_cfa_offset: 8
  DW_CFA_advance_loc: 5 to 0000000000472520
  DW_CFA_restore_state
  DW_CFA_advance_loc1: 70 to 0000000000472566
  DW_CFA_remember_state
  DW_CFA_def_cfa_offset: 56
  DW_CFA_advance_loc: 1 to 0000000000472567
  DW_CFA_def_cfa_offset: 48
  DW_CFA_advance_loc: 1 to 0000000000472568
  DW_CFA_def_cfa_offset: 40
  DW_CFA_advance_loc: 2 to 000000000047256a
  DW_CFA_def_cfa_offset: 32
  DW_CFA_advance_loc: 2 to 000000000047256c
  DW_CFA_def_cfa_offset: 24
  DW_CFA_advance_loc: 2 to 000000000047256e
  DW_CFA_def_cfa_offset: 16
  DW_CFA_advance_loc: 2 to 0000000000472570
  DW_CFA_def_cfa_offset: 8
  DW_CFA_advance_loc: 8 to 0000000000472578
  DW_CFA_restore_state
  DW_CFA_nop
  DW_CFA_nop
  DW_CFA_nop
  DW_CFA_nop

000119f0 0000000000000054 00011950 FDE cie=00011950 pc=0000000000472600..0000000000472841
  DW_CFA_advance_loc: 2 to 0000000000472602
  DW_CFA_def_cfa_offset: 16
  DW_CFA_offset: r15 (r15) at cfa-16
  DW_CFA_advance_loc: 2 to 0000000000472604
  DW_CFA_def_cfa_offset: 24
  DW_CFA_offset: r14 (r14) at cfa-24
  DW_CFA_advance_loc: 2 to 0000000000472606
  DW_CFA_def_cfa_offset: 32
  DW_CFA_offset: r13 (r13) at cfa-32
  DW_CFA_advance_loc: 2 to 0000000000472608
  DW_CFA_def_cfa_offset: 40
  DW_CFA_offset: r12 (r12) at cfa-40
  DW_CFA_advance_loc: 1 to 0000000000472609
  DW_CFA_def_cfa_offset: 48
  DW_CFA_offset: r6 (rbp) at cfa-48
  DW_CFA_advance_loc: 1 to 000000000047260a
  DW_CFA_def_cfa_offset: 56
  DW_CFA_offset: r3 (rbx) at cfa-56
  DW_CFA_advance_loc: 4 to 000000000047260e
  DW_CFA_def_cfa_offset: 80
  DW_CFA_advance_loc: 18 to 0000000000472620
  DW_CFA_remember_state
  DW_CFA_def_cfa_offset: 56
  DW_CFA_advance_loc: 4 to 0000000000472624
  DW_CFA_def_cfa_offset: 48
  DW_CFA_advance_loc: 1 to 0000000000472625
  DW_CFA_def_cfa_offset: 40
  DW_CFA_advance_loc: 2 to 0000000000472627
  DW_CFA_def_cfa_offset: 32
  DW_CFA_advance_loc: 2 to 0000000000472629
  DW_CFA_def_cfa_offset: 24
  DW_CFA_advance_loc: 2 to 000000000047262b
  DW_CFA_def_cfa_offset: 16
  DW_CFA_advance_loc: 2 to 000000000047262d
  DW_CFA_def_cfa_offset: 8
  DW_CFA_advance_loc: 3 to 0000000000472630
  DW_CFA_restore_state
  DW_CFA_nop
  DW_CFA_nop
  DW_CFA_nop
  DW_CFA_nop
  DW_CFA_nop
  DW_CFA_nop
  DW_CFA_nop

00011a48 0000000000000014 00011950 FDE cie=00011950 pc=0000000000472850..00000000004728af

00011a60 0000000000000034 00011950 FDE cie=00011950 pc=00000000004728b0..0000000000472968
  DW_CFA_advance_loc: 2 to 00000000004728b2
  DW_CFA_def_cfa_offset: 16
  DW_CFA_offset: r12 (r12) at cfa-16
  DW_CFA_advance_loc: 3 to 00000000004728b5
  DW_CFA_def_cfa_offset: 24
  DW_CFA_offset: r3 (rbx) at cfa-24
  DW_CFA_advance_loc: 6 to 00000000004728bb
  DW_CFA_def_cfa_offset: 32
  DW_CFA_advance_loc: 62 to 00000000004728f9
  DW_CFA_remember_state
  DW_CFA_def_cfa_offset: 24
  DW_CFA_advance_loc: 4 to 00000000004728fd
  DW_CFA_def_cfa_offset: 16
  DW_CFA_advance_loc: 2 to 00000000004728ff
  DW_CFA_def_cfa_offset: 8
  DW_CFA_advance_loc: 1 to 0000000000472900
  DW_CFA_restore_state
  DW_CFA_nop
  DW_CFA_nop
  DW_CFA_nop
  DW_CFA_nop
  DW_CFA_nop
  DW_CFA_nop
  DW_CFA_nop

00011a98 000000000000003c 00011950 FDE cie=00011950 pc=0000000000472970..0000000000472a61
  DW_CFA_advance_loc: 25 to 0000000000472989
  DW_CFA_def_cfa_offset: 16
  DW_CFA_offset: r6 (rbp) at cfa-16
  DW_CFA_advance_loc: 3 to 000000000047298c
  DW_CFA_def_cfa_offset: 24
  DW_CFA_offset: r3 (rbx) at cfa-24
  DW_CFA_advance_loc: 4 to 0000000000472990
  DW_CFA_def_cfa_offset: 32
  DW_CFA_advance_loc: 60 to 00000000004729cc
  DW_CFA_remember_state
  DW_CFA_def_cfa_offset: 24
  DW_CFA_advance_loc: 8 to 00000000004729d4
  DW_CFA_def_cfa_offset: 16
  DW_CFA_advance_loc: 1 to 00000000004729d5
  DW_CFA_def_cfa_offset: 8
  DW_CFA_advance_loc: 11 to 00000000004729e0
  DW_CFA_restore_state
  DW_CFA_advance_loc1: 103 to 0000000000472a47
  DW_CFA_remember_state
  DW_CFA_def_cfa_offset: 24
  DW_CFA_advance_loc: 3 to 0000000000472a4a
  DW_CFA_restore: r3 (rbx)
  DW_CFA_def_cfa_offset: 16
  DW_CFA_advance_loc: 1 to 0000000000472a4b
  DW_CFA_restore: r6 (rbp)
  DW_CFA_def_cfa_offset: 8
  DW_CFA_advance_loc: 5 to 0000000000472a50
  DW_CFA_restore_state

00011ad8 000000000000003c 00011950 FDE cie=00011950 pc=0000000000472a70..0000000000472b7f
  DW_CFA_advance_loc: 16 to 0000000000472a80
  DW_CFA_def_cfa_offset: 16
  DW_CFA_offset: r12 (r12) at cfa-16
  DW_CFA_advance_loc: 1 to 0000000000472a81
  DW_CFA_def_cfa_offset: 24
  DW_CFA_offset: r3 (rbx) at cfa-24
  DW_CFA_advance_loc: 11 to 0000000000472a8c
  DW_CFA_def_cfa_offset: 32
  DW_CFA_advance_loc1: 200 to 0000000000472b54
  DW_CFA_remember_state
  DW_CFA_def_cfa_offset: 24
  DW_CFA_advance_loc: 4 to 0000000000472b58
  DW_CFA_def_cfa_offset: 16
  DW_CFA_advance_loc: 2 to 0000000000472b5a
  DW_CFA_def_cfa_offset: 8
  DW_CFA_advance_loc: 6 to 0000000000472b60
  DW_CFA_restore_state
  DW_CFA_advance_loc: 11 to 0000000000472b6b
  DW_CFA_def_cfa_offset: 24
  DW_CFA_advance_loc: 1 to 0000000000472b6c
  DW_CFA_restore: r3 (rbx)
  DW_CFA_def_cfa_offset: 16
  DW_CFA_advance_loc: 2 to 0000000000472b6e
  DW_CFA_restore: r12 (r12)
  DW_CFA_def_cfa_offset: 8
  DW_CFA_nop
  DW_CFA_nop
  DW_CFA_nop

00011b18 000000000000002c 00011950 FDE cie=00011950 pc=0000000000472b80..0000000000472c4a
  DW_CFA_advance_loc: 7 to 0000000000472b87
  DW_CFA_def_cfa_offset: 16
  DW_CFA_offset: r3 (rbx) at cfa-16
  DW_CFA_advance_loc: 38 to 0000000000472bad
  DW_CFA_remember_state
  DW_CFA_def_cfa_offset: 8
  DW_CFA_advance_loc: 3 to 0000000000472bb0
  DW_CFA_restore_state
  DW_CFA_advance_loc1: 133 to 0000000000472c35
  DW_CFA_remember_state
  DW_CFA_def_cfa_offset: 8
  DW_CFA_advance_loc: 11 to 0000000000472c40
  DW_CFA_restore_state
  DW_CFA_nop
  DW_CFA_nop
  DW_CFA_nop
  DW_CFA_nop
  DW_CFA_nop
  DW_CFA_nop

00011b48 0000000000000014 ffffffff CIE
  Version:               1
  Augmentation:          ""
  Code alignment factor: 1
  Data alignment factor: -8
  Return address column: 16

  DW_CFA_def_cfa: r7 (rsp) ofs 8
  DW_CFA_offset: r16 (rip) at cfa-8
  DW_CFA_nop
  DW_CFA_nop
  DW_CFA_nop
  DW_CFA_nop
  DW_CFA_nop
  DW_CFA_nop

00011b60 000000000000001c 00011b48 FDE cie=00011b48 pc=0000000000472c50..0000000000472c7b
  DW_CFA_advance_loc: 4 to 0000000000472c54
  DW_CFA_def_cfa_offset: 16
  DW_CFA_advance_loc: 38 to 0000000000472c7a
  DW_CFA_def_cfa_offset: 8
  DW_CFA_nop
  DW_CFA_nop

00011b80 0000000000000014 ffffffff CIE
  Version:               1
  Augmentation:          ""
  Code alignment factor: 1
  Data alignment factor: -8
  Return address column: 16

  DW_CFA_def_cfa: r7 (rsp) ofs 8
  DW_CFA_offset: r16 (rip) at cfa-8
  DW_CFA_nop
  DW_CFA_nop
  DW_CFA_nop
  DW_CFA_nop
  DW_CFA_nop
  DW_CFA_nop

00011b98 000000000000003c 00011b80 FDE cie=00011b80 pc=0000000000472c80..0000000000472dc2
  DW_CFA_advance_loc: 2 to 0000000000472c82
  DW_CFA_def_cfa_offset: 16
  DW_CFA_offset: r12 (r12) at cfa-16
  DW_CFA_advance_loc: 1 to 0000000000472c83
  DW_CFA_def_cfa_offset: 24
  DW_CFA_offset: r6 (rbp) at cfa-24
  DW_CFA_advance_loc: 1 to 0000000000472c84
  DW_CFA_def_cfa_offset: 32
  DW_CFA_offset: r3 (rbx) at cfa-32
  DW_CFA_advance_loc: 4 to 0000000000472c88
  DW_CFA_def_cfa_offset: 48
  DW_CFA_advance_loc1: 200 to 0000000000472d50
  DW_CFA_remember_state
  DW_CFA_def_cfa_offset: 32
  DW_CFA_advance_loc: 1 to 0000000000472d51
  DW_CFA_def_cfa_offset: 24
  DW_CFA_advance_loc: 1 to 0000000000472d52
  DW_CFA_def_cfa_offset: 16
  DW_CFA_advance_loc: 2 to 0000000000472d54
  DW_CFA_def_cfa_offset: 8
  DW_CFA_advance_loc: 4 to 0000000000472d58
  DW_CFA_restore_state
  DW_CFA_nop
  DW_CFA_nop
  DW_CFA_nop
  DW_CFA_nop
  DW_CFA_nop
  DW_CFA_nop

00011bd8 0000000000000014 ffffffff CIE
  Version:               1
  Augmentation:          ""
  Code alignment factor: 1
  Data alignment factor: -8
  Return address column: 16

  DW_CFA_def_cfa: r7 (rsp) ofs 8
  DW_CFA_offset: r16 (rip) at cfa-8
  DW_CFA_nop
  DW_CFA_nop
  DW_CFA_nop
  DW_CFA_nop
  DW_CFA_nop
  DW_CFA_nop

00011bf0 000000000000001c 00011bd8 FDE cie=00011bd8 pc=0000000000472dd0..0000000000472e06
  DW_CFA_advance_loc: 14 to 0000000000472dde
  DW_CFA_def_cfa_offset: 16
  DW_CFA_advance_loc: 30 to 0000000000472dfc
  DW_CFA_def_cfa_offset: 8
  DW_CFA_nop
  DW_CFA_nop

00011c10 0000000000000014 ffffffff CIE
  Version:               1
  Augmentation:          ""
  Code alignment factor: 1
  Data alignment factor: -8
  Return address column: 16

  DW_CFA_def_cfa: r7 (rsp) ofs 8
  DW_CFA_offset: r16 (rip) at cfa-8
  DW_CFA_nop
  DW_CFA_nop
  DW_CFA_nop
  DW_CFA_nop
  DW_CFA_nop
  DW_CFA_nop

00011c28 0000000000000024 00011c10 FDE cie=00011c10 pc=0000000000472e10..0000000000472e58
  DW_CFA_advance_loc: 2 to 0000000000472e12
  DW_CFA_def_cfa_offset: 16
  DW_CFA_offset: r12 (r12) at cfa-16
  DW_CFA_advance_loc: 59 to 0000000000472e4d
  DW_CFA_remember_state
  DW_CFA_def_cfa_offset: 8
  DW_CFA_advance_loc: 3 to 0000000000472e50
  DW_CFA_restore_state
  DW_CFA_nop
  DW_CFA_nop
  DW_CFA_nop
  DW_CFA_nop
  DW_CFA_nop

00011c50 0000000000000034 00011c10 FDE cie=00011c10 pc=0000000000472e60..00000000004730c8
  DW_CFA_advance_loc: 2 to 0000000000472e62
  DW_CFA_def_cfa_offset: 16
  DW_CFA_offset: r12 (r12) at cfa-16
  DW_CFA_advance_loc: 15 to 0000000000472e71
  DW_CFA_def_cfa_offset: 24
  DW_CFA_offset: r6 (rbp) at cfa-24
  DW_CFA_advance_loc: 19 to 0000000000472e84
  DW_CFA_def_cfa_offset: 176
  DW_CFA_advance_loc2: 349 to 0000000000472fe1
  DW_CFA_remember_state
  DW_CFA_def_cfa_offset: 24
  DW_CFA_advance_loc: 1 to 0000000000472fe2
  DW_CFA_def_cfa_offset: 16
  DW_CFA_advance_loc: 2 to 0000000000472fe4
  DW_CFA_def_cfa_offset: 8
  DW_CFA_advance_loc: 4 to 0000000000472fe8
  DW_CFA_restore_state
  DW_CFA_nop
  DW_CFA_nop
  DW_CFA_nop
  DW_CFA_nop

00011c88 0000000000000024 00011c10 FDE cie=00011c10 pc=00000000004730d0..000000000047314d
  DW_CFA_advance_loc: 7 to 00000000004730d7
  DW_CFA_def_cfa_offset: 16
  DW_CFA_offset: r6 (rbp) at cfa-16
  DW_CFA_advance_loc: 52 to 000000000047310b
  DW_CFA_remember_state
  DW_CFA_def_cfa_offset: 8
  DW_CFA_advance_loc: 21 to 0000000000473120
  DW_CFA_restore_state
  DW_CFA_nop
  DW_CFA_nop
  DW_CFA_nop
  DW_CFA_nop
  DW_CFA_nop

00011cb0 0000000000000054 00011c10 FDE cie=00011c10 pc=0000000000473150..00000000004736b6
  DW_CFA_advance_loc: 2 to 0000000000473152
  DW_CFA_def_cfa_offset: 16
  DW_CFA_offset: r15 (r15) at cfa-16
  DW_CFA_advance_loc: 7 to 0000000000473159
  DW_CFA_def_cfa_offset: 24
  DW_CFA_offset: r14 (r14) at cfa-24
  DW_CFA_advance_loc: 2 to 000000000047315b
  DW_CFA_def_cfa_offset: 32
  DW_CFA_offset: r13 (r13) at cfa-32
  DW_CFA_advance_loc: 2 to 000000000047315d
  DW_CFA_def_cfa_offset: 40
  DW_CFA_offset: r12 (r12) at cfa-40
  DW_CFA_advance_loc: 1 to 000000000047315e
  DW_CFA_def_cfa_offset: 48
  DW_CFA_offset: r6 (rbp) at cfa-48
  DW_CFA_advance_loc: 1 to 000000000047315f
  DW_CFA_def_cfa_offset: 56
  DW_CFA_offset: r3 (rbx) at cfa-56
  DW_CFA_advance_loc: 7 to 0000000000473166
  DW_CFA_def_cfa_offset: 256
  DW_CFA_advance_loc2: 577 to 00000000004733a7
  DW_CFA_remember_state
  DW_CFA_def_cfa_offset: 56
  DW_CFA_advance_loc: 1 to 00000000004733a8
  DW_CFA_def_cfa_offset: 48
  DW_CFA_advance_loc: 1 to 00000000004733a9
  DW_CFA_def_cfa_offset: 40
  DW_CFA_advance_loc: 2 to 00000000004733ab
  DW_CFA_def_cfa_offset: 32
  DW_CFA_advance_loc: 2 to 00000000004733ad
  DW_CFA_def_cfa_offset: 24
  DW_CFA_advance_loc: 2 to 00000000004733af
  DW_CFA_def_cfa_offset: 16
  DW_CFA_advance_loc: 2 to 00000000004733b1
  DW_CFA_def_cfa_offset: 8
  DW_CFA_advance_loc: 7 to 00000000004733b8
  DW_CFA_restore_state
  DW_CFA_nop
  DW_CFA_nop
  DW_CFA_nop
  DW_CFA_nop

00011d08 0000000000000024 00011c10 FDE cie=00011c10 pc=00000000004736c0..0000000000473754
  DW_CFA_advance_loc: 4 to 00000000004736c4
  DW_CFA_def_cfa_offset: 64
  DW_CFA_advance_loc1: 138 to 000000000047374e
  DW_CFA_remember_state
  DW_CFA_def_cfa_offset: 8
  DW_CFA_advance_loc: 1 to 000000000047374f
  DW_CFA_restore_state
  DW_CFA_nop
  DW_CFA_nop
  DW_CFA_nop
  DW_CFA_nop
  DW_CFA_nop
  DW_CFA_nop

00011d30 000000000000003c 00011c10 FDE cie=00011c10 pc=0000000000473760..00000000004737df
  DW_CFA_advance_loc: 2 to 0000000000473762
  DW_CFA_def_cfa_offset: 16
  DW_CFA_offset: r12 (r12) at cfa-16
  DW_CFA_advance_loc: 1 to 0000000000473763
  DW_CFA_def_cfa_offset: 24
  DW_CFA_offset: r3 (rbx) at cfa-24
  DW_CFA_advance_loc: 4 to 0000000000473767
  DW_CFA_def_cfa_offset: 32
  DW_CFA_advance_loc: 16 to 0000000000473777
  DW_CFA_remember_state
  DW_CFA_def_cfa_offset: 24
  DW_CFA_advance_loc: 4 to 000000000047377b
  DW_CFA_def_cfa_offset: 16
  DW_CFA_advance_loc: 2 to 000000000047377d
  DW_CFA_def_cfa_offset: 8
  DW_CFA_advance_loc: 3 to 0000000000473780
  DW_CFA_restore_state
  DW_CFA_advance_loc: 52 to 00000000004737b4
  DW_CFA_remember_state
  DW_CFA_def_cfa_offset: 24
  DW_CFA_advance_loc: 4 to 00000000004737b8
  DW_CFA_def_cfa_offset: 16
  DW_CFA_advance_loc: 2 to 00000000004737ba
  DW_CFA_def_cfa_offset: 8
  DW_CFA_advance_loc: 6 to 00000000004737c0
  DW_CFA_restore_state
  DW_CFA_nop
  DW_CFA_nop
  DW_CFA_nop

00011d70 0000000000000044 00011c10 FDE cie=00011c10 pc=00000000004737e0..0000000000473936
  DW_CFA_advance_loc: 2 to 00000000004737e2
  DW_CFA_def_cfa_offset: 16
  DW_CFA_offset: r13 (r13) at cfa-16
  DW_CFA_advance_loc: 5 to 00000000004737e7
  DW_CFA_def_cfa_offset: 24
  DW_CFA_offset: r12 (r12) at cfa-24
  DW_CFA_advance_loc: 4 to 00000000004737eb
  DW_CFA_def_cfa_offset: 32
  DW_CFA_offset: r6 (rbp) at cfa-32
  DW_CFA_advance_loc: 4 to 00000000004737ef
  DW_CFA_def_cfa_offset: 40
  DW_CFA_offset: r3 (rbx) at cfa-40
  DW_CFA_advance_loc: 7 to 00000000004737f6
  DW_CFA_def_cfa_offset: 48
  DW_CFA_advance_loc1: 134 to 000000000047387c
  DW_CFA_remember_state
  DW_CFA_def_cfa_offset: 40
  DW_CFA_advance_loc: 1 to 000000000047387d
  DW_CFA_def_cfa_offset: 32
  DW_CFA_advance_loc: 1 to 000000000047387e
  DW_CFA_def_cfa_offset: 24
  DW_CFA_advance_loc: 2 to 0000000000473880
  DW_CFA_def_cfa_offset: 16
  DW_CFA_advance_loc: 2 to 0000000000473882
  DW_CFA_def_cfa_offset: 8
  DW_CFA_advance_loc: 6 to 0000000000473888
  DW_CFA_restore_state
  DW_CFA_nop
  DW_CFA_nop
  DW_CFA_nop
  DW_CFA_nop
  DW_CFA_nop
  DW_CFA_nop

00011db8 0000000000000014 ffffffff CIE
  Version:               1
  Augmentation:          ""
  Code alignment factor: 1
  Data alignment factor: -8
  Return address column: 16

  DW_CFA_def_cfa: r7 (rsp) ofs 8
  DW_CFA_offset: r16 (rip) at cfa-8
  DW_CFA_nop
  DW_CFA_nop
  DW_CFA_nop
  DW_CFA_nop
  DW_CFA_nop
  DW_CFA_nop

00011dd0 0000000000000014 00011db8 FDE cie=00011db8 pc=0000000000473940..0000000000473946

00011de8 0000000000000014 ffffffff CIE
  Version:               1
  Augmentation:          ""
  Code alignment factor: 1
  Data alignment factor: -8
  Return address column: 16

  DW_CFA_def_cfa: r7 (rsp) ofs 8
  DW_CFA_offset: r16 (rip) at cfa-8
  DW_CFA_nop
  DW_CFA_nop
  DW_CFA_nop
  DW_CFA_nop
  DW_CFA_nop
  DW_CFA_nop

00011e00 0000000000000014 00011de8 FDE cie=00011de8 pc=0000000000473950..000000000047395a

00011e18 0000000000000014 ffffffff CIE
  Version:               1
  Augmentation:          ""
  Code alignment factor: 1
  Data alignment factor: -8
  Return address column: 16

  DW_CFA_def_cfa: r7 (rsp) ofs 8
  DW_CFA_offset: r16 (rip) at cfa-8
  DW_CFA_nop
  DW_CFA_nop
  DW_CFA_nop
  DW_CFA_nop
  DW_CFA_nop
  DW_CFA_nop

00011e30 0000000000000034 00011e18 FDE cie=00011e18 pc=0000000000473960..00000000004739b9
  DW_CFA_advance_loc: 2 to 0000000000473962
  DW_CFA_def_cfa_offset: 16
  DW_CFA_offset: r12 (r12) at cfa-16
  DW_CFA_advance_loc: 4 to 0000000000473966
  DW_CFA_def_cfa_offset: 24
  DW_CFA_offset: r6 (rbp) at cfa-24
  DW_CFA_advance_loc: 7 to 000000000047396d
  DW_CFA_def_cfa_offset: 48
  DW_CFA_advance_loc: 41 to 0000000000473996
  DW_CFA_remember_state
  DW_CFA_def_cfa_offset: 24
  DW_CFA_advance_loc: 4 to 000000000047399a
  DW_CFA_def_cfa_offset: 16
  DW_CFA_advance_loc: 2 to 000000000047399c
  DW_CFA_def_cfa_offset: 8
  DW_CFA_advance_loc: 12 to 00000000004739a8
  DW_CFA_restore_state
  DW_CFA_nop
  DW_CFA_nop
  DW_CFA_nop
  DW_CFA_nop
  DW_CFA_nop
  DW_CFA_nop
  DW_CFA_nop

00011e68 0000000000000034 00011e18 FDE cie=00011e18 pc=00000000004739c0..0000000000473a5a
  DW_CFA_advance_loc: 2 to 00000000004739c2
  DW_CFA_def_cfa_offset: 16
  DW_CFA_offset: r13 (r13) at cfa-16
  DW_CFA_advance_loc: 9 to 00000000004739cb
  DW_CFA_def_cfa_offset: 24
  DW_CFA_offset: r12 (r12) at cfa-24
  DW_CFA_advance_loc: 4 to 00000000004739cf
  DW_CFA_def_cfa_offset: 32
  DW_CFA_offset: r6 (rbp) at cfa-32
  DW_CFA_advance_loc1: 78 to 0000000000473a1d
  DW_CFA_remember_state
  DW_CFA_def_cfa_offset: 24
  DW_CFA_advance_loc: 2 to 0000000000473a1f
  DW_CFA_def_cfa_offset: 16
  DW_CFA_advance_loc: 2 to 0000000000473a21
  DW_CFA_def_cfa_offset: 8
  DW_CFA_advance_loc: 15 to 0000000000473a30
  DW_CFA_restore_state
  DW_CFA_nop
  DW_CFA_nop
  DW_CFA_nop
  DW_CFA_nop

00011ea0 0000000000000014 ffffffff CIE
  Version:               1
  Augmentation:          ""
  Code alignment factor: 1
  Data alignment factor: -8
  Return address column: 16

  DW_CFA_def_cfa: r7 (rsp) ofs 8
  DW_CFA_offset: r16 (rip) at cfa-8
  DW_CFA_nop
  DW_CFA_nop
  DW_CFA_nop
  DW_CFA_nop
  DW_CFA_nop
  DW_CFA_nop

00011eb8 000000000000003c 00011ea0 FDE cie=00011ea0 pc=0000000000473a60..0000000000473aae
  DW_CFA_advance_loc: 2 to 0000000000473a62
  DW_CFA_def_cfa_offset: 16
  DW_CFA_offset: r13 (r13) at cfa-16
  DW_CFA_advance_loc: 5 to 0000000000473a67
  DW_CFA_def_cfa_offset: 24
  DW_CFA_offset: r12 (r12) at cfa-24
  DW_CFA_advance_loc: 4 to 0000000000473a6b
  DW_CFA_def_cfa_offset: 32
  DW_CFA_offset: r6 (rbp) at cfa-32
  DW_CFA_advance_loc: 22 to 0000000000473a81
  DW_CFA_remember_state
  DW_CFA_def_cfa_offset: 24
  DW_CFA_advance_loc: 8 to 0000000000473a89
  DW_CFA_def_cfa_offset: 16
  DW_CFA_advance_loc: 2 to 0000000000473a8b
  DW_CFA_def_cfa_offset: 8
  DW_CFA_advance_loc: 5 to 0000000000473a90
  DW_CFA_restore_state
  DW_CFA_advance_loc: 15 to 0000000000473a9f
  DW_CFA_def_cfa_offset: 24
  DW_CFA_advance_loc: 8 to 0000000000473aa7
  DW_CFA_def_cfa_offset: 16
  DW_CFA_advance_loc: 2 to 0000000000473aa9
  DW_CFA_def_cfa_offset: 8
  DW_CFA_nop
  DW_CFA_nop
  DW_CFA_nop
  DW_CFA_nop

00011ef8 000000000000003c 00011ea0 FDE cie=00011ea0 pc=0000000000473ab0..0000000000473b4a
  DW_CFA_advance_loc: 2 to 0000000000473ab2
  DW_CFA_def_cfa_offset: 16
  DW_CFA_offset: r13 (r13) at cfa-16
  DW_CFA_advance_loc: 5 to 0000000000473ab7
  DW_CFA_def_cfa_offset: 24
  DW_CFA_offset: r12 (r12) at cfa-24
  DW_CFA_advance_loc: 8 to 0000000000473abf
  DW_CFA_def_cfa_offset: 32
  DW_CFA_offset: r6 (rbp) at cfa-32
  DW_CFA_advance_loc: 52 to 0000000000473af3
  DW_CFA_remember_state
  DW_CFA_def_cfa_offset: 24
  DW_CFA_advance_loc: 8 to 0000000000473afb
  DW_CFA_def_cfa_offset: 16
  DW_CFA_advance_loc: 2 to 0000000000473afd
  DW_CFA_def_cfa_offset: 8
  DW_CFA_advance_loc: 11 to 0000000000473b08
  DW_CFA_restore_state
  DW_CFA_advance_loc: 15 to 0000000000473b17
  DW_CFA_remember_state
  DW_CFA_def_cfa_offset: 24
  DW_CFA_advance_loc: 8 to 0000000000473b1f
  DW_CFA_def_cfa_offset: 16
  DW_CFA_advance_loc: 2 to 0000000000473b21
  DW_CFA_def_cfa_offset: 8
  DW_CFA_advance_loc: 15 to 0000000000473b30
  DW_CFA_restore_state
  DW_CFA_nop

00011f38 0000000000000014 ffffffff CIE
  Version:               1
  Augmentation:          ""
  Code alignment factor: 1
  Data alignment factor: -8
  Return address column: 16

  DW_CFA_def_cfa: r7 (rsp) ofs 8
  DW_CFA_offset: r16 (rip) at cfa-8
  DW_CFA_nop
  DW_CFA_nop
  DW_CFA_nop
  DW_CFA_nop
  DW_CFA_nop
  DW_CFA_nop

00011f50 0000000000000044 00011f38 FDE cie=00011f38 pc=0000000000473b50..0000000000473d3f
  DW_CFA_advance_loc: 2 to 0000000000473b52
  DW_CFA_def_cfa_offset: 16
  DW_CFA_offset: r13 (r13) at cfa-16
  DW_CFA_advance_loc: 2 to 0000000000473b54
  DW_CFA_def_cfa_offset: 24
  DW_CFA_offset: r12 (r12) at cfa-24
  DW_CFA_advance_loc: 1 to 0000000000473b55
  DW_CFA_def_cfa_offset: 32
  DW_CFA_offset: r6 (rbp) at cfa-32
  DW_CFA_advance_loc: 3 to 0000000000473b58
  DW_CFA_def_cfa_offset: 40
  DW_CFA_offset: r3 (rbx) at cfa-40
  DW_CFA_advance_loc: 6 to 0000000000473b5e
  DW_CFA_def_cfa_offset: 144
  DW_CFA_advance_loc1: 188 to 0000000000473c1a
  DW_CFA_remember_state
  DW_CFA_def_cfa_offset: 40
  DW_CFA_advance_loc: 1 to 0000000000473c1b
  DW_CFA_def_cfa_offset: 32
  DW_CFA_advance_loc: 1 to 0000000000473c1c
  DW_CFA_def_cfa_offset: 24
  DW_CFA_advance_loc: 2 to 0000000000473c1e
  DW_CFA_def_cfa_offset: 16
  DW_CFA_advance_loc: 2 to 0000000000473c20
  DW_CFA_def_cfa_offset: 8
  DW_CFA_advance_loc: 8 to 0000000000473c28
  DW_CFA_restore_state
  DW_CFA_nop
  DW_CFA_nop
  DW_CFA_nop
  DW_CFA_nop
  DW_CFA_nop

00011f98 0000000000000044 00011f38 FDE cie=00011f38 pc=0000000000473d40..0000000000473f2f
  DW_CFA_advance_loc: 2 to 0000000000473d42
  DW_CFA_def_cfa_offset: 16
  DW_CFA_offset: r13 (r13) at cfa-16
  DW_CFA_advance_loc: 2 to 0000000000473d44
  DW_CFA_def_cfa_offset: 24
  DW_CFA_offset: r12 (r12) at cfa-24
  DW_CFA_advance_loc: 1 to 0000000000473d45
  DW_CFA_def_cfa_offset: 32
  DW_CFA_offset: r6 (rbp) at cfa-32
  DW_CFA_advance_loc: 3 to 0000000000473d48
  DW_CFA_def_cfa_offset: 40
  DW_CFA_offset: r3 (rbx) at cfa-40
  DW_CFA_advance_loc: 6 to 0000000000473d4e
  DW_CFA_def_cfa_offset: 144
  DW_CFA_advance_loc1: 188 to 0000000000473e0a
  DW_CFA_remember_state
  DW_CFA_def_cfa_offset: 40
  DW_CFA_advance_loc: 1 to 0000000000473e0b
  DW_CFA_def_cfa_offset: 32
  DW_CFA_advance_loc: 1 to 0000000000473e0c
  DW_CFA_def_cfa_offset: 24
  DW_CFA_advance_loc: 2 to 0000000000473e0e
  DW_CFA_def_cfa_offset: 16
  DW_CFA_advance_loc: 2 to 0000000000473e10
  DW_CFA_def_cfa_offset: 8
  DW_CFA_advance_loc: 8 to 0000000000473e18
  DW_CFA_restore_state
  DW_CFA_nop
  DW_CFA_nop
  DW_CFA_nop
  DW_CFA_nop
  DW_CFA_nop

00011fe0 0000000000000014 ffffffff CIE
  Version:               1
  Augmentation:          ""
  Code alignment factor: 1
  Data alignment factor: -8
  Return address column: 16

  DW_CFA_def_cfa: r7 (rsp) ofs 8
  DW_CFA_offset: r16 (rip) at cfa-8
  DW_CFA_nop
  DW_CFA_nop
  DW_CFA_nop
  DW_CFA_nop
  DW_CFA_nop
  DW_CFA_nop

00011ff8 000000000000003c 00011fe0 FDE cie=00011fe0 pc=0000000000473f30..0000000000473f7e
  DW_CFA_advance_loc: 2 to 0000000000473f32
  DW_CFA_def_cfa_offset: 16
  DW_CFA_offset: r13 (r13) at cfa-16
  DW_CFA_advance_loc: 5 to 0000000000473f37
  DW_CFA_def_cfa_offset: 24
  DW_CFA_offset: r12 (r12) at cfa-24
  DW_CFA_advance_loc: 4 to 0000000000473f3b
  DW_CFA_def_cfa_offset: 32
  DW_CFA_offset: r6 (rbp) at cfa-32
  DW_CFA_advance_loc: 22 to 0000000000473f51
  DW_CFA_remember_state
  DW_CFA_def_cfa_offset: 24
  DW_CFA_advance_loc: 8 to 0000000000473f59
  DW_CFA_def_cfa_offset: 16
  DW_CFA_advance_loc: 2 to 0000000000473f5b
  DW_CFA_def_cfa_offset: 8
  DW_CFA_advance_loc: 5 to 0000000000473f60
  DW_CFA_restore_state
  DW_CFA_advance_loc: 15 to 0000000000473f6f
  DW_CFA_def_cfa_offset: 24
  DW_CFA_advance_loc: 8 to 0000000000473f77
  DW_CFA_def_cfa_offset: 16
  DW_CFA_advance_loc: 2 to 0000000000473f79
  DW_CFA_def_cfa_offset: 8
  DW_CFA_nop
  DW_CFA_nop
  DW_CFA_nop
  DW_CFA_nop

00012038 000000000000003c 00011fe0 FDE cie=00011fe0 pc=0000000000473f80..000000000047401a
  DW_CFA_advance_loc: 2 to 0000000000473f82
  DW_CFA_def_cfa_offset: 16
  DW_CFA_offset: r13 (r13) at cfa-16
  DW_CFA_advance_loc: 5 to 0000000000473f87
  DW_CFA_def_cfa_offset: 24
  DW_CFA_offset: r12 (r12) at cfa-24
  DW_CFA_advance_loc: 8 to 0000000000473f8f
  DW_CFA_def_cfa_offset: 32
  DW_CFA_offset: r6 (rbp) at cfa-32
  DW_CFA_advance_loc: 52 to 0000000000473fc3
  DW_CFA_remember_state
  DW_CFA_def_cfa_offset: 24
  DW_CFA_advance_loc: 8 to 0000000000473fcb
  DW_CFA_def_cfa_offset: 16
  DW_CFA_advance_loc: 2 to 0000000000473fcd
  DW_CFA_def_cfa_offset: 8
  DW_CFA_advance_loc: 11 to 0000000000473fd8
  DW_CFA_restore_state
  DW_CFA_advance_loc: 15 to 0000000000473fe7
  DW_CFA_remember_state
  DW_CFA_def_cfa_offset: 24
  DW_CFA_advance_loc: 8 to 0000000000473fef
  DW_CFA_def_cfa_offset: 16
  DW_CFA_advance_loc: 2 to 0000000000473ff1
  DW_CFA_def_cfa_offset: 8
  DW_CFA_advance_loc: 15 to 0000000000474000
  DW_CFA_restore_state
  DW_CFA_nop

00012078 0000000000000014 ffffffff CIE
  Version:               1
  Augmentation:          ""
  Code alignment factor: 1
  Data alignment factor: -8
  Return address column: 16

  DW_CFA_def_cfa: r7 (rsp) ofs 8
  DW_CFA_offset: r16 (rip) at cfa-8
  DW_CFA_nop
  DW_CFA_nop
  DW_CFA_nop
  DW_CFA_nop
  DW_CFA_nop
  DW_CFA_nop

00012090 0000000000000054 00012078 FDE cie=00012078 pc=0000000000474020..0000000000474253
  DW_CFA_advance_loc: 2 to 0000000000474022
  DW_CFA_def_cfa_offset: 16
  DW_CFA_offset: r15 (r15) at cfa-16
  DW_CFA_advance_loc: 5 to 0000000000474027
  DW_CFA_def_cfa_offset: 24
  DW_CFA_offset: r14 (r14) at cfa-24
  DW_CFA_advance_loc: 2 to 0000000000474029
  DW_CFA_def_cfa_offset: 32
  DW_CFA_offset: r13 (r13) at cfa-32
  DW_CFA_advance_loc: 2 to 000000000047402b
  DW_CFA_def_cfa_offset: 40
  DW_CFA_offset: r12 (r12) at cfa-40
  DW_CFA_advance_loc: 1 to 000000000047402c
  DW_CFA_def_cfa_offset: 48
  DW_CFA_offset: r6 (rbp) at cfa-48
  DW_CFA_advance_loc: 4 to 0000000000474030
  DW_CFA_def_cfa_offset: 56
  DW_CFA_offset: r3 (rbx) at cfa-56
  DW_CFA_advance_loc: 4 to 0000000000474034
  DW_CFA_def_cfa_offset: 80
  DW_CFA_advance_loc2: 451 to 00000000004741f7
  DW_CFA_remember_state
  DW_CFA_def_cfa_offset: 56
  DW_CFA_advance_loc: 1 to 00000000004741f8
  DW_CFA_def_cfa_offset: 48
  DW_CFA_advance_loc: 1 to 00000000004741f9
  DW_CFA_def_cfa_offset: 40
  DW_CFA_advance_loc: 2 to 00000000004741fb
  DW_CFA_def_cfa_offset: 32
  DW_CFA_advance_loc: 2 to 00000000004741fd
  DW_CFA_def_cfa_offset: 24
  DW_CFA_advance_loc: 2 to 00000000004741ff
  DW_CFA_def_cfa_offset: 16
  DW_CFA_advance_loc: 2 to 0000000000474201
  DW_CFA_def_cfa_offset: 8
  DW_CFA_advance_loc: 15 to 0000000000474210
  DW_CFA_restore_state
  DW_CFA_nop
  DW_CFA_nop
  DW_CFA_nop
  DW_CFA_nop
  DW_CFA_nop

000120e8 000000000000002c 00012078 FDE cie=00012078 pc=0000000000474260..0000000000474287
  DW_CFA_advance_loc: 2 to 0000000000474262
  DW_CFA_def_cfa_offset: 16
  DW_CFA_offset: r12 (r12) at cfa-16
  DW_CFA_advance_loc: 4 to 0000000000474266
  DW_CFA_def_cfa_offset: 24
  DW_CFA_offset: r6 (rbp) at cfa-24
  DW_CFA_advance_loc: 7 to 000000000047426d
  DW_CFA_def_cfa_offset: 32
  DW_CFA_advance_loc: 9 to 0000000000474276
  DW_CFA_def_cfa_offset: 24
  DW_CFA_advance_loc: 10 to 0000000000474280
  DW_CFA_def_cfa_offset: 16
  DW_CFA_advance_loc: 2 to 0000000000474282
  DW_CFA_def_cfa_offset: 8
  DW_CFA_nop
  DW_CFA_nop

00012118 0000000000000014 ffffffff CIE
  Version:               1
  Augmentation:          ""
  Code alignment factor: 1
  Data alignment factor: -8
  Return address column: 16

  DW_CFA_def_cfa: r7 (rsp) ofs 8
  DW_CFA_offset: r16 (rip) at cfa-8
  DW_CFA_nop
  DW_CFA_nop
  DW_CFA_nop
  DW_CFA_nop
  DW_CFA_nop
  DW_CFA_nop

00012130 000000000000003c 00012118 FDE cie=00012118 pc=0000000000474290..0000000000474389
  DW_CFA_advance_loc: 2 to 0000000000474292
  DW_CFA_def_cfa_offset: 16
  DW_CFA_offset: r12 (r12) at cfa-16
  DW_CFA_advance_loc: 1 to 0000000000474293
  DW_CFA_def_cfa_offset: 24
  DW_CFA_offset: r6 (rbp) at cfa-24
  DW_CFA_advance_loc: 7 to 000000000047429a
  DW_CFA_def_cfa_offset: 64
  DW_CFA_advance_loc1: 120 to 0000000000474312
  DW_CFA_remember_state
  DW_CFA_def_cfa_offset: 24
  DW_CFA_advance_loc: 9 to 000000000047431b
  DW_CFA_def_cfa_offset: 16
  DW_CFA_advance_loc: 9 to 0000000000474324
  DW_CFA_def_cfa_offset: 8
  DW_CFA_advance_loc: 12 to 0000000000474330
  DW_CFA_restore_state
  DW_CFA_advance_loc1: 80 to 0000000000474380
  DW_CFA_remember_state
  DW_CFA_def_cfa_offset: 24
  DW_CFA_advance_loc: 1 to 0000000000474381
  DW_CFA_def_cfa_offset: 16
  DW_CFA_advance_loc: 2 to 0000000000474383
  DW_CFA_def_cfa_offset: 8
  DW_CFA_advance_loc: 1 to 0000000000474384
  DW_CFA_restore_state
  DW_CFA_nop

00012170 0000000000000014 ffffffff CIE
  Version:               1
  Augmentation:          ""
  Code alignment factor: 1
  Data alignment factor: -8
  Return address column: 16

  DW_CFA_def_cfa: r7 (rsp) ofs 8
  DW_CFA_offset: r16 (rip) at cfa-8
  DW_CFA_def_cfa_offset: 64
  DW_CFA_offset: r6 (rbp) at cfa-24
  DW_CFA_offset: r12 (r12) at cfa-16

00012188 0000000000000014 00012170 FDE cie=00012170 pc=0000000000405d78..0000000000405d81

000121a0 000000000000003c 00012118 FDE cie=00012118 pc=0000000000474390..00000000004744c9
  DW_CFA_advance_loc: 2 to 0000000000474392
  DW_CFA_def_cfa_offset: 16
  DW_CFA_offset: r12 (r12) at cfa-16
  DW_CFA_advance_loc: 1 to 0000000000474393
  DW_CFA_def_cfa_offset: 24
  DW_CFA_offset: r6 (rbp) at cfa-24
  DW_CFA_advance_loc: 4 to 0000000000474397
  DW_CFA_def_cfa_offset: 64
  DW_CFA_advance_loc1: 175 to 0000000000474446
  DW_CFA_remember_state
  DW_CFA_def_cfa_offset: 24
  DW_CFA_advance_loc: 9 to 000000000047444f
  DW_CFA_def_cfa_offset: 16
  DW_CFA_advance_loc: 9 to 0000000000474458
  DW_CFA_def_cfa_offset: 8
  DW_CFA_advance_loc: 8 to 0000000000474460
  DW_CFA_restore_state
  DW_CFA_advance_loc1: 80 to 00000000004744b0
  DW_CFA_remember_state
  DW_CFA_def_cfa_offset: 24
  DW_CFA_advance_loc: 1 to 00000000004744b1
  DW_CFA_def_cfa_offset: 16
  DW_CFA_advance_loc: 2 to 00000000004744b3
  DW_CFA_def_cfa_offset: 8
  DW_CFA_advance_loc: 5 to 00000000004744b8
  DW_CFA_restore_state
  DW_CFA_nop

000121e0 0000000000000014 00012170 FDE cie=00012170 pc=0000000000405d81..0000000000405d8f

000121f8 0000000000000014 ffffffff CIE
  Version:               1
  Augmentation:          ""
  Code alignment factor: 1
  Data alignment factor: -8
  Return address column: 16

  DW_CFA_def_cfa: r7 (rsp) ofs 8
  DW_CFA_offset: r16 (rip) at cfa-8
  DW_CFA_nop
  DW_CFA_nop
  DW_CFA_nop
  DW_CFA_nop
  DW_CFA_nop
  DW_CFA_nop

00012210 0000000000000014 000121f8 FDE cie=000121f8 pc=00000000004744d0..0000000000474520

00012228 0000000000000014 000121f8 FDE cie=000121f8 pc=0000000000474520..00000000004745bb

00012240 0000000000000014 ffffffff CIE
  Version:               1
  Augmentation:          ""
  Code alignment factor: 1
  Data alignment factor: -8
  Return address column: 16

  DW_CFA_def_cfa: r7 (rsp) ofs 8
  DW_CFA_offset: r16 (rip) at cfa-8
  DW_CFA_nop
  DW_CFA_nop
  DW_CFA_nop
  DW_CFA_nop
  DW_CFA_nop
  DW_CFA_nop

00012258 0000000000000014 00012240 FDE cie=00012240 pc=00000000004745c0..0000000000474610

00012270 0000000000000014 00012240 FDE cie=00012240 pc=0000000000474610..00000000004746ab

00012288 0000000000000014 ffffffff CIE
  Version:               1
  Augmentation:          ""
  Code alignment factor: 1
  Data alignment factor: -8
  Return address column: 16

  DW_CFA_def_cfa: r7 (rsp) ofs 8
  DW_CFA_offset: r16 (rip) at cfa-8
  DW_CFA_nop
  DW_CFA_nop
  DW_CFA_nop
  DW_CFA_nop
  DW_CFA_nop
  DW_CFA_nop

000122a0 0000000000000014 00012288 FDE cie=00012288 pc=00000000004746b0..00000000004746ba

000122b8 0000000000000014 ffffffff CIE
  Version:               1
  Augmentation:          ""
  Code alignment factor: 1
  Data alignment factor: -8
  Return address column: 16

  DW_CFA_def_cfa: r7 (rsp) ofs 8
  DW_CFA_offset: r16 (rip) at cfa-8
  DW_CFA_nop
  DW_CFA_nop
  DW_CFA_nop
  DW_CFA_nop
  DW_CFA_nop
  DW_CFA_nop

000122d0 000000000000004c 000122b8 FDE cie=000122b8 pc=00000000004746c0..00000000004747ea
  DW_CFA_advance_loc: 2 to 00000000004746c2
  DW_CFA_def_cfa_offset: 16
  DW_CFA_offset: r14 (r14) at cfa-16
  DW_CFA_advance_loc: 2 to 00000000004746c4
  DW_CFA_def_cfa_offset: 24
  DW_CFA_offset: r13 (r13) at cfa-24
  DW_CFA_advance_loc: 2 to 00000000004746c6
  DW_CFA_def_cfa_offset: 32
  DW_CFA_offset: r12 (r12) at cfa-32
  DW_CFA_advance_loc: 4 to 00000000004746ca
  DW_CFA_def_cfa_offset: 40
  DW_CFA_offset: r6 (rbp) at cfa-40
  DW_CFA_advance_loc: 5 to 00000000004746cf
  DW_CFA_def_cfa_offset: 48
  DW_CFA_offset: r3 (rbx) at cfa-48
  DW_CFA_advance_loc: 6 to 00000000004746d5
  DW_CFA_def_cfa_offset: 64
  DW_CFA_advance_loc1: 109 to 0000000000474742
  DW_CFA_remember_state
  DW_CFA_def_cfa_offset: 48
  DW_CFA_advance_loc: 4 to 0000000000474746
  DW_CFA_def_cfa_offset: 40
  DW_CFA_advance_loc: 1 to 0000000000474747
  DW_CFA_def_cfa_offset: 32
  DW_CFA_advance_loc: 2 to 0000000000474749
  DW_CFA_def_cfa_offset: 24
  DW_CFA_advance_loc: 2 to 000000000047474b
  DW_CFA_def_cfa_offset: 16
  DW_CFA_advance_loc: 2 to 000000000047474d
  DW_CFA_def_cfa_offset: 8
  DW_CFA_advance_loc: 3 to 0000000000474750
  DW_CFA_restore_state
  DW_CFA_nop
  DW_CFA_nop
  DW_CFA_nop
  DW_CFA_nop
  DW_CFA_nop
  DW_CFA_nop

00012320 0000000000000044 000122b8 FDE cie=000122b8 pc=00000000004747f0..0000000000474912
  DW_CFA_advance_loc: 2 to 00000000004747f2
  DW_CFA_def_cfa_offset: 16
  DW_CFA_offset: r13 (r13) at cfa-16
  DW_CFA_advance_loc: 2 to 00000000004747f4
  DW_CFA_def_cfa_offset: 24
  DW_CFA_offset: r12 (r12) at cfa-24
  DW_CFA_advance_loc: 1 to 00000000004747f5
  DW_CFA_def_cfa_offset: 32
  DW_CFA_offset: r6 (rbp) at cfa-32
  DW_CFA_advance_loc: 5 to 00000000004747fa
  DW_CFA_def_cfa_offset: 40
  DW_CFA_offset: r3 (rbx) at cfa-40
  DW_CFA_advance_loc: 6 to 0000000000474800
  DW_CFA_def_cfa_offset: 64
  DW_CFA_advance_loc1: 109 to 000000000047486d
  DW_CFA_remember_state
  DW_CFA_def_cfa_offset: 40
  DW_CFA_advance_loc: 4 to 0000000000474871
  DW_CFA_def_cfa_offset: 32
  DW_CFA_advance_loc: 1 to 0000000000474872
  DW_CFA_def_cfa_offset: 24
  DW_CFA_advance_loc: 2 to 0000000000474874
  DW_CFA_def_cfa_offset: 16
  DW_CFA_advance_loc: 2 to 0000000000474876
  DW_CFA_def_cfa_offset: 8
  DW_CFA_advance_loc: 10 to 0000000000474880
  DW_CFA_restore_state
  DW_CFA_nop
  DW_CFA_nop
  DW_CFA_nop
  DW_CFA_nop
  DW_CFA_nop
  DW_CFA_nop

00012368 0000000000000014 ffffffff CIE
  Version:               1
  Augmentation:          ""
  Code alignment factor: 1
  Data alignment factor: -8
  Return address column: 16

  DW_CFA_def_cfa: r7 (rsp) ofs 8
  DW_CFA_offset: r16 (rip) at cfa-8
  DW_CFA_nop
  DW_CFA_nop
  DW_CFA_nop
  DW_CFA_nop
  DW_CFA_nop
  DW_CFA_nop

00012380 0000000000000014 00012368 FDE cie=00012368 pc=0000000000474920..000000000047493d

00012398 0000000000000024 00012368 FDE cie=00012368 pc=0000000000474940..000000000047498e
  DW_CFA_advance_loc: 20 to 0000000000474954
  DW_CFA_def_cfa_offset: 16
  DW_CFA_advance_loc: 43 to 000000000047497f
  DW_CFA_remember_state
  DW_CFA_def_cfa_offset: 8
  DW_CFA_advance_loc: 1 to 0000000000474980
  DW_CFA_restore_state
  DW_CFA_advance_loc: 13 to 000000000047498d
  DW_CFA_def_cfa_offset: 8
  DW_CFA_nop
  DW_CFA_nop
  DW_CFA_nop
  DW_CFA_nop

000123c0 0000000000000014 00012368 FDE cie=00012368 pc=0000000000474990..000000000047499d

000123d8 000000000000002c 00012368 FDE cie=00012368 pc=00000000004749a0..0000000000474a2b
  DW_CFA_advance_loc: 7 to 00000000004749a7
  DW_CFA_def_cfa_offset: 16
  DW_CFA_offset: r3 (rbx) at cfa-16
  DW_CFA_advance_loc: 30 to 00000000004749c5
  DW_CFA_remember_state
  DW_CFA_def_cfa_offset: 8
  DW_CFA_advance_loc: 11 to 00000000004749d0
  DW_CFA_restore_state
  DW_CFA_advance_loc1: 64 to 0000000000474a10
  DW_CFA_remember_state
  DW_CFA_def_cfa_offset: 8
  DW_CFA_advance_loc: 8 to 0000000000474a18
  DW_CFA_restore_state
  DW_CFA_advance_loc: 18 to 0000000000474a2a
  DW_CFA_def_cfa_offset: 8
  DW_CFA_nop
  DW_CFA_nop
  DW_CFA_nop

00012408 0000000000000014 ffffffff CIE
  Version:               1
  Augmentation:          ""
  Code alignment factor: 1
  Data alignment factor: -8
  Return address column: 16

  DW_CFA_def_cfa: r7 (rsp) ofs 8
  DW_CFA_offset: r16 (rip) at cfa-8
  DW_CFA_nop
  DW_CFA_nop
  DW_CFA_nop
  DW_CFA_nop
  DW_CFA_nop
  DW_CFA_nop

00012420 000000000000003c 00012408 FDE cie=00012408 pc=0000000000474a30..0000000000474ac5
  DW_CFA_advance_loc: 8 to 0000000000474a38
  DW_CFA_def_cfa_offset: 16
  DW_CFA_offset: r13 (r13) at cfa-16
  DW_CFA_advance_loc: 2 to 0000000000474a3a
  DW_CFA_def_cfa_offset: 24
  DW_CFA_offset: r12 (r12) at cfa-24
  DW_CFA_advance_loc: 7 to 0000000000474a41
  DW_CFA_def_cfa_offset: 32
  DW_CFA_offset: r6 (rbp) at cfa-32
  DW_CFA_advance_loc: 60 to 0000000000474a7d
  DW_CFA_remember_state
  DW_CFA_def_cfa_offset: 24
  DW_CFA_advance_loc: 2 to 0000000000474a7f
  DW_CFA_def_cfa_offset: 16
  DW_CFA_advance_loc: 2 to 0000000000474a81
  DW_CFA_def_cfa_offset: 8
  DW_CFA_advance_loc: 7 to 0000000000474a88
  DW_CFA_restore_state
  DW_CFA_advance_loc: 56 to 0000000000474ac0
  DW_CFA_def_cfa_offset: 24
  DW_CFA_advance_loc: 2 to 0000000000474ac2
  DW_CFA_def_cfa_offset: 16
  DW_CFA_advance_loc: 2 to 0000000000474ac4
  DW_CFA_def_cfa_offset: 8
  DW_CFA_nop
  DW_CFA_nop
  DW_CFA_nop
  DW_CFA_nop

00012460 0000000000000014 ffffffff CIE
  Version:               1
  Augmentation:          ""
  Code alignment factor: 1
  Data alignment factor: -8
  Return address column: 16

  DW_CFA_def_cfa: r7 (rsp) ofs 8
  DW_CFA_offset: r16 (rip) at cfa-8
  DW_CFA_nop
  DW_CFA_nop
  DW_CFA_nop
  DW_CFA_nop
  DW_CFA_nop
  DW_CFA_nop

00012478 000000000000002c 00012460 FDE cie=00012460 pc=0000000000474ad0..0000000000474bac
  DW_CFA_advance_loc: 2 to 0000000000474ad2
  DW_CFA_def_cfa_offset: 16
  DW_CFA_offset: r12 (r12) at cfa-16
  DW_CFA_advance_loc: 19 to 0000000000474ae5
  DW_CFA_def_cfa_offset: 80
  DW_CFA_advance_loc1: 96 to 0000000000474b45
  DW_CFA_remember_state
  DW_CFA_def_cfa_offset: 16
  DW_CFA_advance_loc: 5 to 0000000000474b4a
  DW_CFA_def_cfa_offset: 8
  DW_CFA_advance_loc: 6 to 0000000000474b50
  DW_CFA_restore_state
  DW_CFA_nop
  DW_CFA_nop
  DW_CFA_nop
  DW_CFA_nop
  DW_CFA_nop
  DW_CFA_nop

000124a8 000000000000001c 00012460 FDE cie=00012460 pc=0000000000474bb0..0000000000474be9
  DW_CFA_advance_loc: 23 to 0000000000474bc7
  DW_CFA_def_cfa_offset: 16
  DW_CFA_advance_loc: 24 to 0000000000474bdf
  DW_CFA_def_cfa_offset: 8
  DW_CFA_nop
  DW_CFA_nop

000124c8 0000000000000024 00012460 FDE cie=00012460 pc=0000000000474bf0..0000000000474c47
  DW_CFA_advance_loc: 4 to 0000000000474bf4
  DW_CFA_def_cfa_offset: 48
  DW_CFA_advance_loc1: 77 to 0000000000474c41
  DW_CFA_remember_state
  DW_CFA_def_cfa_offset: 8
  DW_CFA_advance_loc: 1 to 0000000000474c42
  DW_CFA_restore_state
  DW_CFA_nop
  DW_CFA_nop
  DW_CFA_nop
  DW_CFA_nop
  DW_CFA_nop
  DW_CFA_nop

000124f0 0000000000000014 ffffffff CIE
  Version:               1
  Augmentation:          ""
  Code alignment factor: 1
  Data alignment factor: -8
  Return address column: 16

  DW_CFA_def_cfa: r7 (rsp) ofs 8
  DW_CFA_offset: r16 (rip) at cfa-8
  DW_CFA_nop
  DW_CFA_nop
  DW_CFA_nop
  DW_CFA_nop
  DW_CFA_nop
  DW_CFA_nop

00012508 0000000000000014 000124f0 FDE cie=000124f0 pc=0000000000474c50..0000000000474c65

00012520 0000000000000014 ffffffff CIE
  Version:               1
  Augmentation:          ""
  Code alignment factor: 1
  Data alignment factor: -8
  Return address column: 16

  DW_CFA_def_cfa: r7 (rsp) ofs 8
  DW_CFA_offset: r16 (rip) at cfa-8
  DW_CFA_nop
  DW_CFA_nop
  DW_CFA_nop
  DW_CFA_nop
  DW_CFA_nop
  DW_CFA_nop

00012538 0000000000000054 00012520 FDE cie=00012520 pc=0000000000474c70..0000000000474d80
  DW_CFA_advance_loc: 2 to 0000000000474c72
  DW_CFA_def_cfa_offset: 16
  DW_CFA_offset: r15 (r15) at cfa-16
  DW_CFA_advance_loc: 5 to 0000000000474c77
  DW_CFA_def_cfa_offset: 24
  DW_CFA_offset: r14 (r14) at cfa-24
  DW_CFA_advance_loc: 2 to 0000000000474c79
  DW_CFA_def_cfa_offset: 32
  DW_CFA_offset: r13 (r13) at cfa-32
  DW_CFA_advance_loc: 5 to 0000000000474c7e
  DW_CFA_def_cfa_offset: 40
  DW_CFA_offset: r12 (r12) at cfa-40
  DW_CFA_advance_loc: 4 to 0000000000474c82
  DW_CFA_def_cfa_offset: 48
  DW_CFA_offset: r6 (rbp) at cfa-48
  DW_CFA_advance_loc: 4 to 0000000000474c86
  DW_CFA_def_cfa_offset: 56
  DW_CFA_offset: r3 (rbx) at cfa-56
  DW_CFA_advance_loc: 4 to 0000000000474c8a
  DW_CFA_def_cfa_offset: 96
  DW_CFA_advance_loc1: 188 to 0000000000474d46
  DW_CFA_remember_state
  DW_CFA_def_cfa_offset: 56
  DW_CFA_advance_loc: 1 to 0000000000474d47
  DW_CFA_def_cfa_offset: 48
  DW_CFA_advance_loc: 1 to 0000000000474d48
  DW_CFA_def_cfa_offset: 40
  DW_CFA_advance_loc: 2 to 0000000000474d4a
  DW_CFA_def_cfa_offset: 32
  DW_CFA_advance_loc: 2 to 0000000000474d4c
  DW_CFA_def_cfa_offset: 24
  DW_CFA_advance_loc: 2 to 0000000000474d4e
  DW_CFA_def_cfa_offset: 16
  DW_CFA_advance_loc: 2 to 0000000000474d50
  DW_CFA_def_cfa_offset: 8
  DW_CFA_advance_loc: 8 to 0000000000474d58
  DW_CFA_restore_state
  DW_CFA_nop
  DW_CFA_nop
  DW_CFA_nop
  DW_CFA_nop
  DW_CFA_nop
  DW_CFA_nop

00012590 0000000000000014 ffffffff CIE
  Version:               1
  Augmentation:          ""
  Code alignment factor: 1
  Data alignment factor: -8
  Return address column: 16

  DW_CFA_def_cfa: r7 (rsp) ofs 8
  DW_CFA_offset: r16 (rip) at cfa-8
  DW_CFA_nop
  DW_CFA_nop
  DW_CFA_nop
  DW_CFA_nop
  DW_CFA_nop
  DW_CFA_nop

000125a8 000000000000002c 00012590 FDE cie=00012590 pc=0000000000474d80..0000000000474dd8
  DW_CFA_advance_loc: 2 to 0000000000474d82
  DW_CFA_def_cfa_offset: 16
  DW_CFA_offset: r12 (r12) at cfa-16
  DW_CFA_advance_loc: 61 to 0000000000474dbf
  DW_CFA_remember_state
  DW_CFA_def_cfa_offset: 8
  DW_CFA_advance_loc: 1 to 0000000000474dc0
  DW_CFA_restore_state
  DW_CFA_advance_loc: 8 to 0000000000474dc8
  DW_CFA_remember_state
  DW_CFA_def_cfa_offset: 8
  DW_CFA_advance_loc: 8 to 0000000000474dd0
  DW_CFA_restore_state
  DW_CFA_nop
  DW_CFA_nop
  DW_CFA_nop
  DW_CFA_nop
  DW_CFA_nop
  DW_CFA_nop
  DW_CFA_nop

000125d8 0000000000000014 ffffffff CIE
  Version:               1
  Augmentation:          ""
  Code alignment factor: 1
  Data alignment factor: -8
  Return address column: 16

  DW_CFA_def_cfa: r7 (rsp) ofs 8
  DW_CFA_offset: r16 (rip) at cfa-8
  DW_CFA_nop
  DW_CFA_nop
  DW_CFA_nop
  DW_CFA_nop
  DW_CFA_nop
  DW_CFA_nop

000125f0 0000000000000054 000125d8 FDE cie=000125d8 pc=0000000000474de0..000000000047501e
  DW_CFA_advance_loc: 2 to 0000000000474de2
  DW_CFA_def_cfa_offset: 16
  DW_CFA_offset: r15 (r15) at cfa-16
  DW_CFA_advance_loc: 5 to 0000000000474de7
  DW_CFA_def_cfa_offset: 24
  DW_CFA_offset: r14 (r14) at cfa-24
  DW_CFA_advance_loc: 2 to 0000000000474de9
  DW_CFA_def_cfa_offset: 32
  DW_CFA_offset: r13 (r13) at cfa-32
  DW_CFA_advance_loc: 2 to 0000000000474deb
  DW_CFA_def_cfa_offset: 40
  DW_CFA_offset: r12 (r12) at cfa-40
  DW_CFA_advance_loc: 4 to 0000000000474def
  DW_CFA_def_cfa_offset: 48
  DW_CFA_offset: r6 (rbp) at cfa-48
  DW_CFA_advance_loc: 4 to 0000000000474df3
  DW_CFA_def_cfa_offset: 56
  DW_CFA_offset: r3 (rbx) at cfa-56
  DW_CFA_advance_loc: 4 to 0000000000474df7
  DW_CFA_def_cfa_offset: 80
  DW_CFA_advance_loc1: 143 to 0000000000474e86
  DW_CFA_remember_state
  DW_CFA_def_cfa_offset: 56
  DW_CFA_advance_loc: 4 to 0000000000474e8a
  DW_CFA_def_cfa_offset: 48
  DW_CFA_advance_loc: 1 to 0000000000474e8b
  DW_CFA_def_cfa_offset: 40
  DW_CFA_advance_loc: 2 to 0000000000474e8d
  DW_CFA_def_cfa_offset: 32
  DW_CFA_advance_loc: 2 to 0000000000474e8f
  DW_CFA_def_cfa_offset: 24
  DW_CFA_advance_loc: 2 to 0000000000474e91
  DW_CFA_def_cfa_offset: 16
  DW_CFA_advance_loc: 2 to 0000000000474e93
  DW_CFA_def_cfa_offset: 8
  DW_CFA_advance_loc: 5 to 0000000000474e98
  DW_CFA_restore_state
  DW_CFA_nop
  DW_CFA_nop
  DW_CFA_nop
  DW_CFA_nop
  DW_CFA_nop
  DW_CFA_nop

00012648 0000000000000054 000125d8 FDE cie=000125d8 pc=0000000000475020..0000000000475205
  DW_CFA_advance_loc: 2 to 0000000000475022
  DW_CFA_def_cfa_offset: 16
  DW_CFA_offset: r15 (r15) at cfa-16
  DW_CFA_advance_loc: 2 to 0000000000475024
  DW_CFA_def_cfa_offset: 24
  DW_CFA_offset: r14 (r14) at cfa-24
  DW_CFA_advance_loc: 2 to 0000000000475026
  DW_CFA_def_cfa_offset: 32
  DW_CFA_offset: r13 (r13) at cfa-32
  DW_CFA_advance_loc: 5 to 000000000047502b
  DW_CFA_def_cfa_offset: 40
  DW_CFA_offset: r12 (r12) at cfa-40
  DW_CFA_advance_loc: 4 to 000000000047502f
  DW_CFA_def_cfa_offset: 48
  DW_CFA_offset: r6 (rbp) at cfa-48
  DW_CFA_advance_loc: 4 to 0000000000475033
  DW_CFA_def_cfa_offset: 56
  DW_CFA_offset: r3 (rbx) at cfa-56
  DW_CFA_advance_loc: 4 to 0000000000475037
  DW_CFA_def_cfa_offset: 80
  DW_CFA_advance_loc1: 135 to 00000000004750be
  DW_CFA_remember_state
  DW_CFA_def_cfa_offset: 56
  DW_CFA_advance_loc: 4 to 00000000004750c2
  DW_CFA_def_cfa_offset: 48
  DW_CFA_advance_loc: 1 to 00000000004750c3
  DW_CFA_def_cfa_offset: 40
  DW_CFA_advance_loc: 2 to 00000000004750c5
  DW_CFA_def_cfa_offset: 32
  DW_CFA_advance_loc: 2 to 00000000004750c7
  DW_CFA_def_cfa_offset: 24
  DW_CFA_advance_loc: 2 to 00000000004750c9
  DW_CFA_def_cfa_offset: 16
  DW_CFA_advance_loc: 2 to 00000000004750cb
  DW_CFA_def_cfa_offset: 8
  DW_CFA_advance_loc: 5 to 00000000004750d0
  DW_CFA_restore_state
  DW_CFA_nop
  DW_CFA_nop
  DW_CFA_nop
  DW_CFA_nop
  DW_CFA_nop
  DW_CFA_nop

000126a0 0000000000000054 000125d8 FDE cie=000125d8 pc=0000000000475210..00000000004753cb
  DW_CFA_advance_loc: 2 to 0000000000475212
  DW_CFA_def_cfa_offset: 16
  DW_CFA_offset: r15 (r15) at cfa-16
  DW_CFA_advance_loc: 2 to 0000000000475214
  DW_CFA_def_cfa_offset: 24
  DW_CFA_offset: r14 (r14) at cfa-24
  DW_CFA_advance_loc: 2 to 0000000000475216
  DW_CFA_def_cfa_offset: 32
  DW_CFA_offset: r13 (r13) at cfa-32
  DW_CFA_advance_loc: 5 to 000000000047521b
  DW_CFA_def_cfa_offset: 40
  DW_CFA_offset: r12 (r12) at cfa-40
  DW_CFA_advance_loc: 4 to 000000000047521f
  DW_CFA_def_cfa_offset: 48
  DW_CFA_offset: r6 (rbp) at cfa-48
  DW_CFA_advance_loc: 4 to 0000000000475223
  DW_CFA_def_cfa_offset: 56
  DW_CFA_offset: r3 (rbx) at cfa-56
  DW_CFA_advance_loc: 4 to 0000000000475227
  DW_CFA_def_cfa_offset: 80
  DW_CFA_advance_loc1: 135 to 00000000004752ae
  DW_CFA_remember_state
  DW_CFA_def_cfa_offset: 56
  DW_CFA_advance_loc: 4 to 00000000004752b2
  DW_CFA_def_cfa_offset: 48
  DW_CFA_advance_loc: 1 to 00000000004752b3
  DW_CFA_def_cfa_offset: 40
  DW_CFA_advance_loc: 2 to 00000000004752b5
  DW_CFA_def_cfa_offset: 32
  DW_CFA_advance_loc: 2 to 00000000004752b7
  DW_CFA_def_cfa_offset: 24
  DW_CFA_advance_loc: 2 to 00000000004752b9
  DW_CFA_def_cfa_offset: 16
  DW_CFA_advance_loc: 2 to 00000000004752bb
  DW_CFA_def_cfa_offset: 8
  DW_CFA_advance_loc: 5 to 00000000004752c0
  DW_CFA_restore_state
  DW_CFA_nop
  DW_CFA_nop
  DW_CFA_nop
  DW_CFA_nop
  DW_CFA_nop
  DW_CFA_nop

000126f8 0000000000000014 ffffffff CIE
  Version:               1
  Augmentation:          ""
  Code alignment factor: 1
  Data alignment factor: -8
  Return address column: 16

  DW_CFA_def_cfa: r7 (rsp) ofs 8
  DW_CFA_offset: r16 (rip) at cfa-8
  DW_CFA_nop
  DW_CFA_nop
  DW_CFA_nop
  DW_CFA_nop
  DW_CFA_nop
  DW_CFA_nop

00012710 000000000000003c 000126f8 FDE cie=000126f8 pc=00000000004753d0..00000000004754de
  DW_CFA_advance_loc: 2 to 00000000004753d2
  DW_CFA_def_cfa_offset: 16
  DW_CFA_offset: r12 (r12) at cfa-16
  DW_CFA_advance_loc: 1 to 00000000004753d3
  DW_CFA_def_cfa_offset: 24
  DW_CFA_offset: r6 (rbp) at cfa-24
  DW_CFA_advance_loc: 1 to 00000000004753d4
  DW_CFA_def_cfa_offset: 32
  DW_CFA_offset: r3 (rbx) at cfa-32
  DW_CFA_advance_loc: 4 to 00000000004753d8
  DW_CFA_def_cfa_offset: 112
  DW_CFA_advance_loc1: 211 to 00000000004754ab
  DW_CFA_remember_state
  DW_CFA_def_cfa_offset: 32
  DW_CFA_advance_loc: 4 to 00000000004754af
  DW_CFA_def_cfa_offset: 24
  DW_CFA_advance_loc: 1 to 00000000004754b0
  DW_CFA_def_cfa_offset: 16
  DW_CFA_advance_loc: 2 to 00000000004754b2
  DW_CFA_def_cfa_offset: 8
  DW_CFA_advance_loc: 6 to 00000000004754b8
  DW_CFA_restore_state
  DW_CFA_nop
  DW_CFA_nop
  DW_CFA_nop
  DW_CFA_nop
  DW_CFA_nop
  DW_CFA_nop

00012750 000000000000001c ffffffff CIE
  Version:               1
  Augmentation:          ""
  Code alignment factor: 1
  Data alignment factor: -8
  Return address column: 16

  DW_CFA_def_cfa: r7 (rsp) ofs 8
  DW_CFA_offset: r16 (rip) at cfa-8
  DW_CFA_def_cfa_offset: 112
  DW_CFA_offset: r3 (rbx) at cfa-32
  DW_CFA_offset: r6 (rbp) at cfa-24
  DW_CFA_offset: r12 (r12) at cfa-16
  DW_CFA_nop
  DW_CFA_nop
  DW_CFA_nop
  DW_CFA_nop
  DW_CFA_nop
  DW_CFA_nop

00012770 0000000000000014 00012750 FDE cie=00012750 pc=0000000000405d8f..0000000000405dbe

00012788 0000000000000014 ffffffff CIE
  Version:               1
  Augmentation:          ""
  Code alignment factor: 1
  Data alignment factor: -8
  Return address column: 16

  DW_CFA_def_cfa: r7 (rsp) ofs 8
  DW_CFA_offset: r16 (rip) at cfa-8
  DW_CFA_nop
  DW_CFA_nop
  DW_CFA_nop
  DW_CFA_nop
  DW_CFA_nop
  DW_CFA_nop

000127a0 0000000000000054 00012788 FDE cie=00012788 pc=00000000004754e0..0000000000475661
  DW_CFA_advance_loc: 2 to 00000000004754e2
  DW_CFA_def_cfa_offset: 16
  DW_CFA_offset: r15 (r15) at cfa-16
  DW_CFA_advance_loc: 2 to 00000000004754e4
  DW_CFA_def_cfa_offset: 24
  DW_CFA_offset: r14 (r14) at cfa-24
  DW_CFA_advance_loc: 2 to 00000000004754e6
  DW_CFA_def_cfa_offset: 32
  DW_CFA_offset: r13 (r13) at cfa-32
  DW_CFA_advance_loc: 5 to 00000000004754eb
  DW_CFA_def_cfa_offset: 40
  DW_CFA_offset: r12 (r12) at cfa-40
  DW_CFA_advance_loc: 4 to 00000000004754ef
  DW_CFA_def_cfa_offset: 48
  DW_CFA_offset: r6 (rbp) at cfa-48
  DW_CFA_advance_loc: 4 to 00000000004754f3
  DW_CFA_def_cfa_offset: 56
  DW_CFA_offset: r3 (rbx) at cfa-56
  DW_CFA_advance_loc: 7 to 00000000004754fa
  DW_CFA_def_cfa_offset: 80
  DW_CFA_advance_loc1: 142 to 0000000000475588
  DW_CFA_remember_state
  DW_CFA_def_cfa_offset: 56
  DW_CFA_advance_loc: 4 to 000000000047558c
  DW_CFA_def_cfa_offset: 48
  DW_CFA_advance_loc: 1 to 000000000047558d
  DW_CFA_def_cfa_offset: 40
  DW_CFA_advance_loc: 2 to 000000000047558f
  DW_CFA_def_cfa_offset: 32
  DW_CFA_advance_loc: 2 to 0000000000475591
  DW_CFA_def_cfa_offset: 24
  DW_CFA_advance_loc: 2 to 0000000000475593
  DW_CFA_def_cfa_offset: 16
  DW_CFA_advance_loc: 2 to 0000000000475595
  DW_CFA_def_cfa_offset: 8
  DW_CFA_advance_loc: 11 to 00000000004755a0
  DW_CFA_restore_state
  DW_CFA_nop
  DW_CFA_nop
  DW_CFA_nop
  DW_CFA_nop
  DW_CFA_nop
  DW_CFA_nop

000127f8 0000000000000014 ffffffff CIE
  Version:               1
  Augmentation:          ""
  Code alignment factor: 1
  Data alignment factor: -8
  Return address column: 16

  DW_CFA_def_cfa: r7 (rsp) ofs 8
  DW_CFA_offset: r16 (rip) at cfa-8
  DW_CFA_nop
  DW_CFA_nop
  DW_CFA_nop
  DW_CFA_nop
  DW_CFA_nop
  DW_CFA_nop

00012810 0000000000000054 000127f8 FDE cie=000127f8 pc=0000000000475670..00000000004757e6
  DW_CFA_advance_loc: 2 to 0000000000475672
  DW_CFA_def_cfa_offset: 16
  DW_CFA_offset: r15 (r15) at cfa-16
  DW_CFA_advance_loc: 2 to 0000000000475674
  DW_CFA_def_cfa_offset: 24
  DW_CFA_offset: r14 (r14) at cfa-24
  DW_CFA_advance_loc: 5 to 0000000000475679
  DW_CFA_def_cfa_offset: 32
  DW_CFA_offset: r13 (r13) at cfa-32
  DW_CFA_advance_loc: 5 to 000000000047567e
  DW_CFA_def_cfa_offset: 40
  DW_CFA_offset: r12 (r12) at cfa-40
  DW_CFA_advance_loc: 4 to 0000000000475682
  DW_CFA_def_cfa_offset: 48
  DW_CFA_offset: r6 (rbp) at cfa-48
  DW_CFA_advance_loc: 4 to 0000000000475686
  DW_CFA_def_cfa_offset: 56
  DW_CFA_offset: r3 (rbx) at cfa-56
  DW_CFA_advance_loc: 7 to 000000000047568d
  DW_CFA_def_cfa_offset: 96
  DW_CFA_advance_loc1: 172 to 0000000000475739
  DW_CFA_remember_state
  DW_CFA_def_cfa_offset: 56
  DW_CFA_advance_loc: 4 to 000000000047573d
  DW_CFA_def_cfa_offset: 48
  DW_CFA_advance_loc: 1 to 000000000047573e
  DW_CFA_def_cfa_offset: 40
  DW_CFA_advance_loc: 2 to 0000000000475740
  DW_CFA_def_cfa_offset: 32
  DW_CFA_advance_loc: 2 to 0000000000475742
  DW_CFA_def_cfa_offset: 24
  DW_CFA_advance_loc: 2 to 0000000000475744
  DW_CFA_def_cfa_offset: 16
  DW_CFA_advance_loc: 2 to 0000000000475746
  DW_CFA_def_cfa_offset: 8
  DW_CFA_advance_loc: 10 to 0000000000475750
  DW_CFA_restore_state
  DW_CFA_nop
  DW_CFA_nop
  DW_CFA_nop
  DW_CFA_nop
  DW_CFA_nop
  DW_CFA_nop

00012868 0000000000000014 ffffffff CIE
  Version:               1
  Augmentation:          ""
  Code alignment factor: 1
  Data alignment factor: -8
  Return address column: 16

  DW_CFA_def_cfa: r7 (rsp) ofs 8
  DW_CFA_offset: r16 (rip) at cfa-8
  DW_CFA_nop
  DW_CFA_nop
  DW_CFA_nop
  DW_CFA_nop
  DW_CFA_nop
  DW_CFA_nop

00012880 0000000000000054 00012868 FDE cie=00012868 pc=00000000004757f0..0000000000475939
  DW_CFA_advance_loc: 2 to 00000000004757f2
  DW_CFA_def_cfa_offset: 16
  DW_CFA_offset: r15 (r15) at cfa-16
  DW_CFA_advance_loc: 2 to 00000000004757f4
  DW_CFA_def_cfa_offset: 24
  DW_CFA_offset: r14 (r14) at cfa-24
  DW_CFA_advance_loc: 2 to 00000000004757f6
  DW_CFA_def_cfa_offset: 32
  DW_CFA_offset: r13 (r13) at cfa-32
  DW_CFA_advance_loc: 2 to 00000000004757f8
  DW_CFA_def_cfa_offset: 40
  DW_CFA_offset: r12 (r12) at cfa-40
  DW_CFA_advance_loc: 4 to 00000000004757fc
  DW_CFA_def_cfa_offset: 48
  DW_CFA_offset: r6 (rbp) at cfa-48
  DW_CFA_advance_loc: 4 to 0000000000475800
  DW_CFA_def_cfa_offset: 56
  DW_CFA_offset: r3 (rbx) at cfa-56
  DW_CFA_advance_loc: 7 to 0000000000475807
  DW_CFA_def_cfa_offset: 80
  DW_CFA_advance_loc1: 75 to 0000000000475852
  DW_CFA_remember_state
  DW_CFA_def_cfa_offset: 56
  DW_CFA_advance_loc: 4 to 0000000000475856
  DW_CFA_def_cfa_offset: 48
  DW_CFA_advance_loc: 1 to 0000000000475857
  DW_CFA_def_cfa_offset: 40
  DW_CFA_advance_loc: 2 to 0000000000475859
  DW_CFA_def_cfa_offset: 32
  DW_CFA_advance_loc: 2 to 000000000047585b
  DW_CFA_def_cfa_offset: 24
  DW_CFA_advance_loc: 2 to 000000000047585d
  DW_CFA_def_cfa_offset: 16
  DW_CFA_advance_loc: 2 to 000000000047585f
  DW_CFA_def_cfa_offset: 8
  DW_CFA_advance_loc: 1 to 0000000000475860
  DW_CFA_restore_state
  DW_CFA_nop
  DW_CFA_nop
  DW_CFA_nop
  DW_CFA_nop
  DW_CFA_nop
  DW_CFA_nop

000128d8 0000000000000014 ffffffff CIE
  Version:               1
  Augmentation:          ""
  Code alignment factor: 1
  Data alignment factor: -8
  Return address column: 16

  DW_CFA_def_cfa: r7 (rsp) ofs 8
  DW_CFA_offset: r16 (rip) at cfa-8
  DW_CFA_nop
  DW_CFA_nop
  DW_CFA_nop
  DW_CFA_nop
  DW_CFA_nop
  DW_CFA_nop

000128f0 000000000000004c 000128d8 FDE cie=000128d8 pc=0000000000475940..0000000000475dd6
  DW_CFA_advance_loc: 2 to 0000000000475942
  DW_CFA_def_cfa_offset: 16
  DW_CFA_offset: r12 (r12) at cfa-16
  DW_CFA_advance_loc: 9 to 000000000047594b
  DW_CFA_def_cfa_offset: 24
  DW_CFA_offset: r6 (rbp) at cfa-24
  DW_CFA_advance_loc: 1 to 000000000047594c
  DW_CFA_def_cfa_offset: 32
  DW_CFA_offset: r3 (rbx) at cfa-32
  DW_CFA_advance_loc: 7 to 0000000000475953
  DW_CFA_def_cfa_offset: 48
  DW_CFA_advance_loc2: 836 to 0000000000475c97
  DW_CFA_remember_state
  DW_CFA_def_cfa_offset: 32
  DW_CFA_advance_loc: 1 to 0000000000475c98
  DW_CFA_def_cfa_offset: 24
  DW_CFA_advance_loc: 1 to 0000000000475c99
  DW_CFA_def_cfa_offset: 16
  DW_CFA_advance_loc: 2 to 0000000000475c9b
  DW_CFA_def_cfa_offset: 8
  DW_CFA_advance_loc: 5 to 0000000000475ca0
  DW_CFA_restore_state
  DW_CFA_advance_loc1: 119 to 0000000000475d17
  DW_CFA_remember_state
  DW_CFA_def_cfa_offset: 32
  DW_CFA_advance_loc: 5 to 0000000000475d1c
  DW_CFA_def_cfa_offset: 24
  DW_CFA_advance_loc: 6 to 0000000000475d22
  DW_CFA_def_cfa_offset: 16
  DW_CFA_advance_loc: 2 to 0000000000475d24
  DW_CFA_def_cfa_offset: 8
  DW_CFA_advance_loc: 4 to 0000000000475d28
  DW_CFA_restore_state
  DW_CFA_nop
  DW_CFA_nop
  DW_CFA_nop
  DW_CFA_nop
  DW_CFA_nop

00012940 000000000000002c 000128d8 FDE cie=000128d8 pc=0000000000475de0..0000000000475e35
  DW_CFA_advance_loc: 6 to 0000000000475de6
  DW_CFA_def_cfa_offset: 16
  DW_CFA_offset: r6 (rbp) at cfa-16
  DW_CFA_advance_loc: 11 to 0000000000475df1
  DW_CFA_def_cfa_offset: 32
  DW_CFA_advance_loc: 48 to 0000000000475e21
  DW_CFA_remember_state
  DW_CFA_def_cfa_offset: 16
  DW_CFA_advance_loc: 1 to 0000000000475e22
  DW_CFA_def_cfa_offset: 8
  DW_CFA_advance_loc: 6 to 0000000000475e28
  DW_CFA_restore_state
  DW_CFA_advance_loc: 8 to 0000000000475e30
  DW_CFA_def_cfa_offset: 8
  DW_CFA_restore: r6 (rbp)
  DW_CFA_nop
  DW_CFA_nop
  DW_CFA_nop

00012970 0000000000000014 ffffffff CIE
  Version:               1
  Augmentation:          ""
  Code alignment factor: 1
  Data alignment factor: -8
  Return address column: 16

  DW_CFA_def_cfa: r7 (rsp) ofs 8
  DW_CFA_offset: r16 (rip) at cfa-8
  DW_CFA_nop
  DW_CFA_nop
  DW_CFA_nop
  DW_CFA_nop
  DW_CFA_nop
  DW_CFA_nop

00012988 000000000000004c 00012970 FDE cie=00012970 pc=0000000000475e40..0000000000475f1f
  DW_CFA_advance_loc: 1 to 0000000000475e41
  DW_CFA_def_cfa_offset: 16
  DW_CFA_offset: r6 (rbp) at cfa-16
  DW_CFA_advance_loc: 9 to 0000000000475e4a
  DW_CFA_def_cfa_offset: 24
  DW_CFA_offset: r3 (rbx) at cfa-24
  DW_CFA_advance_loc: 7 to 0000000000475e51
  DW_CFA_def_cfa_offset: 32
  DW_CFA_advance_loc: 39 to 0000000000475e78
  DW_CFA_remember_state
  DW_CFA_def_cfa_offset: 24
  DW_CFA_advance_loc: 3 to 0000000000475e7b
  DW_CFA_def_cfa_offset: 16
  DW_CFA_advance_loc: 1 to 0000000000475e7c
  DW_CFA_def_cfa_offset: 8
  DW_CFA_advance_loc: 12 to 0000000000475e88
  DW_CFA_restore_state
  DW_CFA_advance_loc: 4 to 0000000000475e8c
  DW_CFA_remember_state
  DW_CFA_def_cfa_offset: 24
  DW_CFA_advance_loc: 3 to 0000000000475e8f
  DW_CFA_def_cfa_offset: 16
  DW_CFA_advance_loc: 1 to 0000000000475e90
  DW_CFA_def_cfa_offset: 8
  DW_CFA_advance_loc: 8 to 0000000000475e98
  DW_CFA_restore_state
  DW_CFA_advance_loc1: 83 to 0000000000475eeb
  DW_CFA_remember_state
  DW_CFA_def_cfa_offset: 24
  DW_CFA_advance_loc: 6 to 0000000000475ef1
  DW_CFA_def_cfa_offset: 16
  DW_CFA_advance_loc: 1 to 0000000000475ef2
  DW_CFA_def_cfa_offset: 8
  DW_CFA_advance_loc: 14 to 0000000000475f00
  DW_CFA_restore_state
  DW_CFA_nop
  DW_CFA_nop
  DW_CFA_nop
  DW_CFA_nop
  DW_CFA_nop
  DW_CFA_nop

000129d8 000000000000003c 00012970 FDE cie=00012970 pc=0000000000475f20..0000000000475f7e
  DW_CFA_advance_loc: 2 to 0000000000475f22
  DW_CFA_def_cfa_offset: 16
  DW_CFA_offset: r12 (r12) at cfa-16
  DW_CFA_advance_loc: 1 to 0000000000475f23
  DW_CFA_def_cfa_offset: 24
  DW_CFA_offset: r6 (rbp) at cfa-24
  DW_CFA_advance_loc: 4 to 0000000000475f27
  DW_CFA_def_cfa_offset: 32
  DW_CFA_advance_loc: 47 to 0000000000475f56
  DW_CFA_remember_state
  DW_CFA_def_cfa_offset: 24
  DW_CFA_advance_loc: 4 to 0000000000475f5a
  DW_CFA_def_cfa_offset: 16
  DW_CFA_advance_loc: 2 to 0000000000475f5c
  DW_CFA_def_cfa_offset: 8
  DW_CFA_advance_loc: 4 to 0000000000475f60
  DW_CFA_restore_state
  DW_CFA_advance_loc: 23 to 0000000000475f77
  DW_CFA_def_cfa_offset: 24
  DW_CFA_advance_loc: 4 to 0000000000475f7b
  DW_CFA_def_cfa_offset: 16
  DW_CFA_advance_loc: 2 to 0000000000475f7d
  DW_CFA_def_cfa_offset: 8
  DW_CFA_nop
  DW_CFA_nop
  DW_CFA_nop
  DW_CFA_nop
  DW_CFA_nop
  DW_CFA_nop

00012a18 0000000000000014 ffffffff CIE
  Version:               1
  Augmentation:          ""
  Code alignment factor: 1
  Data alignment factor: -8
  Return address column: 16

  DW_CFA_def_cfa: r7 (rsp) ofs 8
  DW_CFA_offset: r16 (rip) at cfa-8
  DW_CFA_nop
  DW_CFA_nop
  DW_CFA_nop
  DW_CFA_nop
  DW_CFA_nop
  DW_CFA_nop

00012a30 0000000000000014 00012a18 FDE cie=00012a18 pc=0000000000475f80..0000000000476055

00012a48 0000000000000014 ffffffff CIE
  Version:               1
  Augmentation:          ""
  Code alignment factor: 1
  Data alignment factor: -8
  Return address column: 16

  DW_CFA_def_cfa: r7 (rsp) ofs 8
  DW_CFA_offset: r16 (rip) at cfa-8
  DW_CFA_nop
  DW_CFA_nop
  DW_CFA_nop
  DW_CFA_nop
  DW_CFA_nop
  DW_CFA_nop

00012a60 000000000000004c 00012a48 FDE cie=00012a48 pc=0000000000476060..000000000047613f
  DW_CFA_advance_loc: 1 to 0000000000476061
  DW_CFA_def_cfa_offset: 16
  DW_CFA_offset: r6 (rbp) at cfa-16
  DW_CFA_advance_loc: 9 to 000000000047606a
  DW_CFA_def_cfa_offset: 24
  DW_CFA_offset: r3 (rbx) at cfa-24
  DW_CFA_advance_loc: 7 to 0000000000476071
  DW_CFA_def_cfa_offset: 32
  DW_CFA_advance_loc: 39 to 0000000000476098
  DW_CFA_remember_state
  DW_CFA_def_cfa_offset: 24
  DW_CFA_advance_loc: 3 to 000000000047609b
  DW_CFA_def_cfa_offset: 16
  DW_CFA_advance_loc: 1 to 000000000047609c
  DW_CFA_def_cfa_offset: 8
  DW_CFA_advance_loc: 12 to 00000000004760a8
  DW_CFA_restore_state
  DW_CFA_advance_loc: 4 to 00000000004760ac
  DW_CFA_remember_state
  DW_CFA_def_cfa_offset: 24
  DW_CFA_advance_loc: 3 to 00000000004760af
  DW_CFA_def_cfa_offset: 16
  DW_CFA_advance_loc: 1 to 00000000004760b0
  DW_CFA_def_cfa_offset: 8
  DW_CFA_advance_loc: 8 to 00000000004760b8
  DW_CFA_restore_state
  DW_CFA_advance_loc1: 83 to 000000000047610b
  DW_CFA_remember_state
  DW_CFA_def_cfa_offset: 24
  DW_CFA_advance_loc: 6 to 0000000000476111
  DW_CFA_def_cfa_offset: 16
  DW_CFA_advance_loc: 1 to 0000000000476112
  DW_CFA_def_cfa_offset: 8
  DW_CFA_advance_loc: 14 to 0000000000476120
  DW_CFA_restore_state
  DW_CFA_nop
  DW_CFA_nop
  DW_CFA_nop
  DW_CFA_nop
  DW_CFA_nop
  DW_CFA_nop

00012ab0 000000000000003c 00012a48 FDE cie=00012a48 pc=0000000000476140..000000000047619e
  DW_CFA_advance_loc: 2 to 0000000000476142
  DW_CFA_def_cfa_offset: 16
  DW_CFA_offset: r12 (r12) at cfa-16
  DW_CFA_advance_loc: 1 to 0000000000476143
  DW_CFA_def_cfa_offset: 24
  DW_CFA_offset: r6 (rbp) at cfa-24
  DW_CFA_advance_loc: 4 to 0000000000476147
  DW_CFA_def_cfa_offset: 32
  DW_CFA_advance_loc: 47 to 0000000000476176
  DW_CFA_remember_state
  DW_CFA_def_cfa_offset: 24
  DW_CFA_advance_loc: 4 to 000000000047617a
  DW_CFA_def_cfa_offset: 16
  DW_CFA_advance_loc: 2 to 000000000047617c
  DW_CFA_def_cfa_offset: 8
  DW_CFA_advance_loc: 4 to 0000000000476180
  DW_CFA_restore_state
  DW_CFA_advance_loc: 23 to 0000000000476197
  DW_CFA_def_cfa_offset: 24
  DW_CFA_advance_loc: 4 to 000000000047619b
  DW_CFA_def_cfa_offset: 16
  DW_CFA_advance_loc: 2 to 000000000047619d
  DW_CFA_def_cfa_offset: 8
  DW_CFA_nop
  DW_CFA_nop
  DW_CFA_nop
  DW_CFA_nop
  DW_CFA_nop
  DW_CFA_nop

00012af0 0000000000000014 ffffffff CIE
  Version:               1
  Augmentation:          ""
  Code alignment factor: 1
  Data alignment factor: -8
  Return address column: 16

  DW_CFA_def_cfa: r7 (rsp) ofs 8
  DW_CFA_offset: r16 (rip) at cfa-8
  DW_CFA_nop
  DW_CFA_nop
  DW_CFA_nop
  DW_CFA_nop
  DW_CFA_nop
  DW_CFA_nop

00012b08 000000000000002c 00012af0 FDE cie=00012af0 pc=00000000004761a0..0000000000476209
  DW_CFA_advance_loc: 2 to 00000000004761a2
  DW_CFA_def_cfa_offset: 16
  DW_CFA_offset: r13 (r13) at cfa-16
  DW_CFA_advance_loc: 12 to 00000000004761ae
  DW_CFA_def_cfa_offset: 24
  DW_CFA_offset: r12 (r12) at cfa-24
  DW_CFA_advance_loc: 11 to 00000000004761b9
  DW_CFA_def_cfa_offset: 32
  DW_CFA_advance_loc1: 72 to 0000000000476201
  DW_CFA_def_cfa_offset: 24
  DW_CFA_advance_loc: 5 to 0000000000476206
  DW_CFA_def_cfa_offset: 16
  DW_CFA_advance_loc: 2 to 0000000000476208
  DW_CFA_def_cfa_offset: 8
  DW_CFA_nop

00012b38 000000000000002c 00012af0 FDE cie=00012af0 pc=0000000000476210..0000000000476279
  DW_CFA_advance_loc: 2 to 0000000000476212
  DW_CFA_def_cfa_offset: 16
  DW_CFA_offset: r13 (r13) at cfa-16
  DW_CFA_advance_loc: 12 to 000000000047621e
  DW_CFA_def_cfa_offset: 24
  DW_CFA_offset: r12 (r12) at cfa-24
  DW_CFA_advance_loc: 11 to 0000000000476229
  DW_CFA_def_cfa_offset: 32
  DW_CFA_advance_loc1: 72 to 0000000000476271
  DW_CFA_def_cfa_offset: 24
  DW_CFA_advance_loc: 5 to 0000000000476276
  DW_CFA_def_cfa_offset: 16
  DW_CFA_advance_loc: 2 to 0000000000476278
  DW_CFA_def_cfa_offset: 8
  DW_CFA_nop

00012b68 0000000000000014 ffffffff CIE
  Version:               1
  Augmentation:          ""
  Code alignment factor: 1
  Data alignment factor: -8
  Return address column: 16

  DW_CFA_def_cfa: r7 (rsp) ofs 8
  DW_CFA_offset: r16 (rip) at cfa-8
  DW_CFA_nop
  DW_CFA_nop
  DW_CFA_nop
  DW_CFA_nop
  DW_CFA_nop
  DW_CFA_nop

00012b80 0000000000000034 00012b68 FDE cie=00012b68 pc=0000000000476280..0000000000476314
  DW_CFA_advance_loc: 2 to 0000000000476282
  DW_CFA_def_cfa_offset: 16
  DW_CFA_offset: r12 (r12) at cfa-16
  DW_CFA_advance_loc: 15 to 0000000000476291
  DW_CFA_def_cfa_offset: 24
  DW_CFA_offset: r3 (rbx) at cfa-24
  DW_CFA_advance_loc: 8 to 0000000000476299
  DW_CFA_def_cfa_offset: 32
  DW_CFA_advance_loc1: 92 to 00000000004762f5
  DW_CFA_remember_state
  DW_CFA_def_cfa_offset: 24
  DW_CFA_advance_loc: 4 to 00000000004762f9
  DW_CFA_def_cfa_offset: 16
  DW_CFA_advance_loc: 2 to 00000000004762fb
  DW_CFA_def_cfa_offset: 8
  DW_CFA_advance_loc: 5 to 0000000000476300
  DW_CFA_restore_state
  DW_CFA_nop
  DW_CFA_nop
  DW_CFA_nop
  DW_CFA_nop
  DW_CFA_nop
  DW_CFA_nop

00012bb8 0000000000000034 00012b68 FDE cie=00012b68 pc=0000000000476320..00000000004763b4
  DW_CFA_advance_loc: 2 to 0000000000476322
  DW_CFA_def_cfa_offset: 16
  DW_CFA_offset: r12 (r12) at cfa-16
  DW_CFA_advance_loc: 15 to 0000000000476331
  DW_CFA_def_cfa_offset: 24
  DW_CFA_offset: r3 (rbx) at cfa-24
  DW_CFA_advance_loc: 4 to 0000000000476335
  DW_CFA_def_cfa_offset: 48
  DW_CFA_advance_loc1: 92 to 0000000000476391
  DW_CFA_remember_state
  DW_CFA_def_cfa_offset: 24
  DW_CFA_advance_loc: 4 to 0000000000476395
  DW_CFA_def_cfa_offset: 16
  DW_CFA_advance_loc: 2 to 0000000000476397
  DW_CFA_def_cfa_offset: 8
  DW_CFA_advance_loc: 9 to 00000000004763a0
  DW_CFA_restore_state
  DW_CFA_nop
  DW_CFA_nop
  DW_CFA_nop
  DW_CFA_nop
  DW_CFA_nop
  DW_CFA_nop

00012bf0 0000000000000014 ffffffff CIE
  Version:               1
  Augmentation:          ""
  Code alignment factor: 1
  Data alignment factor: -8
  Return address column: 16

  DW_CFA_def_cfa: r7 (rsp) ofs 8
  DW_CFA_offset: r16 (rip) at cfa-8
  DW_CFA_nop
  DW_CFA_nop
  DW_CFA_nop
  DW_CFA_nop
  DW_CFA_nop
  DW_CFA_nop

00012c08 000000000000002c 00012bf0 FDE cie=00012bf0 pc=00000000004763c0..0000000000476429
  DW_CFA_advance_loc: 2 to 00000000004763c2
  DW_CFA_def_cfa_offset: 16
  DW_CFA_offset: r13 (r13) at cfa-16
  DW_CFA_advance_loc: 12 to 00000000004763ce
  DW_CFA_def_cfa_offset: 24
  DW_CFA_offset: r12 (r12) at cfa-24
  DW_CFA_advance_loc: 11 to 00000000004763d9
  DW_CFA_def_cfa_offset: 32
  DW_CFA_advance_loc1: 72 to 0000000000476421
  DW_CFA_def_cfa_offset: 24
  DW_CFA_advance_loc: 5 to 0000000000476426
  DW_CFA_def_cfa_offset: 16
  DW_CFA_advance_loc: 2 to 0000000000476428
  DW_CFA_def_cfa_offset: 8
  DW_CFA_nop

00012c38 000000000000002c 00012bf0 FDE cie=00012bf0 pc=0000000000476430..0000000000476499
  DW_CFA_advance_loc: 2 to 0000000000476432
  DW_CFA_def_cfa_offset: 16
  DW_CFA_offset: r13 (r13) at cfa-16
  DW_CFA_advance_loc: 12 to 000000000047643e
  DW_CFA_def_cfa_offset: 24
  DW_CFA_offset: r12 (r12) at cfa-24
  DW_CFA_advance_loc: 11 to 0000000000476449
  DW_CFA_def_cfa_offset: 32
  DW_CFA_advance_loc1: 72 to 0000000000476491
  DW_CFA_def_cfa_offset: 24
  DW_CFA_advance_loc: 5 to 0000000000476496
  DW_CFA_def_cfa_offset: 16
  DW_CFA_advance_loc: 2 to 0000000000476498
  DW_CFA_def_cfa_offset: 8
  DW_CFA_nop

00012c68 0000000000000014 ffffffff CIE
  Version:               1
  Augmentation:          ""
  Code alignment factor: 1
  Data alignment factor: -8
  Return address column: 16

  DW_CFA_def_cfa: r7 (rsp) ofs 8
  DW_CFA_offset: r16 (rip) at cfa-8
  DW_CFA_nop
  DW_CFA_nop
  DW_CFA_nop
  DW_CFA_nop
  DW_CFA_nop
  DW_CFA_nop

00012c80 0000000000000024 00012c68 FDE cie=00012c68 pc=00000000004764a0..0000000000476509
  DW_CFA_advance_loc: 4 to 00000000004764a4
  DW_CFA_def_cfa_offset: 16
  DW_CFA_advance_loc: 51 to 00000000004764d7
  DW_CFA_remember_state
  DW_CFA_def_cfa_offset: 8
  DW_CFA_advance_loc: 9 to 00000000004764e0
  DW_CFA_restore_state
  DW_CFA_nop
  DW_CFA_nop
  DW_CFA_nop
  DW_CFA_nop
  DW_CFA_nop
  DW_CFA_nop
  DW_CFA_nop

00012ca8 0000000000000024 00012c68 FDE cie=00012c68 pc=0000000000476510..0000000000476556
  DW_CFA_advance_loc: 28 to 000000000047652c
  DW_CFA_def_cfa_offset: 16
  DW_CFA_offset: r3 (rbx) at cfa-16
  DW_CFA_advance_loc: 33 to 000000000047654d
  DW_CFA_def_cfa_offset: 8
  DW_CFA_advance_loc: 3 to 0000000000476550
  DW_CFA_restore: r3 (rbx)
  DW_CFA_nop
  DW_CFA_nop
  DW_CFA_nop
  DW_CFA_nop
  DW_CFA_nop
  DW_CFA_nop

00012cd0 0000000000000034 00012c68 FDE cie=00012c68 pc=0000000000476560..00000000004765b4
  DW_CFA_advance_loc: 2 to 0000000000476562
  DW_CFA_def_cfa_offset: 16
  DW_CFA_offset: r12 (r12) at cfa-16
  DW_CFA_advance_loc: 5 to 0000000000476567
  DW_CFA_def_cfa_offset: 24
  DW_CFA_offset: r6 (rbp) at cfa-24
  DW_CFA_advance_loc: 8 to 000000000047656f
  DW_CFA_def_cfa_offset: 32
  DW_CFA_offset: r3 (rbx) at cfa-32
  DW_CFA_advance_loc: 33 to 0000000000476590
  DW_CFA_remember_state
  DW_CFA_def_cfa_offset: 24
  DW_CFA_advance_loc: 1 to 0000000000476591
  DW_CFA_def_cfa_offset: 16
  DW_CFA_advance_loc: 2 to 0000000000476593
  DW_CFA_def_cfa_offset: 8
  DW_CFA_advance_loc: 1 to 0000000000476594
  DW_CFA_restore_state
  DW_CFA_nop
  DW_CFA_nop
  DW_CFA_nop
  DW_CFA_nop
  DW_CFA_nop

00012d08 0000000000000044 00012c68 FDE cie=00012c68 pc=00000000004765c0..00000000004766c1
  DW_CFA_advance_loc: 6 to 00000000004765c6
  DW_CFA_def_cfa_offset: 16
  DW_CFA_offset: r14 (r14) at cfa-16
  DW_CFA_advance_loc: 6 to 00000000004765cc
  DW_CFA_def_cfa_offset: 24
  DW_CFA_offset: r13 (r13) at cfa-24
  DW_CFA_advance_loc: 2 to 00000000004765ce
  DW_CFA_def_cfa_offset: 32
  DW_CFA_offset: r12 (r12) at cfa-32
  DW_CFA_advance_loc: 4 to 00000000004765d2
  DW_CFA_def_cfa_offset: 40
  DW_CFA_offset: r6 (rbp) at cfa-40
  DW_CFA_advance_loc: 8 to 00000000004765da
  DW_CFA_def_cfa_offset: 48
  DW_CFA_offset: r3 (rbx) at cfa-48
  DW_CFA_advance_loc1: 88 to 0000000000476632
  DW_CFA_remember_state
  DW_CFA_def_cfa_offset: 40
  DW_CFA_advance_loc: 1 to 0000000000476633
  DW_CFA_def_cfa_offset: 32
  DW_CFA_advance_loc: 2 to 0000000000476635
  DW_CFA_def_cfa_offset: 24
  DW_CFA_advance_loc: 2 to 0000000000476637
  DW_CFA_def_cfa_offset: 16
  DW_CFA_advance_loc: 2 to 0000000000476639
  DW_CFA_def_cfa_offset: 8
  DW_CFA_advance_loc: 7 to 0000000000476640
  DW_CFA_restore_state
  DW_CFA_nop
  DW_CFA_nop
  DW_CFA_nop
  DW_CFA_nop

00012d50 0000000000000054 00012c68 FDE cie=00012c68 pc=00000000004766d0..000000000047684f
  DW_CFA_advance_loc: 2 to 00000000004766d2
  DW_CFA_def_cfa_offset: 16
  DW_CFA_offset: r13 (r13) at cfa-16
  DW_CFA_advance_loc: 5 to 00000000004766d7
  DW_CFA_def_cfa_offset: 24
  DW_CFA_offset: r12 (r12) at cfa-24
  DW_CFA_advance_loc: 1 to 00000000004766d8
  DW_CFA_def_cfa_offset: 32
  DW_CFA_offset: r6 (rbp) at cfa-32
  DW_CFA_advance_loc: 1 to 00000000004766d9
  DW_CFA_def_cfa_offset: 40
  DW_CFA_offset: r3 (rbx) at cfa-40
  DW_CFA_advance_loc: 7 to 00000000004766e0
  DW_CFA_def_cfa_offset: 48
  DW_CFA_advance_loc1: 89 to 0000000000476739
  DW_CFA_remember_state
  DW_CFA_def_cfa_offset: 40
  DW_CFA_advance_loc: 1 to 000000000047673a
  DW_CFA_def_cfa_offset: 32
  DW_CFA_advance_loc: 1 to 000000000047673b
  DW_CFA_def_cfa_offset: 24
  DW_CFA_advance_loc: 2 to 000000000047673d
  DW_CFA_def_cfa_offset: 16
  DW_CFA_advance_loc: 2 to 000000000047673f
  DW_CFA_def_cfa_offset: 8
  DW_CFA_advance_loc: 1 to 0000000000476740
  DW_CFA_restore_state
  DW_CFA_advance_loc1: 135 to 00000000004767c7
  DW_CFA_remember_state
  DW_CFA_def_cfa_offset: 40
  DW_CFA_advance_loc: 4 to 00000000004767cb
  DW_CFA_def_cfa_offset: 32
  DW_CFA_advance_loc: 4 to 00000000004767cf
  DW_CFA_def_cfa_offset: 24
  DW_CFA_advance_loc: 2 to 00000000004767d1
  DW_CFA_def_cfa_offset: 16
  DW_CFA_advance_loc: 2 to 00000000004767d3
  DW_CFA_def_cfa_offset: 8
  DW_CFA_advance_loc: 5 to 00000000004767d8
  DW_CFA_restore_state
  DW_CFA_nop
  DW_CFA_nop
  DW_CFA_nop

00012da8 0000000000000054 00012c68 FDE cie=00012c68 pc=0000000000476850..00000000004769cf
  DW_CFA_advance_loc: 2 to 0000000000476852
  DW_CFA_def_cfa_offset: 16
  DW_CFA_offset: r13 (r13) at cfa-16
  DW_CFA_advance_loc: 5 to 0000000000476857
  DW_CFA_def_cfa_offset: 24
  DW_CFA_offset: r12 (r12) at cfa-24
  DW_CFA_advance_loc: 1 to 0000000000476858
  DW_CFA_def_cfa_offset: 32
  DW_CFA_offset: r6 (rbp) at cfa-32
  DW_CFA_advance_loc: 1 to 0000000000476859
  DW_CFA_def_cfa_offset: 40
  DW_CFA_offset: r3 (rbx) at cfa-40
  DW_CFA_advance_loc: 7 to 0000000000476860
  DW_CFA_def_cfa_offset: 48
  DW_CFA_advance_loc1: 89 to 00000000004768b9
  DW_CFA_remember_state
  DW_CFA_def_cfa_offset: 40
  DW_CFA_advance_loc: 1 to 00000000004768ba
  DW_CFA_def_cfa_offset: 32
  DW_CFA_advance_loc: 1 to 00000000004768bb
  DW_CFA_def_cfa_offset: 24
  DW_CFA_advance_loc: 2 to 00000000004768bd
  DW_CFA_def_cfa_offset: 16
  DW_CFA_advance_loc: 2 to 00000000004768bf
  DW_CFA_def_cfa_offset: 8
  DW_CFA_advance_loc: 1 to 00000000004768c0
  DW_CFA_restore_state
  DW_CFA_advance_loc1: 135 to 0000000000476947
  DW_CFA_remember_state
  DW_CFA_def_cfa_offset: 40
  DW_CFA_advance_loc: 4 to 000000000047694b
  DW_CFA_def_cfa_offset: 32
  DW_CFA_advance_loc: 4 to 000000000047694f
  DW_CFA_def_cfa_offset: 24
  DW_CFA_advance_loc: 2 to 0000000000476951
  DW_CFA_def_cfa_offset: 16
  DW_CFA_advance_loc: 2 to 0000000000476953
  DW_CFA_def_cfa_offset: 8
  DW_CFA_advance_loc: 5 to 0000000000476958
  DW_CFA_restore_state
  DW_CFA_nop
  DW_CFA_nop
  DW_CFA_nop

00012e00 000000000000002c 00012c68 FDE cie=00012c68 pc=00000000004769d0..0000000000476a3b
  DW_CFA_advance_loc: 6 to 00000000004769d6
  DW_CFA_def_cfa_offset: 16
  DW_CFA_offset: r3 (rbx) at cfa-16
  DW_CFA_advance_loc1: 67 to 0000000000476a19
  DW_CFA_remember_state
  DW_CFA_def_cfa_offset: 8
  DW_CFA_advance_loc: 7 to 0000000000476a20
  DW_CFA_restore_state
  DW_CFA_advance_loc: 22 to 0000000000476a36
  DW_CFA_def_cfa_offset: 8
  DW_CFA_advance_loc: 1 to 0000000000476a37
  DW_CFA_restore: r3 (rbx)
  DW_CFA_nop
  DW_CFA_nop
  DW_CFA_nop
  DW_CFA_nop
  DW_CFA_nop
  DW_CFA_nop
  DW_CFA_nop

00012e30 000000000000002c 00012c68 FDE cie=00012c68 pc=0000000000476a40..0000000000476aab
  DW_CFA_advance_loc: 6 to 0000000000476a46
  DW_CFA_def_cfa_offset: 16
  DW_CFA_offset: r3 (rbx) at cfa-16
  DW_CFA_advance_loc1: 67 to 0000000000476a89
  DW_CFA_remember_state
  DW_CFA_def_cfa_offset: 8
  DW_CFA_advance_loc: 7 to 0000000000476a90
  DW_CFA_restore_state
  DW_CFA_advance_loc: 22 to 0000000000476aa6
  DW_CFA_def_cfa_offset: 8
  DW_CFA_advance_loc: 1 to 0000000000476aa7
  DW_CFA_restore: r3 (rbx)
  DW_CFA_nop
  DW_CFA_nop
  DW_CFA_nop
  DW_CFA_nop
  DW_CFA_nop
  DW_CFA_nop
  DW_CFA_nop

00012e60 0000000000000024 00012c68 FDE cie=00012c68 pc=0000000000476ab0..0000000000476ae4
  DW_CFA_advance_loc: 6 to 0000000000476ab6
  DW_CFA_def_cfa_offset: 16
  DW_CFA_offset: r3 (rbx) at cfa-16
  DW_CFA_advance_loc: 12 to 0000000000476ac2
  DW_CFA_remember_state
  DW_CFA_def_cfa_offset: 8
  DW_CFA_advance_loc: 6 to 0000000000476ac8
  DW_CFA_restore_state
  DW_CFA_advance_loc: 15 to 0000000000476ad7
  DW_CFA_def_cfa_offset: 8
  DW_CFA_advance_loc: 9 to 0000000000476ae0
  DW_CFA_restore: r3 (rbx)

00012e88 0000000000000014 ffffffff CIE
  Version:               1
  Augmentation:          ""
  Code alignment factor: 1
  Data alignment factor: -8
  Return address column: 16

  DW_CFA_def_cfa: r7 (rsp) ofs 8
  DW_CFA_offset: r16 (rip) at cfa-8
  DW_CFA_nop
  DW_CFA_nop
  DW_CFA_nop
  DW_CFA_nop
  DW_CFA_nop
  DW_CFA_nop

00012ea0 0000000000000024 00012e88 FDE cie=00012e88 pc=0000000000476af0..0000000000476b21
  DW_CFA_advance_loc: 6 to 0000000000476af6
  DW_CFA_def_cfa_offset: 16
  DW_CFA_offset: r3 (rbx) at cfa-16
  DW_CFA_advance_loc: 32 to 0000000000476b16
  DW_CFA_def_cfa_offset: 8
  DW_CFA_advance_loc: 10 to 0000000000476b20
  DW_CFA_restore: r3 (rbx)
  DW_CFA_nop
  DW_CFA_nop
  DW_CFA_nop
  DW_CFA_nop
  DW_CFA_nop
  DW_CFA_nop

00012ec8 0000000000000014 ffffffff CIE
  Version:               1
  Augmentation:          ""
  Code alignment factor: 1
  Data alignment factor: -8
  Return address column: 16

  DW_CFA_def_cfa: r7 (rsp) ofs 8
  DW_CFA_offset: r16 (rip) at cfa-8
  DW_CFA_nop
  DW_CFA_nop
  DW_CFA_nop
  DW_CFA_nop
  DW_CFA_nop
  DW_CFA_nop

00012ee0 000000000000003c 00012ec8 FDE cie=00012ec8 pc=0000000000476b30..0000000000476b84
  DW_CFA_advance_loc: 2 to 0000000000476b32
  DW_CFA_def_cfa_offset: 16
  DW_CFA_offset: r12 (r12) at cfa-16
  DW_CFA_advance_loc: 1 to 0000000000476b33
  DW_CFA_def_cfa_offset: 24
  DW_CFA_offset: r6 (rbp) at cfa-24
  DW_CFA_advance_loc: 1 to 0000000000476b34
  DW_CFA_def_cfa_offset: 32
  DW_CFA_offset: r3 (rbx) at cfa-32
  DW_CFA_advance_loc: 13 to 0000000000476b41
  DW_CFA_remember_state
  DW_CFA_def_cfa_offset: 24
  DW_CFA_advance_loc: 1 to 0000000000476b42
  DW_CFA_def_cfa_offset: 16
  DW_CFA_advance_loc: 5 to 0000000000476b47
  DW_CFA_def_cfa_offset: 8
  DW_CFA_advance_loc: 9 to 0000000000476b50
  DW_CFA_restore_state
  DW_CFA_advance_loc: 48 to 0000000000476b80
  DW_CFA_def_cfa_offset: 24
  DW_CFA_advance_loc: 1 to 0000000000476b81
  DW_CFA_def_cfa_offset: 16
  DW_CFA_advance_loc: 2 to 0000000000476b83
  DW_CFA_def_cfa_offset: 8
  DW_CFA_nop
  DW_CFA_nop
  DW_CFA_nop
  DW_CFA_nop

00012f20 0000000000000044 00012ec8 FDE cie=00012ec8 pc=0000000000476b90..0000000000476c12
  DW_CFA_advance_loc: 2 to 0000000000476b92
  DW_CFA_def_cfa_offset: 16
  DW_CFA_offset: r13 (r13) at cfa-16
  DW_CFA_advance_loc: 2 to 0000000000476b94
  DW_CFA_def_cfa_offset: 24
  DW_CFA_offset: r12 (r12) at cfa-24
  DW_CFA_advance_loc: 1 to 0000000000476b95
  DW_CFA_def_cfa_offset: 32
  DW_CFA_offset: r6 (rbp) at cfa-32
  DW_CFA_advance_loc: 4 to 0000000000476b99
  DW_CFA_def_cfa_offset: 40
  DW_CFA_offset: r3 (rbx) at cfa-40
  DW_CFA_advance_loc: 4 to 0000000000476b9d
  DW_CFA_def_cfa_offset: 48
  DW_CFA_advance_loc: 53 to 0000000000476bd2
  DW_CFA_remember_state
  DW_CFA_def_cfa_offset: 40
  DW_CFA_advance_loc: 4 to 0000000000476bd6
  DW_CFA_def_cfa_offset: 32
  DW_CFA_advance_loc: 1 to 0000000000476bd7
  DW_CFA_def_cfa_offset: 24
  DW_CFA_advance_loc: 2 to 0000000000476bd9
  DW_CFA_def_cfa_offset: 16
  DW_CFA_advance_loc: 2 to 0000000000476bdb
  DW_CFA_def_cfa_offset: 8
  DW_CFA_advance_loc: 5 to 0000000000476be0
  DW_CFA_restore_state
  DW_CFA_nop
  DW_CFA_nop
  DW_CFA_nop
  DW_CFA_nop
  DW_CFA_nop
  DW_CFA_nop
  DW_CFA_nop

00012f68 0000000000000014 ffffffff CIE
  Version:               1
  Augmentation:          ""
  Code alignment factor: 1
  Data alignment factor: -8
  Return address column: 16

  DW_CFA_def_cfa: r7 (rsp) ofs 8
  DW_CFA_offset: r16 (rip) at cfa-8
  DW_CFA_nop
  DW_CFA_nop
  DW_CFA_nop
  DW_CFA_nop
  DW_CFA_nop
  DW_CFA_nop

00012f80 0000000000000014 00012f68 FDE cie=00012f68 pc=0000000000476c20..0000000000476c2b

00012f98 0000000000000014 00012f68 FDE cie=00012f68 pc=0000000000476c30..0000000000476c3a

00012fb0 0000000000000014 00012f68 FDE cie=00012f68 pc=0000000000476c40..0000000000476c49

00012fc8 0000000000000014 00012f68 FDE cie=00012f68 pc=0000000000476c50..0000000000476c59

00012fe0 0000000000000014 00012f68 FDE cie=00012f68 pc=0000000000476c60..0000000000476c68

00012ff8 0000000000000014 00012f68 FDE cie=00012f68 pc=0000000000476c70..0000000000476c77

00013010 0000000000000014 ffffffff CIE
  Version:               1
  Augmentation:          ""
  Code alignment factor: 1
  Data alignment factor: -8
  Return address column: 16

  DW_CFA_def_cfa: r7 (rsp) ofs 8
  DW_CFA_offset: r16 (rip) at cfa-8
  DW_CFA_nop
  DW_CFA_nop
  DW_CFA_nop
  DW_CFA_nop
  DW_CFA_nop
  DW_CFA_nop

00013028 000000000000003c 00013010 FDE cie=00013010 pc=0000000000476c80..0000000000476d35
  DW_CFA_advance_loc: 1 to 0000000000476c81
  DW_CFA_def_cfa_offset: 16
  DW_CFA_offset: r6 (rbp) at cfa-16
  DW_CFA_advance_loc: 1 to 0000000000476c82
  DW_CFA_def_cfa_offset: 24
  DW_CFA_offset: r3 (rbx) at cfa-24
  DW_CFA_advance_loc: 7 to 0000000000476c89
  DW_CFA_def_cfa_offset: 32
  DW_CFA_advance_loc1: 97 to 0000000000476cea
  DW_CFA_remember_state
  DW_CFA_def_cfa_offset: 24
  DW_CFA_advance_loc: 1 to 0000000000476ceb
  DW_CFA_def_cfa_offset: 16
  DW_CFA_advance_loc: 1 to 0000000000476cec
  DW_CFA_def_cfa_offset: 8
  DW_CFA_advance_loc: 4 to 0000000000476cf0
  DW_CFA_restore_state
  DW_CFA_advance_loc: 44 to 0000000000476d1c
  DW_CFA_remember_state
  DW_CFA_def_cfa_offset: 24
  DW_CFA_advance_loc: 8 to 0000000000476d24
  DW_CFA_def_cfa_offset: 16
  DW_CFA_advance_loc: 1 to 0000000000476d25
  DW_CFA_def_cfa_offset: 8
  DW_CFA_advance_loc: 1 to 0000000000476d26
  DW_CFA_restore_state
  DW_CFA_nop
  DW_CFA_nop

00013068 000000000000003c 00013010 FDE cie=00013010 pc=0000000000476d40..0000000000476de7
  DW_CFA_advance_loc: 2 to 0000000000476d42
  DW_CFA_def_cfa_offset: 16
  DW_CFA_offset: r12 (r12) at cfa-16
  DW_CFA_advance_loc: 1 to 0000000000476d43
  DW_CFA_def_cfa_offset: 24
  DW_CFA_offset: r6 (rbp) at cfa-24
  DW_CFA_advance_loc: 4 to 0000000000476d47
  DW_CFA_def_cfa_offset: 32
  DW_CFA_offset: r3 (rbx) at cfa-32
  DW_CFA_advance_loc1: 118 to 0000000000476dbd
  DW_CFA_remember_state
  DW_CFA_def_cfa_offset: 24
  DW_CFA_advance_loc: 1 to 0000000000476dbe
  DW_CFA_def_cfa_offset: 16
  DW_CFA_advance_loc: 2 to 0000000000476dc0
  DW_CFA_def_cfa_offset: 8
  DW_CFA_advance_loc: 8 to 0000000000476dc8
  DW_CFA_restore_state
  DW_CFA_advance_loc: 1 to 0000000000476dc9
  DW_CFA_remember_state
  DW_CFA_def_cfa_offset: 24
  DW_CFA_advance_loc: 8 to 0000000000476dd1
  DW_CFA_def_cfa_offset: 16
  DW_CFA_advance_loc: 2 to 0000000000476dd3
  DW_CFA_def_cfa_offset: 8
  DW_CFA_advance_loc: 5 to 0000000000476dd8
  DW_CFA_restore_state

000130a8 0000000000000014 ffffffff CIE
  Version:               1
  Augmentation:          ""
  Code alignment factor: 1
  Data alignment factor: -8
  Return address column: 16

  DW_CFA_def_cfa: r7 (rsp) ofs 8
  DW_CFA_offset: r16 (rip) at cfa-8
  DW_CFA_nop
  DW_CFA_nop
  DW_CFA_nop
  DW_CFA_nop
  DW_CFA_nop
  DW_CFA_nop

000130c0 0000000000000014 000130a8 FDE cie=000130a8 pc=0000000000476df0..0000000000476e23

000130d8 0000000000000014 000130a8 FDE cie=000130a8 pc=0000000000476e30..0000000000476e71

000130f0 0000000000000014 ffffffff CIE
  Version:               1
  Augmentation:          ""
  Code alignment factor: 1
  Data alignment factor: -8
  Return address column: 16

  DW_CFA_def_cfa: r7 (rsp) ofs 8
  DW_CFA_offset: r16 (rip) at cfa-8
  DW_CFA_nop
  DW_CFA_nop
  DW_CFA_nop
  DW_CFA_nop
  DW_CFA_nop
  DW_CFA_nop

00013108 0000000000000054 000130f0 FDE cie=000130f0 pc=0000000000476e80..00000000004773b2
  DW_CFA_advance_loc: 2 to 0000000000476e82
  DW_CFA_def_cfa_offset: 16
  DW_CFA_offset: r15 (r15) at cfa-16
  DW_CFA_advance_loc: 2 to 0000000000476e84
  DW_CFA_def_cfa_offset: 24
  DW_CFA_offset: r14 (r14) at cfa-24
  DW_CFA_advance_loc: 9 to 0000000000476e8d
  DW_CFA_def_cfa_offset: 32
  DW_CFA_offset: r13 (r13) at cfa-32
  DW_CFA_advance_loc: 2 to 0000000000476e8f
  DW_CFA_def_cfa_offset: 40
  DW_CFA_offset: r12 (r12) at cfa-40
  DW_CFA_advance_loc: 1 to 0000000000476e90
  DW_CFA_def_cfa_offset: 48
  DW_CFA_offset: r6 (rbp) at cfa-48
  DW_CFA_advance_loc: 1 to 0000000000476e91
  DW_CFA_def_cfa_offset: 56
  DW_CFA_offset: r3 (rbx) at cfa-56
  DW_CFA_advance_loc: 4 to 0000000000476e95
  DW_CFA_def_cfa_offset: 96
  DW_CFA_advance_loc1: 214 to 0000000000476f6b
  DW_CFA_remember_state
  DW_CFA_def_cfa_offset: 56
  DW_CFA_advance_loc: 4 to 0000000000476f6f
  DW_CFA_def_cfa_offset: 48
  DW_CFA_advance_loc: 1 to 0000000000476f70
  DW_CFA_def_cfa_offset: 40
  DW_CFA_advance_loc: 2 to 0000000000476f72
  DW_CFA_def_cfa_offset: 32
  DW_CFA_advance_loc: 2 to 0000000000476f74
  DW_CFA_def_cfa_offset: 24
  DW_CFA_advance_loc: 2 to 0000000000476f76
  DW_CFA_def_cfa_offset: 16
  DW_CFA_advance_loc: 2 to 0000000000476f78
  DW_CFA_def_cfa_offset: 8
  DW_CFA_advance_loc: 8 to 0000000000476f80
  DW_CFA_restore_state
  DW_CFA_nop
  DW_CFA_nop
  DW_CFA_nop
  DW_CFA_nop
  DW_CFA_nop
  DW_CFA_nop

00013160 0000000000000014 ffffffff CIE
  Version:               1
  Augmentation:          ""
  Code alignment factor: 1
  Data alignment factor: -8
  Return address column: 16

  DW_CFA_def_cfa: r7 (rsp) ofs 8
  DW_CFA_offset: r16 (rip) at cfa-8
  DW_CFA_nop
  DW_CFA_nop
  DW_CFA_nop
  DW_CFA_nop
  DW_CFA_nop
  DW_CFA_nop

00013178 000000000000002c 00013160 FDE cie=00013160 pc=00000000004773c0..0000000000477401
  DW_CFA_advance_loc: 2 to 00000000004773c2
  DW_CFA_def_cfa_offset: 16
  DW_CFA_offset: r12 (r12) at cfa-16
  DW_CFA_advance_loc: 13 to 00000000004773cf
  DW_CFA_remember_state
  DW_CFA_def_cfa_offset: 8
  DW_CFA_advance_loc: 9 to 00000000004773d8
  DW_CFA_restore_state
  DW_CFA_advance_loc: 8 to 00000000004773e0
  DW_CFA_remember_state
  DW_CFA_def_cfa_offset: 8
  DW_CFA_advance_loc: 8 to 00000000004773e8
  DW_CFA_restore_state
  DW_CFA_advance_loc: 24 to 0000000000477400
  DW_CFA_def_cfa_offset: 8
  DW_CFA_nop
  DW_CFA_nop
  DW_CFA_nop
  DW_CFA_nop

000131a8 0000000000000014 ffffffff CIE
  Version:               1
  Augmentation:          ""
  Code alignment factor: 1
  Data alignment factor: -8
  Return address column: 16

  DW_CFA_def_cfa: r7 (rsp) ofs 8
  DW_CFA_offset: r16 (rip) at cfa-8
  DW_CFA_nop
  DW_CFA_nop
  DW_CFA_nop
  DW_CFA_nop
  DW_CFA_nop
  DW_CFA_nop

000131c0 0000000000000034 000131a8 FDE cie=000131a8 pc=0000000000477410..00000000004774c3
  DW_CFA_advance_loc: 2 to 0000000000477412
  DW_CFA_def_cfa_offset: 16
  DW_CFA_offset: r12 (r12) at cfa-16
  DW_CFA_advance_loc: 1 to 0000000000477413
  DW_CFA_def_cfa_offset: 24
  DW_CFA_offset: r6 (rbp) at cfa-24
  DW_CFA_advance_loc: 4 to 0000000000477417
  DW_CFA_def_cfa_offset: 32
  DW_CFA_offset: r3 (rbx) at cfa-32
  DW_CFA_advance_loc: 4 to 000000000047741b
  DW_CFA_def_cfa_offset: 48
  DW_CFA_advance_loc1: 160 to 00000000004774bb
  DW_CFA_def_cfa_offset: 32
  DW_CFA_advance_loc: 4 to 00000000004774bf
  DW_CFA_def_cfa_offset: 24
  DW_CFA_advance_loc: 1 to 00000000004774c0
  DW_CFA_def_cfa_offset: 16
  DW_CFA_advance_loc: 2 to 00000000004774c2
  DW_CFA_def_cfa_offset: 8
  DW_CFA_nop

000131f8 0000000000000014 ffffffff CIE
  Version:               1
  Augmentation:          ""
  Code alignment factor: 1
  Data alignment factor: -8
  Return address column: 16

  DW_CFA_def_cfa: r7 (rsp) ofs 8
  DW_CFA_offset: r16 (rip) at cfa-8
  DW_CFA_nop
  DW_CFA_nop
  DW_CFA_nop
  DW_CFA_nop
  DW_CFA_nop
  DW_CFA_nop

00013210 000000000000003c 000131f8 FDE cie=000131f8 pc=00000000004774d0..0000000000477528
  DW_CFA_advance_loc: 2 to 00000000004774d2
  DW_CFA_def_cfa_offset: 16
  DW_CFA_offset: r12 (r12) at cfa-16
  DW_CFA_advance_loc: 1 to 00000000004774d3
  DW_CFA_def_cfa_offset: 24
  DW_CFA_offset: r3 (rbx) at cfa-24
  DW_CFA_advance_loc: 4 to 00000000004774d7
  DW_CFA_def_cfa_offset: 32
  DW_CFA_advance_loc: 16 to 00000000004774e7
  DW_CFA_remember_state
  DW_CFA_def_cfa_offset: 24
  DW_CFA_advance_loc: 4 to 00000000004774eb
  DW_CFA_def_cfa_offset: 16
  DW_CFA_advance_loc: 2 to 00000000004774ed
  DW_CFA_def_cfa_offset: 8
  DW_CFA_advance_loc: 3 to 00000000004774f0
  DW_CFA_restore_state
  DW_CFA_advance_loc: 49 to 0000000000477521
  DW_CFA_def_cfa_offset: 24
  DW_CFA_advance_loc: 4 to 0000000000477525
  DW_CFA_def_cfa_offset: 16
  DW_CFA_advance_loc: 2 to 0000000000477527
  DW_CFA_def_cfa_offset: 8
  DW_CFA_nop
  DW_CFA_nop
  DW_CFA_nop
  DW_CFA_nop
  DW_CFA_nop
  DW_CFA_nop

00013250 0000000000000014 ffffffff CIE
  Version:               1
  Augmentation:          ""
  Code alignment factor: 1
  Data alignment factor: -8
  Return address column: 16

  DW_CFA_def_cfa: r7 (rsp) ofs 8
  DW_CFA_offset: r16 (rip) at cfa-8
  DW_CFA_nop
  DW_CFA_nop
  DW_CFA_nop
  DW_CFA_nop
  DW_CFA_nop
  DW_CFA_nop

00013268 0000000000000034 00013250 FDE cie=00013250 pc=0000000000477530..0000000000477586
  DW_CFA_advance_loc: 2 to 0000000000477532
  DW_CFA_def_cfa_offset: 16
  DW_CFA_offset: r12 (r12) at cfa-16
  DW_CFA_advance_loc: 8 to 000000000047753a
  DW_CFA_def_cfa_offset: 24
  DW_CFA_offset: r6 (rbp) at cfa-24
  DW_CFA_advance_loc: 4 to 000000000047753e
  DW_CFA_def_cfa_offset: 32
  DW_CFA_offset: r3 (rbx) at cfa-32
  DW_CFA_advance_loc: 59 to 0000000000477579
  DW_CFA_remember_state
  DW_CFA_def_cfa_offset: 24
  DW_CFA_advance_loc: 1 to 000000000047757a
  DW_CFA_def_cfa_offset: 16
  DW_CFA_advance_loc: 2 to 000000000047757c
  DW_CFA_def_cfa_offset: 8
  DW_CFA_advance_loc: 4 to 0000000000477580
  DW_CFA_restore_state
  DW_CFA_nop
  DW_CFA_nop
  DW_CFA_nop
  DW_CFA_nop
  DW_CFA_nop

000132a0 0000000000000014 ffffffff CIE
  Version:               1
  Augmentation:          ""
  Code alignment factor: 1
  Data alignment factor: -8
  Return address column: 16

  DW_CFA_def_cfa: r7 (rsp) ofs 8
  DW_CFA_offset: r16 (rip) at cfa-8
  DW_CFA_nop
  DW_CFA_nop
  DW_CFA_nop
  DW_CFA_nop
  DW_CFA_nop
  DW_CFA_nop

000132b8 000000000000002c 000132a0 FDE cie=000132a0 pc=0000000000477590..00000000004775d5
  DW_CFA_advance_loc: 1 to 0000000000477591
  DW_CFA_def_cfa_offset: 16
  DW_CFA_offset: r3 (rbx) at cfa-16
  DW_CFA_advance_loc: 16 to 00000000004775a1
  DW_CFA_def_cfa_offset: 32
  DW_CFA_advance_loc: 30 to 00000000004775bf
  DW_CFA_remember_state
  DW_CFA_def_cfa_offset: 16
  DW_CFA_advance_loc: 1 to 00000000004775c0
  DW_CFA_def_cfa_offset: 8
  DW_CFA_advance_loc: 8 to 00000000004775c8
  DW_CFA_restore_state
  DW_CFA_advance_loc: 4 to 00000000004775cc
  DW_CFA_def_cfa_offset: 16
  DW_CFA_advance_loc: 8 to 00000000004775d4
  DW_CFA_def_cfa_offset: 8
  DW_CFA_nop

000132e8 000000000000002c 000132a0 FDE cie=000132a0 pc=00000000004775e0..000000000047762d
  DW_CFA_advance_loc: 1 to 00000000004775e1
  DW_CFA_def_cfa_offset: 16
  DW_CFA_offset: r3 (rbx) at cfa-16
  DW_CFA_advance_loc: 9 to 00000000004775ea
  DW_CFA_def_cfa_offset: 32
  DW_CFA_advance_loc: 49 to 000000000047761b
  DW_CFA_remember_state
  DW_CFA_def_cfa_offset: 16
  DW_CFA_advance_loc: 1 to 000000000047761c
  DW_CFA_def_cfa_offset: 8
  DW_CFA_advance_loc: 4 to 0000000000477620
  DW_CFA_restore_state
  DW_CFA_advance_loc: 4 to 0000000000477624
  DW_CFA_def_cfa_offset: 16
  DW_CFA_advance_loc: 8 to 000000000047762c
  DW_CFA_def_cfa_offset: 8
  DW_CFA_nop

00013318 0000000000000014 ffffffff CIE
  Version:               1
  Augmentation:          ""
  Code alignment factor: 1
  Data alignment factor: -8
  Return address column: 16

  DW_CFA_def_cfa: r7 (rsp) ofs 8
  DW_CFA_offset: r16 (rip) at cfa-8
  DW_CFA_nop
  DW_CFA_nop
  DW_CFA_nop
  DW_CFA_nop
  DW_CFA_nop
  DW_CFA_nop

00013330 0000000000000024 00013318 FDE cie=00013318 pc=0000000000477630..0000000000477679
  DW_CFA_advance_loc: 1 to 0000000000477631
  DW_CFA_def_cfa_offset: 16
  DW_CFA_offset: r3 (rbx) at cfa-16
  DW_CFA_advance_loc: 62 to 000000000047766f
  DW_CFA_remember_state
  DW_CFA_def_cfa_offset: 8
  DW_CFA_advance_loc: 1 to 0000000000477670
  DW_CFA_restore_state
  DW_CFA_advance_loc: 8 to 0000000000477678
  DW_CFA_def_cfa_offset: 8
  DW_CFA_nop
  DW_CFA_nop

00013358 0000000000000014 ffffffff CIE
  Version:               1
  Augmentation:          ""
  Code alignment factor: 1
  Data alignment factor: -8
  Return address column: 16

  DW_CFA_def_cfa: r7 (rsp) ofs 8
  DW_CFA_offset: r16 (rip) at cfa-8
  DW_CFA_nop
  DW_CFA_nop
  DW_CFA_nop
  DW_CFA_nop
  DW_CFA_nop
  DW_CFA_nop

00013370 0000000000000054 00013358 FDE cie=00013358 pc=0000000000477680..0000000000477723
  DW_CFA_advance_loc: 2 to 0000000000477682
  DW_CFA_def_cfa_offset: 16
  DW_CFA_offset: r13 (r13) at cfa-16
  DW_CFA_advance_loc: 2 to 0000000000477684
  DW_CFA_def_cfa_offset: 24
  DW_CFA_offset: r12 (r12) at cfa-24
  DW_CFA_advance_loc: 4 to 0000000000477688
  DW_CFA_def_cfa_offset: 32
  DW_CFA_offset: r6 (rbp) at cfa-32
  DW_CFA_advance_loc: 4 to 000000000047768c
  DW_CFA_def_cfa_offset: 40
  DW_CFA_offset: r3 (rbx) at cfa-40
  DW_CFA_advance_loc: 7 to 0000000000477693
  DW_CFA_def_cfa_offset: 48
  DW_CFA_advance_loc: 62 to 00000000004776d1
  DW_CFA_remember_state
  DW_CFA_def_cfa_offset: 40
  DW_CFA_advance_loc: 4 to 00000000004776d5
  DW_CFA_def_cfa_offset: 32
  DW_CFA_advance_loc: 1 to 00000000004776d6
  DW_CFA_def_cfa_offset: 24
  DW_CFA_advance_loc: 2 to 00000000004776d8
  DW_CFA_def_cfa_offset: 16
  DW_CFA_advance_loc: 2 to 00000000004776da
  DW_CFA_def_cfa_offset: 8
  DW_CFA_advance_loc: 6 to 00000000004776e0
  DW_CFA_restore_state
  DW_CFA_advance_loc: 28 to 00000000004776fc
  DW_CFA_remember_state
  DW_CFA_def_cfa_offset: 40
  DW_CFA_advance_loc: 4 to 0000000000477700
  DW_CFA_def_cfa_offset: 32
  DW_CFA_advance_loc: 1 to 0000000000477701
  DW_CFA_def_cfa_offset: 24
  DW_CFA_advance_loc: 2 to 0000000000477703
  DW_CFA_def_cfa_offset: 16
  DW_CFA_advance_loc: 2 to 0000000000477705
  DW_CFA_def_cfa_offset: 8
  DW_CFA_advance_loc: 11 to 0000000000477710
  DW_CFA_restore_state
  DW_CFA_nop
  DW_CFA_nop
  DW_CFA_nop
  DW_CFA_nop
  DW_CFA_nop

000133c8 000000000000007c 00013358 FDE cie=00013358 pc=0000000000477730..00000000004778ed
  DW_CFA_advance_loc: 2 to 0000000000477732
  DW_CFA_def_cfa_offset: 16
  DW_CFA_offset: r14 (r14) at cfa-16
  DW_CFA_advance_loc: 2 to 0000000000477734
  DW_CFA_def_cfa_offset: 24
  DW_CFA_offset: r13 (r13) at cfa-24
  DW_CFA_advance_loc: 2 to 0000000000477736
  DW_CFA_def_cfa_offset: 32
  DW_CFA_offset: r12 (r12) at cfa-32
  DW_CFA_advance_loc: 4 to 000000000047773a
  DW_CFA_def_cfa_offset: 40
  DW_CFA_offset: r6 (rbp) at cfa-40
  DW_CFA_advance_loc: 1 to 000000000047773b
  DW_CFA_def_cfa_offset: 48
  DW_CFA_offset: r3 (rbx) at cfa-48
  DW_CFA_advance_loc1: 81 to 000000000047778c
  DW_CFA_remember_state
  DW_CFA_def_cfa_offset: 40
  DW_CFA_advance_loc: 4 to 0000000000477790
  DW_CFA_def_cfa_offset: 32
  DW_CFA_advance_loc: 2 to 0000000000477792
  DW_CFA_def_cfa_offset: 24
  DW_CFA_advance_loc: 2 to 0000000000477794
  DW_CFA_def_cfa_offset: 16
  DW_CFA_advance_loc: 2 to 0000000000477796
  DW_CFA_def_cfa_offset: 8
  DW_CFA_advance_loc: 10 to 00000000004777a0
  DW_CFA_restore_state
  DW_CFA_advance_loc1: 113 to 0000000000477811
  DW_CFA_remember_state
  DW_CFA_def_cfa_offset: 40
  DW_CFA_advance_loc: 1 to 0000000000477812
  DW_CFA_def_cfa_offset: 32
  DW_CFA_advance_loc: 31 to 0000000000477831
  DW_CFA_def_cfa_offset: 24
  DW_CFA_advance_loc: 2 to 0000000000477833
  DW_CFA_def_cfa_offset: 16
  DW_CFA_advance_loc: 2 to 0000000000477835
  DW_CFA_def_cfa_offset: 8
  DW_CFA_advance_loc: 11 to 0000000000477840
  DW_CFA_restore_state
  DW_CFA_advance_loc: 20 to 0000000000477854
  DW_CFA_remember_state
  DW_CFA_def_cfa_offset: 40
  DW_CFA_advance_loc: 4 to 0000000000477858
  DW_CFA_def_cfa_offset: 32
  DW_CFA_advance_loc: 2 to 000000000047785a
  DW_CFA_def_cfa_offset: 24
  DW_CFA_advance_loc: 2 to 000000000047785c
  DW_CFA_def_cfa_offset: 16
  DW_CFA_advance_loc: 2 to 000000000047785e
  DW_CFA_def_cfa_offset: 8
  DW_CFA_advance_loc: 2 to 0000000000477860
  DW_CFA_restore_state
  DW_CFA_advance_loc: 1 to 0000000000477861
  DW_CFA_remember_state
  DW_CFA_def_cfa_offset: 40
  DW_CFA_advance_loc: 4 to 0000000000477865
  DW_CFA_def_cfa_offset: 32
  DW_CFA_advance_loc: 7 to 000000000047786c
  DW_CFA_def_cfa_offset: 24
  DW_CFA_advance_loc: 2 to 000000000047786e
  DW_CFA_def_cfa_offset: 16
  DW_CFA_advance_loc: 2 to 0000000000477870
  DW_CFA_def_cfa_offset: 8
  DW_CFA_advance_loc: 8 to 0000000000477878
  DW_CFA_restore_state
  DW_CFA_nop
  DW_CFA_nop
  DW_CFA_nop
  DW_CFA_nop
  DW_CFA_nop

00013448 000000000000008c 00013358 FDE cie=00013358 pc=00000000004778f0..0000000000477a77
  DW_CFA_advance_loc: 2 to 00000000004778f2
  DW_CFA_def_cfa_offset: 16
  DW_CFA_offset: r14 (r14) at cfa-16
  DW_CFA_advance_loc: 2 to 00000000004778f4
  DW_CFA_def_cfa_offset: 24
  DW_CFA_offset: r13 (r13) at cfa-24
  DW_CFA_advance_loc: 2 to 00000000004778f6
  DW_CFA_def_cfa_offset: 32
  DW_CFA_offset: r12 (r12) at cfa-32
  DW_CFA_advance_loc: 4 to 00000000004778fa
  DW_CFA_def_cfa_offset: 40
  DW_CFA_offset: r3 (rbx) at cfa-40
  DW_CFA_advance_loc: 4 to 00000000004778fe
  DW_CFA_def_cfa_offset: 48
  DW_CFA_advance_loc1: 81 to 000000000047794f
  DW_CFA_remember_state
  DW_CFA_def_cfa_offset: 40
  DW_CFA_advance_loc: 4 to 0000000000477953
  DW_CFA_def_cfa_offset: 32
  DW_CFA_advance_loc: 2 to 0000000000477955
  DW_CFA_def_cfa_offset: 24
  DW_CFA_advance_loc: 2 to 0000000000477957
  DW_CFA_def_cfa_offset: 16
  DW_CFA_advance_loc: 2 to 0000000000477959
  DW_CFA_def_cfa_offset: 8
  DW_CFA_advance_loc: 7 to 0000000000477960
  DW_CFA_restore_state
  DW_CFA_advance_loc1: 143 to 00000000004779ef
  DW_CFA_remember_state
  DW_CFA_def_cfa_offset: 40
  DW_CFA_advance_loc: 4 to 00000000004779f3
  DW_CFA_def_cfa_offset: 32
  DW_CFA_advance_loc: 2 to 00000000004779f5
  DW_CFA_def_cfa_offset: 24
  DW_CFA_advance_loc: 2 to 00000000004779f7
  DW_CFA_def_cfa_offset: 16
  DW_CFA_advance_loc: 2 to 00000000004779f9
  DW_CFA_def_cfa_offset: 8
  DW_CFA_advance_loc: 7 to 0000000000477a00
  DW_CFA_restore_state
  DW_CFA_advance_loc: 23 to 0000000000477a17
  DW_CFA_remember_state
  DW_CFA_def_cfa_offset: 40
  DW_CFA_advance_loc: 4 to 0000000000477a1b
  DW_CFA_def_cfa_offset: 32
  DW_CFA_advance_loc: 2 to 0000000000477a1d
  DW_CFA_def_cfa_offset: 24
  DW_CFA_advance_loc: 2 to 0000000000477a1f
  DW_CFA_def_cfa_offset: 16
  DW_CFA_advance_loc: 2 to 0000000000477a21
  DW_CFA_def_cfa_offset: 8
  DW_CFA_advance_loc: 7 to 0000000000477a28
  DW_CFA_restore_state
  DW_CFA_advance_loc: 9 to 0000000000477a31
  DW_CFA_remember_state
  DW_CFA_def_cfa_offset: 40
  DW_CFA_advance_loc: 4 to 0000000000477a35
  DW_CFA_def_cfa_offset: 32
  DW_CFA_advance_loc: 2 to 0000000000477a37
  DW_CFA_def_cfa_offset: 24
  DW_CFA_advance_loc: 2 to 0000000000477a39
  DW_CFA_def_cfa_offset: 16
  DW_CFA_advance_loc: 2 to 0000000000477a3b
  DW_CFA_def_cfa_offset: 8
  DW_CFA_advance_loc: 5 to 0000000000477a40
  DW_CFA_restore_state
  DW_CFA_advance_loc: 12 to 0000000000477a4c
  DW_CFA_remember_state
  DW_CFA_def_cfa_offset: 40
  DW_CFA_advance_loc: 4 to 0000000000477a50
  DW_CFA_def_cfa_offset: 32
  DW_CFA_advance_loc: 2 to 0000000000477a52
  DW_CFA_def_cfa_offset: 24
  DW_CFA_advance_loc: 2 to 0000000000477a54
  DW_CFA_def_cfa_offset: 16
  DW_CFA_advance_loc: 2 to 0000000000477a56
  DW_CFA_def_cfa_offset: 8
  DW_CFA_advance_loc: 10 to 0000000000477a60
  DW_CFA_restore_state
  DW_CFA_nop
  DW_CFA_nop
  DW_CFA_nop
  DW_CFA_nop
  DW_CFA_nop

000134d8 000000000000008c 00013358 FDE cie=00013358 pc=0000000000477a80..0000000000477bf7
  DW_CFA_advance_loc: 2 to 0000000000477a82
  DW_CFA_def_cfa_offset: 16
  DW_CFA_offset: r14 (r14) at cfa-16
  DW_CFA_advance_loc: 2 to 0000000000477a84
  DW_CFA_def_cfa_offset: 24
  DW_CFA_offset: r13 (r13) at cfa-24
  DW_CFA_advance_loc: 2 to 0000000000477a86
  DW_CFA_def_cfa_offset: 32
  DW_CFA_offset: r12 (r12) at cfa-32
  DW_CFA_advance_loc: 4 to 0000000000477a8a
  DW_CFA_def_cfa_offset: 40
  DW_CFA_offset: r3 (rbx) at cfa-40
  DW_CFA_advance_loc: 4 to 0000000000477a8e
  DW_CFA_def_cfa_offset: 48
  DW_CFA_advance_loc1: 81 to 0000000000477adf
  DW_CFA_remember_state
  DW_CFA_def_cfa_offset: 40
  DW_CFA_advance_loc: 4 to 0000000000477ae3
  DW_CFA_def_cfa_offset: 32
  DW_CFA_advance_loc: 2 to 0000000000477ae5
  DW_CFA_def_cfa_offset: 24
  DW_CFA_advance_loc: 2 to 0000000000477ae7
  DW_CFA_def_cfa_offset: 16
  DW_CFA_advance_loc: 2 to 0000000000477ae9
  DW_CFA_def_cfa_offset: 8
  DW_CFA_advance_loc: 7 to 0000000000477af0
  DW_CFA_restore_state
  DW_CFA_advance_loc1: 121 to 0000000000477b69
  DW_CFA_remember_state
  DW_CFA_def_cfa_offset: 40
  DW_CFA_advance_loc: 4 to 0000000000477b6d
  DW_CFA_def_cfa_offset: 32
  DW_CFA_advance_loc: 2 to 0000000000477b6f
  DW_CFA_def_cfa_offset: 24
  DW_CFA_advance_loc: 2 to 0000000000477b71
  DW_CFA_def_cfa_offset: 16
  DW_CFA_advance_loc: 2 to 0000000000477b73
  DW_CFA_def_cfa_offset: 8
  DW_CFA_advance_loc: 5 to 0000000000477b78
  DW_CFA_restore_state
  DW_CFA_advance_loc: 23 to 0000000000477b8f
  DW_CFA_remember_state
  DW_CFA_def_cfa_offset: 40
  DW_CFA_advance_loc: 4 to 0000000000477b93
  DW_CFA_def_cfa_offset: 32
  DW_CFA_advance_loc: 2 to 0000000000477b95
  DW_CFA_def_cfa_offset: 24
  DW_CFA_advance_loc: 2 to 0000000000477b97
  DW_CFA_def_cfa_offset: 16
  DW_CFA_advance_loc: 2 to 0000000000477b99
  DW_CFA_def_cfa_offset: 8
  DW_CFA_advance_loc: 7 to 0000000000477ba0
  DW_CFA_restore_state
  DW_CFA_advance_loc: 9 to 0000000000477ba9
  DW_CFA_remember_state
  DW_CFA_def_cfa_offset: 40
  DW_CFA_advance_loc: 4 to 0000000000477bad
  DW_CFA_def_cfa_offset: 32
  DW_CFA_advance_loc: 2 to 0000000000477baf
  DW_CFA_def_cfa_offset: 24
  DW_CFA_advance_loc: 2 to 0000000000477bb1
  DW_CFA_def_cfa_offset: 16
  DW_CFA_advance_loc: 2 to 0000000000477bb3
  DW_CFA_def_cfa_offset: 8
  DW_CFA_advance_loc: 5 to 0000000000477bb8
  DW_CFA_restore_state
  DW_CFA_advance_loc: 25 to 0000000000477bd1
  DW_CFA_remember_state
  DW_CFA_def_cfa_offset: 40
  DW_CFA_advance_loc: 1 to 0000000000477bd2
  DW_CFA_def_cfa_offset: 32
  DW_CFA_advance_loc: 2 to 0000000000477bd4
  DW_CFA_def_cfa_offset: 24
  DW_CFA_advance_loc: 2 to 0000000000477bd6
  DW_CFA_def_cfa_offset: 16
  DW_CFA_advance_loc: 2 to 0000000000477bd8
  DW_CFA_def_cfa_offset: 8
  DW_CFA_advance_loc: 8 to 0000000000477be0
  DW_CFA_restore_state
  DW_CFA_nop
  DW_CFA_nop
  DW_CFA_nop
  DW_CFA_nop
  DW_CFA_nop

00013568 0000000000000014 ffffffff CIE
  Version:               1
  Augmentation:          ""
  Code alignment factor: 1
  Data alignment factor: -8
  Return address column: 16

  DW_CFA_def_cfa: r7 (rsp) ofs 8
  DW_CFA_offset: r16 (rip) at cfa-8
  DW_CFA_nop
  DW_CFA_nop
  DW_CFA_nop
  DW_CFA_nop
  DW_CFA_nop
  DW_CFA_nop

00013580 0000000000000014 00013568 FDE cie=00013568 pc=0000000000477c00..0000000000477ce2

00013598 0000000000000024 00013568 FDE cie=00013568 pc=0000000000477cf0..0000000000477d23
  DW_CFA_advance_loc: 6 to 0000000000477cf6
  DW_CFA_def_cfa_offset: 16
  DW_CFA_offset: r6 (rbp) at cfa-16
  DW_CFA_advance_loc: 17 to 0000000000477d07
  DW_CFA_remember_state
  DW_CFA_def_cfa_offset: 8
  DW_CFA_advance_loc: 9 to 0000000000477d10
  DW_CFA_restore_state
  DW_CFA_advance_loc: 4 to 0000000000477d14
  DW_CFA_restore: r6 (rbp)
  DW_CFA_def_cfa_offset: 8
  DW_CFA_nop

000135c0 0000000000000014 ffffffff CIE
  Version:               1
  Augmentation:          ""
  Code alignment factor: 1
  Data alignment factor: -8
  Return address column: 16

  DW_CFA_def_cfa: r7 (rsp) ofs 8
  DW_CFA_offset: r16 (rip) at cfa-8
  DW_CFA_nop
  DW_CFA_nop
  DW_CFA_nop
  DW_CFA_nop
  DW_CFA_nop
  DW_CFA_nop

000135d8 0000000000000064 000135c0 FDE cie=000135c0 pc=0000000000477d30..0000000000477df7
  DW_CFA_advance_loc: 2 to 0000000000477d32
  DW_CFA_def_cfa_offset: 16
  DW_CFA_offset: r13 (r13) at cfa-16
  DW_CFA_advance_loc: 2 to 0000000000477d34
  DW_CFA_def_cfa_offset: 24
  DW_CFA_offset: r12 (r12) at cfa-24
  DW_CFA_advance_loc: 1 to 0000000000477d35
  DW_CFA_def_cfa_offset: 32
  DW_CFA_offset: r6 (rbp) at cfa-32
  DW_CFA_advance_loc: 4 to 0000000000477d39
  DW_CFA_def_cfa_offset: 40
  DW_CFA_offset: r3 (rbx) at cfa-40
  DW_CFA_advance_loc: 4 to 0000000000477d3d
  DW_CFA_def_cfa_offset: 48
  DW_CFA_advance_loc: 58 to 0000000000477d77
  DW_CFA_remember_state
  DW_CFA_def_cfa_offset: 40
  DW_CFA_advance_loc: 1 to 0000000000477d78
  DW_CFA_def_cfa_offset: 32
  DW_CFA_advance_loc: 1 to 0000000000477d79
  DW_CFA_def_cfa_offset: 24
  DW_CFA_advance_loc: 2 to 0000000000477d7b
  DW_CFA_def_cfa_offset: 16
  DW_CFA_advance_loc: 2 to 0000000000477d7d
  DW_CFA_def_cfa_offset: 8
  DW_CFA_advance_loc: 3 to 0000000000477d80
  DW_CFA_restore_state
  DW_CFA_advance_loc: 61 to 0000000000477dbd
  DW_CFA_remember_state
  DW_CFA_def_cfa_offset: 40
  DW_CFA_advance_loc: 1 to 0000000000477dbe
  DW_CFA_def_cfa_offset: 32
  DW_CFA_advance_loc: 1 to 0000000000477dbf
  DW_CFA_def_cfa_offset: 24
  DW_CFA_advance_loc: 2 to 0000000000477dc1
  DW_CFA_def_cfa_offset: 16
  DW_CFA_advance_loc: 2 to 0000000000477dc3
  DW_CFA_def_cfa_offset: 8
  DW_CFA_advance_loc: 5 to 0000000000477dc8
  DW_CFA_restore_state
  DW_CFA_advance_loc: 34 to 0000000000477dea
  DW_CFA_remember_state
  DW_CFA_def_cfa_offset: 40
  DW_CFA_advance_loc: 3 to 0000000000477ded
  DW_CFA_def_cfa_offset: 32
  DW_CFA_advance_loc: 1 to 0000000000477dee
  DW_CFA_def_cfa_offset: 24
  DW_CFA_advance_loc: 2 to 0000000000477df0
  DW_CFA_def_cfa_offset: 16
  DW_CFA_advance_loc: 2 to 0000000000477df2
  DW_CFA_def_cfa_offset: 8
  DW_CFA_advance_loc: 1 to 0000000000477df3
  DW_CFA_restore_state
  DW_CFA_nop
  DW_CFA_nop
  DW_CFA_nop

00013640 0000000000000064 000135c0 FDE cie=000135c0 pc=0000000000477e00..0000000000477ee2
  DW_CFA_advance_loc: 2 to 0000000000477e02
  DW_CFA_def_cfa_offset: 16
  DW_CFA_offset: r13 (r13) at cfa-16
  DW_CFA_advance_loc: 2 to 0000000000477e04
  DW_CFA_def_cfa_offset: 24
  DW_CFA_offset: r12 (r12) at cfa-24
  DW_CFA_advance_loc: 1 to 0000000000477e05
  DW_CFA_def_cfa_offset: 32
  DW_CFA_offset: r6 (rbp) at cfa-32
  DW_CFA_advance_loc: 1 to 0000000000477e06
  DW_CFA_def_cfa_offset: 40
  DW_CFA_offset: r3 (rbx) at cfa-40
  DW_CFA_advance_loc: 4 to 0000000000477e0a
  DW_CFA_def_cfa_offset: 48
  DW_CFA_advance_loc1: 81 to 0000000000477e5b
  DW_CFA_remember_state
  DW_CFA_def_cfa_offset: 40
  DW_CFA_advance_loc: 4 to 0000000000477e5f
  DW_CFA_def_cfa_offset: 32
  DW_CFA_advance_loc: 1 to 0000000000477e60
  DW_CFA_def_cfa_offset: 24
  DW_CFA_advance_loc: 2 to 0000000000477e62
  DW_CFA_def_cfa_offset: 16
  DW_CFA_advance_loc: 2 to 0000000000477e64
  DW_CFA_def_cfa_offset: 8
  DW_CFA_advance_loc: 4 to 0000000000477e68
  DW_CFA_restore_state
  DW_CFA_advance_loc: 4 to 0000000000477e6c
  DW_CFA_remember_state
  DW_CFA_def_cfa_offset: 40
  DW_CFA_advance_loc: 4 to 0000000000477e70
  DW_CFA_def_cfa_offset: 32
  DW_CFA_advance_loc: 4 to 0000000000477e74
  DW_CFA_def_cfa_offset: 24
  DW_CFA_advance_loc: 2 to 0000000000477e76
  DW_CFA_def_cfa_offset: 16
  DW_CFA_advance_loc: 2 to 0000000000477e78
  DW_CFA_def_cfa_offset: 8
  DW_CFA_advance_loc: 8 to 0000000000477e80
  DW_CFA_restore_state
  DW_CFA_advance_loc: 51 to 0000000000477eb3
  DW_CFA_remember_state
  DW_CFA_def_cfa_offset: 40
  DW_CFA_advance_loc: 4 to 0000000000477eb7
  DW_CFA_def_cfa_offset: 32
  DW_CFA_advance_loc: 1 to 0000000000477eb8
  DW_CFA_def_cfa_offset: 24
  DW_CFA_advance_loc: 2 to 0000000000477eba
  DW_CFA_def_cfa_offset: 16
  DW_CFA_advance_loc: 2 to 0000000000477ebc
  DW_CFA_def_cfa_offset: 8
  DW_CFA_advance_loc: 4 to 0000000000477ec0
  DW_CFA_restore_state
  DW_CFA_nop
  DW_CFA_nop

000136a8 0000000000000014 ffffffff CIE
  Version:               1
  Augmentation:          ""
  Code alignment factor: 1
  Data alignment factor: -8
  Return address column: 16

  DW_CFA_def_cfa: r7 (rsp) ofs 8
  DW_CFA_offset: r16 (rip) at cfa-8
  DW_CFA_nop
  DW_CFA_nop
  DW_CFA_nop
  DW_CFA_nop
  DW_CFA_nop
  DW_CFA_nop

000136c0 0000000000000014 000136a8 FDE cie=000136a8 pc=0000000000477ef0..0000000000477fd2

000136d8 0000000000000024 000136a8 FDE cie=000136a8 pc=0000000000477fe0..0000000000478013
  DW_CFA_advance_loc: 6 to 0000000000477fe6
  DW_CFA_def_cfa_offset: 16
  DW_CFA_offset: r6 (rbp) at cfa-16
  DW_CFA_advance_loc: 16 to 0000000000477ff6
  DW_CFA_remember_state
  DW_CFA_def_cfa_offset: 8
  DW_CFA_advance_loc: 10 to 0000000000478000
  DW_CFA_restore_state
  DW_CFA_advance_loc: 7 to 0000000000478007
  DW_CFA_restore: r6 (rbp)
  DW_CFA_def_cfa_offset: 8
  DW_CFA_nop

00013700 0000000000000014 ffffffff CIE
  Version:               1
  Augmentation:          ""
  Code alignment factor: 1
  Data alignment factor: -8
  Return address column: 16

  DW_CFA_def_cfa: r7 (rsp) ofs 8
  DW_CFA_offset: r16 (rip) at cfa-8
  DW_CFA_nop
  DW_CFA_nop
  DW_CFA_nop
  DW_CFA_nop
  DW_CFA_nop
  DW_CFA_nop

00013718 0000000000000064 00013700 FDE cie=00013700 pc=0000000000478020..00000000004780e4
  DW_CFA_advance_loc: 2 to 0000000000478022
  DW_CFA_def_cfa_offset: 16
  DW_CFA_offset: r13 (r13) at cfa-16
  DW_CFA_advance_loc: 2 to 0000000000478024
  DW_CFA_def_cfa_offset: 24
  DW_CFA_offset: r12 (r12) at cfa-24
  DW_CFA_advance_loc: 1 to 0000000000478025
  DW_CFA_def_cfa_offset: 32
  DW_CFA_offset: r6 (rbp) at cfa-32
  DW_CFA_advance_loc: 4 to 0000000000478029
  DW_CFA_def_cfa_offset: 40
  DW_CFA_offset: r3 (rbx) at cfa-40
  DW_CFA_advance_loc: 4 to 000000000047802d
  DW_CFA_def_cfa_offset: 48
  DW_CFA_advance_loc: 55 to 0000000000478064
  DW_CFA_remember_state
  DW_CFA_def_cfa_offset: 40
  DW_CFA_advance_loc: 1 to 0000000000478065
  DW_CFA_def_cfa_offset: 32
  DW_CFA_advance_loc: 1 to 0000000000478066
  DW_CFA_def_cfa_offset: 24
  DW_CFA_advance_loc: 2 to 0000000000478068
  DW_CFA_def_cfa_offset: 16
  DW_CFA_advance_loc: 2 to 000000000047806a
  DW_CFA_def_cfa_offset: 8
  DW_CFA_advance_loc: 6 to 0000000000478070
  DW_CFA_restore_state
  DW_CFA_advance_loc: 56 to 00000000004780a8
  DW_CFA_remember_state
  DW_CFA_def_cfa_offset: 40
  DW_CFA_advance_loc: 1 to 00000000004780a9
  DW_CFA_def_cfa_offset: 32
  DW_CFA_advance_loc: 1 to 00000000004780aa
  DW_CFA_def_cfa_offset: 24
  DW_CFA_advance_loc: 2 to 00000000004780ac
  DW_CFA_def_cfa_offset: 16
  DW_CFA_advance_loc: 2 to 00000000004780ae
  DW_CFA_def_cfa_offset: 8
  DW_CFA_advance_loc: 2 to 00000000004780b0
  DW_CFA_restore_state
  DW_CFA_advance_loc: 39 to 00000000004780d7
  DW_CFA_remember_state
  DW_CFA_def_cfa_offset: 40
  DW_CFA_advance_loc: 3 to 00000000004780da
  DW_CFA_def_cfa_offset: 32
  DW_CFA_advance_loc: 1 to 00000000004780db
  DW_CFA_def_cfa_offset: 24
  DW_CFA_advance_loc: 2 to 00000000004780dd
  DW_CFA_def_cfa_offset: 16
  DW_CFA_advance_loc: 2 to 00000000004780df
  DW_CFA_def_cfa_offset: 8
  DW_CFA_advance_loc: 1 to 00000000004780e0
  DW_CFA_restore_state
  DW_CFA_nop
  DW_CFA_nop
  DW_CFA_nop

00013780 0000000000000044 00013700 FDE cie=00013700 pc=00000000004780f0..00000000004781bc
  DW_CFA_advance_loc: 2 to 00000000004780f2
  DW_CFA_def_cfa_offset: 16
  DW_CFA_offset: r14 (r14) at cfa-16
  DW_CFA_advance_loc: 2 to 00000000004780f4
  DW_CFA_def_cfa_offset: 24
  DW_CFA_offset: r13 (r13) at cfa-24
  DW_CFA_advance_loc: 2 to 00000000004780f6
  DW_CFA_def_cfa_offset: 32
  DW_CFA_offset: r12 (r12) at cfa-32
  DW_CFA_advance_loc: 1 to 00000000004780f7
  DW_CFA_def_cfa_offset: 40
  DW_CFA_offset: r6 (rbp) at cfa-40
  DW_CFA_advance_loc: 1 to 00000000004780f8
  DW_CFA_def_cfa_offset: 48
  DW_CFA_offset: r3 (rbx) at cfa-48
  DW_CFA_advance_loc: 36 to 000000000047811c
  DW_CFA_remember_state
  DW_CFA_def_cfa_offset: 40
  DW_CFA_advance_loc: 4 to 0000000000478120
  DW_CFA_def_cfa_offset: 32
  DW_CFA_advance_loc: 2 to 0000000000478122
  DW_CFA_def_cfa_offset: 24
  DW_CFA_advance_loc: 2 to 0000000000478124
  DW_CFA_def_cfa_offset: 16
  DW_CFA_advance_loc: 2 to 0000000000478126
  DW_CFA_def_cfa_offset: 8
  DW_CFA_advance_loc: 10 to 0000000000478130
  DW_CFA_restore_state
  DW_CFA_nop
  DW_CFA_nop
  DW_CFA_nop
  DW_CFA_nop
  DW_CFA_nop

000137c8 0000000000000014 ffffffff CIE
  Version:               1
  Augmentation:          ""
  Code alignment factor: 1
  Data alignment factor: -8
  Return address column: 16

  DW_CFA_def_cfa: r7 (rsp) ofs 8
  DW_CFA_offset: r16 (rip) at cfa-8
  DW_CFA_nop
  DW_CFA_nop
  DW_CFA_nop
  DW_CFA_nop
  DW_CFA_nop
  DW_CFA_nop

000137e0 0000000000000014 000137c8 FDE cie=000137c8 pc=00000000004781c0..00000000004781ce

000137f8 0000000000000014 ffffffff CIE
  Version:               1
  Augmentation:          ""
  Code alignment factor: 1
  Data alignment factor: -8
  Return address column: 16

  DW_CFA_def_cfa: r7 (rsp) ofs 8
  DW_CFA_offset: r16 (rip) at cfa-8
  DW_CFA_nop
  DW_CFA_nop
  DW_CFA_nop
  DW_CFA_nop
  DW_CFA_nop
  DW_CFA_nop

00013810 0000000000000014 000137f8 FDE cie=000137f8 pc=00000000004781d0..00000000004781dc

00013828 0000000000000014 ffffffff CIE
  Version:               1
  Augmentation:          ""
  Code alignment factor: 1
  Data alignment factor: -8
  Return address column: 16

  DW_CFA_def_cfa: r7 (rsp) ofs 8
  DW_CFA_offset: r16 (rip) at cfa-8
  DW_CFA_nop
  DW_CFA_nop
  DW_CFA_nop
  DW_CFA_nop
  DW_CFA_nop
  DW_CFA_nop

00013840 0000000000000024 00013828 FDE cie=00013828 pc=00000000004781e0..0000000000478259
  DW_CFA_advance_loc: 4 to 00000000004781e4
  DW_CFA_def_cfa_offset: 48
  DW_CFA_advance_loc1: 111 to 0000000000478253
  DW_CFA_remember_state
  DW_CFA_def_cfa_offset: 8
  DW_CFA_advance_loc: 1 to 0000000000478254
  DW_CFA_restore_state
  DW_CFA_nop
  DW_CFA_nop
  DW_CFA_nop
  DW_CFA_nop
  DW_CFA_nop
  DW_CFA_nop

00013868 0000000000000014 ffffffff CIE
  Version:               1
  Augmentation:          ""
  Code alignment factor: 1
  Data alignment factor: -8
  Return address column: 16

  DW_CFA_def_cfa: r7 (rsp) ofs 8
  DW_CFA_offset: r16 (rip) at cfa-8
  DW_CFA_nop
  DW_CFA_nop
  DW_CFA_nop
  DW_CFA_nop
  DW_CFA_nop
  DW_CFA_nop

00013880 0000000000000034 00013868 FDE cie=00013868 pc=0000000000478260..000000000047848c
  DW_CFA_advance_loc: 1 to 0000000000478261
  DW_CFA_def_cfa_offset: 16
  DW_CFA_offset: r6 (rbp) at cfa-16
  DW_CFA_advance_loc: 3 to 0000000000478264
  DW_CFA_def_cfa_register: r6 (rbp)
  DW_CFA_advance_loc: 4 to 0000000000478268
  DW_CFA_offset: r15 (r15) at cfa-24
  DW_CFA_offset: r14 (r14) at cfa-32
  DW_CFA_advance_loc: 5 to 000000000047826d
  DW_CFA_offset: r13 (r13) at cfa-40
  DW_CFA_advance_loc: 13 to 000000000047827a
  DW_CFA_offset: r12 (r12) at cfa-48
  DW_CFA_offset: r3 (rbx) at cfa-56
  DW_CFA_advance_loc2: 309 to 00000000004783af
  DW_CFA_remember_state
  DW_CFA_def_cfa: r7 (rsp) ofs 8
  DW_CFA_advance_loc: 1 to 00000000004783b0
  DW_CFA_restore_state
  DW_CFA_nop
  DW_CFA_nop

000138b8 0000000000000014 ffffffff CIE
  Version:               1
  Augmentation:          ""
  Code alignment factor: 1
  Data alignment factor: -8
  Return address column: 16

  DW_CFA_def_cfa: r7 (rsp) ofs 8
  DW_CFA_offset: r16 (rip) at cfa-8
  DW_CFA_nop
  DW_CFA_nop
  DW_CFA_nop
  DW_CFA_nop
  DW_CFA_nop
  DW_CFA_nop

000138d0 000000000000001c 000138b8 FDE cie=000138b8 pc=0000000000478490..00000000004784a9
  DW_CFA_advance_loc: 1 to 0000000000478491
  DW_CFA_def_cfa_offset: 16
  DW_CFA_offset: r3 (rbx) at cfa-16
  DW_CFA_advance_loc: 23 to 00000000004784a8
  DW_CFA_def_cfa_offset: 8

000138f0 0000000000000014 ffffffff CIE
  Version:               1
  Augmentation:          ""
  Code alignment factor: 1
  Data alignment factor: -8
  Return address column: 16

  DW_CFA_def_cfa: r7 (rsp) ofs 8
  DW_CFA_offset: r16 (rip) at cfa-8
  DW_CFA_nop
  DW_CFA_nop
  DW_CFA_nop
  DW_CFA_nop
  DW_CFA_nop
  DW_CFA_nop

00013908 000000000000003c 000138f0 FDE cie=000138f0 pc=00000000004784b0..0000000000478566
  DW_CFA_advance_loc: 2 to 00000000004784b2
  DW_CFA_def_cfa_offset: 16
  DW_CFA_offset: r12 (r12) at cfa-16
  DW_CFA_advance_loc: 1 to 00000000004784b3
  DW_CFA_def_cfa_offset: 24
  DW_CFA_offset: r6 (rbp) at cfa-24
  DW_CFA_advance_loc: 4 to 00000000004784b7
  DW_CFA_def_cfa_offset: 32
  DW_CFA_offset: r3 (rbx) at cfa-32
  DW_CFA_advance_loc: 10 to 00000000004784c1
  DW_CFA_def_cfa_offset: 1216
  DW_CFA_advance_loc1: 155 to 000000000047855c
  DW_CFA_remember_state
  DW_CFA_def_cfa_offset: 32
  DW_CFA_advance_loc: 1 to 000000000047855d
  DW_CFA_def_cfa_offset: 24
  DW_CFA_advance_loc: 1 to 000000000047855e
  DW_CFA_def_cfa_offset: 16
  DW_CFA_advance_loc: 2 to 0000000000478560
  DW_CFA_def_cfa_offset: 8
  DW_CFA_advance_loc: 1 to 0000000000478561
  DW_CFA_restore_state
  DW_CFA_nop
  DW_CFA_nop
  DW_CFA_nop
  DW_CFA_nop
  DW_CFA_nop

00013948 0000000000000014 ffffffff CIE
  Version:               1
  Augmentation:          ""
  Code alignment factor: 1
  Data alignment factor: -8
  Return address column: 16

  DW_CFA_def_cfa: r7 (rsp) ofs 8
  DW_CFA_offset: r16 (rip) at cfa-8
  DW_CFA_nop
  DW_CFA_nop
  DW_CFA_nop
  DW_CFA_nop
  DW_CFA_nop
  DW_CFA_nop

00013960 0000000000000014 00013948 FDE cie=00013948 pc=0000000000478570..00000000004786c3

00013978 0000000000000014 ffffffff CIE
  Version:               1
  Augmentation:          ""
  Code alignment factor: 1
  Data alignment factor: -8
  Return address column: 16

  DW_CFA_def_cfa: r7 (rsp) ofs 8
  DW_CFA_offset: r16 (rip) at cfa-8
  DW_CFA_nop
  DW_CFA_nop
  DW_CFA_nop
  DW_CFA_nop
  DW_CFA_nop
  DW_CFA_nop

00013990 0000000000000034 00013978 FDE cie=00013978 pc=00000000004786d0..0000000000478710
  DW_CFA_advance_loc: 2 to 00000000004786d2
  DW_CFA_def_cfa_offset: 16
  DW_CFA_offset: r12 (r12) at cfa-16
  DW_CFA_advance_loc: 1 to 00000000004786d3
  DW_CFA_def_cfa_offset: 24
  DW_CFA_offset: r6 (rbp) at cfa-24
  DW_CFA_advance_loc: 7 to 00000000004786da
  DW_CFA_def_cfa_offset: 32
  DW_CFA_advance_loc: 33 to 00000000004786fb
  DW_CFA_remember_state
  DW_CFA_def_cfa_offset: 24
  DW_CFA_advance_loc: 4 to 00000000004786ff
  DW_CFA_def_cfa_offset: 16
  DW_CFA_advance_loc: 2 to 0000000000478701
  DW_CFA_def_cfa_offset: 8
  DW_CFA_advance_loc: 7 to 0000000000478708
  DW_CFA_restore_state
  DW_CFA_nop
  DW_CFA_nop
  DW_CFA_nop
  DW_CFA_nop
  DW_CFA_nop
  DW_CFA_nop
  DW_CFA_nop

000139c8 0000000000000014 ffffffff CIE
  Version:               1
  Augmentation:          ""
  Code alignment factor: 1
  Data alignment factor: -8
  Return address column: 16

  DW_CFA_def_cfa: r7 (rsp) ofs 8
  DW_CFA_offset: r16 (rip) at cfa-8
  DW_CFA_nop
  DW_CFA_nop
  DW_CFA_nop
  DW_CFA_nop
  DW_CFA_nop
  DW_CFA_nop

000139e0 000000000000003c 000139c8 FDE cie=000139c8 pc=0000000000478710..0000000000478756
  DW_CFA_advance_loc: 2 to 0000000000478712
  DW_CFA_def_cfa_offset: 16
  DW_CFA_offset: r12 (r12) at cfa-16
  DW_CFA_advance_loc: 8 to 000000000047871a
  DW_CFA_def_cfa_offset: 24
  DW_CFA_offset: r6 (rbp) at cfa-24
  DW_CFA_advance_loc: 1 to 000000000047871b
  DW_CFA_def_cfa_offset: 32
  DW_CFA_offset: r3 (rbx) at cfa-32
  DW_CFA_advance_loc: 13 to 0000000000478728
  DW_CFA_remember_state
  DW_CFA_def_cfa_offset: 24
  DW_CFA_advance_loc: 1 to 0000000000478729
  DW_CFA_def_cfa_offset: 16
  DW_CFA_advance_loc: 2 to 000000000047872b
  DW_CFA_def_cfa_offset: 8
  DW_CFA_advance_loc: 5 to 0000000000478730
  DW_CFA_restore_state
  DW_CFA_advance_loc: 34 to 0000000000478752
  DW_CFA_def_cfa_offset: 24
  DW_CFA_advance_loc: 1 to 0000000000478753
  DW_CFA_def_cfa_offset: 16
  DW_CFA_advance_loc: 2 to 0000000000478755
  DW_CFA_def_cfa_offset: 8
  DW_CFA_nop
  DW_CFA_nop
  DW_CFA_nop
  DW_CFA_nop

00013a20 000000000000002c 000139c8 FDE cie=000139c8 pc=0000000000478760..000000000047879d
  DW_CFA_advance_loc: 2 to 0000000000478762
  DW_CFA_def_cfa_offset: 16
  DW_CFA_offset: r12 (r12) at cfa-16
  DW_CFA_advance_loc: 1 to 0000000000478763
  DW_CFA_def_cfa_offset: 24
  DW_CFA_offset: r6 (rbp) at cfa-24
  DW_CFA_advance_loc: 8 to 000000000047876b
  DW_CFA_def_cfa_offset: 32
  DW_CFA_offset: r3 (rbx) at cfa-32
  DW_CFA_advance_loc: 46 to 0000000000478799
  DW_CFA_def_cfa_offset: 24
  DW_CFA_advance_loc: 1 to 000000000047879a
  DW_CFA_def_cfa_offset: 16
  DW_CFA_advance_loc: 2 to 000000000047879c
  DW_CFA_def_cfa_offset: 8

00013a50 000000000000002c 000139c8 FDE cie=000139c8 pc=00000000004787a0..00000000004787e4
  DW_CFA_advance_loc: 2 to 00000000004787a2
  DW_CFA_def_cfa_offset: 16
  DW_CFA_offset: r12 (r12) at cfa-16
  DW_CFA_advance_loc: 1 to 00000000004787a3
  DW_CFA_def_cfa_offset: 24
  DW_CFA_offset: r6 (rbp) at cfa-24
  DW_CFA_advance_loc: 1 to 00000000004787a4
  DW_CFA_def_cfa_offset: 32
  DW_CFA_offset: r3 (rbx) at cfa-32
  DW_CFA_advance_loc: 60 to 00000000004787e0
  DW_CFA_def_cfa_offset: 24
  DW_CFA_advance_loc: 1 to 00000000004787e1
  DW_CFA_def_cfa_offset: 16
  DW_CFA_advance_loc: 2 to 00000000004787e3
  DW_CFA_def_cfa_offset: 8

00013a80 0000000000000014 ffffffff CIE
  Version:               1
  Augmentation:          ""
  Code alignment factor: 1
  Data alignment factor: -8
  Return address column: 16

  DW_CFA_def_cfa: r7 (rsp) ofs 8
  DW_CFA_offset: r16 (rip) at cfa-8
  DW_CFA_nop
  DW_CFA_nop
  DW_CFA_nop
  DW_CFA_nop
  DW_CFA_nop
  DW_CFA_nop

00013a98 000000000000001c 00013a80 FDE cie=00013a80 pc=00000000004787f0..0000000000478814
  DW_CFA_advance_loc: 2 to 00000000004787f2
  DW_CFA_def_cfa_offset: 16
  DW_CFA_offset: r12 (r12) at cfa-16
  DW_CFA_advance_loc: 33 to 0000000000478813
  DW_CFA_def_cfa_offset: 8

00013ab8 0000000000000024 00013a80 FDE cie=00013a80 pc=0000000000478820..0000000000478841
  DW_CFA_advance_loc: 6 to 0000000000478826
  DW_CFA_def_cfa_offset: 16
  DW_CFA_offset: r6 (rbp) at cfa-16
  DW_CFA_advance_loc: 12 to 0000000000478832
  DW_CFA_restore: r6 (rbp)
  DW_CFA_def_cfa_offset: 8
  DW_CFA_nop
  DW_CFA_nop
  DW_CFA_nop
  DW_CFA_nop
  DW_CFA_nop
  DW_CFA_nop
  DW_CFA_nop

00013ae0 0000000000000014 00013a80 FDE cie=00013a80 pc=0000000000478850..0000000000478861

00013af8 0000000000000014 00013a80 FDE cie=00013a80 pc=0000000000478870..0000000000478881

00013b10 0000000000000014 ffffffff CIE
  Version:               1
  Augmentation:          ""
  Code alignment factor: 1
  Data alignment factor: -8
  Return address column: 16

  DW_CFA_def_cfa: r7 (rsp) ofs 8
  DW_CFA_offset: r16 (rip) at cfa-8
  DW_CFA_nop
  DW_CFA_nop
  DW_CFA_nop
  DW_CFA_nop
  DW_CFA_nop
  DW_CFA_nop

00013b28 000000000000001c 00013b10 FDE cie=00013b10 pc=0000000000478890..00000000004788ad
  DW_CFA_advance_loc: 4 to 0000000000478894
  DW_CFA_def_cfa_offset: 16
  DW_CFA_advance_loc: 24 to 00000000004788ac
  DW_CFA_def_cfa_offset: 8
  DW_CFA_nop
  DW_CFA_nop

00013b48 000000000000001c 00013b10 FDE cie=00013b10 pc=00000000004788b0..00000000004788e0
  DW_CFA_advance_loc: 4 to 00000000004788b4
  DW_CFA_def_cfa_offset: 16
  DW_CFA_advance_loc: 43 to 00000000004788df
  DW_CFA_def_cfa_offset: 8
  DW_CFA_nop
  DW_CFA_nop

00013b68 0000000000000014 ffffffff CIE
  Version:               1
  Augmentation:          ""
  Code alignment factor: 1
  Data alignment factor: -8
  Return address column: 16

  DW_CFA_def_cfa: r7 (rsp) ofs 8
  DW_CFA_offset: r16 (rip) at cfa-8
  DW_CFA_nop
  DW_CFA_nop
  DW_CFA_nop
  DW_CFA_nop
  DW_CFA_nop
  DW_CFA_nop

00013b80 000000000000002c 00013b68 FDE cie=00013b68 pc=00000000004788e0..0000000000478938
  DW_CFA_advance_loc: 1 to 00000000004788e1
  DW_CFA_def_cfa_offset: 16
  DW_CFA_offset: r6 (rbp) at cfa-16
  DW_CFA_advance_loc: 17 to 00000000004788f2
  DW_CFA_remember_state
  DW_CFA_def_cfa_offset: 8
  DW_CFA_advance_loc: 6 to 00000000004788f8
  DW_CFA_restore_state
  DW_CFA_advance_loc: 52 to 000000000047892c
  DW_CFA_remember_state
  DW_CFA_def_cfa_offset: 8
  DW_CFA_advance_loc: 4 to 0000000000478930
  DW_CFA_restore_state
  DW_CFA_advance_loc: 3 to 0000000000478933
  DW_CFA_def_cfa_offset: 8
  DW_CFA_nop
  DW_CFA_nop
  DW_CFA_nop
  DW_CFA_nop

00013bb0 0000000000000014 ffffffff CIE
  Version:               1
  Augmentation:          ""
  Code alignment factor: 1
  Data alignment factor: -8
  Return address column: 16

  DW_CFA_def_cfa: r7 (rsp) ofs 8
  DW_CFA_offset: r16 (rip) at cfa-8
  DW_CFA_nop
  DW_CFA_nop
  DW_CFA_nop
  DW_CFA_nop
  DW_CFA_nop
  DW_CFA_nop

00013bc8 000000000000002c 00013bb0 FDE cie=00013bb0 pc=0000000000478940..0000000000478980
  DW_CFA_advance_loc: 4 to 0000000000478944
  DW_CFA_def_cfa_offset: 16
  DW_CFA_advance_loc: 18 to 0000000000478956
  DW_CFA_remember_state
  DW_CFA_def_cfa_offset: 8
  DW_CFA_advance_loc: 10 to 0000000000478960
  DW_CFA_restore_state
  DW_CFA_advance_loc: 11 to 000000000047896b
  DW_CFA_remember_state
  DW_CFA_def_cfa_offset: 8
  DW_CFA_advance_loc: 5 to 0000000000478970
  DW_CFA_restore_state
  DW_CFA_advance_loc: 11 to 000000000047897b
  DW_CFA_def_cfa_offset: 8
  DW_CFA_nop
  DW_CFA_nop
  DW_CFA_nop
  DW_CFA_nop
  DW_CFA_nop
  DW_CFA_nop

00013bf8 0000000000000014 ffffffff CIE
  Version:               1
  Augmentation:          ""
  Code alignment factor: 1
  Data alignment factor: -8
  Return address column: 16

  DW_CFA_def_cfa: r7 (rsp) ofs 8
  DW_CFA_offset: r16 (rip) at cfa-8
  DW_CFA_nop
  DW_CFA_nop
  DW_CFA_nop
  DW_CFA_nop
  DW_CFA_nop
  DW_CFA_nop

00013c10 0000000000000024 00013bf8 FDE cie=00013bf8 pc=0000000000478980..00000000004789e1
  DW_CFA_advance_loc: 4 to 0000000000478984
  DW_CFA_def_cfa_offset: 48
  DW_CFA_advance_loc1: 87 to 00000000004789db
  DW_CFA_remember_state
  DW_CFA_def_cfa_offset: 8
  DW_CFA_advance_loc: 1 to 00000000004789dc
  DW_CFA_restore_state
  DW_CFA_nop
  DW_CFA_nop
  DW_CFA_nop
  DW_CFA_nop
  DW_CFA_nop
  DW_CFA_nop

00013c38 0000000000000014 ffffffff CIE
  Version:               1
  Augmentation:          ""
  Code alignment factor: 1
  Data alignment factor: -8
  Return address column: 16

  DW_CFA_def_cfa: r7 (rsp) ofs 8
  DW_CFA_offset: r16 (rip) at cfa-8
  DW_CFA_nop
  DW_CFA_nop
  DW_CFA_nop
  DW_CFA_nop
  DW_CFA_nop
  DW_CFA_nop

00013c50 000000000000004c 00013c38 FDE cie=00013c38 pc=00000000004789f0..0000000000478b88
  DW_CFA_advance_loc: 2 to 00000000004789f2
  DW_CFA_def_cfa_offset: 16
  DW_CFA_offset: r12 (r12) at cfa-16
  DW_CFA_advance_loc: 1 to 00000000004789f3
  DW_CFA_def_cfa_offset: 24
  DW_CFA_offset: r6 (rbp) at cfa-24
  DW_CFA_advance_loc: 1 to 00000000004789f4
  DW_CFA_def_cfa_offset: 32
  DW_CFA_offset: r3 (rbx) at cfa-32
  DW_CFA_advance_loc: 7 to 00000000004789fb
  DW_CFA_def_cfa_offset: 48
  DW_CFA_advance_loc: 61 to 0000000000478a38
  DW_CFA_remember_state
  DW_CFA_def_cfa_offset: 32
  DW_CFA_advance_loc: 6 to 0000000000478a3e
  DW_CFA_def_cfa_offset: 24
  DW_CFA_advance_loc: 1 to 0000000000478a3f
  DW_CFA_def_cfa_offset: 16
  DW_CFA_advance_loc: 2 to 0000000000478a41
  DW_CFA_def_cfa_offset: 8
  DW_CFA_advance_loc: 15 to 0000000000478a50
  DW_CFA_restore_state
  DW_CFA_advance_loc1: 134 to 0000000000478ad6
  DW_CFA_remember_state
  DW_CFA_def_cfa_offset: 32
  DW_CFA_advance_loc: 4 to 0000000000478ada
  DW_CFA_def_cfa_offset: 24
  DW_CFA_advance_loc: 1 to 0000000000478adb
  DW_CFA_def_cfa_offset: 16
  DW_CFA_advance_loc: 2 to 0000000000478add
  DW_CFA_def_cfa_offset: 8
  DW_CFA_advance_loc: 3 to 0000000000478ae0
  DW_CFA_restore_state
  DW_CFA_nop
  DW_CFA_nop
  DW_CFA_nop
  DW_CFA_nop
  DW_CFA_nop
  DW_CFA_nop
  DW_CFA_nop

00013ca0 0000000000000034 00013c38 FDE cie=00013c38 pc=0000000000478b90..0000000000478d91
  DW_CFA_advance_loc: 1 to 0000000000478b91
  DW_CFA_def_cfa_offset: 16
  DW_CFA_offset: r6 (rbp) at cfa-16
  DW_CFA_advance_loc: 3 to 0000000000478b94
  DW_CFA_def_cfa_register: r6 (rbp)
  DW_CFA_advance_loc: 6 to 0000000000478b9a
  DW_CFA_offset: r15 (r15) at cfa-24
  DW_CFA_offset: r14 (r14) at cfa-32
  DW_CFA_offset: r13 (r13) at cfa-40
  DW_CFA_advance_loc: 5 to 0000000000478b9f
  DW_CFA_offset: r12 (r12) at cfa-48
  DW_CFA_advance_loc: 4 to 0000000000478ba3
  DW_CFA_offset: r3 (rbx) at cfa-56
  DW_CFA_advance_loc1: 160 to 0000000000478c43
  DW_CFA_remember_state
  DW_CFA_def_cfa: r7 (rsp) ofs 8
  DW_CFA_advance_loc: 5 to 0000000000478c48
  DW_CFA_restore_state
  DW_CFA_nop
  DW_CFA_nop
  DW_CFA_nop

00013cd8 0000000000000014 ffffffff CIE
  Version:               1
  Augmentation:          ""
  Code alignment factor: 1
  Data alignment factor: -8
  Return address column: 16

  DW_CFA_def_cfa: r7 (rsp) ofs 8
  DW_CFA_offset: r16 (rip) at cfa-8
  DW_CFA_nop
  DW_CFA_nop
  DW_CFA_nop
  DW_CFA_nop
  DW_CFA_nop
  DW_CFA_nop

00013cf0 0000000000000054 00013cd8 FDE cie=00013cd8 pc=0000000000478da0..0000000000478e5e
  DW_CFA_advance_loc: 2 to 0000000000478da2
  DW_CFA_def_cfa_offset: 16
  DW_CFA_offset: r15 (r15) at cfa-16
  DW_CFA_advance_loc: 5 to 0000000000478da7
  DW_CFA_def_cfa_offset: 24
  DW_CFA_offset: r14 (r14) at cfa-24
  DW_CFA_advance_loc: 10 to 0000000000478db1
  DW_CFA_def_cfa_offset: 32
  DW_CFA_offset: r13 (r13) at cfa-32
  DW_CFA_advance_loc: 7 to 0000000000478db8
  DW_CFA_def_cfa_offset: 40
  DW_CFA_offset: r12 (r12) at cfa-40
  DW_CFA_advance_loc: 4 to 0000000000478dbc
  DW_CFA_def_cfa_offset: 48
  DW_CFA_offset: r6 (rbp) at cfa-48
  DW_CFA_advance_loc: 6 to 0000000000478dc2
  DW_CFA_def_cfa_offset: 56
  DW_CFA_offset: r3 (rbx) at cfa-56
  DW_CFA_advance_loc: 7 to 0000000000478dc9
  DW_CFA_def_cfa_offset: 64
  DW_CFA_advance_loc1: 104 to 0000000000478e31
  DW_CFA_remember_state
  DW_CFA_def_cfa_offset: 56
  DW_CFA_advance_loc: 1 to 0000000000478e32
  DW_CFA_def_cfa_offset: 48
  DW_CFA_advance_loc: 1 to 0000000000478e33
  DW_CFA_def_cfa_offset: 40
  DW_CFA_advance_loc: 2 to 0000000000478e35
  DW_CFA_def_cfa_offset: 32
  DW_CFA_advance_loc: 2 to 0000000000478e37
  DW_CFA_def_cfa_offset: 24
  DW_CFA_advance_loc: 2 to 0000000000478e39
  DW_CFA_def_cfa_offset: 16
  DW_CFA_advance_loc: 2 to 0000000000478e3b
  DW_CFA_def_cfa_offset: 8
  DW_CFA_advance_loc: 5 to 0000000000478e40
  DW_CFA_restore_state
  DW_CFA_nop
  DW_CFA_nop
  DW_CFA_nop
  DW_CFA_nop
  DW_CFA_nop
  DW_CFA_nop

00013d48 0000000000000014 ffffffff CIE
  Version:               1
  Augmentation:          ""
  Code alignment factor: 1
  Data alignment factor: -8
  Return address column: 16

  DW_CFA_def_cfa: r7 (rsp) ofs 8
  DW_CFA_offset: r16 (rip) at cfa-8
  DW_CFA_nop
  DW_CFA_nop
  DW_CFA_nop
  DW_CFA_nop
  DW_CFA_nop
  DW_CFA_nop

00013d60 0000000000000054 00013d48 FDE cie=00013d48 pc=0000000000478e60..0000000000478f27
  DW_CFA_advance_loc: 11 to 0000000000478e6b
  DW_CFA_def_cfa_offset: 16
  DW_CFA_offset: r13 (r13) at cfa-16
  DW_CFA_advance_loc: 5 to 0000000000478e70
  DW_CFA_def_cfa_offset: 24
  DW_CFA_offset: r12 (r12) at cfa-24
  DW_CFA_advance_loc: 4 to 0000000000478e74
  DW_CFA_def_cfa_offset: 32
  DW_CFA_offset: r6 (rbp) at cfa-32
  DW_CFA_advance_loc: 4 to 0000000000478e78
  DW_CFA_def_cfa_offset: 40
  DW_CFA_offset: r3 (rbx) at cfa-40
  DW_CFA_advance_loc: 4 to 0000000000478e7c
  DW_CFA_def_cfa_offset: 48
  DW_CFA_advance_loc1: 113 to 0000000000478eed
  DW_CFA_remember_state
  DW_CFA_def_cfa_offset: 40
  DW_CFA_advance_loc: 1 to 0000000000478eee
  DW_CFA_def_cfa_offset: 32
  DW_CFA_advance_loc: 1 to 0000000000478eef
  DW_CFA_def_cfa_offset: 24
  DW_CFA_advance_loc: 2 to 0000000000478ef1
  DW_CFA_def_cfa_offset: 16
  DW_CFA_advance_loc: 2 to 0000000000478ef3
  DW_CFA_def_cfa_offset: 8
  DW_CFA_advance_loc: 5 to 0000000000478ef8
  DW_CFA_restore_state
  DW_CFA_advance_loc: 39 to 0000000000478f1f
  DW_CFA_def_cfa_offset: 40
  DW_CFA_advance_loc: 1 to 0000000000478f20
  DW_CFA_def_cfa_offset: 32
  DW_CFA_advance_loc: 1 to 0000000000478f21
  DW_CFA_def_cfa_offset: 24
  DW_CFA_advance_loc: 2 to 0000000000478f23
  DW_CFA_def_cfa_offset: 16
  DW_CFA_advance_loc: 2 to 0000000000478f25
  DW_CFA_def_cfa_offset: 8
  DW_CFA_advance_loc: 1 to 0000000000478f26
  DW_CFA_restore: r3 (rbx)
  DW_CFA_restore: r6 (rbp)
  DW_CFA_restore: r12 (r12)
  DW_CFA_restore: r13 (r13)
  DW_CFA_nop
  DW_CFA_nop

00013db8 0000000000000014 ffffffff CIE
  Version:               1
  Augmentation:          ""
  Code alignment factor: 1
  Data alignment factor: -8
  Return address column: 16

  DW_CFA_def_cfa: r7 (rsp) ofs 8
  DW_CFA_offset: r16 (rip) at cfa-8
  DW_CFA_nop
  DW_CFA_nop
  DW_CFA_nop
  DW_CFA_nop
  DW_CFA_nop
  DW_CFA_nop

00013dd0 0000000000000014 00013db8 FDE cie=00013db8 pc=0000000000478f30..0000000000478f3e

00013de8 0000000000000034 00013db8 FDE cie=00013db8 pc=0000000000478f40..00000000004791ca
  DW_CFA_advance_loc: 1 to 0000000000478f41
  DW_CFA_def_cfa_offset: 16
  DW_CFA_offset: r6 (rbp) at cfa-16
  DW_CFA_advance_loc: 3 to 0000000000478f44
  DW_CFA_def_cfa_register: r6 (rbp)
  DW_CFA_advance_loc: 2 to 0000000000478f46
  DW_CFA_offset: r13 (r13) at cfa-24
  DW_CFA_advance_loc: 6 to 0000000000478f4c
  DW_CFA_offset: r12 (r12) at cfa-32
  DW_CFA_offset: r3 (rbx) at cfa-40
  DW_CFA_advance_loc2: 455 to 0000000000479113
  DW_CFA_remember_state
  DW_CFA_def_cfa: r7 (rsp) ofs 8
  DW_CFA_advance_loc: 5 to 0000000000479118
  DW_CFA_restore_state
  DW_CFA_nop
  DW_CFA_nop
  DW_CFA_nop
  DW_CFA_nop
  DW_CFA_nop
  DW_CFA_nop
  DW_CFA_nop

00013e20 0000000000000014 ffffffff CIE
  Version:               1
  Augmentation:          ""
  Code alignment factor: 1
  Data alignment factor: -8
  Return address column: 16

  DW_CFA_def_cfa: r7 (rsp) ofs 8
  DW_CFA_offset: r16 (rip) at cfa-8
  DW_CFA_nop
  DW_CFA_nop
  DW_CFA_nop
  DW_CFA_nop
  DW_CFA_nop
  DW_CFA_nop

00013e38 0000000000000054 00013e20 FDE cie=00013e20 pc=00000000004791d0..00000000004792ed
  DW_CFA_advance_loc: 2 to 00000000004791d2
  DW_CFA_def_cfa_offset: 16
  DW_CFA_offset: r15 (r15) at cfa-16
  DW_CFA_advance_loc: 2 to 00000000004791d4
  DW_CFA_def_cfa_offset: 24
  DW_CFA_offset: r14 (r14) at cfa-24
  DW_CFA_advance_loc: 2 to 00000000004791d6
  DW_CFA_def_cfa_offset: 32
  DW_CFA_offset: r13 (r13) at cfa-32
  DW_CFA_advance_loc: 5 to 00000000004791db
  DW_CFA_def_cfa_offset: 40
  DW_CFA_offset: r12 (r12) at cfa-40
  DW_CFA_advance_loc: 1 to 00000000004791dc
  DW_CFA_def_cfa_offset: 48
  DW_CFA_offset: r6 (rbp) at cfa-48
  DW_CFA_advance_loc: 1 to 00000000004791dd
  DW_CFA_def_cfa_offset: 56
  DW_CFA_offset: r3 (rbx) at cfa-56
  DW_CFA_advance_loc: 4 to 00000000004791e1
  DW_CFA_def_cfa_offset: 80
  DW_CFA_advance_loc1: 186 to 000000000047929b
  DW_CFA_remember_state
  DW_CFA_def_cfa_offset: 56
  DW_CFA_advance_loc: 1 to 000000000047929c
  DW_CFA_def_cfa_offset: 48
  DW_CFA_advance_loc: 1 to 000000000047929d
  DW_CFA_def_cfa_offset: 40
  DW_CFA_advance_loc: 2 to 000000000047929f
  DW_CFA_def_cfa_offset: 32
  DW_CFA_advance_loc: 2 to 00000000004792a1
  DW_CFA_def_cfa_offset: 24
  DW_CFA_advance_loc: 2 to 00000000004792a3
  DW_CFA_def_cfa_offset: 16
  DW_CFA_advance_loc: 2 to 00000000004792a5
  DW_CFA_def_cfa_offset: 8
  DW_CFA_advance_loc: 11 to 00000000004792b0
  DW_CFA_restore_state
  DW_CFA_nop
  DW_CFA_nop
  DW_CFA_nop
  DW_CFA_nop
  DW_CFA_nop
  DW_CFA_nop

00013e90 0000000000000014 ffffffff CIE
  Version:               1
  Augmentation:          ""
  Code alignment factor: 1
  Data alignment factor: -8
  Return address column: 16

  DW_CFA_def_cfa: r7 (rsp) ofs 8
  DW_CFA_offset: r16 (rip) at cfa-8
  DW_CFA_nop
  DW_CFA_nop
  DW_CFA_nop
  DW_CFA_nop
  DW_CFA_nop
  DW_CFA_nop

00013ea8 0000000000000034 00013e90 FDE cie=00013e90 pc=00000000004792f0..0000000000479464
  DW_CFA_advance_loc: 1 to 00000000004792f1
  DW_CFA_def_cfa_offset: 16
  DW_CFA_offset: r6 (rbp) at cfa-16
  DW_CFA_advance_loc: 3 to 00000000004792f4
  DW_CFA_def_cfa_register: r6 (rbp)
  DW_CFA_advance_loc: 4 to 00000000004792f8
  DW_CFA_offset: r15 (r15) at cfa-24
  DW_CFA_offset: r14 (r14) at cfa-32
  DW_CFA_advance_loc: 5 to 00000000004792fd
  DW_CFA_offset: r13 (r13) at cfa-40
  DW_CFA_advance_loc: 10 to 0000000000479307
  DW_CFA_offset: r12 (r12) at cfa-48
  DW_CFA_offset: r3 (rbx) at cfa-56
  DW_CFA_advance_loc1: 207 to 00000000004793d6
  DW_CFA_remember_state
  DW_CFA_def_cfa: r7 (rsp) ofs 8
  DW_CFA_advance_loc: 10 to 00000000004793e0
  DW_CFA_restore_state
  DW_CFA_nop
  DW_CFA_nop
  DW_CFA_nop

00013ee0 0000000000000014 ffffffff CIE
  Version:               1
  Augmentation:          ""
  Code alignment factor: 1
  Data alignment factor: -8
  Return address column: 16

  DW_CFA_def_cfa: r7 (rsp) ofs 8
  DW_CFA_offset: r16 (rip) at cfa-8
  DW_CFA_nop
  DW_CFA_nop
  DW_CFA_nop
  DW_CFA_nop
  DW_CFA_nop
  DW_CFA_nop

00013ef8 0000000000000014 00013ee0 FDE cie=00013ee0 pc=0000000000479470..0000000000479475

00013f10 0000000000000054 00013ee0 FDE cie=00013ee0 pc=0000000000479480..000000000047964d
  DW_CFA_advance_loc: 2 to 0000000000479482
  DW_CFA_def_cfa_offset: 16
  DW_CFA_offset: r15 (r15) at cfa-16
  DW_CFA_advance_loc: 8 to 000000000047948a
  DW_CFA_def_cfa_offset: 24
  DW_CFA_offset: r14 (r14) at cfa-24
  DW_CFA_advance_loc: 8 to 0000000000479492
  DW_CFA_def_cfa_offset: 32
  DW_CFA_offset: r13 (r13) at cfa-32
  DW_CFA_advance_loc: 2 to 0000000000479494
  DW_CFA_def_cfa_offset: 40
  DW_CFA_offset: r12 (r12) at cfa-40
  DW_CFA_advance_loc: 4 to 0000000000479498
  DW_CFA_def_cfa_offset: 48
  DW_CFA_offset: r6 (rbp) at cfa-48
  DW_CFA_advance_loc: 6 to 000000000047949e
  DW_CFA_def_cfa_offset: 56
  DW_CFA_offset: r3 (rbx) at cfa-56
  DW_CFA_advance_loc: 10 to 00000000004794a8
  DW_CFA_def_cfa_offset: 640
  DW_CFA_advance_loc2: 319 to 00000000004795e7
  DW_CFA_remember_state
  DW_CFA_def_cfa_offset: 56
  DW_CFA_advance_loc: 1 to 00000000004795e8
  DW_CFA_def_cfa_offset: 48
  DW_CFA_advance_loc: 1 to 00000000004795e9
  DW_CFA_def_cfa_offset: 40
  DW_CFA_advance_loc: 2 to 00000000004795eb
  DW_CFA_def_cfa_offset: 32
  DW_CFA_advance_loc: 2 to 00000000004795ed
  DW_CFA_def_cfa_offset: 24
  DW_CFA_advance_loc: 2 to 00000000004795ef
  DW_CFA_def_cfa_offset: 16
  DW_CFA_advance_loc: 2 to 00000000004795f1
  DW_CFA_def_cfa_offset: 8
  DW_CFA_advance_loc: 7 to 00000000004795f8
  DW_CFA_restore_state
  DW_CFA_nop
  DW_CFA_nop
  DW_CFA_nop
  DW_CFA_nop

00013f68 0000000000000014 00013ee0 FDE cie=00013ee0 pc=0000000000479650..000000000047968e

00013f80 0000000000000014 ffffffff CIE
  Version:               1
  Augmentation:          ""
  Code alignment factor: 1
  Data alignment factor: -8
  Return address column: 16

  DW_CFA_def_cfa: r7 (rsp) ofs 8
  DW_CFA_offset: r16 (rip) at cfa-8
  DW_CFA_nop
  DW_CFA_nop
  DW_CFA_nop
  DW_CFA_nop
  DW_CFA_nop
  DW_CFA_nop

00013f98 0000000000000044 00013f80 FDE cie=00013f80 pc=0000000000479690..000000000047975c
  DW_CFA_advance_loc: 2 to 0000000000479692
  DW_CFA_def_cfa_offset: 16
  DW_CFA_offset: r14 (r14) at cfa-16
  DW_CFA_advance_loc: 6 to 0000000000479698
  DW_CFA_def_cfa_offset: 24
  DW_CFA_offset: r13 (r13) at cfa-24
  DW_CFA_advance_loc: 5 to 000000000047969d
  DW_CFA_def_cfa_offset: 32
  DW_CFA_offset: r12 (r12) at cfa-32
  DW_CFA_advance_loc: 1 to 000000000047969e
  DW_CFA_def_cfa_offset: 40
  DW_CFA_offset: r6 (rbp) at cfa-40
  DW_CFA_advance_loc: 7 to 00000000004796a5
  DW_CFA_def_cfa_offset: 80
  DW_CFA_advance_loc1: 109 to 0000000000479712
  DW_CFA_remember_state
  DW_CFA_def_cfa_offset: 40
  DW_CFA_advance_loc: 4 to 0000000000479716
  DW_CFA_def_cfa_offset: 32
  DW_CFA_advance_loc: 2 to 0000000000479718
  DW_CFA_def_cfa_offset: 24
  DW_CFA_advance_loc: 2 to 000000000047971a
  DW_CFA_def_cfa_offset: 16
  DW_CFA_advance_loc: 2 to 000000000047971c
  DW_CFA_def_cfa_offset: 8
  DW_CFA_advance_loc: 4 to 0000000000479720
  DW_CFA_restore_state
  DW_CFA_nop
  DW_CFA_nop
  DW_CFA_nop
  DW_CFA_nop
  DW_CFA_nop
  DW_CFA_nop

00013fe0 0000000000000014 ffffffff CIE
  Version:               1
  Augmentation:          ""
  Code alignment factor: 1
  Data alignment factor: -8
  Return address column: 16

  DW_CFA_def_cfa: r7 (rsp) ofs 8
  DW_CFA_offset: r16 (rip) at cfa-8
  DW_CFA_nop
  DW_CFA_nop
  DW_CFA_nop
  DW_CFA_nop
  DW_CFA_nop
  DW_CFA_nop

00013ff8 000000000000001c 00013fe0 FDE cie=00013fe0 pc=0000000000479760..000000000047979a
  DW_CFA_advance_loc: 13 to 000000000047976d
  DW_CFA_def_cfa_offset: 16
  DW_CFA_advance_loc: 21 to 0000000000479782
  DW_CFA_def_cfa_offset: 8
  DW_CFA_nop
  DW_CFA_nop

00014018 0000000000000014 ffffffff CIE
  Version:               1
  Augmentation:          ""
  Code alignment factor: 1
  Data alignment factor: -8
  Return address column: 16

  DW_CFA_def_cfa: r7 (rsp) ofs 8
  DW_CFA_offset: r16 (rip) at cfa-8
  DW_CFA_nop
  DW_CFA_nop
  DW_CFA_nop
  DW_CFA_nop
  DW_CFA_nop
  DW_CFA_nop

00014030 0000000000000014 00014018 FDE cie=00014018 pc=00000000004797a0..00000000004797d3

00014048 0000000000000064 00014018 FDE cie=00014018 pc=00000000004797e0..0000000000479883
  DW_CFA_advance_loc: 2 to 00000000004797e2
  DW_CFA_def_cfa_offset: 16
  DW_CFA_offset: r13 (r13) at cfa-16
  DW_CFA_advance_loc: 2 to 00000000004797e4
  DW_CFA_def_cfa_offset: 24
  DW_CFA_offset: r12 (r12) at cfa-24
  DW_CFA_advance_loc: 1 to 00000000004797e5
  DW_CFA_def_cfa_offset: 32
  DW_CFA_offset: r6 (rbp) at cfa-32
  DW_CFA_advance_loc: 4 to 00000000004797e9
  DW_CFA_def_cfa_offset: 40
  DW_CFA_offset: r3 (rbx) at cfa-40
  DW_CFA_advance_loc: 4 to 00000000004797ed
  DW_CFA_def_cfa_offset: 48
  DW_CFA_advance_loc: 14 to 00000000004797fb
  DW_CFA_remember_state
  DW_CFA_def_cfa_offset: 40
  DW_CFA_advance_loc: 1 to 00000000004797fc
  DW_CFA_def_cfa_offset: 32
  DW_CFA_advance_loc: 1 to 00000000004797fd
  DW_CFA_def_cfa_offset: 24
  DW_CFA_advance_loc: 2 to 00000000004797ff
  DW_CFA_def_cfa_offset: 16
  DW_CFA_advance_loc: 2 to 0000000000479801
  DW_CFA_def_cfa_offset: 8
  DW_CFA_advance_loc: 15 to 0000000000479810
  DW_CFA_restore_state
  DW_CFA_advance_loc: 11 to 000000000047981b
  DW_CFA_remember_state
  DW_CFA_def_cfa_offset: 40
  DW_CFA_advance_loc: 4 to 000000000047981f
  DW_CFA_def_cfa_offset: 32
  DW_CFA_advance_loc: 1 to 0000000000479820
  DW_CFA_def_cfa_offset: 24
  DW_CFA_advance_loc: 2 to 0000000000479822
  DW_CFA_def_cfa_offset: 16
  DW_CFA_advance_loc: 2 to 0000000000479824
  DW_CFA_def_cfa_offset: 8
  DW_CFA_advance_loc: 4 to 0000000000479828
  DW_CFA_restore_state
  DW_CFA_advance_loc1: 72 to 0000000000479870
  DW_CFA_remember_state
  DW_CFA_def_cfa_offset: 40
  DW_CFA_advance_loc: 4 to 0000000000479874
  DW_CFA_def_cfa_offset: 32
  DW_CFA_advance_loc: 1 to 0000000000479875
  DW_CFA_def_cfa_offset: 24
  DW_CFA_advance_loc: 2 to 0000000000479877
  DW_CFA_def_cfa_offset: 16
  DW_CFA_advance_loc: 2 to 0000000000479879
  DW_CFA_def_cfa_offset: 8
  DW_CFA_advance_loc: 1 to 000000000047987a
  DW_CFA_restore_state
  DW_CFA_nop
  DW_CFA_nop

000140b0 0000000000000014 ffffffff CIE
  Version:               1
  Augmentation:          ""
  Code alignment factor: 1
  Data alignment factor: -8
  Return address column: 16

  DW_CFA_def_cfa: r7 (rsp) ofs 8
  DW_CFA_offset: r16 (rip) at cfa-8
  DW_CFA_nop
  DW_CFA_nop
  DW_CFA_nop
  DW_CFA_nop
  DW_CFA_nop
  DW_CFA_nop

000140c8 0000000000000024 000140b0 FDE cie=000140b0 pc=0000000000479890..00000000004798ba
  DW_CFA_advance_loc: 10 to 000000000047989a
  DW_CFA_def_cfa_offset: 16
  DW_CFA_offset: r3 (rbx) at cfa-16
  DW_CFA_advance_loc: 14 to 00000000004798a8
  DW_CFA_restore: r3 (rbx)
  DW_CFA_def_cfa_offset: 8
  DW_CFA_nop
  DW_CFA_nop
  DW_CFA_nop
  DW_CFA_nop
  DW_CFA_nop
  DW_CFA_nop
  DW_CFA_nop

000140f0 0000000000000014 ffffffff CIE
  Version:               1
  Augmentation:          ""
  Code alignment factor: 1
  Data alignment factor: -8
  Return address column: 16

  DW_CFA_def_cfa: r7 (rsp) ofs 8
  DW_CFA_offset: r16 (rip) at cfa-8
  DW_CFA_nop
  DW_CFA_nop
  DW_CFA_nop
  DW_CFA_nop
  DW_CFA_nop
  DW_CFA_nop

00014108 0000000000000014 000140f0 FDE cie=000140f0 pc=00000000004798c0..00000000004798e2

00014120 0000000000000014 ffffffff CIE
  Version:               1
  Augmentation:          ""
  Code alignment factor: 1
  Data alignment factor: -8
  Return address column: 16

  DW_CFA_def_cfa: r7 (rsp) ofs 8
  DW_CFA_offset: r16 (rip) at cfa-8
  DW_CFA_nop
  DW_CFA_nop
  DW_CFA_nop
  DW_CFA_nop
  DW_CFA_nop
  DW_CFA_nop

00014138 0000000000000064 00014120 FDE cie=00014120 pc=00000000004798f0..00000000004799c2
  DW_CFA_advance_loc: 2 to 00000000004798f2
  DW_CFA_def_cfa_offset: 16
  DW_CFA_offset: r14 (r14) at cfa-16
  DW_CFA_advance_loc: 2 to 00000000004798f4
  DW_CFA_def_cfa_offset: 24
  DW_CFA_offset: r13 (r13) at cfa-24
  DW_CFA_advance_loc: 2 to 00000000004798f6
  DW_CFA_def_cfa_offset: 32
  DW_CFA_offset: r12 (r12) at cfa-32
  DW_CFA_advance_loc: 1 to 00000000004798f7
  DW_CFA_def_cfa_offset: 40
  DW_CFA_offset: r6 (rbp) at cfa-40
  DW_CFA_advance_loc: 1 to 00000000004798f8
  DW_CFA_def_cfa_offset: 48
  DW_CFA_offset: r3 (rbx) at cfa-48
  DW_CFA_advance_loc1: 106 to 0000000000479962
  DW_CFA_remember_state
  DW_CFA_def_cfa_offset: 40
  DW_CFA_advance_loc: 1 to 0000000000479963
  DW_CFA_def_cfa_offset: 32
  DW_CFA_advance_loc: 2 to 0000000000479965
  DW_CFA_def_cfa_offset: 24
  DW_CFA_advance_loc: 2 to 0000000000479967
  DW_CFA_def_cfa_offset: 16
  DW_CFA_advance_loc: 2 to 0000000000479969
  DW_CFA_def_cfa_offset: 8
  DW_CFA_advance_loc: 5 to 000000000047996e
  DW_CFA_restore_state
  DW_CFA_advance_loc: 6 to 0000000000479974
  DW_CFA_remember_state
  DW_CFA_def_cfa_offset: 40
  DW_CFA_advance_loc: 3 to 0000000000479977
  DW_CFA_def_cfa_offset: 32
  DW_CFA_advance_loc: 2 to 0000000000479979
  DW_CFA_def_cfa_offset: 24
  DW_CFA_advance_loc: 2 to 000000000047997b
  DW_CFA_def_cfa_offset: 16
  DW_CFA_advance_loc: 2 to 000000000047997d
  DW_CFA_def_cfa_offset: 8
  DW_CFA_advance_loc: 11 to 0000000000479988
  DW_CFA_restore_state
  DW_CFA_advance_loc: 1 to 0000000000479989
  DW_CFA_remember_state
  DW_CFA_def_cfa_offset: 40
  DW_CFA_advance_loc: 6 to 000000000047998f
  DW_CFA_def_cfa_offset: 32
  DW_CFA_advance_loc: 2 to 0000000000479991
  DW_CFA_def_cfa_offset: 24
  DW_CFA_advance_loc: 2 to 0000000000479993
  DW_CFA_def_cfa_offset: 16
  DW_CFA_advance_loc: 2 to 0000000000479995
  DW_CFA_def_cfa_offset: 8
  DW_CFA_advance_loc: 11 to 00000000004799a0
  DW_CFA_restore_state

000141a0 0000000000000014 ffffffff CIE
  Version:               1
  Augmentation:          ""
  Code alignment factor: 1
  Data alignment factor: -8
  Return address column: 16

  DW_CFA_def_cfa: r7 (rsp) ofs 8
  DW_CFA_offset: r16 (rip) at cfa-8
  DW_CFA_nop
  DW_CFA_nop
  DW_CFA_nop
  DW_CFA_nop
  DW_CFA_nop
  DW_CFA_nop

000141b8 0000000000000034 000141a0 FDE cie=000141a0 pc=00000000004799d0..0000000000479ae0
  DW_CFA_advance_loc: 1 to 00000000004799d1
  DW_CFA_def_cfa_offset: 16
  DW_CFA_offset: r6 (rbp) at cfa-16
  DW_CFA_advance_loc: 3 to 00000000004799d4
  DW_CFA_def_cfa_register: r6 (rbp)
  DW_CFA_advance_loc: 13 to 00000000004799e1
  DW_CFA_offset: r15 (r15) at cfa-24
  DW_CFA_offset: r14 (r14) at cfa-32
  DW_CFA_offset: r13 (r13) at cfa-40
  DW_CFA_offset: r12 (r12) at cfa-48
  DW_CFA_offset: r3 (rbx) at cfa-56
  DW_CFA_advance_loc1: 149 to 0000000000479a76
  DW_CFA_remember_state
  DW_CFA_def_cfa: r7 (rsp) ofs 8
  DW_CFA_advance_loc: 10 to 0000000000479a80
  DW_CFA_restore_state
  DW_CFA_nop
  DW_CFA_nop
  DW_CFA_nop
  DW_CFA_nop
  DW_CFA_nop

000141f0 0000000000000014 ffffffff CIE
  Version:               1
  Augmentation:          ""
  Code alignment factor: 1
  Data alignment factor: -8
  Return address column: 16

  DW_CFA_def_cfa: r7 (rsp) ofs 8
  DW_CFA_offset: r16 (rip) at cfa-8
  DW_CFA_nop
  DW_CFA_nop
  DW_CFA_nop
  DW_CFA_nop
  DW_CFA_nop
  DW_CFA_nop

00014208 0000000000000034 000141f0 FDE cie=000141f0 pc=0000000000479ae0..0000000000479b3e
  DW_CFA_advance_loc: 2 to 0000000000479ae2
  DW_CFA_def_cfa_offset: 16
  DW_CFA_offset: r12 (r12) at cfa-16
  DW_CFA_advance_loc: 4 to 0000000000479ae6
  DW_CFA_def_cfa_offset: 24
  DW_CFA_offset: r6 (rbp) at cfa-24
  DW_CFA_advance_loc: 1 to 0000000000479ae7
  DW_CFA_def_cfa_offset: 32
  DW_CFA_offset: r3 (rbx) at cfa-32
  DW_CFA_advance_loc: 54 to 0000000000479b1d
  DW_CFA_remember_state
  DW_CFA_def_cfa_offset: 24
  DW_CFA_advance_loc: 1 to 0000000000479b1e
  DW_CFA_def_cfa_offset: 16
  DW_CFA_advance_loc: 7 to 0000000000479b25
  DW_CFA_def_cfa_offset: 8
  DW_CFA_advance_loc: 11 to 0000000000479b30
  DW_CFA_restore_state
  DW_CFA_nop
  DW_CFA_nop
  DW_CFA_nop
  DW_CFA_nop
  DW_CFA_nop

00014240 0000000000000054 000141f0 FDE cie=000141f0 pc=0000000000479b40..0000000000479bda
  DW_CFA_advance_loc: 11 to 0000000000479b4b
  DW_CFA_def_cfa_offset: 16
  DW_CFA_offset: r13 (r13) at cfa-16
  DW_CFA_advance_loc: 2 to 0000000000479b4d
  DW_CFA_def_cfa_offset: 24
  DW_CFA_offset: r12 (r12) at cfa-24
  DW_CFA_advance_loc: 1 to 0000000000479b4e
  DW_CFA_def_cfa_offset: 32
  DW_CFA_offset: r6 (rbp) at cfa-32
  DW_CFA_advance_loc: 1 to 0000000000479b4f
  DW_CFA_def_cfa_offset: 40
  DW_CFA_offset: r3 (rbx) at cfa-40
  DW_CFA_advance_loc: 4 to 0000000000479b53
  DW_CFA_def_cfa_offset: 48
  DW_CFA_advance_loc: 36 to 0000000000479b77
  DW_CFA_remember_state
  DW_CFA_def_cfa_offset: 40
  DW_CFA_advance_loc: 1 to 0000000000479b78
  DW_CFA_def_cfa_offset: 32
  DW_CFA_advance_loc: 1 to 0000000000479b79
  DW_CFA_def_cfa_offset: 24
  DW_CFA_advance_loc: 2 to 0000000000479b7b
  DW_CFA_def_cfa_offset: 16
  DW_CFA_advance_loc: 2 to 0000000000479b7d
  DW_CFA_def_cfa_offset: 8
  DW_CFA_advance_loc: 3 to 0000000000479b80
  DW_CFA_restore_state
  DW_CFA_advance_loc1: 83 to 0000000000479bd3
  DW_CFA_def_cfa_offset: 40
  DW_CFA_advance_loc: 1 to 0000000000479bd4
  DW_CFA_def_cfa_offset: 32
  DW_CFA_advance_loc: 1 to 0000000000479bd5
  DW_CFA_def_cfa_offset: 24
  DW_CFA_advance_loc: 2 to 0000000000479bd7
  DW_CFA_def_cfa_offset: 16
  DW_CFA_advance_loc: 2 to 0000000000479bd9
  DW_CFA_def_cfa_offset: 8
  DW_CFA_nop
  DW_CFA_nop
  DW_CFA_nop
  DW_CFA_nop
  DW_CFA_nop
  DW_CFA_nop
  DW_CFA_nop

00014298 0000000000000014 000141f0 FDE cie=000141f0 pc=0000000000405dbe..0000000000405dc8

000142b0 0000000000000014 ffffffff CIE
  Version:               1
  Augmentation:          ""
  Code alignment factor: 1
  Data alignment factor: -8
  Return address column: 16

  DW_CFA_def_cfa: r7 (rsp) ofs 8
  DW_CFA_offset: r16 (rip) at cfa-8
  DW_CFA_nop
  DW_CFA_nop
  DW_CFA_nop
  DW_CFA_nop
  DW_CFA_nop
  DW_CFA_nop

000142c8 000000000000001c 000142b0 FDE cie=000142b0 pc=0000000000479be0..0000000000479bfc
  DW_CFA_advance_loc: 7 to 0000000000479be7
  DW_CFA_def_cfa_offset: 16
  DW_CFA_advance_loc: 16 to 0000000000479bf7
  DW_CFA_def_cfa_offset: 8
  DW_CFA_nop
  DW_CFA_nop

000142e8 0000000000000024 000142b0 FDE cie=000142b0 pc=0000000000479c00..0000000000479c30
  DW_CFA_advance_loc: 4 to 0000000000479c04
  DW_CFA_def_cfa_offset: 16
  DW_CFA_advance_loc: 23 to 0000000000479c1b
  DW_CFA_remember_state
  DW_CFA_def_cfa_offset: 8
  DW_CFA_advance_loc: 5 to 0000000000479c20
  DW_CFA_restore_state
  DW_CFA_advance_loc: 15 to 0000000000479c2f
  DW_CFA_def_cfa_offset: 8
  DW_CFA_nop
  DW_CFA_nop
  DW_CFA_nop
  DW_CFA_nop

00014310 0000000000000014 ffffffff CIE
  Version:               1
  Augmentation:          ""
  Code alignment factor: 1
  Data alignment factor: -8
  Return address column: 16

  DW_CFA_def_cfa: r7 (rsp) ofs 8
  DW_CFA_offset: r16 (rip) at cfa-8
  DW_CFA_nop
  DW_CFA_nop
  DW_CFA_nop
  DW_CFA_nop
  DW_CFA_nop
  DW_CFA_nop

00014328 000000000000002c 00014310 FDE cie=00014310 pc=0000000000479c30..0000000000479cbd
  DW_CFA_advance_loc: 1 to 0000000000479c31
  DW_CFA_def_cfa_offset: 16
  DW_CFA_offset: r6 (rbp) at cfa-16
  DW_CFA_advance_loc: 18 to 0000000000479c43
  DW_CFA_def_cfa_offset: 80
  DW_CFA_advance_loc1: 115 to 0000000000479cb6
  DW_CFA_remember_state
  DW_CFA_def_cfa_offset: 16
  DW_CFA_advance_loc: 1 to 0000000000479cb7
  DW_CFA_def_cfa_offset: 8
  DW_CFA_advance_loc: 1 to 0000000000479cb8
  DW_CFA_restore_state
  DW_CFA_nop
  DW_CFA_nop
  DW_CFA_nop
  DW_CFA_nop
  DW_CFA_nop
  DW_CFA_nop

00014358 0000000000000024 00014310 FDE cie=00014310 pc=0000000000479cc0..0000000000479d3b
  DW_CFA_advance_loc: 14 to 0000000000479cce
  DW_CFA_def_cfa_offset: 80
  DW_CFA_advance_loc1: 103 to 0000000000479d35
  DW_CFA_remember_state
  DW_CFA_def_cfa_offset: 8
  DW_CFA_advance_loc: 1 to 0000000000479d36
  DW_CFA_restore_state
  DW_CFA_nop
  DW_CFA_nop
  DW_CFA_nop
  DW_CFA_nop
  DW_CFA_nop
  DW_CFA_nop

00014380 0000000000000014 ffffffff CIE
  Version:               1
  Augmentation:          ""
  Code alignment factor: 1
  Data alignment factor: -8
  Return address column: 16

  DW_CFA_def_cfa: r7 (rsp) ofs 8
  DW_CFA_offset: r16 (rip) at cfa-8
  DW_CFA_nop
  DW_CFA_nop
  DW_CFA_nop
  DW_CFA_nop
  DW_CFA_nop
  DW_CFA_nop

00014398 000000000000003c 00014380 FDE cie=00014380 pc=0000000000479d40..0000000000479d7d
  DW_CFA_advance_loc: 2 to 0000000000479d42
  DW_CFA_def_cfa_offset: 16
  DW_CFA_offset: r13 (r13) at cfa-16
  DW_CFA_advance_loc: 5 to 0000000000479d47
  DW_CFA_def_cfa_offset: 24
  DW_CFA_offset: r12 (r12) at cfa-24
  DW_CFA_advance_loc: 4 to 0000000000479d4b
  DW_CFA_def_cfa_offset: 32
  DW_CFA_offset: r6 (rbp) at cfa-32
  DW_CFA_advance_loc: 12 to 0000000000479d57
