  DW_CFA_def_cfa_offset: 32
  DW_CFA_advance_loc: 2 to 0000000000421a5b
  DW_CFA_def_cfa_offset: 24
  DW_CFA_advance_loc: 2 to 0000000000421a5d
  DW_CFA_def_cfa_offset: 16
  DW_CFA_advance_loc: 2 to 0000000000421a5f
  DW_CFA_def_cfa_offset: 8
  DW_CFA_advance_loc: 5 to 0000000000421a64
  DW_CFA_restore_state
  DW_CFA_advance_loc: 46 to 0000000000421a92
  DW_CFA_remember_state
  DW_CFA_def_cfa_offset: 56
  DW_CFA_advance_loc: 8 to 0000000000421a9a
  DW_CFA_def_cfa_offset: 48
  DW_CFA_advance_loc: 1 to 0000000000421a9b
  DW_CFA_def_cfa_offset: 40
  DW_CFA_advance_loc: 2 to 0000000000421a9d
  DW_CFA_def_cfa_offset: 32
  DW_CFA_advance_loc: 2 to 0000000000421a9f
  DW_CFA_def_cfa_offset: 24
  DW_CFA_advance_loc: 2 to 0000000000421aa1
  DW_CFA_def_cfa_offset: 16
  DW_CFA_advance_loc: 2 to 0000000000421aa3
  DW_CFA_def_cfa_offset: 8
  DW_CFA_advance_loc: 5 to 0000000000421aa8
  DW_CFA_restore_state
  DW_CFA_advance_loc: 56 to 0000000000421ae0
  DW_CFA_remember_state
  DW_CFA_def_cfa_offset: 56
  DW_CFA_advance_loc: 8 to 0000000000421ae8
  DW_CFA_def_cfa_offset: 48
  DW_CFA_advance_loc: 1 to 0000000000421ae9
  DW_CFA_def_cfa_offset: 40
  DW_CFA_advance_loc: 2 to 0000000000421aeb
  DW_CFA_def_cfa_offset: 32
  DW_CFA_advance_loc: 2 to 0000000000421aed
  DW_CFA_def_cfa_offset: 24
  DW_CFA_advance_loc: 2 to 0000000000421aef
  DW_CFA_def_cfa_offset: 16
  DW_CFA_advance_loc: 2 to 0000000000421af1
  DW_CFA_def_cfa_offset: 8
  DW_CFA_advance_loc: 5 to 0000000000421af6
  DW_CFA_restore_state
  DW_CFA_advance_loc: 46 to 0000000000421b24
  DW_CFA_remember_state
  DW_CFA_def_cfa_offset: 56
  DW_CFA_advance_loc: 8 to 0000000000421b2c
  DW_CFA_def_cfa_offset: 48
  DW_CFA_advance_loc: 1 to 0000000000421b2d
  DW_CFA_def_cfa_offset: 40
  DW_CFA_advance_loc: 2 to 0000000000421b2f
  DW_CFA_def_cfa_offset: 32
  DW_CFA_advance_loc: 2 to 0000000000421b31
  DW_CFA_def_cfa_offset: 24
  DW_CFA_advance_loc: 2 to 0000000000421b33
  DW_CFA_def_cfa_offset: 16
  DW_CFA_advance_loc: 2 to 0000000000421b35
  DW_CFA_def_cfa_offset: 8
  DW_CFA_advance_loc: 5 to 0000000000421b3a
  DW_CFA_restore_state
  DW_CFA_advance_loc: 56 to 0000000000421b72
  DW_CFA_remember_state
  DW_CFA_def_cfa_offset: 56
  DW_CFA_advance_loc: 8 to 0000000000421b7a
  DW_CFA_def_cfa_offset: 48
  DW_CFA_advance_loc: 1 to 0000000000421b7b
  DW_CFA_def_cfa_offset: 40
  DW_CFA_advance_loc: 2 to 0000000000421b7d
  DW_CFA_def_cfa_offset: 32
  DW_CFA_advance_loc: 2 to 0000000000421b7f
  DW_CFA_def_cfa_offset: 24
  DW_CFA_advance_loc: 2 to 0000000000421b81
  DW_CFA_def_cfa_offset: 16
  DW_CFA_advance_loc: 2 to 0000000000421b83
  DW_CFA_def_cfa_offset: 8
  DW_CFA_advance_loc: 5 to 0000000000421b88
  DW_CFA_restore_state
  DW_CFA_advance_loc: 46 to 0000000000421bb6
  DW_CFA_remember_state
  DW_CFA_def_cfa_offset: 56
  DW_CFA_advance_loc: 8 to 0000000000421bbe
  DW_CFA_def_cfa_offset: 48
  DW_CFA_advance_loc: 1 to 0000000000421bbf
  DW_CFA_def_cfa_offset: 40
  DW_CFA_advance_loc: 2 to 0000000000421bc1
  DW_CFA_def_cfa_offset: 32
  DW_CFA_advance_loc: 2 to 0000000000421bc3
  DW_CFA_def_cfa_offset: 24
  DW_CFA_advance_loc: 2 to 0000000000421bc5
  DW_CFA_def_cfa_offset: 16
  DW_CFA_advance_loc: 2 to 0000000000421bc7
  DW_CFA_def_cfa_offset: 8
  DW_CFA_advance_loc: 5 to 0000000000421bcc
  DW_CFA_restore_state
  DW_CFA_advance_loc: 56 to 0000000000421c04
  DW_CFA_remember_state
  DW_CFA_def_cfa_offset: 56
  DW_CFA_advance_loc: 8 to 0000000000421c0c
  DW_CFA_def_cfa_offset: 48
  DW_CFA_advance_loc: 1 to 0000000000421c0d
  DW_CFA_def_cfa_offset: 40
  DW_CFA_advance_loc: 2 to 0000000000421c0f
  DW_CFA_def_cfa_offset: 32
  DW_CFA_advance_loc: 2 to 0000000000421c11
  DW_CFA_def_cfa_offset: 24
  DW_CFA_advance_loc: 2 to 0000000000421c13
  DW_CFA_def_cfa_offset: 16
  DW_CFA_advance_loc: 2 to 0000000000421c15
  DW_CFA_def_cfa_offset: 8
  DW_CFA_advance_loc: 5 to 0000000000421c1a
  DW_CFA_restore_state
  DW_CFA_advance_loc: 46 to 0000000000421c48
  DW_CFA_remember_state
  DW_CFA_def_cfa_offset: 56
  DW_CFA_advance_loc: 8 to 0000000000421c50
  DW_CFA_def_cfa_offset: 48
  DW_CFA_advance_loc: 1 to 0000000000421c51
  DW_CFA_def_cfa_offset: 40
  DW_CFA_advance_loc: 2 to 0000000000421c53
  DW_CFA_def_cfa_offset: 32
  DW_CFA_advance_loc: 2 to 0000000000421c55
  DW_CFA_def_cfa_offset: 24
  DW_CFA_advance_loc: 2 to 0000000000421c57
  DW_CFA_def_cfa_offset: 16
  DW_CFA_advance_loc: 2 to 0000000000421c59
  DW_CFA_def_cfa_offset: 8
  DW_CFA_advance_loc: 5 to 0000000000421c5e
  DW_CFA_restore_state
  DW_CFA_advance_loc: 56 to 0000000000421c96
  DW_CFA_remember_state
  DW_CFA_def_cfa_offset: 56
  DW_CFA_advance_loc: 8 to 0000000000421c9e
  DW_CFA_def_cfa_offset: 48
  DW_CFA_advance_loc: 1 to 0000000000421c9f
  DW_CFA_def_cfa_offset: 40
  DW_CFA_advance_loc: 2 to 0000000000421ca1
  DW_CFA_def_cfa_offset: 32
  DW_CFA_advance_loc: 2 to 0000000000421ca3
  DW_CFA_def_cfa_offset: 24
  DW_CFA_advance_loc: 2 to 0000000000421ca5
  DW_CFA_def_cfa_offset: 16
  DW_CFA_advance_loc: 2 to 0000000000421ca7
  DW_CFA_def_cfa_offset: 8
  DW_CFA_advance_loc: 5 to 0000000000421cac
  DW_CFA_restore_state
  DW_CFA_advance_loc: 46 to 0000000000421cda
  DW_CFA_remember_state
  DW_CFA_def_cfa_offset: 56
  DW_CFA_advance_loc: 8 to 0000000000421ce2
  DW_CFA_def_cfa_offset: 48
  DW_CFA_advance_loc: 1 to 0000000000421ce3
  DW_CFA_def_cfa_offset: 40
  DW_CFA_advance_loc: 2 to 0000000000421ce5
  DW_CFA_def_cfa_offset: 32
  DW_CFA_advance_loc: 2 to 0000000000421ce7
  DW_CFA_def_cfa_offset: 24
  DW_CFA_advance_loc: 2 to 0000000000421ce9
  DW_CFA_def_cfa_offset: 16
  DW_CFA_advance_loc: 2 to 0000000000421ceb
  DW_CFA_def_cfa_offset: 8
  DW_CFA_advance_loc: 5 to 0000000000421cf0
  DW_CFA_restore_state
  DW_CFA_advance_loc: 56 to 0000000000421d28
  DW_CFA_remember_state
  DW_CFA_def_cfa_offset: 56
  DW_CFA_advance_loc: 8 to 0000000000421d30
  DW_CFA_def_cfa_offset: 48
  DW_CFA_advance_loc: 1 to 0000000000421d31
  DW_CFA_def_cfa_offset: 40
  DW_CFA_advance_loc: 2 to 0000000000421d33
  DW_CFA_def_cfa_offset: 32
  DW_CFA_advance_loc: 2 to 0000000000421d35
  DW_CFA_def_cfa_offset: 24
  DW_CFA_advance_loc: 2 to 0000000000421d37
  DW_CFA_def_cfa_offset: 16
  DW_CFA_advance_loc: 2 to 0000000000421d39
  DW_CFA_def_cfa_offset: 8
  DW_CFA_advance_loc: 5 to 0000000000421d3e
  DW_CFA_restore_state
  DW_CFA_advance_loc: 46 to 0000000000421d6c
  DW_CFA_remember_state
  DW_CFA_def_cfa_offset: 56
  DW_CFA_advance_loc: 8 to 0000000000421d74
  DW_CFA_def_cfa_offset: 48
  DW_CFA_advance_loc: 1 to 0000000000421d75
  DW_CFA_def_cfa_offset: 40
  DW_CFA_advance_loc: 2 to 0000000000421d77
  DW_CFA_def_cfa_offset: 32
  DW_CFA_advance_loc: 2 to 0000000000421d79
  DW_CFA_def_cfa_offset: 24
  DW_CFA_advance_loc: 2 to 0000000000421d7b
  DW_CFA_def_cfa_offset: 16
  DW_CFA_advance_loc: 2 to 0000000000421d7d
  DW_CFA_def_cfa_offset: 8
  DW_CFA_advance_loc: 5 to 0000000000421d82
  DW_CFA_restore_state
  DW_CFA_advance_loc: 56 to 0000000000421dba
  DW_CFA_remember_state
  DW_CFA_def_cfa_offset: 56
  DW_CFA_advance_loc: 8 to 0000000000421dc2
  DW_CFA_def_cfa_offset: 48
  DW_CFA_advance_loc: 1 to 0000000000421dc3
  DW_CFA_def_cfa_offset: 40
  DW_CFA_advance_loc: 2 to 0000000000421dc5
  DW_CFA_def_cfa_offset: 32
  DW_CFA_advance_loc: 2 to 0000000000421dc7
  DW_CFA_def_cfa_offset: 24
  DW_CFA_advance_loc: 2 to 0000000000421dc9
  DW_CFA_def_cfa_offset: 16
  DW_CFA_advance_loc: 2 to 0000000000421dcb
  DW_CFA_def_cfa_offset: 8
  DW_CFA_advance_loc: 5 to 0000000000421dd0
  DW_CFA_restore_state
  DW_CFA_advance_loc: 46 to 0000000000421dfe
  DW_CFA_remember_state
  DW_CFA_def_cfa_offset: 56
  DW_CFA_advance_loc: 8 to 0000000000421e06
  DW_CFA_def_cfa_offset: 48
  DW_CFA_advance_loc: 1 to 0000000000421e07
  DW_CFA_def_cfa_offset: 40
  DW_CFA_advance_loc: 2 to 0000000000421e09
  DW_CFA_def_cfa_offset: 32
  DW_CFA_advance_loc: 2 to 0000000000421e0b
  DW_CFA_def_cfa_offset: 24
  DW_CFA_advance_loc: 2 to 0000000000421e0d
  DW_CFA_def_cfa_offset: 16
  DW_CFA_advance_loc: 2 to 0000000000421e0f
  DW_CFA_def_cfa_offset: 8
  DW_CFA_advance_loc: 5 to 0000000000421e14
  DW_CFA_restore_state
  DW_CFA_advance_loc: 56 to 0000000000421e4c
  DW_CFA_remember_state
  DW_CFA_def_cfa_offset: 56
  DW_CFA_advance_loc: 8 to 0000000000421e54
  DW_CFA_def_cfa_offset: 48
  DW_CFA_advance_loc: 1 to 0000000000421e55
  DW_CFA_def_cfa_offset: 40
  DW_CFA_advance_loc: 2 to 0000000000421e57
  DW_CFA_def_cfa_offset: 32
  DW_CFA_advance_loc: 2 to 0000000000421e59
  DW_CFA_def_cfa_offset: 24
  DW_CFA_advance_loc: 2 to 0000000000421e5b
  DW_CFA_def_cfa_offset: 16
  DW_CFA_advance_loc: 2 to 0000000000421e5d
  DW_CFA_def_cfa_offset: 8
  DW_CFA_advance_loc: 5 to 0000000000421e62
  DW_CFA_restore_state
  DW_CFA_advance_loc: 46 to 0000000000421e90
  DW_CFA_remember_state
  DW_CFA_def_cfa_offset: 56
  DW_CFA_advance_loc: 8 to 0000000000421e98
  DW_CFA_def_cfa_offset: 48
  DW_CFA_advance_loc: 1 to 0000000000421e99
  DW_CFA_def_cfa_offset: 40
  DW_CFA_advance_loc: 2 to 0000000000421e9b
  DW_CFA_def_cfa_offset: 32
  DW_CFA_advance_loc: 2 to 0000000000421e9d
  DW_CFA_def_cfa_offset: 24
  DW_CFA_advance_loc: 2 to 0000000000421e9f
  DW_CFA_def_cfa_offset: 16
  DW_CFA_advance_loc: 2 to 0000000000421ea1
  DW_CFA_def_cfa_offset: 8
  DW_CFA_advance_loc: 5 to 0000000000421ea6
  DW_CFA_restore_state
  DW_CFA_advance_loc: 56 to 0000000000421ede
  DW_CFA_remember_state
  DW_CFA_def_cfa_offset: 56
  DW_CFA_advance_loc: 8 to 0000000000421ee6
  DW_CFA_def_cfa_offset: 48
  DW_CFA_advance_loc: 1 to 0000000000421ee7
  DW_CFA_def_cfa_offset: 40
  DW_CFA_advance_loc: 2 to 0000000000421ee9
  DW_CFA_def_cfa_offset: 32
  DW_CFA_advance_loc: 2 to 0000000000421eeb
  DW_CFA_def_cfa_offset: 24
  DW_CFA_advance_loc: 2 to 0000000000421eed
  DW_CFA_def_cfa_offset: 16
  DW_CFA_advance_loc: 2 to 0000000000421eef
  DW_CFA_def_cfa_offset: 8
  DW_CFA_advance_loc: 5 to 0000000000421ef4
  DW_CFA_restore_state
  DW_CFA_advance_loc: 46 to 0000000000421f22
  DW_CFA_remember_state
  DW_CFA_def_cfa_offset: 56
  DW_CFA_advance_loc: 8 to 0000000000421f2a
  DW_CFA_def_cfa_offset: 48
  DW_CFA_advance_loc: 1 to 0000000000421f2b
  DW_CFA_def_cfa_offset: 40
  DW_CFA_advance_loc: 2 to 0000000000421f2d
  DW_CFA_def_cfa_offset: 32
  DW_CFA_advance_loc: 2 to 0000000000421f2f
  DW_CFA_def_cfa_offset: 24
  DW_CFA_advance_loc: 2 to 0000000000421f31
  DW_CFA_def_cfa_offset: 16
  DW_CFA_advance_loc: 2 to 0000000000421f33
  DW_CFA_def_cfa_offset: 8
  DW_CFA_advance_loc: 5 to 0000000000421f38
  DW_CFA_restore_state
  DW_CFA_advance_loc: 56 to 0000000000421f70
  DW_CFA_remember_state
  DW_CFA_def_cfa_offset: 56
  DW_CFA_advance_loc: 8 to 0000000000421f78
  DW_CFA_def_cfa_offset: 48
  DW_CFA_advance_loc: 1 to 0000000000421f79
  DW_CFA_def_cfa_offset: 40
  DW_CFA_advance_loc: 2 to 0000000000421f7b
  DW_CFA_def_cfa_offset: 32
  DW_CFA_advance_loc: 2 to 0000000000421f7d
  DW_CFA_def_cfa_offset: 24
  DW_CFA_advance_loc: 2 to 0000000000421f7f
  DW_CFA_def_cfa_offset: 16
  DW_CFA_advance_loc: 2 to 0000000000421f81
  DW_CFA_def_cfa_offset: 8
  DW_CFA_advance_loc: 5 to 0000000000421f86
  DW_CFA_restore_state
  DW_CFA_advance_loc: 46 to 0000000000421fb4
  DW_CFA_remember_state
  DW_CFA_def_cfa_offset: 56
  DW_CFA_advance_loc: 8 to 0000000000421fbc
  DW_CFA_def_cfa_offset: 48
  DW_CFA_advance_loc: 1 to 0000000000421fbd
  DW_CFA_def_cfa_offset: 40
  DW_CFA_advance_loc: 2 to 0000000000421fbf
  DW_CFA_def_cfa_offset: 32
  DW_CFA_advance_loc: 2 to 0000000000421fc1
  DW_CFA_def_cfa_offset: 24
  DW_CFA_advance_loc: 2 to 0000000000421fc3
  DW_CFA_def_cfa_offset: 16
  DW_CFA_advance_loc: 2 to 0000000000421fc5
  DW_CFA_def_cfa_offset: 8
  DW_CFA_advance_loc: 5 to 0000000000421fca
  DW_CFA_restore_state
  DW_CFA_advance_loc: 56 to 0000000000422002
  DW_CFA_remember_state
  DW_CFA_def_cfa_offset: 56
  DW_CFA_advance_loc: 8 to 000000000042200a
  DW_CFA_def_cfa_offset: 48
  DW_CFA_advance_loc: 1 to 000000000042200b
  DW_CFA_def_cfa_offset: 40
  DW_CFA_advance_loc: 2 to 000000000042200d
  DW_CFA_def_cfa_offset: 32
  DW_CFA_advance_loc: 2 to 000000000042200f
  DW_CFA_def_cfa_offset: 24
  DW_CFA_advance_loc: 2 to 0000000000422011
  DW_CFA_def_cfa_offset: 16
  DW_CFA_advance_loc: 2 to 0000000000422013
  DW_CFA_def_cfa_offset: 8
  DW_CFA_advance_loc: 5 to 0000000000422018
  DW_CFA_restore_state
  DW_CFA_advance_loc: 46 to 0000000000422046
  DW_CFA_remember_state
  DW_CFA_def_cfa_offset: 56
  DW_CFA_advance_loc: 8 to 000000000042204e
  DW_CFA_def_cfa_offset: 48
  DW_CFA_advance_loc: 1 to 000000000042204f
  DW_CFA_def_cfa_offset: 40
  DW_CFA_advance_loc: 2 to 0000000000422051
  DW_CFA_def_cfa_offset: 32
  DW_CFA_advance_loc: 2 to 0000000000422053
  DW_CFA_def_cfa_offset: 24
  DW_CFA_advance_loc: 2 to 0000000000422055
  DW_CFA_def_cfa_offset: 16
  DW_CFA_advance_loc: 2 to 0000000000422057
  DW_CFA_def_cfa_offset: 8
  DW_CFA_advance_loc: 5 to 000000000042205c
  DW_CFA_restore_state
  DW_CFA_advance_loc: 56 to 0000000000422094
  DW_CFA_remember_state
  DW_CFA_def_cfa_offset: 56
  DW_CFA_advance_loc: 8 to 000000000042209c
  DW_CFA_def_cfa_offset: 48
  DW_CFA_advance_loc: 1 to 000000000042209d
  DW_CFA_def_cfa_offset: 40
  DW_CFA_advance_loc: 2 to 000000000042209f
  DW_CFA_def_cfa_offset: 32
  DW_CFA_advance_loc: 2 to 00000000004220a1
  DW_CFA_def_cfa_offset: 24
  DW_CFA_advance_loc: 2 to 00000000004220a3
  DW_CFA_def_cfa_offset: 16
  DW_CFA_advance_loc: 2 to 00000000004220a5
  DW_CFA_def_cfa_offset: 8
  DW_CFA_advance_loc: 5 to 00000000004220aa
  DW_CFA_restore_state
  DW_CFA_advance_loc: 46 to 00000000004220d8
  DW_CFA_remember_state
  DW_CFA_def_cfa_offset: 56
  DW_CFA_advance_loc: 8 to 00000000004220e0
  DW_CFA_def_cfa_offset: 48
  DW_CFA_advance_loc: 1 to 00000000004220e1
  DW_CFA_def_cfa_offset: 40
  DW_CFA_advance_loc: 2 to 00000000004220e3
  DW_CFA_def_cfa_offset: 32
  DW_CFA_advance_loc: 2 to 00000000004220e5
  DW_CFA_def_cfa_offset: 24
  DW_CFA_advance_loc: 2 to 00000000004220e7
  DW_CFA_def_cfa_offset: 16
  DW_CFA_advance_loc: 2 to 00000000004220e9
  DW_CFA_def_cfa_offset: 8
  DW_CFA_advance_loc: 5 to 00000000004220ee
  DW_CFA_restore_state
  DW_CFA_advance_loc: 56 to 0000000000422126
  DW_CFA_remember_state
  DW_CFA_def_cfa_offset: 56
  DW_CFA_advance_loc: 8 to 000000000042212e
  DW_CFA_def_cfa_offset: 48
  DW_CFA_advance_loc: 1 to 000000000042212f
  DW_CFA_def_cfa_offset: 40
  DW_CFA_advance_loc: 2 to 0000000000422131
  DW_CFA_def_cfa_offset: 32
  DW_CFA_advance_loc: 2 to 0000000000422133
  DW_CFA_def_cfa_offset: 24
  DW_CFA_advance_loc: 2 to 0000000000422135
  DW_CFA_def_cfa_offset: 16
  DW_CFA_advance_loc: 2 to 0000000000422137
  DW_CFA_def_cfa_offset: 8
  DW_CFA_advance_loc: 5 to 000000000042213c
  DW_CFA_restore_state
  DW_CFA_advance_loc: 46 to 000000000042216a
  DW_CFA_remember_state
  DW_CFA_def_cfa_offset: 56
  DW_CFA_advance_loc: 8 to 0000000000422172
  DW_CFA_def_cfa_offset: 48
  DW_CFA_advance_loc: 1 to 0000000000422173
  DW_CFA_def_cfa_offset: 40
  DW_CFA_advance_loc: 2 to 0000000000422175
  DW_CFA_def_cfa_offset: 32
  DW_CFA_advance_loc: 2 to 0000000000422177
  DW_CFA_def_cfa_offset: 24
  DW_CFA_advance_loc: 2 to 0000000000422179
  DW_CFA_def_cfa_offset: 16
  DW_CFA_advance_loc: 2 to 000000000042217b
  DW_CFA_def_cfa_offset: 8
  DW_CFA_advance_loc: 5 to 0000000000422180
  DW_CFA_restore_state
  DW_CFA_advance_loc: 56 to 00000000004221b8
  DW_CFA_remember_state
  DW_CFA_def_cfa_offset: 56
  DW_CFA_advance_loc: 8 to 00000000004221c0
  DW_CFA_def_cfa_offset: 48
  DW_CFA_advance_loc: 1 to 00000000004221c1
  DW_CFA_def_cfa_offset: 40
  DW_CFA_advance_loc: 2 to 00000000004221c3
  DW_CFA_def_cfa_offset: 32
  DW_CFA_advance_loc: 2 to 00000000004221c5
  DW_CFA_def_cfa_offset: 24
  DW_CFA_advance_loc: 2 to 00000000004221c7
  DW_CFA_def_cfa_offset: 16
  DW_CFA_advance_loc: 2 to 00000000004221c9
  DW_CFA_def_cfa_offset: 8
  DW_CFA_advance_loc: 5 to 00000000004221ce
  DW_CFA_restore_state
  DW_CFA_advance_loc: 46 to 00000000004221fc
  DW_CFA_remember_state
  DW_CFA_def_cfa_offset: 56
  DW_CFA_advance_loc: 8 to 0000000000422204
  DW_CFA_def_cfa_offset: 48
  DW_CFA_advance_loc: 1 to 0000000000422205
  DW_CFA_def_cfa_offset: 40
  DW_CFA_advance_loc: 2 to 0000000000422207
  DW_CFA_def_cfa_offset: 32
  DW_CFA_advance_loc: 2 to 0000000000422209
  DW_CFA_def_cfa_offset: 24
  DW_CFA_advance_loc: 2 to 000000000042220b
  DW_CFA_def_cfa_offset: 16
  DW_CFA_advance_loc: 2 to 000000000042220d
  DW_CFA_def_cfa_offset: 8
  DW_CFA_advance_loc: 5 to 0000000000422212
  DW_CFA_restore_state
  DW_CFA_advance_loc: 56 to 000000000042224a
  DW_CFA_remember_state
  DW_CFA_def_cfa_offset: 56
  DW_CFA_advance_loc: 8 to 0000000000422252
  DW_CFA_def_cfa_offset: 48
  DW_CFA_advance_loc: 1 to 0000000000422253
  DW_CFA_def_cfa_offset: 40
  DW_CFA_advance_loc: 2 to 0000000000422255
  DW_CFA_def_cfa_offset: 32
  DW_CFA_advance_loc: 2 to 0000000000422257
  DW_CFA_def_cfa_offset: 24
  DW_CFA_advance_loc: 2 to 0000000000422259
  DW_CFA_def_cfa_offset: 16
  DW_CFA_advance_loc: 2 to 000000000042225b
  DW_CFA_def_cfa_offset: 8
  DW_CFA_advance_loc: 5 to 0000000000422260
  DW_CFA_restore_state
  DW_CFA_advance_loc: 46 to 000000000042228e
  DW_CFA_remember_state
  DW_CFA_def_cfa_offset: 56
  DW_CFA_advance_loc: 8 to 0000000000422296
  DW_CFA_def_cfa_offset: 48
  DW_CFA_advance_loc: 1 to 0000000000422297
  DW_CFA_def_cfa_offset: 40
  DW_CFA_advance_loc: 2 to 0000000000422299
  DW_CFA_def_cfa_offset: 32
  DW_CFA_advance_loc: 2 to 000000000042229b
  DW_CFA_def_cfa_offset: 24
  DW_CFA_advance_loc: 2 to 000000000042229d
  DW_CFA_def_cfa_offset: 16
  DW_CFA_advance_loc: 2 to 000000000042229f
  DW_CFA_def_cfa_offset: 8
  DW_CFA_advance_loc: 5 to 00000000004222a4
  DW_CFA_restore_state
  DW_CFA_advance_loc: 56 to 00000000004222dc
  DW_CFA_remember_state
  DW_CFA_def_cfa_offset: 56
  DW_CFA_advance_loc: 8 to 00000000004222e4
  DW_CFA_def_cfa_offset: 48
  DW_CFA_advance_loc: 1 to 00000000004222e5
  DW_CFA_def_cfa_offset: 40
  DW_CFA_advance_loc: 2 to 00000000004222e7
  DW_CFA_def_cfa_offset: 32
  DW_CFA_advance_loc: 2 to 00000000004222e9
  DW_CFA_def_cfa_offset: 24
  DW_CFA_advance_loc: 2 to 00000000004222eb
  DW_CFA_def_cfa_offset: 16
  DW_CFA_advance_loc: 2 to 00000000004222ed
  DW_CFA_def_cfa_offset: 8
  DW_CFA_advance_loc: 5 to 00000000004222f2
  DW_CFA_restore_state
  DW_CFA_advance_loc: 46 to 0000000000422320
  DW_CFA_remember_state
  DW_CFA_def_cfa_offset: 56
  DW_CFA_advance_loc: 8 to 0000000000422328
  DW_CFA_def_cfa_offset: 48
  DW_CFA_advance_loc: 1 to 0000000000422329
  DW_CFA_def_cfa_offset: 40
  DW_CFA_advance_loc: 2 to 000000000042232b
  DW_CFA_def_cfa_offset: 32
  DW_CFA_advance_loc: 2 to 000000000042232d
  DW_CFA_def_cfa_offset: 24
  DW_CFA_advance_loc: 2 to 000000000042232f
  DW_CFA_def_cfa_offset: 16
  DW_CFA_advance_loc: 2 to 0000000000422331
  DW_CFA_def_cfa_offset: 8
  DW_CFA_advance_loc: 5 to 0000000000422336
  DW_CFA_restore_state
  DW_CFA_advance_loc: 56 to 000000000042236e
  DW_CFA_remember_state
  DW_CFA_def_cfa_offset: 56
  DW_CFA_advance_loc: 8 to 0000000000422376
  DW_CFA_def_cfa_offset: 48
  DW_CFA_advance_loc: 1 to 0000000000422377
  DW_CFA_def_cfa_offset: 40
  DW_CFA_advance_loc: 2 to 0000000000422379
  DW_CFA_def_cfa_offset: 32
  DW_CFA_advance_loc: 2 to 000000000042237b
  DW_CFA_def_cfa_offset: 24
  DW_CFA_advance_loc: 2 to 000000000042237d
  DW_CFA_def_cfa_offset: 16
  DW_CFA_advance_loc: 2 to 000000000042237f
  DW_CFA_def_cfa_offset: 8
  DW_CFA_advance_loc: 5 to 0000000000422384
  DW_CFA_restore_state
  DW_CFA_advance_loc: 46 to 00000000004223b2
  DW_CFA_remember_state
  DW_CFA_def_cfa_offset: 56
  DW_CFA_advance_loc: 8 to 00000000004223ba
  DW_CFA_def_cfa_offset: 48
  DW_CFA_advance_loc: 1 to 00000000004223bb
  DW_CFA_def_cfa_offset: 40
  DW_CFA_advance_loc: 2 to 00000000004223bd
  DW_CFA_def_cfa_offset: 32
  DW_CFA_advance_loc: 2 to 00000000004223bf
  DW_CFA_def_cfa_offset: 24
  DW_CFA_advance_loc: 2 to 00000000004223c1
  DW_CFA_def_cfa_offset: 16
  DW_CFA_advance_loc: 2 to 00000000004223c3
  DW_CFA_def_cfa_offset: 8
  DW_CFA_advance_loc: 5 to 00000000004223c8
  DW_CFA_restore_state
  DW_CFA_advance_loc: 56 to 0000000000422400
  DW_CFA_remember_state
  DW_CFA_def_cfa_offset: 56
  DW_CFA_advance_loc: 8 to 0000000000422408
  DW_CFA_def_cfa_offset: 48
  DW_CFA_advance_loc: 1 to 0000000000422409
  DW_CFA_def_cfa_offset: 40
  DW_CFA_advance_loc: 2 to 000000000042240b
  DW_CFA_def_cfa_offset: 32
  DW_CFA_advance_loc: 2 to 000000000042240d
  DW_CFA_def_cfa_offset: 24
  DW_CFA_advance_loc: 2 to 000000000042240f
  DW_CFA_def_cfa_offset: 16
  DW_CFA_advance_loc: 2 to 0000000000422411
  DW_CFA_def_cfa_offset: 8
  DW_CFA_advance_loc: 5 to 0000000000422416
  DW_CFA_restore_state
  DW_CFA_advance_loc: 46 to 0000000000422444
  DW_CFA_remember_state
  DW_CFA_def_cfa_offset: 56
  DW_CFA_advance_loc: 8 to 000000000042244c
  DW_CFA_def_cfa_offset: 48
  DW_CFA_advance_loc: 1 to 000000000042244d
  DW_CFA_def_cfa_offset: 40
  DW_CFA_advance_loc: 2 to 000000000042244f
  DW_CFA_def_cfa_offset: 32
  DW_CFA_advance_loc: 2 to 0000000000422451
  DW_CFA_def_cfa_offset: 24
  DW_CFA_advance_loc: 2 to 0000000000422453
  DW_CFA_def_cfa_offset: 16
  DW_CFA_advance_loc: 2 to 0000000000422455
  DW_CFA_def_cfa_offset: 8
  DW_CFA_advance_loc: 5 to 000000000042245a
  DW_CFA_restore_state
  DW_CFA_advance_loc: 56 to 0000000000422492
  DW_CFA_remember_state
  DW_CFA_def_cfa_offset: 56
  DW_CFA_advance_loc: 8 to 000000000042249a
  DW_CFA_def_cfa_offset: 48
  DW_CFA_advance_loc: 1 to 000000000042249b
  DW_CFA_def_cfa_offset: 40
  DW_CFA_advance_loc: 2 to 000000000042249d
  DW_CFA_def_cfa_offset: 32
  DW_CFA_advance_loc: 2 to 000000000042249f
  DW_CFA_def_cfa_offset: 24
  DW_CFA_advance_loc: 2 to 00000000004224a1
  DW_CFA_def_cfa_offset: 16
  DW_CFA_advance_loc: 2 to 00000000004224a3
  DW_CFA_def_cfa_offset: 8
  DW_CFA_advance_loc: 5 to 00000000004224a8
  DW_CFA_restore_state
  DW_CFA_advance_loc: 46 to 00000000004224d6
  DW_CFA_remember_state
  DW_CFA_def_cfa_offset: 56
  DW_CFA_advance_loc: 8 to 00000000004224de
  DW_CFA_def_cfa_offset: 48
  DW_CFA_advance_loc: 1 to 00000000004224df
  DW_CFA_def_cfa_offset: 40
  DW_CFA_advance_loc: 2 to 00000000004224e1
  DW_CFA_def_cfa_offset: 32
  DW_CFA_advance_loc: 2 to 00000000004224e3
  DW_CFA_def_cfa_offset: 24
  DW_CFA_advance_loc: 2 to 00000000004224e5
  DW_CFA_def_cfa_offset: 16
  DW_CFA_advance_loc: 2 to 00000000004224e7
  DW_CFA_def_cfa_offset: 8
  DW_CFA_advance_loc: 5 to 00000000004224ec
  DW_CFA_restore_state
  DW_CFA_advance_loc: 56 to 0000000000422524
  DW_CFA_remember_state
  DW_CFA_def_cfa_offset: 56
  DW_CFA_advance_loc: 8 to 000000000042252c
  DW_CFA_def_cfa_offset: 48
  DW_CFA_advance_loc: 1 to 000000000042252d
  DW_CFA_def_cfa_offset: 40
  DW_CFA_advance_loc: 2 to 000000000042252f
  DW_CFA_def_cfa_offset: 32
  DW_CFA_advance_loc: 2 to 0000000000422531
  DW_CFA_def_cfa_offset: 24
  DW_CFA_advance_loc: 2 to 0000000000422533
  DW_CFA_def_cfa_offset: 16
  DW_CFA_advance_loc: 2 to 0000000000422535
  DW_CFA_def_cfa_offset: 8
  DW_CFA_advance_loc: 5 to 000000000042253a
  DW_CFA_restore_state
  DW_CFA_advance_loc: 46 to 0000000000422568
  DW_CFA_remember_state
  DW_CFA_def_cfa_offset: 56
  DW_CFA_advance_loc: 8 to 0000000000422570
  DW_CFA_def_cfa_offset: 48
  DW_CFA_advance_loc: 1 to 0000000000422571
  DW_CFA_def_cfa_offset: 40
  DW_CFA_advance_loc: 2 to 0000000000422573
  DW_CFA_def_cfa_offset: 32
  DW_CFA_advance_loc: 2 to 0000000000422575
  DW_CFA_def_cfa_offset: 24
  DW_CFA_advance_loc: 2 to 0000000000422577
  DW_CFA_def_cfa_offset: 16
  DW_CFA_advance_loc: 2 to 0000000000422579
  DW_CFA_def_cfa_offset: 8
  DW_CFA_advance_loc: 5 to 000000000042257e
  DW_CFA_restore_state
  DW_CFA_advance_loc: 56 to 00000000004225b6
  DW_CFA_remember_state
  DW_CFA_def_cfa_offset: 56
  DW_CFA_advance_loc: 8 to 00000000004225be
  DW_CFA_def_cfa_offset: 48
  DW_CFA_advance_loc: 1 to 00000000004225bf
  DW_CFA_def_cfa_offset: 40
  DW_CFA_advance_loc: 2 to 00000000004225c1
  DW_CFA_def_cfa_offset: 32
  DW_CFA_advance_loc: 2 to 00000000004225c3
  DW_CFA_def_cfa_offset: 24
  DW_CFA_advance_loc: 2 to 00000000004225c5
  DW_CFA_def_cfa_offset: 16
  DW_CFA_advance_loc: 2 to 00000000004225c7
  DW_CFA_def_cfa_offset: 8
  DW_CFA_advance_loc: 5 to 00000000004225cc
  DW_CFA_restore_state
  DW_CFA_advance_loc: 46 to 00000000004225fa
  DW_CFA_remember_state
  DW_CFA_def_cfa_offset: 56
  DW_CFA_advance_loc: 8 to 0000000000422602
  DW_CFA_def_cfa_offset: 48
  DW_CFA_advance_loc: 1 to 0000000000422603
  DW_CFA_def_cfa_offset: 40
  DW_CFA_advance_loc: 2 to 0000000000422605
  DW_CFA_def_cfa_offset: 32
  DW_CFA_advance_loc: 2 to 0000000000422607
  DW_CFA_def_cfa_offset: 24
  DW_CFA_advance_loc: 2 to 0000000000422609
  DW_CFA_def_cfa_offset: 16
  DW_CFA_advance_loc: 2 to 000000000042260b
  DW_CFA_def_cfa_offset: 8
  DW_CFA_advance_loc: 5 to 0000000000422610
  DW_CFA_restore_state
  DW_CFA_advance_loc: 56 to 0000000000422648
  DW_CFA_remember_state
  DW_CFA_def_cfa_offset: 56
  DW_CFA_advance_loc: 8 to 0000000000422650
  DW_CFA_def_cfa_offset: 48
  DW_CFA_advance_loc: 1 to 0000000000422651
  DW_CFA_def_cfa_offset: 40
  DW_CFA_advance_loc: 2 to 0000000000422653
  DW_CFA_def_cfa_offset: 32
  DW_CFA_advance_loc: 2 to 0000000000422655
  DW_CFA_def_cfa_offset: 24
  DW_CFA_advance_loc: 2 to 0000000000422657
  DW_CFA_def_cfa_offset: 16
  DW_CFA_advance_loc: 2 to 0000000000422659
  DW_CFA_def_cfa_offset: 8
  DW_CFA_advance_loc: 5 to 000000000042265e
  DW_CFA_restore_state
  DW_CFA_advance_loc: 46 to 000000000042268c
  DW_CFA_remember_state
  DW_CFA_def_cfa_offset: 56
  DW_CFA_advance_loc: 8 to 0000000000422694
  DW_CFA_def_cfa_offset: 48
  DW_CFA_advance_loc: 1 to 0000000000422695
  DW_CFA_def_cfa_offset: 40
  DW_CFA_advance_loc: 2 to 0000000000422697
  DW_CFA_def_cfa_offset: 32
  DW_CFA_advance_loc: 2 to 0000000000422699
  DW_CFA_def_cfa_offset: 24
  DW_CFA_advance_loc: 2 to 000000000042269b
  DW_CFA_def_cfa_offset: 16
  DW_CFA_advance_loc: 2 to 000000000042269d
  DW_CFA_def_cfa_offset: 8
  DW_CFA_advance_loc: 5 to 00000000004226a2
  DW_CFA_restore_state
  DW_CFA_advance_loc: 56 to 00000000004226da
  DW_CFA_remember_state
  DW_CFA_def_cfa_offset: 56
  DW_CFA_advance_loc: 8 to 00000000004226e2
  DW_CFA_def_cfa_offset: 48
  DW_CFA_advance_loc: 1 to 00000000004226e3
  DW_CFA_def_cfa_offset: 40
  DW_CFA_advance_loc: 2 to 00000000004226e5
  DW_CFA_def_cfa_offset: 32
  DW_CFA_advance_loc: 2 to 00000000004226e7
  DW_CFA_def_cfa_offset: 24
  DW_CFA_advance_loc: 2 to 00000000004226e9
  DW_CFA_def_cfa_offset: 16
  DW_CFA_advance_loc: 2 to 00000000004226eb
  DW_CFA_def_cfa_offset: 8
  DW_CFA_advance_loc: 5 to 00000000004226f0
  DW_CFA_restore_state
  DW_CFA_advance_loc: 46 to 000000000042271e
  DW_CFA_remember_state
  DW_CFA_def_cfa_offset: 56
  DW_CFA_advance_loc: 8 to 0000000000422726
  DW_CFA_def_cfa_offset: 48
  DW_CFA_advance_loc: 1 to 0000000000422727
  DW_CFA_def_cfa_offset: 40
  DW_CFA_advance_loc: 2 to 0000000000422729
  DW_CFA_def_cfa_offset: 32
  DW_CFA_advance_loc: 2 to 000000000042272b
  DW_CFA_def_cfa_offset: 24
  DW_CFA_advance_loc: 2 to 000000000042272d
  DW_CFA_def_cfa_offset: 16
  DW_CFA_advance_loc: 2 to 000000000042272f
  DW_CFA_def_cfa_offset: 8
  DW_CFA_advance_loc: 5 to 0000000000422734
  DW_CFA_restore_state
  DW_CFA_advance_loc: 56 to 000000000042276c
  DW_CFA_remember_state
  DW_CFA_def_cfa_offset: 56
  DW_CFA_advance_loc: 8 to 0000000000422774
  DW_CFA_def_cfa_offset: 48
  DW_CFA_advance_loc: 1 to 0000000000422775
  DW_CFA_def_cfa_offset: 40
  DW_CFA_advance_loc: 2 to 0000000000422777
  DW_CFA_def_cfa_offset: 32
  DW_CFA_advance_loc: 2 to 0000000000422779
  DW_CFA_def_cfa_offset: 24
  DW_CFA_advance_loc: 2 to 000000000042277b
  DW_CFA_def_cfa_offset: 16
  DW_CFA_advance_loc: 2 to 000000000042277d
  DW_CFA_def_cfa_offset: 8
  DW_CFA_advance_loc: 5 to 0000000000422782
  DW_CFA_restore_state
  DW_CFA_advance_loc: 46 to 00000000004227b0
  DW_CFA_remember_state
  DW_CFA_def_cfa_offset: 56
  DW_CFA_advance_loc: 8 to 00000000004227b8
  DW_CFA_def_cfa_offset: 48
  DW_CFA_advance_loc: 1 to 00000000004227b9
  DW_CFA_def_cfa_offset: 40
  DW_CFA_advance_loc: 2 to 00000000004227bb
  DW_CFA_def_cfa_offset: 32
  DW_CFA_advance_loc: 2 to 00000000004227bd
  DW_CFA_def_cfa_offset: 24
  DW_CFA_advance_loc: 2 to 00000000004227bf
  DW_CFA_def_cfa_offset: 16
  DW_CFA_advance_loc: 2 to 00000000004227c1
  DW_CFA_def_cfa_offset: 8
  DW_CFA_advance_loc: 5 to 00000000004227c6
  DW_CFA_restore_state
  DW_CFA_advance_loc: 56 to 00000000004227fe
  DW_CFA_remember_state
  DW_CFA_def_cfa_offset: 56
  DW_CFA_advance_loc: 8 to 0000000000422806
  DW_CFA_def_cfa_offset: 48
  DW_CFA_advance_loc: 1 to 0000000000422807
  DW_CFA_def_cfa_offset: 40
  DW_CFA_advance_loc: 2 to 0000000000422809
  DW_CFA_def_cfa_offset: 32
  DW_CFA_advance_loc: 2 to 000000000042280b
  DW_CFA_def_cfa_offset: 24
  DW_CFA_advance_loc: 2 to 000000000042280d
  DW_CFA_def_cfa_offset: 16
  DW_CFA_advance_loc: 2 to 000000000042280f
  DW_CFA_def_cfa_offset: 8
  DW_CFA_advance_loc: 5 to 0000000000422814
  DW_CFA_restore_state
  DW_CFA_advance_loc: 46 to 0000000000422842
  DW_CFA_remember_state
  DW_CFA_def_cfa_offset: 56
  DW_CFA_advance_loc: 8 to 000000000042284a
  DW_CFA_def_cfa_offset: 48
  DW_CFA_advance_loc: 1 to 000000000042284b
  DW_CFA_def_cfa_offset: 40
  DW_CFA_advance_loc: 2 to 000000000042284d
  DW_CFA_def_cfa_offset: 32
  DW_CFA_advance_loc: 2 to 000000000042284f
  DW_CFA_def_cfa_offset: 24
  DW_CFA_advance_loc: 2 to 0000000000422851
  DW_CFA_def_cfa_offset: 16
  DW_CFA_advance_loc: 2 to 0000000000422853
  DW_CFA_def_cfa_offset: 8
  DW_CFA_advance_loc: 5 to 0000000000422858
  DW_CFA_restore_state
  DW_CFA_advance_loc: 56 to 0000000000422890
  DW_CFA_remember_state
  DW_CFA_def_cfa_offset: 56
  DW_CFA_advance_loc: 8 to 0000000000422898
  DW_CFA_def_cfa_offset: 48
  DW_CFA_advance_loc: 1 to 0000000000422899
  DW_CFA_def_cfa_offset: 40
  DW_CFA_advance_loc: 2 to 000000000042289b
  DW_CFA_def_cfa_offset: 32
  DW_CFA_advance_loc: 2 to 000000000042289d
  DW_CFA_def_cfa_offset: 24
  DW_CFA_advance_loc: 2 to 000000000042289f
  DW_CFA_def_cfa_offset: 16
  DW_CFA_advance_loc: 2 to 00000000004228a1
  DW_CFA_def_cfa_offset: 8
  DW_CFA_advance_loc: 5 to 00000000004228a6
  DW_CFA_restore_state
  DW_CFA_advance_loc: 46 to 00000000004228d4
  DW_CFA_remember_state
  DW_CFA_def_cfa_offset: 56
  DW_CFA_advance_loc: 8 to 00000000004228dc
  DW_CFA_def_cfa_offset: 48
  DW_CFA_advance_loc: 1 to 00000000004228dd
  DW_CFA_def_cfa_offset: 40
  DW_CFA_advance_loc: 2 to 00000000004228df
  DW_CFA_def_cfa_offset: 32
  DW_CFA_advance_loc: 2 to 00000000004228e1
  DW_CFA_def_cfa_offset: 24
  DW_CFA_advance_loc: 2 to 00000000004228e3
  DW_CFA_def_cfa_offset: 16
  DW_CFA_advance_loc: 2 to 00000000004228e5
  DW_CFA_def_cfa_offset: 8
  DW_CFA_advance_loc: 5 to 00000000004228ea
  DW_CFA_restore_state
  DW_CFA_advance_loc: 56 to 0000000000422922
  DW_CFA_remember_state
  DW_CFA_def_cfa_offset: 56
  DW_CFA_advance_loc: 8 to 000000000042292a
  DW_CFA_def_cfa_offset: 48
  DW_CFA_advance_loc: 1 to 000000000042292b
  DW_CFA_def_cfa_offset: 40
  DW_CFA_advance_loc: 2 to 000000000042292d
  DW_CFA_def_cfa_offset: 32
  DW_CFA_advance_loc: 2 to 000000000042292f
  DW_CFA_def_cfa_offset: 24
  DW_CFA_advance_loc: 2 to 0000000000422931
  DW_CFA_def_cfa_offset: 16
  DW_CFA_advance_loc: 2 to 0000000000422933
  DW_CFA_def_cfa_offset: 8
  DW_CFA_advance_loc: 5 to 0000000000422938
  DW_CFA_restore_state
  DW_CFA_advance_loc: 46 to 0000000000422966
  DW_CFA_remember_state
  DW_CFA_def_cfa_offset: 56
  DW_CFA_advance_loc: 8 to 000000000042296e
  DW_CFA_def_cfa_offset: 48
  DW_CFA_advance_loc: 1 to 000000000042296f
  DW_CFA_def_cfa_offset: 40
  DW_CFA_advance_loc: 2 to 0000000000422971
  DW_CFA_def_cfa_offset: 32
  DW_CFA_advance_loc: 2 to 0000000000422973
  DW_CFA_def_cfa_offset: 24
  DW_CFA_advance_loc: 2 to 0000000000422975
  DW_CFA_def_cfa_offset: 16
  DW_CFA_advance_loc: 2 to 0000000000422977
  DW_CFA_def_cfa_offset: 8
  DW_CFA_advance_loc: 5 to 000000000042297c
  DW_CFA_restore_state
  DW_CFA_advance_loc: 56 to 00000000004229b4
  DW_CFA_remember_state
  DW_CFA_def_cfa_offset: 56
  DW_CFA_advance_loc: 8 to 00000000004229bc
  DW_CFA_def_cfa_offset: 48
  DW_CFA_advance_loc: 1 to 00000000004229bd
  DW_CFA_def_cfa_offset: 40
  DW_CFA_advance_loc: 2 to 00000000004229bf
  DW_CFA_def_cfa_offset: 32
  DW_CFA_advance_loc: 2 to 00000000004229c1
  DW_CFA_def_cfa_offset: 24
  DW_CFA_advance_loc: 2 to 00000000004229c3
  DW_CFA_def_cfa_offset: 16
  DW_CFA_advance_loc: 2 to 00000000004229c5
  DW_CFA_def_cfa_offset: 8
  DW_CFA_advance_loc: 5 to 00000000004229ca
  DW_CFA_restore_state
  DW_CFA_advance_loc: 46 to 00000000004229f8
  DW_CFA_remember_state
  DW_CFA_def_cfa_offset: 56
  DW_CFA_advance_loc: 8 to 0000000000422a00
  DW_CFA_def_cfa_offset: 48
  DW_CFA_advance_loc: 1 to 0000000000422a01
  DW_CFA_def_cfa_offset: 40
  DW_CFA_advance_loc: 2 to 0000000000422a03
  DW_CFA_def_cfa_offset: 32
  DW_CFA_advance_loc: 2 to 0000000000422a05
  DW_CFA_def_cfa_offset: 24
  DW_CFA_advance_loc: 2 to 0000000000422a07
  DW_CFA_def_cfa_offset: 16
  DW_CFA_advance_loc: 2 to 0000000000422a09
  DW_CFA_def_cfa_offset: 8
  DW_CFA_advance_loc: 5 to 0000000000422a0e
  DW_CFA_restore_state
  DW_CFA_advance_loc: 56 to 0000000000422a46
  DW_CFA_remember_state
  DW_CFA_def_cfa_offset: 56
  DW_CFA_advance_loc: 8 to 0000000000422a4e
  DW_CFA_def_cfa_offset: 48
  DW_CFA_advance_loc: 1 to 0000000000422a4f
  DW_CFA_def_cfa_offset: 40
  DW_CFA_advance_loc: 2 to 0000000000422a51
  DW_CFA_def_cfa_offset: 32
  DW_CFA_advance_loc: 2 to 0000000000422a53
  DW_CFA_def_cfa_offset: 24
  DW_CFA_advance_loc: 2 to 0000000000422a55
  DW_CFA_def_cfa_offset: 16
  DW_CFA_advance_loc: 2 to 0000000000422a57
  DW_CFA_def_cfa_offset: 8
  DW_CFA_advance_loc: 5 to 0000000000422a5c
  DW_CFA_restore_state
  DW_CFA_advance_loc: 46 to 0000000000422a8a
  DW_CFA_remember_state
  DW_CFA_def_cfa_offset: 56
  DW_CFA_advance_loc: 8 to 0000000000422a92
  DW_CFA_def_cfa_offset: 48
  DW_CFA_advance_loc: 1 to 0000000000422a93
  DW_CFA_def_cfa_offset: 40
  DW_CFA_advance_loc: 2 to 0000000000422a95
  DW_CFA_def_cfa_offset: 32
  DW_CFA_advance_loc: 2 to 0000000000422a97
  DW_CFA_def_cfa_offset: 24
  DW_CFA_advance_loc: 2 to 0000000000422a99
  DW_CFA_def_cfa_offset: 16
  DW_CFA_advance_loc: 2 to 0000000000422a9b
  DW_CFA_def_cfa_offset: 8
  DW_CFA_advance_loc: 5 to 0000000000422aa0
  DW_CFA_restore_state
  DW_CFA_advance_loc: 56 to 0000000000422ad8
  DW_CFA_remember_state
  DW_CFA_def_cfa_offset: 56
  DW_CFA_advance_loc: 8 to 0000000000422ae0
  DW_CFA_def_cfa_offset: 48
  DW_CFA_advance_loc: 1 to 0000000000422ae1
  DW_CFA_def_cfa_offset: 40
  DW_CFA_advance_loc: 2 to 0000000000422ae3
  DW_CFA_def_cfa_offset: 32
  DW_CFA_advance_loc: 2 to 0000000000422ae5
  DW_CFA_def_cfa_offset: 24
  DW_CFA_advance_loc: 2 to 0000000000422ae7
  DW_CFA_def_cfa_offset: 16
  DW_CFA_advance_loc: 2 to 0000000000422ae9
  DW_CFA_def_cfa_offset: 8
  DW_CFA_advance_loc: 5 to 0000000000422aee
  DW_CFA_restore_state
  DW_CFA_advance_loc: 46 to 0000000000422b1c
  DW_CFA_remember_state
  DW_CFA_def_cfa_offset: 56
  DW_CFA_advance_loc: 8 to 0000000000422b24
  DW_CFA_def_cfa_offset: 48
  DW_CFA_advance_loc: 1 to 0000000000422b25
  DW_CFA_def_cfa_offset: 40
  DW_CFA_advance_loc: 2 to 0000000000422b27
  DW_CFA_def_cfa_offset: 32
  DW_CFA_advance_loc: 2 to 0000000000422b29
  DW_CFA_def_cfa_offset: 24
  DW_CFA_advance_loc: 2 to 0000000000422b2b
  DW_CFA_def_cfa_offset: 16
  DW_CFA_advance_loc: 2 to 0000000000422b2d
  DW_CFA_def_cfa_offset: 8
  DW_CFA_advance_loc: 5 to 0000000000422b32
  DW_CFA_restore_state
  DW_CFA_advance_loc: 56 to 0000000000422b6a
  DW_CFA_remember_state
  DW_CFA_def_cfa_offset: 56
  DW_CFA_advance_loc: 8 to 0000000000422b72
  DW_CFA_def_cfa_offset: 48
  DW_CFA_advance_loc: 1 to 0000000000422b73
  DW_CFA_def_cfa_offset: 40
  DW_CFA_advance_loc: 2 to 0000000000422b75
  DW_CFA_def_cfa_offset: 32
  DW_CFA_advance_loc: 2 to 0000000000422b77
  DW_CFA_def_cfa_offset: 24
  DW_CFA_advance_loc: 2 to 0000000000422b79
  DW_CFA_def_cfa_offset: 16
  DW_CFA_advance_loc: 2 to 0000000000422b7b
  DW_CFA_def_cfa_offset: 8
  DW_CFA_advance_loc: 5 to 0000000000422b80
  DW_CFA_restore_state
  DW_CFA_advance_loc: 46 to 0000000000422bae
  DW_CFA_remember_state
  DW_CFA_def_cfa_offset: 56
  DW_CFA_advance_loc: 8 to 0000000000422bb6
  DW_CFA_def_cfa_offset: 48
  DW_CFA_advance_loc: 1 to 0000000000422bb7
  DW_CFA_def_cfa_offset: 40
  DW_CFA_advance_loc: 2 to 0000000000422bb9
  DW_CFA_def_cfa_offset: 32
  DW_CFA_advance_loc: 2 to 0000000000422bbb
  DW_CFA_def_cfa_offset: 24
  DW_CFA_advance_loc: 2 to 0000000000422bbd
  DW_CFA_def_cfa_offset: 16
  DW_CFA_advance_loc: 2 to 0000000000422bbf
  DW_CFA_def_cfa_offset: 8
  DW_CFA_advance_loc: 5 to 0000000000422bc4
  DW_CFA_restore_state
  DW_CFA_advance_loc: 56 to 0000000000422bfc
  DW_CFA_remember_state
  DW_CFA_def_cfa_offset: 56
  DW_CFA_advance_loc: 8 to 0000000000422c04
  DW_CFA_def_cfa_offset: 48
  DW_CFA_advance_loc: 1 to 0000000000422c05
  DW_CFA_def_cfa_offset: 40
  DW_CFA_advance_loc: 2 to 0000000000422c07
  DW_CFA_def_cfa_offset: 32
  DW_CFA_advance_loc: 2 to 0000000000422c09
  DW_CFA_def_cfa_offset: 24
  DW_CFA_advance_loc: 2 to 0000000000422c0b
  DW_CFA_def_cfa_offset: 16
  DW_CFA_advance_loc: 2 to 0000000000422c0d
  DW_CFA_def_cfa_offset: 8
  DW_CFA_advance_loc: 5 to 0000000000422c12
  DW_CFA_restore_state
  DW_CFA_advance_loc: 46 to 0000000000422c40
  DW_CFA_remember_state
  DW_CFA_def_cfa_offset: 56
  DW_CFA_advance_loc: 8 to 0000000000422c48
  DW_CFA_def_cfa_offset: 48
  DW_CFA_advance_loc: 1 to 0000000000422c49
  DW_CFA_def_cfa_offset: 40
  DW_CFA_advance_loc: 2 to 0000000000422c4b
  DW_CFA_def_cfa_offset: 32
  DW_CFA_advance_loc: 2 to 0000000000422c4d
  DW_CFA_def_cfa_offset: 24
  DW_CFA_advance_loc: 2 to 0000000000422c4f
  DW_CFA_def_cfa_offset: 16
  DW_CFA_advance_loc: 2 to 0000000000422c51
  DW_CFA_def_cfa_offset: 8
  DW_CFA_advance_loc: 5 to 0000000000422c56
  DW_CFA_restore_state
  DW_CFA_advance_loc: 56 to 0000000000422c8e
  DW_CFA_remember_state
  DW_CFA_def_cfa_offset: 56
  DW_CFA_advance_loc: 8 to 0000000000422c96
  DW_CFA_def_cfa_offset: 48
  DW_CFA_advance_loc: 1 to 0000000000422c97
  DW_CFA_def_cfa_offset: 40
  DW_CFA_advance_loc: 2 to 0000000000422c99
  DW_CFA_def_cfa_offset: 32
  DW_CFA_advance_loc: 2 to 0000000000422c9b
  DW_CFA_def_cfa_offset: 24
  DW_CFA_advance_loc: 2 to 0000000000422c9d
  DW_CFA_def_cfa_offset: 16
  DW_CFA_advance_loc: 2 to 0000000000422c9f
  DW_CFA_def_cfa_offset: 8
  DW_CFA_advance_loc: 5 to 0000000000422ca4
  DW_CFA_restore_state
  DW_CFA_advance_loc: 46 to 0000000000422cd2
  DW_CFA_remember_state
  DW_CFA_def_cfa_offset: 56
  DW_CFA_advance_loc: 8 to 0000000000422cda
  DW_CFA_def_cfa_offset: 48
  DW_CFA_advance_loc: 1 to 0000000000422cdb
  DW_CFA_def_cfa_offset: 40
  DW_CFA_advance_loc: 2 to 0000000000422cdd
  DW_CFA_def_cfa_offset: 32
  DW_CFA_advance_loc: 2 to 0000000000422cdf
  DW_CFA_def_cfa_offset: 24
  DW_CFA_advance_loc: 2 to 0000000000422ce1
  DW_CFA_def_cfa_offset: 16
  DW_CFA_advance_loc: 2 to 0000000000422ce3
  DW_CFA_def_cfa_offset: 8
  DW_CFA_advance_loc: 5 to 0000000000422ce8
  DW_CFA_restore_state
  DW_CFA_advance_loc: 56 to 0000000000422d20
  DW_CFA_remember_state
  DW_CFA_def_cfa_offset: 56
  DW_CFA_advance_loc: 8 to 0000000000422d28
  DW_CFA_def_cfa_offset: 48
  DW_CFA_advance_loc: 1 to 0000000000422d29
  DW_CFA_def_cfa_offset: 40
  DW_CFA_advance_loc: 2 to 0000000000422d2b
  DW_CFA_def_cfa_offset: 32
  DW_CFA_advance_loc: 2 to 0000000000422d2d
  DW_CFA_def_cfa_offset: 24
  DW_CFA_advance_loc: 2 to 0000000000422d2f
  DW_CFA_def_cfa_offset: 16
  DW_CFA_advance_loc: 2 to 0000000000422d31
  DW_CFA_def_cfa_offset: 8
  DW_CFA_advance_loc: 5 to 0000000000422d36
  DW_CFA_restore_state
  DW_CFA_advance_loc: 46 to 0000000000422d64
  DW_CFA_remember_state
  DW_CFA_def_cfa_offset: 56
  DW_CFA_advance_loc: 8 to 0000000000422d6c
  DW_CFA_def_cfa_offset: 48
  DW_CFA_advance_loc: 1 to 0000000000422d6d
  DW_CFA_def_cfa_offset: 40
  DW_CFA_advance_loc: 2 to 0000000000422d6f
  DW_CFA_def_cfa_offset: 32
  DW_CFA_advance_loc: 2 to 0000000000422d71
  DW_CFA_def_cfa_offset: 24
  DW_CFA_advance_loc: 2 to 0000000000422d73
  DW_CFA_def_cfa_offset: 16
  DW_CFA_advance_loc: 2 to 0000000000422d75
  DW_CFA_def_cfa_offset: 8
  DW_CFA_advance_loc: 5 to 0000000000422d7a
  DW_CFA_restore_state
  DW_CFA_advance_loc: 56 to 0000000000422db2
  DW_CFA_remember_state
  DW_CFA_def_cfa_offset: 56
  DW_CFA_advance_loc: 8 to 0000000000422dba
  DW_CFA_def_cfa_offset: 48
  DW_CFA_advance_loc: 1 to 0000000000422dbb
  DW_CFA_def_cfa_offset: 40
  DW_CFA_advance_loc: 2 to 0000000000422dbd
  DW_CFA_def_cfa_offset: 32
  DW_CFA_advance_loc: 2 to 0000000000422dbf
  DW_CFA_def_cfa_offset: 24
  DW_CFA_advance_loc: 2 to 0000000000422dc1
  DW_CFA_def_cfa_offset: 16
  DW_CFA_advance_loc: 2 to 0000000000422dc3
  DW_CFA_def_cfa_offset: 8
  DW_CFA_advance_loc: 5 to 0000000000422dc8
  DW_CFA_restore_state
  DW_CFA_advance_loc: 46 to 0000000000422df6
  DW_CFA_remember_state
  DW_CFA_def_cfa_offset: 56
  DW_CFA_advance_loc: 8 to 0000000000422dfe
  DW_CFA_def_cfa_offset: 48
  DW_CFA_advance_loc: 1 to 0000000000422dff
  DW_CFA_def_cfa_offset: 40
  DW_CFA_advance_loc: 2 to 0000000000422e01
  DW_CFA_def_cfa_offset: 32
  DW_CFA_advance_loc: 2 to 0000000000422e03
  DW_CFA_def_cfa_offset: 24
  DW_CFA_advance_loc: 2 to 0000000000422e05
  DW_CFA_def_cfa_offset: 16
  DW_CFA_advance_loc: 2 to 0000000000422e07
  DW_CFA_def_cfa_offset: 8
  DW_CFA_advance_loc: 5 to 0000000000422e0c
  DW_CFA_restore_state
  DW_CFA_advance_loc: 56 to 0000000000422e44
  DW_CFA_remember_state
  DW_CFA_def_cfa_offset: 56
  DW_CFA_advance_loc: 8 to 0000000000422e4c
  DW_CFA_def_cfa_offset: 48
  DW_CFA_advance_loc: 1 to 0000000000422e4d
  DW_CFA_def_cfa_offset: 40
  DW_CFA_advance_loc: 2 to 0000000000422e4f
  DW_CFA_def_cfa_offset: 32
  DW_CFA_advance_loc: 2 to 0000000000422e51
  DW_CFA_def_cfa_offset: 24
  DW_CFA_advance_loc: 2 to 0000000000422e53
  DW_CFA_def_cfa_offset: 16
  DW_CFA_advance_loc: 2 to 0000000000422e55
  DW_CFA_def_cfa_offset: 8
  DW_CFA_advance_loc: 5 to 0000000000422e5a
  DW_CFA_restore_state
  DW_CFA_advance_loc: 46 to 0000000000422e88
  DW_CFA_remember_state
  DW_CFA_def_cfa_offset: 56
  DW_CFA_advance_loc: 8 to 0000000000422e90
  DW_CFA_def_cfa_offset: 48
  DW_CFA_advance_loc: 1 to 0000000000422e91
  DW_CFA_def_cfa_offset: 40
  DW_CFA_advance_loc: 2 to 0000000000422e93
  DW_CFA_def_cfa_offset: 32
  DW_CFA_advance_loc: 2 to 0000000000422e95
  DW_CFA_def_cfa_offset: 24
  DW_CFA_advance_loc: 2 to 0000000000422e97
  DW_CFA_def_cfa_offset: 16
  DW_CFA_advance_loc: 2 to 0000000000422e99
  DW_CFA_def_cfa_offset: 8
  DW_CFA_advance_loc: 5 to 0000000000422e9e
  DW_CFA_restore_state
  DW_CFA_advance_loc: 56 to 0000000000422ed6
  DW_CFA_remember_state
  DW_CFA_def_cfa_offset: 56
  DW_CFA_advance_loc: 8 to 0000000000422ede
  DW_CFA_def_cfa_offset: 48
  DW_CFA_advance_loc: 1 to 0000000000422edf
  DW_CFA_def_cfa_offset: 40
  DW_CFA_advance_loc: 2 to 0000000000422ee1
  DW_CFA_def_cfa_offset: 32
  DW_CFA_advance_loc: 2 to 0000000000422ee3
  DW_CFA_def_cfa_offset: 24
  DW_CFA_advance_loc: 2 to 0000000000422ee5
  DW_CFA_def_cfa_offset: 16
  DW_CFA_advance_loc: 2 to 0000000000422ee7
  DW_CFA_def_cfa_offset: 8
  DW_CFA_advance_loc: 5 to 0000000000422eec
  DW_CFA_restore_state
  DW_CFA_advance_loc: 46 to 0000000000422f1a
  DW_CFA_remember_state
  DW_CFA_def_cfa_offset: 56
  DW_CFA_advance_loc: 8 to 0000000000422f22
  DW_CFA_def_cfa_offset: 48
  DW_CFA_advance_loc: 1 to 0000000000422f23
  DW_CFA_def_cfa_offset: 40
  DW_CFA_advance_loc: 2 to 0000000000422f25
  DW_CFA_def_cfa_offset: 32
  DW_CFA_advance_loc: 2 to 0000000000422f27
  DW_CFA_def_cfa_offset: 24
  DW_CFA_advance_loc: 2 to 0000000000422f29
  DW_CFA_def_cfa_offset: 16
  DW_CFA_advance_loc: 2 to 0000000000422f2b
  DW_CFA_def_cfa_offset: 8
  DW_CFA_advance_loc: 5 to 0000000000422f30
  DW_CFA_restore_state
  DW_CFA_advance_loc: 56 to 0000000000422f68
  DW_CFA_remember_state
  DW_CFA_def_cfa_offset: 56
  DW_CFA_advance_loc: 8 to 0000000000422f70
  DW_CFA_def_cfa_offset: 48
  DW_CFA_advance_loc: 1 to 0000000000422f71
  DW_CFA_def_cfa_offset: 40
  DW_CFA_advance_loc: 2 to 0000000000422f73
  DW_CFA_def_cfa_offset: 32
  DW_CFA_advance_loc: 2 to 0000000000422f75
  DW_CFA_def_cfa_offset: 24
  DW_CFA_advance_loc: 2 to 0000000000422f77
  DW_CFA_def_cfa_offset: 16
  DW_CFA_advance_loc: 2 to 0000000000422f79
  DW_CFA_def_cfa_offset: 8
  DW_CFA_advance_loc: 5 to 0000000000422f7e
  DW_CFA_restore_state
  DW_CFA_advance_loc: 46 to 0000000000422fac
  DW_CFA_remember_state
  DW_CFA_def_cfa_offset: 56
  DW_CFA_advance_loc: 8 to 0000000000422fb4
  DW_CFA_def_cfa_offset: 48
  DW_CFA_advance_loc: 1 to 0000000000422fb5
  DW_CFA_def_cfa_offset: 40
  DW_CFA_advance_loc: 2 to 0000000000422fb7
  DW_CFA_def_cfa_offset: 32
  DW_CFA_advance_loc: 2 to 0000000000422fb9
  DW_CFA_def_cfa_offset: 24
  DW_CFA_advance_loc: 2 to 0000000000422fbb
  DW_CFA_def_cfa_offset: 16
  DW_CFA_advance_loc: 2 to 0000000000422fbd
  DW_CFA_def_cfa_offset: 8
  DW_CFA_advance_loc: 5 to 0000000000422fc2
  DW_CFA_restore_state
  DW_CFA_advance_loc: 56 to 0000000000422ffa
  DW_CFA_remember_state
  DW_CFA_def_cfa_offset: 56
  DW_CFA_advance_loc: 8 to 0000000000423002
  DW_CFA_def_cfa_offset: 48
  DW_CFA_advance_loc: 1 to 0000000000423003
  DW_CFA_def_cfa_offset: 40
  DW_CFA_advance_loc: 2 to 0000000000423005
  DW_CFA_def_cfa_offset: 32
  DW_CFA_advance_loc: 2 to 0000000000423007
  DW_CFA_def_cfa_offset: 24
  DW_CFA_advance_loc: 2 to 0000000000423009
  DW_CFA_def_cfa_offset: 16
  DW_CFA_advance_loc: 2 to 000000000042300b
  DW_CFA_def_cfa_offset: 8
  DW_CFA_advance_loc: 5 to 0000000000423010
  DW_CFA_restore_state
  DW_CFA_advance_loc: 46 to 000000000042303e
  DW_CFA_remember_state
  DW_CFA_def_cfa_offset: 56
  DW_CFA_advance_loc: 8 to 0000000000423046
  DW_CFA_def_cfa_offset: 48
  DW_CFA_advance_loc: 1 to 0000000000423047
  DW_CFA_def_cfa_offset: 40
  DW_CFA_advance_loc: 2 to 0000000000423049
  DW_CFA_def_cfa_offset: 32
  DW_CFA_advance_loc: 2 to 000000000042304b
  DW_CFA_def_cfa_offset: 24
  DW_CFA_advance_loc: 2 to 000000000042304d
  DW_CFA_def_cfa_offset: 16
  DW_CFA_advance_loc: 2 to 000000000042304f
  DW_CFA_def_cfa_offset: 8
  DW_CFA_advance_loc: 5 to 0000000000423054
  DW_CFA_restore_state
  DW_CFA_advance_loc: 56 to 000000000042308c
  DW_CFA_remember_state
  DW_CFA_def_cfa_offset: 56
  DW_CFA_advance_loc: 8 to 0000000000423094
  DW_CFA_def_cfa_offset: 48
  DW_CFA_advance_loc: 1 to 0000000000423095
  DW_CFA_def_cfa_offset: 40
  DW_CFA_advance_loc: 2 to 0000000000423097
  DW_CFA_def_cfa_offset: 32
  DW_CFA_advance_loc: 2 to 0000000000423099
  DW_CFA_def_cfa_offset: 24
  DW_CFA_advance_loc: 2 to 000000000042309b
  DW_CFA_def_cfa_offset: 16
  DW_CFA_advance_loc: 2 to 000000000042309d
  DW_CFA_def_cfa_offset: 8
  DW_CFA_advance_loc: 5 to 00000000004230a2
  DW_CFA_restore_state
  DW_CFA_advance_loc: 46 to 00000000004230d0
  DW_CFA_remember_state
  DW_CFA_def_cfa_offset: 56
  DW_CFA_advance_loc: 8 to 00000000004230d8
  DW_CFA_def_cfa_offset: 48
  DW_CFA_advance_loc: 1 to 00000000004230d9
  DW_CFA_def_cfa_offset: 40
  DW_CFA_advance_loc: 2 to 00000000004230db
  DW_CFA_def_cfa_offset: 32
  DW_CFA_advance_loc: 2 to 00000000004230dd
  DW_CFA_def_cfa_offset: 24
  DW_CFA_advance_loc: 2 to 00000000004230df
  DW_CFA_def_cfa_offset: 16
  DW_CFA_advance_loc: 2 to 00000000004230e1
  DW_CFA_def_cfa_offset: 8
  DW_CFA_advance_loc: 5 to 00000000004230e6
  DW_CFA_restore_state
  DW_CFA_advance_loc: 56 to 000000000042311e
  DW_CFA_remember_state
  DW_CFA_def_cfa_offset: 56
  DW_CFA_advance_loc: 8 to 0000000000423126
  DW_CFA_def_cfa_offset: 48
  DW_CFA_advance_loc: 1 to 0000000000423127
  DW_CFA_def_cfa_offset: 40
  DW_CFA_advance_loc: 2 to 0000000000423129
  DW_CFA_def_cfa_offset: 32
  DW_CFA_advance_loc: 2 to 000000000042312b
  DW_CFA_def_cfa_offset: 24
  DW_CFA_advance_loc: 2 to 000000000042312d
  DW_CFA_def_cfa_offset: 16
  DW_CFA_advance_loc: 2 to 000000000042312f
  DW_CFA_def_cfa_offset: 8
  DW_CFA_advance_loc: 5 to 0000000000423134
  DW_CFA_restore_state
  DW_CFA_advance_loc: 46 to 0000000000423162
  DW_CFA_remember_state
  DW_CFA_def_cfa_offset: 56
  DW_CFA_advance_loc: 8 to 000000000042316a
  DW_CFA_def_cfa_offset: 48
  DW_CFA_advance_loc: 1 to 000000000042316b
  DW_CFA_def_cfa_offset: 40
  DW_CFA_advance_loc: 2 to 000000000042316d
  DW_CFA_def_cfa_offset: 32
  DW_CFA_advance_loc: 2 to 000000000042316f
  DW_CFA_def_cfa_offset: 24
  DW_CFA_advance_loc: 2 to 0000000000423171
  DW_CFA_def_cfa_offset: 16
  DW_CFA_advance_loc: 2 to 0000000000423173
  DW_CFA_def_cfa_offset: 8
  DW_CFA_advance_loc: 5 to 0000000000423178
  DW_CFA_restore_state
  DW_CFA_advance_loc: 56 to 00000000004231b0
  DW_CFA_remember_state
  DW_CFA_def_cfa_offset: 56
  DW_CFA_advance_loc: 8 to 00000000004231b8
  DW_CFA_def_cfa_offset: 48
  DW_CFA_advance_loc: 1 to 00000000004231b9
  DW_CFA_def_cfa_offset: 40
  DW_CFA_advance_loc: 2 to 00000000004231bb
  DW_CFA_def_cfa_offset: 32
  DW_CFA_advance_loc: 2 to 00000000004231bd
  DW_CFA_def_cfa_offset: 24
  DW_CFA_advance_loc: 2 to 00000000004231bf
  DW_CFA_def_cfa_offset: 16
  DW_CFA_advance_loc: 2 to 00000000004231c1
  DW_CFA_def_cfa_offset: 8
  DW_CFA_advance_loc: 5 to 00000000004231c6
  DW_CFA_restore_state
  DW_CFA_advance_loc: 46 to 00000000004231f4
  DW_CFA_remember_state
  DW_CFA_def_cfa_offset: 56
  DW_CFA_advance_loc: 8 to 00000000004231fc
  DW_CFA_def_cfa_offset: 48
  DW_CFA_advance_loc: 1 to 00000000004231fd
  DW_CFA_def_cfa_offset: 40
  DW_CFA_advance_loc: 2 to 00000000004231ff
  DW_CFA_def_cfa_offset: 32
  DW_CFA_advance_loc: 2 to 0000000000423201
  DW_CFA_def_cfa_offset: 24
  DW_CFA_advance_loc: 2 to 0000000000423203
  DW_CFA_def_cfa_offset: 16
  DW_CFA_advance_loc: 2 to 0000000000423205
  DW_CFA_def_cfa_offset: 8
  DW_CFA_advance_loc: 5 to 000000000042320a
  DW_CFA_restore_state
  DW_CFA_advance_loc: 56 to 0000000000423242
  DW_CFA_remember_state
  DW_CFA_def_cfa_offset: 56
  DW_CFA_advance_loc: 8 to 000000000042324a
  DW_CFA_def_cfa_offset: 48
  DW_CFA_advance_loc: 1 to 000000000042324b
  DW_CFA_def_cfa_offset: 40
  DW_CFA_advance_loc: 2 to 000000000042324d
  DW_CFA_def_cfa_offset: 32
  DW_CFA_advance_loc: 2 to 000000000042324f
  DW_CFA_def_cfa_offset: 24
  DW_CFA_advance_loc: 2 to 0000000000423251
  DW_CFA_def_cfa_offset: 16
  DW_CFA_advance_loc: 2 to 0000000000423253
  DW_CFA_def_cfa_offset: 8
  DW_CFA_advance_loc: 5 to 0000000000423258
  DW_CFA_restore_state
  DW_CFA_advance_loc: 46 to 0000000000423286
  DW_CFA_remember_state
  DW_CFA_def_cfa_offset: 56
  DW_CFA_advance_loc: 8 to 000000000042328e
  DW_CFA_def_cfa_offset: 48
  DW_CFA_advance_loc: 1 to 000000000042328f
  DW_CFA_def_cfa_offset: 40
  DW_CFA_advance_loc: 2 to 0000000000423291
  DW_CFA_def_cfa_offset: 32
  DW_CFA_advance_loc: 2 to 0000000000423293
  DW_CFA_def_cfa_offset: 24
  DW_CFA_advance_loc: 2 to 0000000000423295
  DW_CFA_def_cfa_offset: 16
  DW_CFA_advance_loc: 2 to 0000000000423297
  DW_CFA_def_cfa_offset: 8
  DW_CFA_advance_loc: 5 to 000000000042329c
  DW_CFA_restore_state
  DW_CFA_advance_loc: 56 to 00000000004232d4
  DW_CFA_remember_state
  DW_CFA_def_cfa_offset: 56
  DW_CFA_advance_loc: 8 to 00000000004232dc
  DW_CFA_def_cfa_offset: 48
  DW_CFA_advance_loc: 1 to 00000000004232dd
  DW_CFA_def_cfa_offset: 40
  DW_CFA_advance_loc: 2 to 00000000004232df
  DW_CFA_def_cfa_offset: 32
  DW_CFA_advance_loc: 2 to 00000000004232e1
  DW_CFA_def_cfa_offset: 24
  DW_CFA_advance_loc: 2 to 00000000004232e3
  DW_CFA_def_cfa_offset: 16
  DW_CFA_advance_loc: 2 to 00000000004232e5
  DW_CFA_def_cfa_offset: 8
  DW_CFA_advance_loc: 5 to 00000000004232ea
  DW_CFA_restore_state
  DW_CFA_advance_loc: 46 to 0000000000423318
  DW_CFA_remember_state
  DW_CFA_def_cfa_offset: 56
  DW_CFA_advance_loc: 8 to 0000000000423320
  DW_CFA_def_cfa_offset: 48
  DW_CFA_advance_loc: 1 to 0000000000423321
  DW_CFA_def_cfa_offset: 40
  DW_CFA_advance_loc: 2 to 0000000000423323
  DW_CFA_def_cfa_offset: 32
  DW_CFA_advance_loc: 2 to 0000000000423325
  DW_CFA_def_cfa_offset: 24
  DW_CFA_advance_loc: 2 to 0000000000423327
  DW_CFA_def_cfa_offset: 16
  DW_CFA_advance_loc: 2 to 0000000000423329
  DW_CFA_def_cfa_offset: 8
  DW_CFA_advance_loc: 5 to 000000000042332e
  DW_CFA_restore_state
  DW_CFA_advance_loc: 56 to 0000000000423366
  DW_CFA_remember_state
  DW_CFA_def_cfa_offset: 56
  DW_CFA_advance_loc: 8 to 000000000042336e
  DW_CFA_def_cfa_offset: 48
  DW_CFA_advance_loc: 1 to 000000000042336f
  DW_CFA_def_cfa_offset: 40
  DW_CFA_advance_loc: 2 to 0000000000423371
  DW_CFA_def_cfa_offset: 32
  DW_CFA_advance_loc: 2 to 0000000000423373
  DW_CFA_def_cfa_offset: 24
  DW_CFA_advance_loc: 2 to 0000000000423375
  DW_CFA_def_cfa_offset: 16
  DW_CFA_advance_loc: 2 to 0000000000423377
  DW_CFA_def_cfa_offset: 8
  DW_CFA_advance_loc: 5 to 000000000042337c
  DW_CFA_restore_state
  DW_CFA_advance_loc: 46 to 00000000004233aa
  DW_CFA_remember_state
  DW_CFA_def_cfa_offset: 56
  DW_CFA_advance_loc: 8 to 00000000004233b2
  DW_CFA_def_cfa_offset: 48
  DW_CFA_advance_loc: 1 to 00000000004233b3
  DW_CFA_def_cfa_offset: 40
  DW_CFA_advance_loc: 2 to 00000000004233b5
  DW_CFA_def_cfa_offset: 32
  DW_CFA_advance_loc: 2 to 00000000004233b7
  DW_CFA_def_cfa_offset: 24
  DW_CFA_advance_loc: 2 to 00000000004233b9
  DW_CFA_def_cfa_offset: 16
  DW_CFA_advance_loc: 2 to 00000000004233bb
  DW_CFA_def_cfa_offset: 8
  DW_CFA_advance_loc: 5 to 00000000004233c0
  DW_CFA_restore_state
  DW_CFA_advance_loc: 56 to 00000000004233f8
  DW_CFA_remember_state
  DW_CFA_def_cfa_offset: 56
  DW_CFA_advance_loc: 8 to 0000000000423400
  DW_CFA_def_cfa_offset: 48
  DW_CFA_advance_loc: 1 to 0000000000423401
  DW_CFA_def_cfa_offset: 40
  DW_CFA_advance_loc: 2 to 0000000000423403
  DW_CFA_def_cfa_offset: 32
  DW_CFA_advance_loc: 2 to 0000000000423405
  DW_CFA_def_cfa_offset: 24
  DW_CFA_advance_loc: 2 to 0000000000423407
  DW_CFA_def_cfa_offset: 16
  DW_CFA_advance_loc: 2 to 0000000000423409
  DW_CFA_def_cfa_offset: 8
  DW_CFA_advance_loc: 5 to 000000000042340e
  DW_CFA_restore_state
  DW_CFA_advance_loc: 46 to 000000000042343c
  DW_CFA_remember_state
  DW_CFA_def_cfa_offset: 56
  DW_CFA_advance_loc: 8 to 0000000000423444
  DW_CFA_def_cfa_offset: 48
  DW_CFA_advance_loc: 1 to 0000000000423445
  DW_CFA_def_cfa_offset: 40
  DW_CFA_advance_loc: 2 to 0000000000423447
  DW_CFA_def_cfa_offset: 32
  DW_CFA_advance_loc: 2 to 0000000000423449
  DW_CFA_def_cfa_offset: 24
  DW_CFA_advance_loc: 2 to 000000000042344b
  DW_CFA_def_cfa_offset: 16
  DW_CFA_advance_loc: 2 to 000000000042344d
  DW_CFA_def_cfa_offset: 8
  DW_CFA_advance_loc: 5 to 0000000000423452
  DW_CFA_restore_state
  DW_CFA_advance_loc: 56 to 000000000042348a
  DW_CFA_remember_state
  DW_CFA_def_cfa_offset: 56
  DW_CFA_advance_loc: 8 to 0000000000423492
  DW_CFA_def_cfa_offset: 48
  DW_CFA_advance_loc: 1 to 0000000000423493
  DW_CFA_def_cfa_offset: 40
  DW_CFA_advance_loc: 2 to 0000000000423495
  DW_CFA_def_cfa_offset: 32
  DW_CFA_advance_loc: 2 to 0000000000423497
  DW_CFA_def_cfa_offset: 24
  DW_CFA_advance_loc: 2 to 0000000000423499
  DW_CFA_def_cfa_offset: 16
  DW_CFA_advance_loc: 2 to 000000000042349b
  DW_CFA_def_cfa_offset: 8
  DW_CFA_advance_loc: 5 to 00000000004234a0
  DW_CFA_restore_state
  DW_CFA_advance_loc: 46 to 00000000004234ce
  DW_CFA_remember_state
  DW_CFA_def_cfa_offset: 56
  DW_CFA_advance_loc: 8 to 00000000004234d6
  DW_CFA_def_cfa_offset: 48
  DW_CFA_advance_loc: 1 to 00000000004234d7
  DW_CFA_def_cfa_offset: 40
  DW_CFA_advance_loc: 2 to 00000000004234d9
  DW_CFA_def_cfa_offset: 32
  DW_CFA_advance_loc: 2 to 00000000004234db
  DW_CFA_def_cfa_offset: 24
  DW_CFA_advance_loc: 2 to 00000000004234dd
  DW_CFA_def_cfa_offset: 16
  DW_CFA_advance_loc: 2 to 00000000004234df
  DW_CFA_def_cfa_offset: 8
  DW_CFA_advance_loc: 5 to 00000000004234e4
  DW_CFA_restore_state
  DW_CFA_advance_loc: 56 to 000000000042351c
  DW_CFA_remember_state
  DW_CFA_def_cfa_offset: 56
  DW_CFA_advance_loc: 8 to 0000000000423524
  DW_CFA_def_cfa_offset: 48
  DW_CFA_advance_loc: 1 to 0000000000423525
  DW_CFA_def_cfa_offset: 40
  DW_CFA_advance_loc: 2 to 0000000000423527
  DW_CFA_def_cfa_offset: 32
  DW_CFA_advance_loc: 2 to 0000000000423529
  DW_CFA_def_cfa_offset: 24
  DW_CFA_advance_loc: 2 to 000000000042352b
  DW_CFA_def_cfa_offset: 16
  DW_CFA_advance_loc: 2 to 000000000042352d
  DW_CFA_def_cfa_offset: 8
  DW_CFA_advance_loc: 5 to 0000000000423532
  DW_CFA_restore_state
  DW_CFA_advance_loc: 46 to 0000000000423560
  DW_CFA_remember_state
  DW_CFA_def_cfa_offset: 56
  DW_CFA_advance_loc: 8 to 0000000000423568
  DW_CFA_def_cfa_offset: 48
  DW_CFA_advance_loc: 1 to 0000000000423569
  DW_CFA_def_cfa_offset: 40
  DW_CFA_advance_loc: 2 to 000000000042356b
  DW_CFA_def_cfa_offset: 32
  DW_CFA_advance_loc: 2 to 000000000042356d
  DW_CFA_def_cfa_offset: 24
  DW_CFA_advance_loc: 2 to 000000000042356f
  DW_CFA_def_cfa_offset: 16
  DW_CFA_advance_loc: 2 to 0000000000423571
  DW_CFA_def_cfa_offset: 8
  DW_CFA_advance_loc: 5 to 0000000000423576
  DW_CFA_restore_state
  DW_CFA_advance_loc: 56 to 00000000004235ae
  DW_CFA_remember_state
  DW_CFA_def_cfa_offset: 56
  DW_CFA_advance_loc: 8 to 00000000004235b6
  DW_CFA_def_cfa_offset: 48
  DW_CFA_advance_loc: 1 to 00000000004235b7
  DW_CFA_def_cfa_offset: 40
  DW_CFA_advance_loc: 2 to 00000000004235b9
  DW_CFA_def_cfa_offset: 32
  DW_CFA_advance_loc: 2 to 00000000004235bb
  DW_CFA_def_cfa_offset: 24
  DW_CFA_advance_loc: 2 to 00000000004235bd
  DW_CFA_def_cfa_offset: 16
  DW_CFA_advance_loc: 2 to 00000000004235bf
  DW_CFA_def_cfa_offset: 8
  DW_CFA_advance_loc: 5 to 00000000004235c4
  DW_CFA_restore_state
  DW_CFA_advance_loc: 46 to 00000000004235f2
  DW_CFA_remember_state
  DW_CFA_def_cfa_offset: 56
  DW_CFA_advance_loc: 8 to 00000000004235fa
  DW_CFA_def_cfa_offset: 48
  DW_CFA_advance_loc: 1 to 00000000004235fb
  DW_CFA_def_cfa_offset: 40
  DW_CFA_advance_loc: 2 to 00000000004235fd
  DW_CFA_def_cfa_offset: 32
  DW_CFA_advance_loc: 2 to 00000000004235ff
  DW_CFA_def_cfa_offset: 24
  DW_CFA_advance_loc: 2 to 0000000000423601
  DW_CFA_def_cfa_offset: 16
  DW_CFA_advance_loc: 2 to 0000000000423603
  DW_CFA_def_cfa_offset: 8
  DW_CFA_advance_loc: 5 to 0000000000423608
  DW_CFA_restore_state
  DW_CFA_advance_loc: 56 to 0000000000423640
  DW_CFA_remember_state
  DW_CFA_def_cfa_offset: 56
  DW_CFA_advance_loc: 8 to 0000000000423648
  DW_CFA_def_cfa_offset: 48
  DW_CFA_advance_loc: 1 to 0000000000423649
  DW_CFA_def_cfa_offset: 40
  DW_CFA_advance_loc: 2 to 000000000042364b
  DW_CFA_def_cfa_offset: 32
  DW_CFA_advance_loc: 2 to 000000000042364d
  DW_CFA_def_cfa_offset: 24
  DW_CFA_advance_loc: 2 to 000000000042364f
  DW_CFA_def_cfa_offset: 16
  DW_CFA_advance_loc: 2 to 0000000000423651
  DW_CFA_def_cfa_offset: 8
  DW_CFA_advance_loc: 5 to 0000000000423656
  DW_CFA_restore_state
  DW_CFA_advance_loc: 46 to 0000000000423684
  DW_CFA_remember_state
  DW_CFA_def_cfa_offset: 56
  DW_CFA_advance_loc: 8 to 000000000042368c
  DW_CFA_def_cfa_offset: 48
  DW_CFA_advance_loc: 1 to 000000000042368d
  DW_CFA_def_cfa_offset: 40
  DW_CFA_advance_loc: 2 to 000000000042368f
  DW_CFA_def_cfa_offset: 32
  DW_CFA_advance_loc: 2 to 0000000000423691
  DW_CFA_def_cfa_offset: 24
  DW_CFA_advance_loc: 2 to 0000000000423693
  DW_CFA_def_cfa_offset: 16
  DW_CFA_advance_loc: 2 to 0000000000423695
  DW_CFA_def_cfa_offset: 8
  DW_CFA_advance_loc: 5 to 000000000042369a
  DW_CFA_restore_state
  DW_CFA_advance_loc: 56 to 00000000004236d2
  DW_CFA_remember_state
  DW_CFA_def_cfa_offset: 56
  DW_CFA_advance_loc: 8 to 00000000004236da
  DW_CFA_def_cfa_offset: 48
  DW_CFA_advance_loc: 1 to 00000000004236db
  DW_CFA_def_cfa_offset: 40
  DW_CFA_advance_loc: 2 to 00000000004236dd
  DW_CFA_def_cfa_offset: 32
  DW_CFA_advance_loc: 2 to 00000000004236df
  DW_CFA_def_cfa_offset: 24
  DW_CFA_advance_loc: 2 to 00000000004236e1
  DW_CFA_def_cfa_offset: 16
  DW_CFA_advance_loc: 2 to 00000000004236e3
  DW_CFA_def_cfa_offset: 8
  DW_CFA_advance_loc: 5 to 00000000004236e8
  DW_CFA_restore_state
  DW_CFA_advance_loc: 46 to 0000000000423716
  DW_CFA_remember_state
  DW_CFA_def_cfa_offset: 56
  DW_CFA_advance_loc: 8 to 000000000042371e
  DW_CFA_def_cfa_offset: 48
  DW_CFA_advance_loc: 1 to 000000000042371f
  DW_CFA_def_cfa_offset: 40
  DW_CFA_advance_loc: 2 to 0000000000423721
  DW_CFA_def_cfa_offset: 32
  DW_CFA_advance_loc: 2 to 0000000000423723
  DW_CFA_def_cfa_offset: 24
  DW_CFA_advance_loc: 2 to 0000000000423725
  DW_CFA_def_cfa_offset: 16
  DW_CFA_advance_loc: 2 to 0000000000423727
  DW_CFA_def_cfa_offset: 8
  DW_CFA_advance_loc: 5 to 000000000042372c
  DW_CFA_restore_state
  DW_CFA_advance_loc: 56 to 0000000000423764
  DW_CFA_remember_state
  DW_CFA_def_cfa_offset: 56
  DW_CFA_advance_loc: 8 to 000000000042376c
  DW_CFA_def_cfa_offset: 48
  DW_CFA_advance_loc: 1 to 000000000042376d
  DW_CFA_def_cfa_offset: 40
  DW_CFA_advance_loc: 2 to 000000000042376f
  DW_CFA_def_cfa_offset: 32
  DW_CFA_advance_loc: 2 to 0000000000423771
  DW_CFA_def_cfa_offset: 24
  DW_CFA_advance_loc: 2 to 0000000000423773
  DW_CFA_def_cfa_offset: 16
  DW_CFA_advance_loc: 2 to 0000000000423775
  DW_CFA_def_cfa_offset: 8
  DW_CFA_advance_loc: 5 to 000000000042377a
  DW_CFA_restore_state
  DW_CFA_advance_loc: 46 to 00000000004237a8
  DW_CFA_remember_state
  DW_CFA_def_cfa_offset: 56
  DW_CFA_advance_loc: 8 to 00000000004237b0
  DW_CFA_def_cfa_offset: 48
  DW_CFA_advance_loc: 1 to 00000000004237b1
  DW_CFA_def_cfa_offset: 40
  DW_CFA_advance_loc: 2 to 00000000004237b3
  DW_CFA_def_cfa_offset: 32
  DW_CFA_advance_loc: 2 to 00000000004237b5
  DW_CFA_def_cfa_offset: 24
  DW_CFA_advance_loc: 2 to 00000000004237b7
  DW_CFA_def_cfa_offset: 16
  DW_CFA_advance_loc: 2 to 00000000004237b9
  DW_CFA_def_cfa_offset: 8
  DW_CFA_advance_loc: 5 to 00000000004237be
  DW_CFA_restore_state
  DW_CFA_advance_loc: 56 to 00000000004237f6
  DW_CFA_remember_state
  DW_CFA_def_cfa_offset: 56
  DW_CFA_advance_loc: 8 to 00000000004237fe
  DW_CFA_def_cfa_offset: 48
  DW_CFA_advance_loc: 1 to 00000000004237ff
  DW_CFA_def_cfa_offset: 40
  DW_CFA_advance_loc: 2 to 0000000000423801
  DW_CFA_def_cfa_offset: 32
  DW_CFA_advance_loc: 2 to 0000000000423803
  DW_CFA_def_cfa_offset: 24
  DW_CFA_advance_loc: 2 to 0000000000423805
  DW_CFA_def_cfa_offset: 16
  DW_CFA_advance_loc: 2 to 0000000000423807
  DW_CFA_def_cfa_offset: 8
  DW_CFA_advance_loc: 5 to 000000000042380c
  DW_CFA_restore_state
  DW_CFA_advance_loc: 46 to 000000000042383a
  DW_CFA_remember_state
  DW_CFA_def_cfa_offset: 56
  DW_CFA_advance_loc: 8 to 0000000000423842
  DW_CFA_def_cfa_offset: 48
  DW_CFA_advance_loc: 1 to 0000000000423843
  DW_CFA_def_cfa_offset: 40
  DW_CFA_advance_loc: 2 to 0000000000423845
  DW_CFA_def_cfa_offset: 32
  DW_CFA_advance_loc: 2 to 0000000000423847
  DW_CFA_def_cfa_offset: 24
  DW_CFA_advance_loc: 2 to 0000000000423849
  DW_CFA_def_cfa_offset: 16
  DW_CFA_advance_loc: 2 to 000000000042384b
  DW_CFA_def_cfa_offset: 8
  DW_CFA_advance_loc: 5 to 0000000000423850
  DW_CFA_restore_state
  DW_CFA_advance_loc: 56 to 0000000000423888
  DW_CFA_remember_state
  DW_CFA_def_cfa_offset: 56
  DW_CFA_advance_loc: 8 to 0000000000423890
  DW_CFA_def_cfa_offset: 48
  DW_CFA_advance_loc: 1 to 0000000000423891
  DW_CFA_def_cfa_offset: 40
  DW_CFA_advance_loc: 2 to 0000000000423893
  DW_CFA_def_cfa_offset: 32
  DW_CFA_advance_loc: 2 to 0000000000423895
  DW_CFA_def_cfa_offset: 24
  DW_CFA_advance_loc: 2 to 0000000000423897
  DW_CFA_def_cfa_offset: 16
  DW_CFA_advance_loc: 2 to 0000000000423899
  DW_CFA_def_cfa_offset: 8
  DW_CFA_advance_loc: 5 to 000000000042389e
  DW_CFA_restore_state
  DW_CFA_advance_loc: 46 to 00000000004238cc
  DW_CFA_remember_state
  DW_CFA_def_cfa_offset: 56
  DW_CFA_advance_loc: 8 to 00000000004238d4
  DW_CFA_def_cfa_offset: 48
  DW_CFA_advance_loc: 1 to 00000000004238d5
  DW_CFA_def_cfa_offset: 40
  DW_CFA_advance_loc: 2 to 00000000004238d7
  DW_CFA_def_cfa_offset: 32
  DW_CFA_advance_loc: 2 to 00000000004238d9
  DW_CFA_def_cfa_offset: 24
  DW_CFA_advance_loc: 2 to 00000000004238db
  DW_CFA_def_cfa_offset: 16
  DW_CFA_advance_loc: 2 to 00000000004238dd
  DW_CFA_def_cfa_offset: 8
  DW_CFA_advance_loc: 5 to 00000000004238e2
  DW_CFA_restore_state
  DW_CFA_advance_loc: 56 to 000000000042391a
  DW_CFA_remember_state
  DW_CFA_def_cfa_offset: 56
  DW_CFA_advance_loc: 8 to 0000000000423922
  DW_CFA_def_cfa_offset: 48
  DW_CFA_advance_loc: 1 to 0000000000423923
  DW_CFA_def_cfa_offset: 40
  DW_CFA_advance_loc: 2 to 0000000000423925
  DW_CFA_def_cfa_offset: 32
  DW_CFA_advance_loc: 2 to 0000000000423927
  DW_CFA_def_cfa_offset: 24
  DW_CFA_advance_loc: 2 to 0000000000423929
  DW_CFA_def_cfa_offset: 16
  DW_CFA_advance_loc: 2 to 000000000042392b
  DW_CFA_def_cfa_offset: 8
  DW_CFA_advance_loc: 5 to 0000000000423930
  DW_CFA_restore_state
  DW_CFA_advance_loc: 46 to 000000000042395e
  DW_CFA_remember_state
  DW_CFA_def_cfa_offset: 56
  DW_CFA_advance_loc: 8 to 0000000000423966
  DW_CFA_def_cfa_offset: 48
  DW_CFA_advance_loc: 1 to 0000000000423967
  DW_CFA_def_cfa_offset: 40
  DW_CFA_advance_loc: 2 to 0000000000423969
  DW_CFA_def_cfa_offset: 32
  DW_CFA_advance_loc: 2 to 000000000042396b
  DW_CFA_def_cfa_offset: 24
  DW_CFA_advance_loc: 2 to 000000000042396d
  DW_CFA_def_cfa_offset: 16
  DW_CFA_advance_loc: 2 to 000000000042396f
  DW_CFA_def_cfa_offset: 8
  DW_CFA_advance_loc: 5 to 0000000000423974
  DW_CFA_restore_state
  DW_CFA_advance_loc: 56 to 00000000004239ac
  DW_CFA_remember_state
  DW_CFA_def_cfa_offset: 56
  DW_CFA_advance_loc: 8 to 00000000004239b4
  DW_CFA_def_cfa_offset: 48
  DW_CFA_advance_loc: 1 to 00000000004239b5
  DW_CFA_def_cfa_offset: 40
  DW_CFA_advance_loc: 2 to 00000000004239b7
  DW_CFA_def_cfa_offset: 32
  DW_CFA_advance_loc: 2 to 00000000004239b9
  DW_CFA_def_cfa_offset: 24
  DW_CFA_advance_loc: 2 to 00000000004239bb
  DW_CFA_def_cfa_offset: 16
  DW_CFA_advance_loc: 2 to 00000000004239bd
  DW_CFA_def_cfa_offset: 8
  DW_CFA_advance_loc: 5 to 00000000004239c2
  DW_CFA_restore_state
  DW_CFA_advance_loc: 46 to 00000000004239f0
  DW_CFA_remember_state
  DW_CFA_def_cfa_offset: 56
  DW_CFA_advance_loc: 8 to 00000000004239f8
  DW_CFA_def_cfa_offset: 48
  DW_CFA_advance_loc: 1 to 00000000004239f9
  DW_CFA_def_cfa_offset: 40
  DW_CFA_advance_loc: 2 to 00000000004239fb
  DW_CFA_def_cfa_offset: 32
  DW_CFA_advance_loc: 2 to 00000000004239fd
  DW_CFA_def_cfa_offset: 24
  DW_CFA_advance_loc: 2 to 00000000004239ff
  DW_CFA_def_cfa_offset: 16
  DW_CFA_advance_loc: 2 to 0000000000423a01
  DW_CFA_def_cfa_offset: 8
  DW_CFA_advance_loc: 5 to 0000000000423a06
  DW_CFA_restore_state
  DW_CFA_advance_loc: 56 to 0000000000423a3e
  DW_CFA_remember_state
  DW_CFA_def_cfa_offset: 56
  DW_CFA_advance_loc: 8 to 0000000000423a46
  DW_CFA_def_cfa_offset: 48
  DW_CFA_advance_loc: 1 to 0000000000423a47
  DW_CFA_def_cfa_offset: 40
  DW_CFA_advance_loc: 2 to 0000000000423a49
  DW_CFA_def_cfa_offset: 32
  DW_CFA_advance_loc: 2 to 0000000000423a4b
  DW_CFA_def_cfa_offset: 24
  DW_CFA_advance_loc: 2 to 0000000000423a4d
  DW_CFA_def_cfa_offset: 16
  DW_CFA_advance_loc: 2 to 0000000000423a4f
  DW_CFA_def_cfa_offset: 8
  DW_CFA_advance_loc: 5 to 0000000000423a54
  DW_CFA_restore_state
  DW_CFA_advance_loc: 46 to 0000000000423a82
  DW_CFA_remember_state
  DW_CFA_def_cfa_offset: 56
  DW_CFA_advance_loc: 8 to 0000000000423a8a
  DW_CFA_def_cfa_offset: 48
  DW_CFA_advance_loc: 1 to 0000000000423a8b
  DW_CFA_def_cfa_offset: 40
  DW_CFA_advance_loc: 2 to 0000000000423a8d
  DW_CFA_def_cfa_offset: 32
  DW_CFA_advance_loc: 2 to 0000000000423a8f
  DW_CFA_def_cfa_offset: 24
  DW_CFA_advance_loc: 2 to 0000000000423a91
  DW_CFA_def_cfa_offset: 16
  DW_CFA_advance_loc: 2 to 0000000000423a93
  DW_CFA_def_cfa_offset: 8
  DW_CFA_advance_loc: 5 to 0000000000423a98
  DW_CFA_restore_state
  DW_CFA_advance_loc: 56 to 0000000000423ad0
  DW_CFA_remember_state
  DW_CFA_def_cfa_offset: 56
  DW_CFA_advance_loc: 8 to 0000000000423ad8
  DW_CFA_def_cfa_offset: 48
  DW_CFA_advance_loc: 1 to 0000000000423ad9
  DW_CFA_def_cfa_offset: 40
  DW_CFA_advance_loc: 2 to 0000000000423adb
  DW_CFA_def_cfa_offset: 32
  DW_CFA_advance_loc: 2 to 0000000000423add
  DW_CFA_def_cfa_offset: 24
  DW_CFA_advance_loc: 2 to 0000000000423adf
  DW_CFA_def_cfa_offset: 16
  DW_CFA_advance_loc: 2 to 0000000000423ae1
  DW_CFA_def_cfa_offset: 8
  DW_CFA_advance_loc: 5 to 0000000000423ae6
  DW_CFA_restore_state
  DW_CFA_advance_loc: 46 to 0000000000423b14
  DW_CFA_remember_state
  DW_CFA_def_cfa_offset: 56
  DW_CFA_advance_loc: 8 to 0000000000423b1c
  DW_CFA_def_cfa_offset: 48
  DW_CFA_advance_loc: 1 to 0000000000423b1d
  DW_CFA_def_cfa_offset: 40
  DW_CFA_advance_loc: 2 to 0000000000423b1f
  DW_CFA_def_cfa_offset: 32
  DW_CFA_advance_loc: 2 to 0000000000423b21
  DW_CFA_def_cfa_offset: 24
  DW_CFA_advance_loc: 2 to 0000000000423b23
  DW_CFA_def_cfa_offset: 16
  DW_CFA_advance_loc: 2 to 0000000000423b25
  DW_CFA_def_cfa_offset: 8
  DW_CFA_advance_loc: 5 to 0000000000423b2a
  DW_CFA_restore_state
  DW_CFA_advance_loc: 56 to 0000000000423b62
  DW_CFA_remember_state
  DW_CFA_def_cfa_offset: 56
  DW_CFA_advance_loc: 8 to 0000000000423b6a
  DW_CFA_def_cfa_offset: 48
  DW_CFA_advance_loc: 1 to 0000000000423b6b
  DW_CFA_def_cfa_offset: 40
  DW_CFA_advance_loc: 2 to 0000000000423b6d
  DW_CFA_def_cfa_offset: 32
  DW_CFA_advance_loc: 2 to 0000000000423b6f
  DW_CFA_def_cfa_offset: 24
  DW_CFA_advance_loc: 2 to 0000000000423b71
  DW_CFA_def_cfa_offset: 16
  DW_CFA_advance_loc: 2 to 0000000000423b73
  DW_CFA_def_cfa_offset: 8
  DW_CFA_advance_loc: 5 to 0000000000423b78
  DW_CFA_restore_state
  DW_CFA_advance_loc: 46 to 0000000000423ba6
  DW_CFA_remember_state
  DW_CFA_def_cfa_offset: 56
  DW_CFA_advance_loc: 8 to 0000000000423bae
  DW_CFA_def_cfa_offset: 48
  DW_CFA_advance_loc: 1 to 0000000000423baf
  DW_CFA_def_cfa_offset: 40
  DW_CFA_advance_loc: 2 to 0000000000423bb1
  DW_CFA_def_cfa_offset: 32
  DW_CFA_advance_loc: 2 to 0000000000423bb3
  DW_CFA_def_cfa_offset: 24
  DW_CFA_advance_loc: 2 to 0000000000423bb5
  DW_CFA_def_cfa_offset: 16
  DW_CFA_advance_loc: 2 to 0000000000423bb7
  DW_CFA_def_cfa_offset: 8
  DW_CFA_advance_loc: 5 to 0000000000423bbc
  DW_CFA_restore_state
  DW_CFA_advance_loc: 56 to 0000000000423bf4
  DW_CFA_remember_state
  DW_CFA_def_cfa_offset: 56
  DW_CFA_advance_loc: 8 to 0000000000423bfc
  DW_CFA_def_cfa_offset: 48
  DW_CFA_advance_loc: 1 to 0000000000423bfd
  DW_CFA_def_cfa_offset: 40
  DW_CFA_advance_loc: 2 to 0000000000423bff
  DW_CFA_def_cfa_offset: 32
  DW_CFA_advance_loc: 2 to 0000000000423c01
  DW_CFA_def_cfa_offset: 24
  DW_CFA_advance_loc: 2 to 0000000000423c03
  DW_CFA_def_cfa_offset: 16
  DW_CFA_advance_loc: 2 to 0000000000423c05
  DW_CFA_def_cfa_offset: 8
  DW_CFA_advance_loc: 5 to 0000000000423c0a
  DW_CFA_restore_state
  DW_CFA_advance_loc: 46 to 0000000000423c38
  DW_CFA_remember_state
  DW_CFA_def_cfa_offset: 56
  DW_CFA_advance_loc: 8 to 0000000000423c40
  DW_CFA_def_cfa_offset: 48
  DW_CFA_advance_loc: 1 to 0000000000423c41
  DW_CFA_def_cfa_offset: 40
  DW_CFA_advance_loc: 2 to 0000000000423c43
  DW_CFA_def_cfa_offset: 32
  DW_CFA_advance_loc: 2 to 0000000000423c45
  DW_CFA_def_cfa_offset: 24
  DW_CFA_advance_loc: 2 to 0000000000423c47
  DW_CFA_def_cfa_offset: 16
  DW_CFA_advance_loc: 2 to 0000000000423c49
  DW_CFA_def_cfa_offset: 8
  DW_CFA_advance_loc: 5 to 0000000000423c4e
  DW_CFA_restore_state
  DW_CFA_advance_loc: 56 to 0000000000423c86
  DW_CFA_remember_state
  DW_CFA_def_cfa_offset: 56
  DW_CFA_advance_loc: 8 to 0000000000423c8e
  DW_CFA_def_cfa_offset: 48
  DW_CFA_advance_loc: 1 to 0000000000423c8f
  DW_CFA_def_cfa_offset: 40
  DW_CFA_advance_loc: 2 to 0000000000423c91
  DW_CFA_def_cfa_offset: 32
  DW_CFA_advance_loc: 2 to 0000000000423c93
  DW_CFA_def_cfa_offset: 24
  DW_CFA_advance_loc: 2 to 0000000000423c95
  DW_CFA_def_cfa_offset: 16
  DW_CFA_advance_loc: 2 to 0000000000423c97
  DW_CFA_def_cfa_offset: 8
  DW_CFA_advance_loc: 5 to 0000000000423c9c
  DW_CFA_restore_state
  DW_CFA_advance_loc: 46 to 0000000000423cca
  DW_CFA_remember_state
  DW_CFA_def_cfa_offset: 56
  DW_CFA_advance_loc: 8 to 0000000000423cd2
  DW_CFA_def_cfa_offset: 48
  DW_CFA_advance_loc: 1 to 0000000000423cd3
  DW_CFA_def_cfa_offset: 40
  DW_CFA_advance_loc: 2 to 0000000000423cd5
  DW_CFA_def_cfa_offset: 32
  DW_CFA_advance_loc: 2 to 0000000000423cd7
  DW_CFA_def_cfa_offset: 24
  DW_CFA_advance_loc: 2 to 0000000000423cd9
  DW_CFA_def_cfa_offset: 16
  DW_CFA_advance_loc: 2 to 0000000000423cdb
  DW_CFA_def_cfa_offset: 8
  DW_CFA_advance_loc: 5 to 0000000000423ce0
  DW_CFA_restore_state
  DW_CFA_advance_loc: 56 to 0000000000423d18
  DW_CFA_remember_state
  DW_CFA_def_cfa_offset: 56
  DW_CFA_advance_loc: 8 to 0000000000423d20
  DW_CFA_def_cfa_offset: 48
  DW_CFA_advance_loc: 1 to 0000000000423d21
  DW_CFA_def_cfa_offset: 40
  DW_CFA_advance_loc: 2 to 0000000000423d23
  DW_CFA_def_cfa_offset: 32
  DW_CFA_advance_loc: 2 to 0000000000423d25
  DW_CFA_def_cfa_offset: 24
  DW_CFA_advance_loc: 2 to 0000000000423d27
  DW_CFA_def_cfa_offset: 16
  DW_CFA_advance_loc: 2 to 0000000000423d29
  DW_CFA_def_cfa_offset: 8
  DW_CFA_advance_loc: 5 to 0000000000423d2e
  DW_CFA_restore_state
  DW_CFA_advance_loc: 46 to 0000000000423d5c
  DW_CFA_remember_state
  DW_CFA_def_cfa_offset: 56
  DW_CFA_advance_loc: 8 to 0000000000423d64
  DW_CFA_def_cfa_offset: 48
  DW_CFA_advance_loc: 1 to 0000000000423d65
  DW_CFA_def_cfa_offset: 40
  DW_CFA_advance_loc: 2 to 0000000000423d67
  DW_CFA_def_cfa_offset: 32
  DW_CFA_advance_loc: 2 to 0000000000423d69
  DW_CFA_def_cfa_offset: 24
  DW_CFA_advance_loc: 2 to 0000000000423d6b
  DW_CFA_def_cfa_offset: 16
  DW_CFA_advance_loc: 2 to 0000000000423d6d
  DW_CFA_def_cfa_offset: 8
  DW_CFA_advance_loc: 5 to 0000000000423d72
  DW_CFA_restore_state
  DW_CFA_advance_loc: 56 to 0000000000423daa
  DW_CFA_remember_state
  DW_CFA_def_cfa_offset: 56
  DW_CFA_advance_loc: 8 to 0000000000423db2
  DW_CFA_def_cfa_offset: 48
  DW_CFA_advance_loc: 1 to 0000000000423db3
  DW_CFA_def_cfa_offset: 40
  DW_CFA_advance_loc: 2 to 0000000000423db5
  DW_CFA_def_cfa_offset: 32
  DW_CFA_advance_loc: 2 to 0000000000423db7
  DW_CFA_def_cfa_offset: 24
  DW_CFA_advance_loc: 2 to 0000000000423db9
  DW_CFA_def_cfa_offset: 16
  DW_CFA_advance_loc: 2 to 0000000000423dbb
  DW_CFA_def_cfa_offset: 8
  DW_CFA_advance_loc: 5 to 0000000000423dc0
  DW_CFA_restore_state
  DW_CFA_advance_loc: 46 to 0000000000423dee
  DW_CFA_remember_state
  DW_CFA_def_cfa_offset: 56
  DW_CFA_advance_loc: 8 to 0000000000423df6
  DW_CFA_def_cfa_offset: 48
  DW_CFA_advance_loc: 1 to 0000000000423df7
  DW_CFA_def_cfa_offset: 40
  DW_CFA_advance_loc: 2 to 0000000000423df9
  DW_CFA_def_cfa_offset: 32
  DW_CFA_advance_loc: 2 to 0000000000423dfb
  DW_CFA_def_cfa_offset: 24
  DW_CFA_advance_loc: 2 to 0000000000423dfd
  DW_CFA_def_cfa_offset: 16
  DW_CFA_advance_loc: 2 to 0000000000423dff
  DW_CFA_def_cfa_offset: 8
  DW_CFA_advance_loc: 5 to 0000000000423e04
  DW_CFA_restore_state
  DW_CFA_advance_loc: 56 to 0000000000423e3c
  DW_CFA_remember_state
  DW_CFA_def_cfa_offset: 56
  DW_CFA_advance_loc: 8 to 0000000000423e44
  DW_CFA_def_cfa_offset: 48
  DW_CFA_advance_loc: 1 to 0000000000423e45
  DW_CFA_def_cfa_offset: 40
  DW_CFA_advance_loc: 2 to 0000000000423e47
  DW_CFA_def_cfa_offset: 32
  DW_CFA_advance_loc: 2 to 0000000000423e49
  DW_CFA_def_cfa_offset: 24
  DW_CFA_advance_loc: 2 to 0000000000423e4b
  DW_CFA_def_cfa_offset: 16
  DW_CFA_advance_loc: 2 to 0000000000423e4d
  DW_CFA_def_cfa_offset: 8
  DW_CFA_advance_loc: 5 to 0000000000423e52
  DW_CFA_restore_state
  DW_CFA_advance_loc: 46 to 0000000000423e80
  DW_CFA_remember_state
  DW_CFA_def_cfa_offset: 56
  DW_CFA_advance_loc: 8 to 0000000000423e88
  DW_CFA_def_cfa_offset: 48
  DW_CFA_advance_loc: 1 to 0000000000423e89
  DW_CFA_def_cfa_offset: 40
  DW_CFA_advance_loc: 2 to 0000000000423e8b
  DW_CFA_def_cfa_offset: 32
  DW_CFA_advance_loc: 2 to 0000000000423e8d
  DW_CFA_def_cfa_offset: 24
  DW_CFA_advance_loc: 2 to 0000000000423e8f
  DW_CFA_def_cfa_offset: 16
  DW_CFA_advance_loc: 2 to 0000000000423e91
  DW_CFA_def_cfa_offset: 8
  DW_CFA_advance_loc: 5 to 0000000000423e96
  DW_CFA_restore_state
  DW_CFA_advance_loc: 56 to 0000000000423ece
  DW_CFA_remember_state
  DW_CFA_def_cfa_offset: 56
  DW_CFA_advance_loc: 8 to 0000000000423ed6
  DW_CFA_def_cfa_offset: 48
  DW_CFA_advance_loc: 1 to 0000000000423ed7
  DW_CFA_def_cfa_offset: 40
  DW_CFA_advance_loc: 2 to 0000000000423ed9
  DW_CFA_def_cfa_offset: 32
  DW_CFA_advance_loc: 2 to 0000000000423edb
  DW_CFA_def_cfa_offset: 24
  DW_CFA_advance_loc: 2 to 0000000000423edd
  DW_CFA_def_cfa_offset: 16
  DW_CFA_advance_loc: 2 to 0000000000423edf
  DW_CFA_def_cfa_offset: 8
  DW_CFA_advance_loc: 5 to 0000000000423ee4
  DW_CFA_restore_state
  DW_CFA_advance_loc: 46 to 0000000000423f12
  DW_CFA_remember_state
  DW_CFA_def_cfa_offset: 56
  DW_CFA_advance_loc: 8 to 0000000000423f1a
  DW_CFA_def_cfa_offset: 48
  DW_CFA_advance_loc: 1 to 0000000000423f1b
  DW_CFA_def_cfa_offset: 40
  DW_CFA_advance_loc: 2 to 0000000000423f1d
  DW_CFA_def_cfa_offset: 32
  DW_CFA_advance_loc: 2 to 0000000000423f1f
  DW_CFA_def_cfa_offset: 24
  DW_CFA_advance_loc: 2 to 0000000000423f21
  DW_CFA_def_cfa_offset: 16
  DW_CFA_advance_loc: 2 to 0000000000423f23
  DW_CFA_def_cfa_offset: 8
  DW_CFA_advance_loc: 5 to 0000000000423f28
  DW_CFA_restore_state
  DW_CFA_advance_loc: 56 to 0000000000423f60
  DW_CFA_remember_state
  DW_CFA_def_cfa_offset: 56
  DW_CFA_advance_loc: 8 to 0000000000423f68
  DW_CFA_def_cfa_offset: 48
  DW_CFA_advance_loc: 1 to 0000000000423f69
  DW_CFA_def_cfa_offset: 40
  DW_CFA_advance_loc: 2 to 0000000000423f6b
  DW_CFA_def_cfa_offset: 32
  DW_CFA_advance_loc: 2 to 0000000000423f6d
  DW_CFA_def_cfa_offset: 24
  DW_CFA_advance_loc: 2 to 0000000000423f6f
  DW_CFA_def_cfa_offset: 16
  DW_CFA_advance_loc: 2 to 0000000000423f71
  DW_CFA_def_cfa_offset: 8
  DW_CFA_advance_loc: 5 to 0000000000423f76
  DW_CFA_restore_state
  DW_CFA_advance_loc: 46 to 0000000000423fa4
  DW_CFA_remember_state
  DW_CFA_def_cfa_offset: 56
  DW_CFA_advance_loc: 8 to 0000000000423fac
  DW_CFA_def_cfa_offset: 48
  DW_CFA_advance_loc: 1 to 0000000000423fad
  DW_CFA_def_cfa_offset: 40
  DW_CFA_advance_loc: 2 to 0000000000423faf
  DW_CFA_def_cfa_offset: 32
  DW_CFA_advance_loc: 2 to 0000000000423fb1
  DW_CFA_def_cfa_offset: 24
  DW_CFA_advance_loc: 2 to 0000000000423fb3
  DW_CFA_def_cfa_offset: 16
  DW_CFA_advance_loc: 2 to 0000000000423fb5
  DW_CFA_def_cfa_offset: 8
  DW_CFA_advance_loc: 5 to 0000000000423fba
  DW_CFA_restore_state
  DW_CFA_advance_loc: 56 to 0000000000423ff2
  DW_CFA_remember_state
  DW_CFA_def_cfa_offset: 56
  DW_CFA_advance_loc: 8 to 0000000000423ffa
  DW_CFA_def_cfa_offset: 48
  DW_CFA_advance_loc: 1 to 0000000000423ffb
  DW_CFA_def_cfa_offset: 40
  DW_CFA_advance_loc: 2 to 0000000000423ffd
  DW_CFA_def_cfa_offset: 32
  DW_CFA_advance_loc: 2 to 0000000000423fff
  DW_CFA_def_cfa_offset: 24
  DW_CFA_advance_loc: 2 to 0000000000424001
  DW_CFA_def_cfa_offset: 16
  DW_CFA_advance_loc: 2 to 0000000000424003
  DW_CFA_def_cfa_offset: 8
  DW_CFA_advance_loc: 5 to 0000000000424008
  DW_CFA_restore_state
  DW_CFA_advance_loc: 46 to 0000000000424036
  DW_CFA_remember_state
  DW_CFA_def_cfa_offset: 56
  DW_CFA_advance_loc: 8 to 000000000042403e
  DW_CFA_def_cfa_offset: 48
  DW_CFA_advance_loc: 1 to 000000000042403f
  DW_CFA_def_cfa_offset: 40
  DW_CFA_advance_loc: 2 to 0000000000424041
  DW_CFA_def_cfa_offset: 32
  DW_CFA_advance_loc: 2 to 0000000000424043
  DW_CFA_def_cfa_offset: 24
  DW_CFA_advance_loc: 2 to 0000000000424045
  DW_CFA_def_cfa_offset: 16
  DW_CFA_advance_loc: 2 to 0000000000424047
  DW_CFA_def_cfa_offset: 8
  DW_CFA_advance_loc: 5 to 000000000042404c
  DW_CFA_restore_state
  DW_CFA_advance_loc: 56 to 0000000000424084
  DW_CFA_remember_state
  DW_CFA_def_cfa_offset: 56
  DW_CFA_advance_loc: 8 to 000000000042408c
  DW_CFA_def_cfa_offset: 48
  DW_CFA_advance_loc: 1 to 000000000042408d
  DW_CFA_def_cfa_offset: 40
  DW_CFA_advance_loc: 2 to 000000000042408f
  DW_CFA_def_cfa_offset: 32
  DW_CFA_advance_loc: 2 to 0000000000424091
  DW_CFA_def_cfa_offset: 24
  DW_CFA_advance_loc: 2 to 0000000000424093
  DW_CFA_def_cfa_offset: 16
  DW_CFA_advance_loc: 2 to 0000000000424095
  DW_CFA_def_cfa_offset: 8
  DW_CFA_advance_loc: 5 to 000000000042409a
  DW_CFA_restore_state
  DW_CFA_advance_loc: 46 to 00000000004240c8
  DW_CFA_remember_state
  DW_CFA_def_cfa_offset: 56
  DW_CFA_advance_loc: 8 to 00000000004240d0
  DW_CFA_def_cfa_offset: 48
  DW_CFA_advance_loc: 1 to 00000000004240d1
  DW_CFA_def_cfa_offset: 40
  DW_CFA_advance_loc: 2 to 00000000004240d3
  DW_CFA_def_cfa_offset: 32
  DW_CFA_advance_loc: 2 to 00000000004240d5
  DW_CFA_def_cfa_offset: 24
  DW_CFA_advance_loc: 2 to 00000000004240d7
  DW_CFA_def_cfa_offset: 16
  DW_CFA_advance_loc: 2 to 00000000004240d9
  DW_CFA_def_cfa_offset: 8
  DW_CFA_advance_loc: 5 to 00000000004240de
  DW_CFA_restore_state
  DW_CFA_advance_loc: 56 to 0000000000424116
  DW_CFA_remember_state
  DW_CFA_def_cfa_offset: 56
  DW_CFA_advance_loc: 8 to 000000000042411e
  DW_CFA_def_cfa_offset: 48
  DW_CFA_advance_loc: 1 to 000000000042411f
  DW_CFA_def_cfa_offset: 40
  DW_CFA_advance_loc: 2 to 0000000000424121
  DW_CFA_def_cfa_offset: 32
  DW_CFA_advance_loc: 2 to 0000000000424123
  DW_CFA_def_cfa_offset: 24
  DW_CFA_advance_loc: 2 to 0000000000424125
  DW_CFA_def_cfa_offset: 16
  DW_CFA_advance_loc: 2 to 0000000000424127
  DW_CFA_def_cfa_offset: 8
  DW_CFA_advance_loc: 5 to 000000000042412c
  DW_CFA_restore_state
  DW_CFA_advance_loc: 46 to 000000000042415a
  DW_CFA_remember_state
  DW_CFA_def_cfa_offset: 56
  DW_CFA_advance_loc: 8 to 0000000000424162
  DW_CFA_def_cfa_offset: 48
  DW_CFA_advance_loc: 1 to 0000000000424163
  DW_CFA_def_cfa_offset: 40
  DW_CFA_advance_loc: 2 to 0000000000424165
  DW_CFA_def_cfa_offset: 32
  DW_CFA_advance_loc: 2 to 0000000000424167
  DW_CFA_def_cfa_offset: 24
  DW_CFA_advance_loc: 2 to 0000000000424169
  DW_CFA_def_cfa_offset: 16
  DW_CFA_advance_loc: 2 to 000000000042416b
  DW_CFA_def_cfa_offset: 8
  DW_CFA_advance_loc: 5 to 0000000000424170
  DW_CFA_restore_state
  DW_CFA_advance_loc: 56 to 00000000004241a8
  DW_CFA_remember_state
  DW_CFA_def_cfa_offset: 56
  DW_CFA_advance_loc: 8 to 00000000004241b0
  DW_CFA_def_cfa_offset: 48
  DW_CFA_advance_loc: 1 to 00000000004241b1
  DW_CFA_def_cfa_offset: 40
  DW_CFA_advance_loc: 2 to 00000000004241b3
  DW_CFA_def_cfa_offset: 32
  DW_CFA_advance_loc: 2 to 00000000004241b5
  DW_CFA_def_cfa_offset: 24
  DW_CFA_advance_loc: 2 to 00000000004241b7
  DW_CFA_def_cfa_offset: 16
  DW_CFA_advance_loc: 2 to 00000000004241b9
  DW_CFA_def_cfa_offset: 8
  DW_CFA_advance_loc: 5 to 00000000004241be
  DW_CFA_restore_state
  DW_CFA_advance_loc: 46 to 00000000004241ec
  DW_CFA_remember_state
  DW_CFA_def_cfa_offset: 56
  DW_CFA_advance_loc: 8 to 00000000004241f4
  DW_CFA_def_cfa_offset: 48
  DW_CFA_advance_loc: 1 to 00000000004241f5
  DW_CFA_def_cfa_offset: 40
  DW_CFA_advance_loc: 2 to 00000000004241f7
  DW_CFA_def_cfa_offset: 32
  DW_CFA_advance_loc: 2 to 00000000004241f9
  DW_CFA_def_cfa_offset: 24
  DW_CFA_advance_loc: 2 to 00000000004241fb
  DW_CFA_def_cfa_offset: 16
  DW_CFA_advance_loc: 2 to 00000000004241fd
  DW_CFA_def_cfa_offset: 8
  DW_CFA_advance_loc: 5 to 0000000000424202
  DW_CFA_restore_state
  DW_CFA_advance_loc: 56 to 000000000042423a
  DW_CFA_remember_state
  DW_CFA_def_cfa_offset: 56
  DW_CFA_advance_loc: 8 to 0000000000424242
  DW_CFA_def_cfa_offset: 48
  DW_CFA_advance_loc: 1 to 0000000000424243
  DW_CFA_def_cfa_offset: 40
  DW_CFA_advance_loc: 2 to 0000000000424245
  DW_CFA_def_cfa_offset: 32
  DW_CFA_advance_loc: 2 to 0000000000424247
  DW_CFA_def_cfa_offset: 24
  DW_CFA_advance_loc: 2 to 0000000000424249
  DW_CFA_def_cfa_offset: 16
  DW_CFA_advance_loc: 2 to 000000000042424b
  DW_CFA_def_cfa_offset: 8
  DW_CFA_advance_loc: 5 to 0000000000424250
  DW_CFA_restore_state
  DW_CFA_advance_loc: 46 to 000000000042427e
  DW_CFA_remember_state
  DW_CFA_def_cfa_offset: 56
  DW_CFA_advance_loc: 8 to 0000000000424286
  DW_CFA_def_cfa_offset: 48
  DW_CFA_advance_loc: 1 to 0000000000424287
  DW_CFA_def_cfa_offset: 40
  DW_CFA_advance_loc: 2 to 0000000000424289
  DW_CFA_def_cfa_offset: 32
  DW_CFA_advance_loc: 2 to 000000000042428b
  DW_CFA_def_cfa_offset: 24
  DW_CFA_advance_loc: 2 to 000000000042428d
  DW_CFA_def_cfa_offset: 16
  DW_CFA_advance_loc: 2 to 000000000042428f
  DW_CFA_def_cfa_offset: 8
  DW_CFA_advance_loc: 5 to 0000000000424294
  DW_CFA_restore_state
  DW_CFA_advance_loc: 56 to 00000000004242cc
  DW_CFA_remember_state
  DW_CFA_def_cfa_offset: 56
  DW_CFA_advance_loc: 8 to 00000000004242d4
  DW_CFA_def_cfa_offset: 48
  DW_CFA_advance_loc: 1 to 00000000004242d5
  DW_CFA_def_cfa_offset: 40
  DW_CFA_advance_loc: 2 to 00000000004242d7
  DW_CFA_def_cfa_offset: 32
  DW_CFA_advance_loc: 2 to 00000000004242d9
  DW_CFA_def_cfa_offset: 24
  DW_CFA_advance_loc: 2 to 00000000004242db
  DW_CFA_def_cfa_offset: 16
  DW_CFA_advance_loc: 2 to 00000000004242dd
  DW_CFA_def_cfa_offset: 8
  DW_CFA_advance_loc: 5 to 00000000004242e2
  DW_CFA_restore_state
  DW_CFA_advance_loc: 46 to 0000000000424310
  DW_CFA_remember_state
  DW_CFA_def_cfa_offset: 56
  DW_CFA_advance_loc: 8 to 0000000000424318
  DW_CFA_def_cfa_offset: 48
  DW_CFA_advance_loc: 1 to 0000000000424319
  DW_CFA_def_cfa_offset: 40
  DW_CFA_advance_loc: 2 to 000000000042431b
  DW_CFA_def_cfa_offset: 32
  DW_CFA_advance_loc: 2 to 000000000042431d
  DW_CFA_def_cfa_offset: 24
  DW_CFA_advance_loc: 2 to 000000000042431f
  DW_CFA_def_cfa_offset: 16
  DW_CFA_advance_loc: 2 to 0000000000424321
  DW_CFA_def_cfa_offset: 8
  DW_CFA_advance_loc: 5 to 0000000000424326
  DW_CFA_restore_state
  DW_CFA_advance_loc: 56 to 000000000042435e
  DW_CFA_remember_state
  DW_CFA_def_cfa_offset: 56
  DW_CFA_advance_loc: 8 to 0000000000424366
  DW_CFA_def_cfa_offset: 48
  DW_CFA_advance_loc: 1 to 0000000000424367
  DW_CFA_def_cfa_offset: 40
  DW_CFA_advance_loc: 2 to 0000000000424369
  DW_CFA_def_cfa_offset: 32
  DW_CFA_advance_loc: 2 to 000000000042436b
  DW_CFA_def_cfa_offset: 24
  DW_CFA_advance_loc: 2 to 000000000042436d
  DW_CFA_def_cfa_offset: 16
  DW_CFA_advance_loc: 2 to 000000000042436f
  DW_CFA_def_cfa_offset: 8
  DW_CFA_advance_loc: 5 to 0000000000424374
  DW_CFA_restore_state
  DW_CFA_advance_loc: 46 to 00000000004243a2
  DW_CFA_remember_state
  DW_CFA_def_cfa_offset: 56
  DW_CFA_advance_loc: 8 to 00000000004243aa
  DW_CFA_def_cfa_offset: 48
  DW_CFA_advance_loc: 1 to 00000000004243ab
  DW_CFA_def_cfa_offset: 40
  DW_CFA_advance_loc: 2 to 00000000004243ad
  DW_CFA_def_cfa_offset: 32
  DW_CFA_advance_loc: 2 to 00000000004243af
  DW_CFA_def_cfa_offset: 24
  DW_CFA_advance_loc: 2 to 00000000004243b1
  DW_CFA_def_cfa_offset: 16
  DW_CFA_advance_loc: 2 to 00000000004243b3
  DW_CFA_def_cfa_offset: 8
  DW_CFA_advance_loc: 5 to 00000000004243b8
  DW_CFA_restore_state
  DW_CFA_advance_loc: 56 to 00000000004243f0
  DW_CFA_remember_state
  DW_CFA_def_cfa_offset: 56
  DW_CFA_advance_loc: 8 to 00000000004243f8
  DW_CFA_def_cfa_offset: 48
  DW_CFA_advance_loc: 1 to 00000000004243f9
  DW_CFA_def_cfa_offset: 40
  DW_CFA_advance_loc: 2 to 00000000004243fb
  DW_CFA_def_cfa_offset: 32
  DW_CFA_advance_loc: 2 to 00000000004243fd
  DW_CFA_def_cfa_offset: 24
  DW_CFA_advance_loc: 2 to 00000000004243ff
  DW_CFA_def_cfa_offset: 16
  DW_CFA_advance_loc: 2 to 0000000000424401
  DW_CFA_def_cfa_offset: 8
  DW_CFA_advance_loc: 5 to 0000000000424406
  DW_CFA_restore_state
  DW_CFA_advance_loc: 46 to 0000000000424434
  DW_CFA_remember_state
  DW_CFA_def_cfa_offset: 56
  DW_CFA_advance_loc: 8 to 000000000042443c
  DW_CFA_def_cfa_offset: 48
  DW_CFA_advance_loc: 1 to 000000000042443d
  DW_CFA_def_cfa_offset: 40
  DW_CFA_advance_loc: 2 to 000000000042443f
  DW_CFA_def_cfa_offset: 32
  DW_CFA_advance_loc: 2 to 0000000000424441
  DW_CFA_def_cfa_offset: 24
  DW_CFA_advance_loc: 2 to 0000000000424443
  DW_CFA_def_cfa_offset: 16
  DW_CFA_advance_loc: 2 to 0000000000424445
  DW_CFA_def_cfa_offset: 8
  DW_CFA_advance_loc: 5 to 000000000042444a
  DW_CFA_restore_state
  DW_CFA_advance_loc: 56 to 0000000000424482
  DW_CFA_remember_state
  DW_CFA_def_cfa_offset: 56
  DW_CFA_advance_loc: 8 to 000000000042448a
  DW_CFA_def_cfa_offset: 48
  DW_CFA_advance_loc: 1 to 000000000042448b
  DW_CFA_def_cfa_offset: 40
  DW_CFA_advance_loc: 2 to 000000000042448d
  DW_CFA_def_cfa_offset: 32
  DW_CFA_advance_loc: 2 to 000000000042448f
  DW_CFA_def_cfa_offset: 24
  DW_CFA_advance_loc: 2 to 0000000000424491
  DW_CFA_def_cfa_offset: 16
  DW_CFA_advance_loc: 2 to 0000000000424493
  DW_CFA_def_cfa_offset: 8
  DW_CFA_advance_loc: 5 to 0000000000424498
  DW_CFA_restore_state
  DW_CFA_advance_loc: 46 to 00000000004244c6
  DW_CFA_remember_state
  DW_CFA_def_cfa_offset: 56
  DW_CFA_advance_loc: 8 to 00000000004244ce
  DW_CFA_def_cfa_offset: 48
  DW_CFA_advance_loc: 1 to 00000000004244cf
  DW_CFA_def_cfa_offset: 40
  DW_CFA_advance_loc: 2 to 00000000004244d1
  DW_CFA_def_cfa_offset: 32
  DW_CFA_advance_loc: 2 to 00000000004244d3
  DW_CFA_def_cfa_offset: 24
  DW_CFA_advance_loc: 2 to 00000000004244d5
  DW_CFA_def_cfa_offset: 16
  DW_CFA_advance_loc: 2 to 00000000004244d7
  DW_CFA_def_cfa_offset: 8
  DW_CFA_advance_loc: 5 to 00000000004244dc
  DW_CFA_restore_state
  DW_CFA_advance_loc: 56 to 0000000000424514
  DW_CFA_remember_state
  DW_CFA_def_cfa_offset: 56
  DW_CFA_advance_loc: 8 to 000000000042451c
  DW_CFA_def_cfa_offset: 48
  DW_CFA_advance_loc: 1 to 000000000042451d
  DW_CFA_def_cfa_offset: 40
  DW_CFA_advance_loc: 2 to 000000000042451f
  DW_CFA_def_cfa_offset: 32
  DW_CFA_advance_loc: 2 to 0000000000424521
  DW_CFA_def_cfa_offset: 24
  DW_CFA_advance_loc: 2 to 0000000000424523
  DW_CFA_def_cfa_offset: 16
  DW_CFA_advance_loc: 2 to 0000000000424525
  DW_CFA_def_cfa_offset: 8
  DW_CFA_advance_loc: 5 to 000000000042452a
  DW_CFA_restore_state
  DW_CFA_advance_loc: 46 to 0000000000424558
  DW_CFA_remember_state
  DW_CFA_def_cfa_offset: 56
  DW_CFA_advance_loc: 8 to 0000000000424560
  DW_CFA_def_cfa_offset: 48
  DW_CFA_advance_loc: 1 to 0000000000424561
  DW_CFA_def_cfa_offset: 40
  DW_CFA_advance_loc: 2 to 0000000000424563
  DW_CFA_def_cfa_offset: 32
  DW_CFA_advance_loc: 2 to 0000000000424565
  DW_CFA_def_cfa_offset: 24
  DW_CFA_advance_loc: 2 to 0000000000424567
  DW_CFA_def_cfa_offset: 16
  DW_CFA_advance_loc: 2 to 0000000000424569
  DW_CFA_def_cfa_offset: 8
  DW_CFA_advance_loc: 5 to 000000000042456e
  DW_CFA_restore_state
  DW_CFA_advance_loc: 56 to 00000000004245a6
  DW_CFA_remember_state
  DW_CFA_def_cfa_offset: 56
  DW_CFA_advance_loc: 8 to 00000000004245ae
  DW_CFA_def_cfa_offset: 48
  DW_CFA_advance_loc: 1 to 00000000004245af
  DW_CFA_def_cfa_offset: 40
  DW_CFA_advance_loc: 2 to 00000000004245b1
  DW_CFA_def_cfa_offset: 32
  DW_CFA_advance_loc: 2 to 00000000004245b3
  DW_CFA_def_cfa_offset: 24
  DW_CFA_advance_loc: 2 to 00000000004245b5
  DW_CFA_def_cfa_offset: 16
  DW_CFA_advance_loc: 2 to 00000000004245b7
  DW_CFA_def_cfa_offset: 8
  DW_CFA_advance_loc: 5 to 00000000004245bc
  DW_CFA_restore_state
  DW_CFA_advance_loc: 46 to 00000000004245ea
  DW_CFA_remember_state
  DW_CFA_def_cfa_offset: 56
  DW_CFA_advance_loc: 8 to 00000000004245f2
  DW_CFA_def_cfa_offset: 48
  DW_CFA_advance_loc: 1 to 00000000004245f3
  DW_CFA_def_cfa_offset: 40
  DW_CFA_advance_loc: 2 to 00000000004245f5
  DW_CFA_def_cfa_offset: 32
  DW_CFA_advance_loc: 2 to 00000000004245f7
  DW_CFA_def_cfa_offset: 24
  DW_CFA_advance_loc: 2 to 00000000004245f9
  DW_CFA_def_cfa_offset: 16
  DW_CFA_advance_loc: 2 to 00000000004245fb
  DW_CFA_def_cfa_offset: 8
  DW_CFA_advance_loc: 5 to 0000000000424600
  DW_CFA_restore_state
  DW_CFA_advance_loc: 56 to 0000000000424638
  DW_CFA_remember_state
  DW_CFA_def_cfa_offset: 56
  DW_CFA_advance_loc: 8 to 0000000000424640
  DW_CFA_def_cfa_offset: 48
  DW_CFA_advance_loc: 1 to 0000000000424641
  DW_CFA_def_cfa_offset: 40
  DW_CFA_advance_loc: 2 to 0000000000424643
  DW_CFA_def_cfa_offset: 32
  DW_CFA_advance_loc: 2 to 0000000000424645
  DW_CFA_def_cfa_offset: 24
  DW_CFA_advance_loc: 2 to 0000000000424647
  DW_CFA_def_cfa_offset: 16
  DW_CFA_advance_loc: 2 to 0000000000424649
  DW_CFA_def_cfa_offset: 8
  DW_CFA_advance_loc: 5 to 000000000042464e
  DW_CFA_restore_state
  DW_CFA_advance_loc: 46 to 000000000042467c
  DW_CFA_remember_state
  DW_CFA_def_cfa_offset: 56
  DW_CFA_advance_loc: 8 to 0000000000424684
  DW_CFA_def_cfa_offset: 48
  DW_CFA_advance_loc: 1 to 0000000000424685
  DW_CFA_def_cfa_offset: 40
  DW_CFA_advance_loc: 2 to 0000000000424687
  DW_CFA_def_cfa_offset: 32
  DW_CFA_advance_loc: 2 to 0000000000424689
  DW_CFA_def_cfa_offset: 24
  DW_CFA_advance_loc: 2 to 000000000042468b
  DW_CFA_def_cfa_offset: 16
  DW_CFA_advance_loc: 2 to 000000000042468d
  DW_CFA_def_cfa_offset: 8
  DW_CFA_advance_loc: 5 to 0000000000424692
  DW_CFA_restore_state
  DW_CFA_advance_loc: 56 to 00000000004246ca
  DW_CFA_remember_state
  DW_CFA_def_cfa_offset: 56
  DW_CFA_advance_loc: 8 to 00000000004246d2
  DW_CFA_def_cfa_offset: 48
  DW_CFA_advance_loc: 1 to 00000000004246d3
  DW_CFA_def_cfa_offset: 40
  DW_CFA_advance_loc: 2 to 00000000004246d5
  DW_CFA_def_cfa_offset: 32
  DW_CFA_advance_loc: 2 to 00000000004246d7
  DW_CFA_def_cfa_offset: 24
  DW_CFA_advance_loc: 2 to 00000000004246d9
  DW_CFA_def_cfa_offset: 16
  DW_CFA_advance_loc: 2 to 00000000004246db
  DW_CFA_def_cfa_offset: 8
  DW_CFA_advance_loc: 5 to 00000000004246e0
  DW_CFA_restore_state
  DW_CFA_advance_loc: 46 to 000000000042470e
  DW_CFA_remember_state
  DW_CFA_def_cfa_offset: 56
  DW_CFA_advance_loc: 8 to 0000000000424716
  DW_CFA_def_cfa_offset: 48
  DW_CFA_advance_loc: 1 to 0000000000424717
  DW_CFA_def_cfa_offset: 40
  DW_CFA_advance_loc: 2 to 0000000000424719
  DW_CFA_def_cfa_offset: 32
  DW_CFA_advance_loc: 2 to 000000000042471b
  DW_CFA_def_cfa_offset: 24
  DW_CFA_advance_loc: 2 to 000000000042471d
  DW_CFA_def_cfa_offset: 16
  DW_CFA_advance_loc: 2 to 000000000042471f
  DW_CFA_def_cfa_offset: 8
  DW_CFA_advance_loc: 5 to 0000000000424724
  DW_CFA_restore_state
  DW_CFA_advance_loc: 56 to 000000000042475c
  DW_CFA_remember_state
  DW_CFA_def_cfa_offset: 56
  DW_CFA_advance_loc: 8 to 0000000000424764
  DW_CFA_def_cfa_offset: 48
  DW_CFA_advance_loc: 1 to 0000000000424765
  DW_CFA_def_cfa_offset: 40
  DW_CFA_advance_loc: 2 to 0000000000424767
  DW_CFA_def_cfa_offset: 32
  DW_CFA_advance_loc: 2 to 0000000000424769
  DW_CFA_def_cfa_offset: 24
  DW_CFA_advance_loc: 2 to 000000000042476b
  DW_CFA_def_cfa_offset: 16
  DW_CFA_advance_loc: 2 to 000000000042476d
  DW_CFA_def_cfa_offset: 8
  DW_CFA_advance_loc: 5 to 0000000000424772
  DW_CFA_restore_state
  DW_CFA_advance_loc: 46 to 00000000004247a0
  DW_CFA_remember_state
  DW_CFA_def_cfa_offset: 56
  DW_CFA_advance_loc: 8 to 00000000004247a8
  DW_CFA_def_cfa_offset: 48
  DW_CFA_advance_loc: 1 to 00000000004247a9
  DW_CFA_def_cfa_offset: 40
  DW_CFA_advance_loc: 2 to 00000000004247ab
  DW_CFA_def_cfa_offset: 32
  DW_CFA_advance_loc: 2 to 00000000004247ad
  DW_CFA_def_cfa_offset: 24
  DW_CFA_advance_loc: 2 to 00000000004247af
  DW_CFA_def_cfa_offset: 16
  DW_CFA_advance_loc: 2 to 00000000004247b1
  DW_CFA_def_cfa_offset: 8
  DW_CFA_advance_loc: 5 to 00000000004247b6
  DW_CFA_restore_state
  DW_CFA_advance_loc: 56 to 00000000004247ee
  DW_CFA_remember_state
  DW_CFA_def_cfa_offset: 56
  DW_CFA_advance_loc: 8 to 00000000004247f6
  DW_CFA_def_cfa_offset: 48
  DW_CFA_advance_loc: 1 to 00000000004247f7
  DW_CFA_def_cfa_offset: 40
  DW_CFA_advance_loc: 2 to 00000000004247f9
  DW_CFA_def_cfa_offset: 32
  DW_CFA_advance_loc: 2 to 00000000004247fb
  DW_CFA_def_cfa_offset: 24
  DW_CFA_advance_loc: 2 to 00000000004247fd
  DW_CFA_def_cfa_offset: 16
  DW_CFA_advance_loc: 2 to 00000000004247ff
  DW_CFA_def_cfa_offset: 8
  DW_CFA_advance_loc: 5 to 0000000000424804
  DW_CFA_restore_state
  DW_CFA_advance_loc: 46 to 0000000000424832
  DW_CFA_remember_state
  DW_CFA_def_cfa_offset: 56
  DW_CFA_advance_loc: 8 to 000000000042483a
  DW_CFA_def_cfa_offset: 48
  DW_CFA_advance_loc: 1 to 000000000042483b
  DW_CFA_def_cfa_offset: 40
  DW_CFA_advance_loc: 2 to 000000000042483d
  DW_CFA_def_cfa_offset: 32
  DW_CFA_advance_loc: 2 to 000000000042483f
  DW_CFA_def_cfa_offset: 24
  DW_CFA_advance_loc: 2 to 0000000000424841
  DW_CFA_def_cfa_offset: 16
  DW_CFA_advance_loc: 2 to 0000000000424843
  DW_CFA_def_cfa_offset: 8
  DW_CFA_advance_loc: 5 to 0000000000424848
  DW_CFA_restore_state
  DW_CFA_advance_loc: 56 to 0000000000424880
  DW_CFA_remember_state
  DW_CFA_def_cfa_offset: 56
  DW_CFA_advance_loc: 8 to 0000000000424888
  DW_CFA_def_cfa_offset: 48
  DW_CFA_advance_loc: 1 to 0000000000424889
  DW_CFA_def_cfa_offset: 40
  DW_CFA_advance_loc: 2 to 000000000042488b
  DW_CFA_def_cfa_offset: 32
  DW_CFA_advance_loc: 2 to 000000000042488d
  DW_CFA_def_cfa_offset: 24
  DW_CFA_advance_loc: 2 to 000000000042488f
  DW_CFA_def_cfa_offset: 16
  DW_CFA_advance_loc: 2 to 0000000000424891
  DW_CFA_def_cfa_offset: 8
  DW_CFA_advance_loc: 5 to 0000000000424896
  DW_CFA_restore_state
  DW_CFA_advance_loc: 46 to 00000000004248c4
  DW_CFA_remember_state
  DW_CFA_def_cfa_offset: 56
  DW_CFA_advance_loc: 8 to 00000000004248cc
  DW_CFA_def_cfa_offset: 48
  DW_CFA_advance_loc: 1 to 00000000004248cd
  DW_CFA_def_cfa_offset: 40
  DW_CFA_advance_loc: 2 to 00000000004248cf
  DW_CFA_def_cfa_offset: 32
  DW_CFA_advance_loc: 2 to 00000000004248d1
  DW_CFA_def_cfa_offset: 24
  DW_CFA_advance_loc: 2 to 00000000004248d3
  DW_CFA_def_cfa_offset: 16
  DW_CFA_advance_loc: 2 to 00000000004248d5
  DW_CFA_def_cfa_offset: 8
  DW_CFA_advance_loc: 5 to 00000000004248da
  DW_CFA_restore_state
  DW_CFA_advance_loc: 56 to 0000000000424912
  DW_CFA_remember_state
  DW_CFA_def_cfa_offset: 56
  DW_CFA_advance_loc: 8 to 000000000042491a
  DW_CFA_def_cfa_offset: 48
  DW_CFA_advance_loc: 1 to 000000000042491b
  DW_CFA_def_cfa_offset: 40
  DW_CFA_advance_loc: 2 to 000000000042491d
  DW_CFA_def_cfa_offset: 32
  DW_CFA_advance_loc: 2 to 000000000042491f
  DW_CFA_def_cfa_offset: 24
  DW_CFA_advance_loc: 2 to 0000000000424921
  DW_CFA_def_cfa_offset: 16
  DW_CFA_advance_loc: 2 to 0000000000424923
  DW_CFA_def_cfa_offset: 8
  DW_CFA_advance_loc: 5 to 0000000000424928
  DW_CFA_restore_state
  DW_CFA_advance_loc: 46 to 0000000000424956
  DW_CFA_remember_state
  DW_CFA_def_cfa_offset: 56
  DW_CFA_advance_loc: 8 to 000000000042495e
  DW_CFA_def_cfa_offset: 48
  DW_CFA_advance_loc: 1 to 000000000042495f
  DW_CFA_def_cfa_offset: 40
  DW_CFA_advance_loc: 2 to 0000000000424961
  DW_CFA_def_cfa_offset: 32
  DW_CFA_advance_loc: 2 to 0000000000424963
  DW_CFA_def_cfa_offset: 24
  DW_CFA_advance_loc: 2 to 0000000000424965
  DW_CFA_def_cfa_offset: 16
  DW_CFA_advance_loc: 2 to 0000000000424967
  DW_CFA_def_cfa_offset: 8
  DW_CFA_advance_loc: 5 to 000000000042496c
  DW_CFA_restore_state
  DW_CFA_advance_loc: 56 to 00000000004249a4
  DW_CFA_remember_state
  DW_CFA_def_cfa_offset: 56
  DW_CFA_advance_loc: 8 to 00000000004249ac
  DW_CFA_def_cfa_offset: 48
  DW_CFA_advance_loc: 1 to 00000000004249ad
  DW_CFA_def_cfa_offset: 40
  DW_CFA_advance_loc: 2 to 00000000004249af
  DW_CFA_def_cfa_offset: 32
  DW_CFA_advance_loc: 2 to 00000000004249b1
  DW_CFA_def_cfa_offset: 24
  DW_CFA_advance_loc: 2 to 00000000004249b3
  DW_CFA_def_cfa_offset: 16
  DW_CFA_advance_loc: 2 to 00000000004249b5
  DW_CFA_def_cfa_offset: 8
  DW_CFA_advance_loc: 5 to 00000000004249ba
  DW_CFA_restore_state
  DW_CFA_advance_loc: 46 to 00000000004249e8
  DW_CFA_remember_state
  DW_CFA_def_cfa_offset: 56
  DW_CFA_advance_loc: 8 to 00000000004249f0
  DW_CFA_def_cfa_offset: 48
  DW_CFA_advance_loc: 1 to 00000000004249f1
  DW_CFA_def_cfa_offset: 40
  DW_CFA_advance_loc: 2 to 00000000004249f3
  DW_CFA_def_cfa_offset: 32
  DW_CFA_advance_loc: 2 to 00000000004249f5
  DW_CFA_def_cfa_offset: 24
  DW_CFA_advance_loc: 2 to 00000000004249f7
  DW_CFA_def_cfa_offset: 16
  DW_CFA_advance_loc: 2 to 00000000004249f9
  DW_CFA_def_cfa_offset: 8
  DW_CFA_advance_loc: 5 to 00000000004249fe
  DW_CFA_restore_state
  DW_CFA_advance_loc: 56 to 0000000000424a36
  DW_CFA_remember_state
  DW_CFA_def_cfa_offset: 56
  DW_CFA_advance_loc: 8 to 0000000000424a3e
  DW_CFA_def_cfa_offset: 48
  DW_CFA_advance_loc: 1 to 0000000000424a3f
  DW_CFA_def_cfa_offset: 40
  DW_CFA_advance_loc: 2 to 0000000000424a41
  DW_CFA_def_cfa_offset: 32
  DW_CFA_advance_loc: 2 to 0000000000424a43
  DW_CFA_def_cfa_offset: 24
  DW_CFA_advance_loc: 2 to 0000000000424a45
  DW_CFA_def_cfa_offset: 16
  DW_CFA_advance_loc: 2 to 0000000000424a47
  DW_CFA_def_cfa_offset: 8
  DW_CFA_advance_loc: 5 to 0000000000424a4c
  DW_CFA_restore_state
  DW_CFA_advance_loc: 46 to 0000000000424a7a
  DW_CFA_remember_state
  DW_CFA_def_cfa_offset: 56
  DW_CFA_advance_loc: 8 to 0000000000424a82
  DW_CFA_def_cfa_offset: 48
  DW_CFA_advance_loc: 1 to 0000000000424a83
  DW_CFA_def_cfa_offset: 40
  DW_CFA_advance_loc: 2 to 0000000000424a85
  DW_CFA_def_cfa_offset: 32
  DW_CFA_advance_loc: 2 to 0000000000424a87
  DW_CFA_def_cfa_offset: 24
  DW_CFA_advance_loc: 2 to 0000000000424a89
  DW_CFA_def_cfa_offset: 16
  DW_CFA_advance_loc: 2 to 0000000000424a8b
  DW_CFA_def_cfa_offset: 8
  DW_CFA_advance_loc: 5 to 0000000000424a90
  DW_CFA_restore_state
  DW_CFA_advance_loc: 56 to 0000000000424ac8
  DW_CFA_remember_state
  DW_CFA_def_cfa_offset: 56
  DW_CFA_advance_loc: 8 to 0000000000424ad0
  DW_CFA_def_cfa_offset: 48
  DW_CFA_advance_loc: 1 to 0000000000424ad1
  DW_CFA_def_cfa_offset: 40
  DW_CFA_advance_loc: 2 to 0000000000424ad3
  DW_CFA_def_cfa_offset: 32
  DW_CFA_advance_loc: 2 to 0000000000424ad5
  DW_CFA_def_cfa_offset: 24
  DW_CFA_advance_loc: 2 to 0000000000424ad7
  DW_CFA_def_cfa_offset: 16
  DW_CFA_advance_loc: 2 to 0000000000424ad9
  DW_CFA_def_cfa_offset: 8
  DW_CFA_advance_loc: 5 to 0000000000424ade
  DW_CFA_restore_state
  DW_CFA_advance_loc: 46 to 0000000000424b0c
  DW_CFA_remember_state
  DW_CFA_def_cfa_offset: 56
  DW_CFA_advance_loc: 8 to 0000000000424b14
  DW_CFA_def_cfa_offset: 48
  DW_CFA_advance_loc: 1 to 0000000000424b15
  DW_CFA_def_cfa_offset: 40
  DW_CFA_advance_loc: 2 to 0000000000424b17
  DW_CFA_def_cfa_offset: 32
  DW_CFA_advance_loc: 2 to 0000000000424b19
  DW_CFA_def_cfa_offset: 24
  DW_CFA_advance_loc: 2 to 0000000000424b1b
  DW_CFA_def_cfa_offset: 16
  DW_CFA_advance_loc: 2 to 0000000000424b1d
  DW_CFA_def_cfa_offset: 8
  DW_CFA_advance_loc: 5 to 0000000000424b22
  DW_CFA_restore_state
  DW_CFA_advance_loc: 56 to 0000000000424b5a
  DW_CFA_remember_state
  DW_CFA_def_cfa_offset: 56
  DW_CFA_advance_loc: 8 to 0000000000424b62
  DW_CFA_def_cfa_offset: 48
  DW_CFA_advance_loc: 1 to 0000000000424b63
  DW_CFA_def_cfa_offset: 40
  DW_CFA_advance_loc: 2 to 0000000000424b65
  DW_CFA_def_cfa_offset: 32
  DW_CFA_advance_loc: 2 to 0000000000424b67
  DW_CFA_def_cfa_offset: 24
  DW_CFA_advance_loc: 2 to 0000000000424b69
  DW_CFA_def_cfa_offset: 16
  DW_CFA_advance_loc: 2 to 0000000000424b6b
  DW_CFA_def_cfa_offset: 8
  DW_CFA_advance_loc: 5 to 0000000000424b70
  DW_CFA_restore_state
  DW_CFA_advance_loc: 46 to 0000000000424b9e
  DW_CFA_remember_state
  DW_CFA_def_cfa_offset: 56
  DW_CFA_advance_loc: 8 to 0000000000424ba6
  DW_CFA_def_cfa_offset: 48
  DW_CFA_advance_loc: 1 to 0000000000424ba7
  DW_CFA_def_cfa_offset: 40
  DW_CFA_advance_loc: 2 to 0000000000424ba9
  DW_CFA_def_cfa_offset: 32
  DW_CFA_advance_loc: 2 to 0000000000424bab
  DW_CFA_def_cfa_offset: 24
  DW_CFA_advance_loc: 2 to 0000000000424bad
  DW_CFA_def_cfa_offset: 16
  DW_CFA_advance_loc: 2 to 0000000000424baf
  DW_CFA_def_cfa_offset: 8
  DW_CFA_advance_loc: 5 to 0000000000424bb4
  DW_CFA_restore_state
  DW_CFA_advance_loc: 56 to 0000000000424bec
  DW_CFA_remember_state
  DW_CFA_def_cfa_offset: 56
  DW_CFA_advance_loc: 8 to 0000000000424bf4
  DW_CFA_def_cfa_offset: 48
  DW_CFA_advance_loc: 1 to 0000000000424bf5
  DW_CFA_def_cfa_offset: 40
  DW_CFA_advance_loc: 2 to 0000000000424bf7
  DW_CFA_def_cfa_offset: 32
  DW_CFA_advance_loc: 2 to 0000000000424bf9
  DW_CFA_def_cfa_offset: 24
  DW_CFA_advance_loc: 2 to 0000000000424bfb
  DW_CFA_def_cfa_offset: 16
  DW_CFA_advance_loc: 2 to 0000000000424bfd
  DW_CFA_def_cfa_offset: 8
  DW_CFA_advance_loc: 5 to 0000000000424c02
  DW_CFA_restore_state
  DW_CFA_advance_loc: 46 to 0000000000424c30
  DW_CFA_remember_state
  DW_CFA_def_cfa_offset: 56
  DW_CFA_advance_loc: 8 to 0000000000424c38
  DW_CFA_def_cfa_offset: 48
  DW_CFA_advance_loc: 1 to 0000000000424c39
  DW_CFA_def_cfa_offset: 40
  DW_CFA_advance_loc: 2 to 0000000000424c3b
  DW_CFA_def_cfa_offset: 32
  DW_CFA_advance_loc: 2 to 0000000000424c3d
  DW_CFA_def_cfa_offset: 24
  DW_CFA_advance_loc: 2 to 0000000000424c3f
  DW_CFA_def_cfa_offset: 16
  DW_CFA_advance_loc: 2 to 0000000000424c41
  DW_CFA_def_cfa_offset: 8
  DW_CFA_advance_loc: 5 to 0000000000424c46
  DW_CFA_restore_state
  DW_CFA_advance_loc: 56 to 0000000000424c7e
  DW_CFA_remember_state
  DW_CFA_def_cfa_offset: 56
  DW_CFA_advance_loc: 8 to 0000000000424c86
  DW_CFA_def_cfa_offset: 48
  DW_CFA_advance_loc: 1 to 0000000000424c87
  DW_CFA_def_cfa_offset: 40
  DW_CFA_advance_loc: 2 to 0000000000424c89
  DW_CFA_def_cfa_offset: 32
  DW_CFA_advance_loc: 2 to 0000000000424c8b
  DW_CFA_def_cfa_offset: 24
  DW_CFA_advance_loc: 2 to 0000000000424c8d
  DW_CFA_def_cfa_offset: 16
  DW_CFA_advance_loc: 2 to 0000000000424c8f
  DW_CFA_def_cfa_offset: 8
  DW_CFA_advance_loc: 5 to 0000000000424c94
  DW_CFA_restore_state
  DW_CFA_advance_loc: 46 to 0000000000424cc2
  DW_CFA_remember_state
  DW_CFA_def_cfa_offset: 56
  DW_CFA_advance_loc: 8 to 0000000000424cca
  DW_CFA_def_cfa_offset: 48
  DW_CFA_advance_loc: 1 to 0000000000424ccb
  DW_CFA_def_cfa_offset: 40
  DW_CFA_advance_loc: 2 to 0000000000424ccd
  DW_CFA_def_cfa_offset: 32
  DW_CFA_advance_loc: 2 to 0000000000424ccf
  DW_CFA_def_cfa_offset: 24
  DW_CFA_advance_loc: 2 to 0000000000424cd1
  DW_CFA_def_cfa_offset: 16
  DW_CFA_advance_loc: 2 to 0000000000424cd3
  DW_CFA_def_cfa_offset: 8
  DW_CFA_advance_loc: 5 to 0000000000424cd8
  DW_CFA_restore_state
  DW_CFA_advance_loc: 56 to 0000000000424d10
  DW_CFA_remember_state
  DW_CFA_def_cfa_offset: 56
  DW_CFA_advance_loc: 8 to 0000000000424d18
  DW_CFA_def_cfa_offset: 48
  DW_CFA_advance_loc: 1 to 0000000000424d19
  DW_CFA_def_cfa_offset: 40
  DW_CFA_advance_loc: 2 to 0000000000424d1b
  DW_CFA_def_cfa_offset: 32
  DW_CFA_advance_loc: 2 to 0000000000424d1d
  DW_CFA_def_cfa_offset: 24
  DW_CFA_advance_loc: 2 to 0000000000424d1f
  DW_CFA_def_cfa_offset: 16
  DW_CFA_advance_loc: 2 to 0000000000424d21
  DW_CFA_def_cfa_offset: 8
  DW_CFA_advance_loc: 5 to 0000000000424d26
  DW_CFA_restore_state
  DW_CFA_advance_loc: 46 to 0000000000424d54
  DW_CFA_remember_state
  DW_CFA_def_cfa_offset: 56
  DW_CFA_advance_loc: 8 to 0000000000424d5c
  DW_CFA_def_cfa_offset: 48
  DW_CFA_advance_loc: 1 to 0000000000424d5d
  DW_CFA_def_cfa_offset: 40
  DW_CFA_advance_loc: 2 to 0000000000424d5f
  DW_CFA_def_cfa_offset: 32
  DW_CFA_advance_loc: 2 to 0000000000424d61
  DW_CFA_def_cfa_offset: 24
  DW_CFA_advance_loc: 2 to 0000000000424d63
  DW_CFA_def_cfa_offset: 16
  DW_CFA_advance_loc: 2 to 0000000000424d65
  DW_CFA_def_cfa_offset: 8
  DW_CFA_advance_loc: 5 to 0000000000424d6a
  DW_CFA_restore_state
  DW_CFA_advance_loc: 56 to 0000000000424da2
  DW_CFA_remember_state
  DW_CFA_def_cfa_offset: 56
  DW_CFA_advance_loc: 8 to 0000000000424daa
  DW_CFA_def_cfa_offset: 48
  DW_CFA_advance_loc: 1 to 0000000000424dab
  DW_CFA_def_cfa_offset: 40
  DW_CFA_advance_loc: 2 to 0000000000424dad
  DW_CFA_def_cfa_offset: 32
  DW_CFA_advance_loc: 2 to 0000000000424daf
  DW_CFA_def_cfa_offset: 24
  DW_CFA_advance_loc: 2 to 0000000000424db1
  DW_CFA_def_cfa_offset: 16
  DW_CFA_advance_loc: 2 to 0000000000424db3
  DW_CFA_def_cfa_offset: 8
  DW_CFA_advance_loc: 5 to 0000000000424db8
  DW_CFA_restore_state
  DW_CFA_advance_loc: 46 to 0000000000424de6
  DW_CFA_remember_state
  DW_CFA_def_cfa_offset: 56
  DW_CFA_advance_loc: 8 to 0000000000424dee
  DW_CFA_def_cfa_offset: 48
  DW_CFA_advance_loc: 1 to 0000000000424def
  DW_CFA_def_cfa_offset: 40
  DW_CFA_advance_loc: 2 to 0000000000424df1
  DW_CFA_def_cfa_offset: 32
  DW_CFA_advance_loc: 2 to 0000000000424df3
  DW_CFA_def_cfa_offset: 24
  DW_CFA_advance_loc: 2 to 0000000000424df5
  DW_CFA_def_cfa_offset: 16
  DW_CFA_advance_loc: 2 to 0000000000424df7
  DW_CFA_def_cfa_offset: 8
  DW_CFA_advance_loc: 5 to 0000000000424dfc
  DW_CFA_restore_state
  DW_CFA_advance_loc: 56 to 0000000000424e34
  DW_CFA_remember_state
  DW_CFA_def_cfa_offset: 56
  DW_CFA_advance_loc: 8 to 0000000000424e3c
  DW_CFA_def_cfa_offset: 48
  DW_CFA_advance_loc: 1 to 0000000000424e3d
  DW_CFA_def_cfa_offset: 40
  DW_CFA_advance_loc: 2 to 0000000000424e3f
  DW_CFA_def_cfa_offset: 32
  DW_CFA_advance_loc: 2 to 0000000000424e41
  DW_CFA_def_cfa_offset: 24
  DW_CFA_advance_loc: 2 to 0000000000424e43
  DW_CFA_def_cfa_offset: 16
  DW_CFA_advance_loc: 2 to 0000000000424e45
  DW_CFA_def_cfa_offset: 8
  DW_CFA_advance_loc: 5 to 0000000000424e4a
  DW_CFA_restore_state
  DW_CFA_advance_loc: 46 to 0000000000424e78
  DW_CFA_remember_state
  DW_CFA_def_cfa_offset: 56
  DW_CFA_advance_loc: 8 to 0000000000424e80
  DW_CFA_def_cfa_offset: 48
  DW_CFA_advance_loc: 1 to 0000000000424e81
  DW_CFA_def_cfa_offset: 40
  DW_CFA_advance_loc: 2 to 0000000000424e83
  DW_CFA_def_cfa_offset: 32
  DW_CFA_advance_loc: 2 to 0000000000424e85
  DW_CFA_def_cfa_offset: 24
  DW_CFA_advance_loc: 2 to 0000000000424e87
  DW_CFA_def_cfa_offset: 16
  DW_CFA_advance_loc: 2 to 0000000000424e89
  DW_CFA_def_cfa_offset: 8
  DW_CFA_advance_loc: 5 to 0000000000424e8e
  DW_CFA_restore_state
  DW_CFA_advance_loc1: 128 to 0000000000424f0e
  DW_CFA_remember_state
  DW_CFA_def_cfa_offset: 56
  DW_CFA_advance_loc: 8 to 0000000000424f16
  DW_CFA_def_cfa_offset: 48
  DW_CFA_advance_loc: 1 to 0000000000424f17
  DW_CFA_def_cfa_offset: 40
  DW_CFA_advance_loc: 2 to 0000000000424f19
  DW_CFA_def_cfa_offset: 32
  DW_CFA_advance_loc: 2 to 0000000000424f1b
  DW_CFA_def_cfa_offset: 24
  DW_CFA_advance_loc: 2 to 0000000000424f1d
  DW_CFA_def_cfa_offset: 16
  DW_CFA_advance_loc: 2 to 0000000000424f1f
  DW_CFA_def_cfa_offset: 8
  DW_CFA_advance_loc: 5 to 0000000000424f24
  DW_CFA_restore_state
  DW_CFA_advance_loc: 46 to 0000000000424f52
  DW_CFA_remember_state
  DW_CFA_def_cfa_offset: 56
  DW_CFA_advance_loc: 8 to 0000000000424f5a
  DW_CFA_def_cfa_offset: 48
  DW_CFA_advance_loc: 1 to 0000000000424f5b
  DW_CFA_def_cfa_offset: 40
  DW_CFA_advance_loc: 2 to 0000000000424f5d
  DW_CFA_def_cfa_offset: 32
  DW_CFA_advance_loc: 2 to 0000000000424f5f
  DW_CFA_def_cfa_offset: 24
  DW_CFA_advance_loc: 2 to 0000000000424f61
  DW_CFA_def_cfa_offset: 16
  DW_CFA_advance_loc: 2 to 0000000000424f63
  DW_CFA_def_cfa_offset: 8
  DW_CFA_advance_loc: 5 to 0000000000424f68
  DW_CFA_restore_state
  DW_CFA_advance_loc: 56 to 0000000000424fa0
  DW_CFA_remember_state
  DW_CFA_def_cfa_offset: 56
  DW_CFA_advance_loc: 8 to 0000000000424fa8
  DW_CFA_def_cfa_offset: 48
  DW_CFA_advance_loc: 1 to 0000000000424fa9
  DW_CFA_def_cfa_offset: 40
  DW_CFA_advance_loc: 2 to 0000000000424fab
  DW_CFA_def_cfa_offset: 32
  DW_CFA_advance_loc: 2 to 0000000000424fad
  DW_CFA_def_cfa_offset: 24
  DW_CFA_advance_loc: 2 to 0000000000424faf
  DW_CFA_def_cfa_offset: 16
  DW_CFA_advance_loc: 2 to 0000000000424fb1
  DW_CFA_def_cfa_offset: 8
  DW_CFA_advance_loc: 5 to 0000000000424fb6
  DW_CFA_restore_state
  DW_CFA_advance_loc: 46 to 0000000000424fe4
  DW_CFA_remember_state
  DW_CFA_def_cfa_offset: 56
  DW_CFA_advance_loc: 8 to 0000000000424fec
  DW_CFA_def_cfa_offset: 48
  DW_CFA_advance_loc: 1 to 0000000000424fed
  DW_CFA_def_cfa_offset: 40
  DW_CFA_advance_loc: 2 to 0000000000424fef
  DW_CFA_def_cfa_offset: 32
  DW_CFA_advance_loc: 2 to 0000000000424ff1
  DW_CFA_def_cfa_offset: 24
  DW_CFA_advance_loc: 2 to 0000000000424ff3
  DW_CFA_def_cfa_offset: 16
  DW_CFA_advance_loc: 2 to 0000000000424ff5
  DW_CFA_def_cfa_offset: 8
  DW_CFA_advance_loc: 5 to 0000000000424ffa
  DW_CFA_restore_state
  DW_CFA_advance_loc: 56 to 0000000000425032
  DW_CFA_remember_state
  DW_CFA_def_cfa_offset: 56
  DW_CFA_advance_loc: 8 to 000000000042503a
  DW_CFA_def_cfa_offset: 48
  DW_CFA_advance_loc: 1 to 000000000042503b
  DW_CFA_def_cfa_offset: 40
  DW_CFA_advance_loc: 2 to 000000000042503d
  DW_CFA_def_cfa_offset: 32
  DW_CFA_advance_loc: 2 to 000000000042503f
  DW_CFA_def_cfa_offset: 24
  DW_CFA_advance_loc: 2 to 0000000000425041
  DW_CFA_def_cfa_offset: 16
  DW_CFA_advance_loc: 2 to 0000000000425043
  DW_CFA_def_cfa_offset: 8
  DW_CFA_advance_loc: 5 to 0000000000425048
  DW_CFA_restore_state
  DW_CFA_advance_loc: 46 to 0000000000425076
  DW_CFA_remember_state
  DW_CFA_def_cfa_offset: 56
  DW_CFA_advance_loc: 8 to 000000000042507e
  DW_CFA_def_cfa_offset: 48
  DW_CFA_advance_loc: 1 to 000000000042507f
  DW_CFA_def_cfa_offset: 40
  DW_CFA_advance_loc: 2 to 0000000000425081
  DW_CFA_def_cfa_offset: 32
  DW_CFA_advance_loc: 2 to 0000000000425083
  DW_CFA_def_cfa_offset: 24
  DW_CFA_advance_loc: 2 to 0000000000425085
  DW_CFA_def_cfa_offset: 16
  DW_CFA_advance_loc: 2 to 0000000000425087
  DW_CFA_def_cfa_offset: 8
  DW_CFA_advance_loc: 5 to 000000000042508c
  DW_CFA_restore_state
  DW_CFA_advance_loc: 56 to 00000000004250c4
  DW_CFA_remember_state
  DW_CFA_def_cfa_offset: 56
  DW_CFA_advance_loc: 8 to 00000000004250cc
  DW_CFA_def_cfa_offset: 48
  DW_CFA_advance_loc: 1 to 00000000004250cd
  DW_CFA_def_cfa_offset: 40
  DW_CFA_advance_loc: 2 to 00000000004250cf
  DW_CFA_def_cfa_offset: 32
  DW_CFA_advance_loc: 2 to 00000000004250d1
  DW_CFA_def_cfa_offset: 24
  DW_CFA_advance_loc: 2 to 00000000004250d3
  DW_CFA_def_cfa_offset: 16
  DW_CFA_advance_loc: 2 to 00000000004250d5
  DW_CFA_def_cfa_offset: 8
  DW_CFA_advance_loc: 5 to 00000000004250da
  DW_CFA_restore_state
  DW_CFA_advance_loc: 46 to 0000000000425108
  DW_CFA_remember_state
  DW_CFA_def_cfa_offset: 56
  DW_CFA_advance_loc: 11 to 0000000000425113
  DW_CFA_def_cfa_offset: 48
  DW_CFA_advance_loc: 1 to 0000000000425114
  DW_CFA_def_cfa_offset: 40
  DW_CFA_advance_loc: 2 to 0000000000425116
  DW_CFA_def_cfa_offset: 32
  DW_CFA_advance_loc: 2 to 0000000000425118
  DW_CFA_def_cfa_offset: 24
  DW_CFA_advance_loc: 2 to 000000000042511a
  DW_CFA_def_cfa_offset: 16
  DW_CFA_advance_loc: 2 to 000000000042511c
  DW_CFA_def_cfa_offset: 8
  DW_CFA_advance_loc: 5 to 0000000000425121
  DW_CFA_restore_state
  DW_CFA_advance_loc: 56 to 0000000000425159
  DW_CFA_remember_state
  DW_CFA_def_cfa_offset: 56
  DW_CFA_advance_loc: 8 to 0000000000425161
  DW_CFA_def_cfa_offset: 48
  DW_CFA_advance_loc: 1 to 0000000000425162
  DW_CFA_def_cfa_offset: 40
  DW_CFA_advance_loc: 2 to 0000000000425164
  DW_CFA_def_cfa_offset: 32
  DW_CFA_advance_loc: 2 to 0000000000425166
  DW_CFA_def_cfa_offset: 24
  DW_CFA_advance_loc: 2 to 0000000000425168
  DW_CFA_def_cfa_offset: 16
  DW_CFA_advance_loc: 2 to 000000000042516a
  DW_CFA_def_cfa_offset: 8
  DW_CFA_advance_loc: 5 to 000000000042516f
  DW_CFA_restore_state
  DW_CFA_advance_loc: 46 to 000000000042519d
  DW_CFA_remember_state
  DW_CFA_def_cfa_offset: 56
  DW_CFA_advance_loc: 8 to 00000000004251a5
  DW_CFA_def_cfa_offset: 48
  DW_CFA_advance_loc: 1 to 00000000004251a6
  DW_CFA_def_cfa_offset: 40
  DW_CFA_advance_loc: 2 to 00000000004251a8
  DW_CFA_def_cfa_offset: 32
  DW_CFA_advance_loc: 2 to 00000000004251aa
  DW_CFA_def_cfa_offset: 24
  DW_CFA_advance_loc: 2 to 00000000004251ac
  DW_CFA_def_cfa_offset: 16
  DW_CFA_advance_loc: 2 to 00000000004251ae
  DW_CFA_def_cfa_offset: 8
  DW_CFA_advance_loc: 5 to 00000000004251b3
  DW_CFA_restore_state
  DW_CFA_advance_loc: 56 to 00000000004251eb
  DW_CFA_remember_state
  DW_CFA_def_cfa_offset: 56
  DW_CFA_advance_loc: 8 to 00000000004251f3
  DW_CFA_def_cfa_offset: 48
  DW_CFA_advance_loc: 1 to 00000000004251f4
  DW_CFA_def_cfa_offset: 40
  DW_CFA_advance_loc: 2 to 00000000004251f6
  DW_CFA_def_cfa_offset: 32
  DW_CFA_advance_loc: 2 to 00000000004251f8
  DW_CFA_def_cfa_offset: 24
  DW_CFA_advance_loc: 2 to 00000000004251fa
  DW_CFA_def_cfa_offset: 16
  DW_CFA_advance_loc: 2 to 00000000004251fc
  DW_CFA_def_cfa_offset: 8
  DW_CFA_advance_loc: 5 to 0000000000425201
  DW_CFA_restore_state
  DW_CFA_advance_loc: 46 to 000000000042522f
  DW_CFA_remember_state
  DW_CFA_def_cfa_offset: 56
  DW_CFA_advance_loc: 8 to 0000000000425237
  DW_CFA_def_cfa_offset: 48
  DW_CFA_advance_loc: 1 to 0000000000425238
  DW_CFA_def_cfa_offset: 40
  DW_CFA_advance_loc: 2 to 000000000042523a
  DW_CFA_def_cfa_offset: 32
  DW_CFA_advance_loc: 2 to 000000000042523c
  DW_CFA_def_cfa_offset: 24
  DW_CFA_advance_loc: 2 to 000000000042523e
  DW_CFA_def_cfa_offset: 16
  DW_CFA_advance_loc: 2 to 0000000000425240
  DW_CFA_def_cfa_offset: 8
  DW_CFA_advance_loc: 5 to 0000000000425245
  DW_CFA_restore_state
  DW_CFA_advance_loc: 56 to 000000000042527d
  DW_CFA_remember_state
  DW_CFA_def_cfa_offset: 56
  DW_CFA_advance_loc: 8 to 0000000000425285
  DW_CFA_def_cfa_offset: 48
  DW_CFA_advance_loc: 1 to 0000000000425286
  DW_CFA_def_cfa_offset: 40
  DW_CFA_advance_loc: 2 to 0000000000425288
  DW_CFA_def_cfa_offset: 32
  DW_CFA_advance_loc: 2 to 000000000042528a
  DW_CFA_def_cfa_offset: 24
  DW_CFA_advance_loc: 2 to 000000000042528c
  DW_CFA_def_cfa_offset: 16
  DW_CFA_advance_loc: 2 to 000000000042528e
  DW_CFA_def_cfa_offset: 8
  DW_CFA_advance_loc: 5 to 0000000000425293
  DW_CFA_restore_state
  DW_CFA_advance_loc: 46 to 00000000004252c1
  DW_CFA_remember_state
  DW_CFA_def_cfa_offset: 56
  DW_CFA_advance_loc: 8 to 00000000004252c9
  DW_CFA_def_cfa_offset: 48
  DW_CFA_advance_loc: 1 to 00000000004252ca
  DW_CFA_def_cfa_offset: 40
  DW_CFA_advance_loc: 2 to 00000000004252cc
  DW_CFA_def_cfa_offset: 32
  DW_CFA_advance_loc: 2 to 00000000004252ce
  DW_CFA_def_cfa_offset: 24
  DW_CFA_advance_loc: 2 to 00000000004252d0
  DW_CFA_def_cfa_offset: 16
  DW_CFA_advance_loc: 2 to 00000000004252d2
  DW_CFA_def_cfa_offset: 8
  DW_CFA_advance_loc: 5 to 00000000004252d7
  DW_CFA_restore_state
  DW_CFA_advance_loc: 56 to 000000000042530f
  DW_CFA_remember_state
  DW_CFA_def_cfa_offset: 56
  DW_CFA_advance_loc: 8 to 0000000000425317
  DW_CFA_def_cfa_offset: 48
  DW_CFA_advance_loc: 1 to 0000000000425318
  DW_CFA_def_cfa_offset: 40
  DW_CFA_advance_loc: 2 to 000000000042531a
  DW_CFA_def_cfa_offset: 32
  DW_CFA_advance_loc: 2 to 000000000042531c
  DW_CFA_def_cfa_offset: 24
  DW_CFA_advance_loc: 2 to 000000000042531e
  DW_CFA_def_cfa_offset: 16
  DW_CFA_advance_loc: 2 to 0000000000425320
  DW_CFA_def_cfa_offset: 8
  DW_CFA_advance_loc: 5 to 0000000000425325
  DW_CFA_restore_state
  DW_CFA_advance_loc: 46 to 0000000000425353
  DW_CFA_remember_state
  DW_CFA_def_cfa_offset: 56
  DW_CFA_advance_loc: 8 to 000000000042535b
  DW_CFA_def_cfa_offset: 48
  DW_CFA_advance_loc: 1 to 000000000042535c
  DW_CFA_def_cfa_offset: 40
  DW_CFA_advance_loc: 2 to 000000000042535e
  DW_CFA_def_cfa_offset: 32
  DW_CFA_advance_loc: 2 to 0000000000425360
  DW_CFA_def_cfa_offset: 24
  DW_CFA_advance_loc: 2 to 0000000000425362
  DW_CFA_def_cfa_offset: 16
  DW_CFA_advance_loc: 2 to 0000000000425364
  DW_CFA_def_cfa_offset: 8
  DW_CFA_advance_loc: 5 to 0000000000425369
  DW_CFA_restore_state
  DW_CFA_advance_loc: 56 to 00000000004253a1
  DW_CFA_remember_state
  DW_CFA_def_cfa_offset: 56
  DW_CFA_advance_loc: 8 to 00000000004253a9
  DW_CFA_def_cfa_offset: 48
  DW_CFA_advance_loc: 1 to 00000000004253aa
  DW_CFA_def_cfa_offset: 40
  DW_CFA_advance_loc: 2 to 00000000004253ac
  DW_CFA_def_cfa_offset: 32
  DW_CFA_advance_loc: 2 to 00000000004253ae
  DW_CFA_def_cfa_offset: 24
  DW_CFA_advance_loc: 2 to 00000000004253b0
  DW_CFA_def_cfa_offset: 16
  DW_CFA_advance_loc: 2 to 00000000004253b2
  DW_CFA_def_cfa_offset: 8
  DW_CFA_advance_loc: 5 to 00000000004253b7
  DW_CFA_restore_state
  DW_CFA_advance_loc: 46 to 00000000004253e5
  DW_CFA_remember_state
  DW_CFA_def_cfa_offset: 56
  DW_CFA_advance_loc: 8 to 00000000004253ed
  DW_CFA_def_cfa_offset: 48
  DW_CFA_advance_loc: 1 to 00000000004253ee
  DW_CFA_def_cfa_offset: 40
  DW_CFA_advance_loc: 2 to 00000000004253f0
  DW_CFA_def_cfa_offset: 32
  DW_CFA_advance_loc: 2 to 00000000004253f2
  DW_CFA_def_cfa_offset: 24
  DW_CFA_advance_loc: 2 to 00000000004253f4
  DW_CFA_def_cfa_offset: 16
  DW_CFA_advance_loc: 2 to 00000000004253f6
  DW_CFA_def_cfa_offset: 8
  DW_CFA_advance_loc: 5 to 00000000004253fb
  DW_CFA_restore_state
  DW_CFA_advance_loc: 56 to 0000000000425433
  DW_CFA_remember_state
  DW_CFA_def_cfa_offset: 56
  DW_CFA_advance_loc: 8 to 000000000042543b
  DW_CFA_def_cfa_offset: 48
  DW_CFA_advance_loc: 1 to 000000000042543c
  DW_CFA_def_cfa_offset: 40
  DW_CFA_advance_loc: 2 to 000000000042543e
  DW_CFA_def_cfa_offset: 32
  DW_CFA_advance_loc: 2 to 0000000000425440
  DW_CFA_def_cfa_offset: 24
  DW_CFA_advance_loc: 2 to 0000000000425442
  DW_CFA_def_cfa_offset: 16
  DW_CFA_advance_loc: 2 to 0000000000425444
  DW_CFA_def_cfa_offset: 8
  DW_CFA_advance_loc: 5 to 0000000000425449
  DW_CFA_restore_state
  DW_CFA_advance_loc: 46 to 0000000000425477
  DW_CFA_remember_state
  DW_CFA_def_cfa_offset: 56
  DW_CFA_advance_loc: 8 to 000000000042547f
  DW_CFA_def_cfa_offset: 48
  DW_CFA_advance_loc: 1 to 0000000000425480
  DW_CFA_def_cfa_offset: 40
  DW_CFA_advance_loc: 2 to 0000000000425482
  DW_CFA_def_cfa_offset: 32
  DW_CFA_advance_loc: 2 to 0000000000425484
  DW_CFA_def_cfa_offset: 24
  DW_CFA_advance_loc: 2 to 0000000000425486
  DW_CFA_def_cfa_offset: 16
  DW_CFA_advance_loc: 2 to 0000000000425488
  DW_CFA_def_cfa_offset: 8
  DW_CFA_advance_loc: 5 to 000000000042548d
  DW_CFA_restore_state
  DW_CFA_advance_loc: 56 to 00000000004254c5
  DW_CFA_remember_state
  DW_CFA_def_cfa_offset: 56
  DW_CFA_advance_loc: 8 to 00000000004254cd
  DW_CFA_def_cfa_offset: 48
  DW_CFA_advance_loc: 1 to 00000000004254ce
  DW_CFA_def_cfa_offset: 40
  DW_CFA_advance_loc: 2 to 00000000004254d0
  DW_CFA_def_cfa_offset: 32
  DW_CFA_advance_loc: 2 to 00000000004254d2
  DW_CFA_def_cfa_offset: 24
  DW_CFA_advance_loc: 2 to 00000000004254d4
  DW_CFA_def_cfa_offset: 16
  DW_CFA_advance_loc: 2 to 00000000004254d6
  DW_CFA_def_cfa_offset: 8
  DW_CFA_advance_loc: 5 to 00000000004254db
  DW_CFA_restore_state
  DW_CFA_advance_loc: 46 to 0000000000425509
  DW_CFA_remember_state
  DW_CFA_def_cfa_offset: 56
  DW_CFA_advance_loc: 8 to 0000000000425511
  DW_CFA_def_cfa_offset: 48
  DW_CFA_advance_loc: 1 to 0000000000425512
  DW_CFA_def_cfa_offset: 40
  DW_CFA_advance_loc: 2 to 0000000000425514
  DW_CFA_def_cfa_offset: 32
  DW_CFA_advance_loc: 2 to 0000000000425516
  DW_CFA_def_cfa_offset: 24
  DW_CFA_advance_loc: 2 to 0000000000425518
  DW_CFA_def_cfa_offset: 16
  DW_CFA_advance_loc: 2 to 000000000042551a
  DW_CFA_def_cfa_offset: 8
  DW_CFA_advance_loc: 5 to 000000000042551f
  DW_CFA_restore_state
  DW_CFA_advance_loc: 56 to 0000000000425557
  DW_CFA_remember_state
  DW_CFA_def_cfa_offset: 56
  DW_CFA_advance_loc: 8 to 000000000042555f
  DW_CFA_def_cfa_offset: 48
  DW_CFA_advance_loc: 1 to 0000000000425560
  DW_CFA_def_cfa_offset: 40
  DW_CFA_advance_loc: 2 to 0000000000425562
  DW_CFA_def_cfa_offset: 32
  DW_CFA_advance_loc: 2 to 0000000000425564
  DW_CFA_def_cfa_offset: 24
  DW_CFA_advance_loc: 2 to 0000000000425566
  DW_CFA_def_cfa_offset: 16
  DW_CFA_advance_loc: 2 to 0000000000425568
  DW_CFA_def_cfa_offset: 8
  DW_CFA_advance_loc: 5 to 000000000042556d
  DW_CFA_restore_state
  DW_CFA_advance_loc: 46 to 000000000042559b
  DW_CFA_remember_state
  DW_CFA_def_cfa_offset: 56
  DW_CFA_advance_loc: 8 to 00000000004255a3
  DW_CFA_def_cfa_offset: 48
  DW_CFA_advance_loc: 1 to 00000000004255a4
  DW_CFA_def_cfa_offset: 40
  DW_CFA_advance_loc: 2 to 00000000004255a6
  DW_CFA_def_cfa_offset: 32
  DW_CFA_advance_loc: 2 to 00000000004255a8
  DW_CFA_def_cfa_offset: 24
  DW_CFA_advance_loc: 2 to 00000000004255aa
  DW_CFA_def_cfa_offset: 16
  DW_CFA_advance_loc: 2 to 00000000004255ac
  DW_CFA_def_cfa_offset: 8
  DW_CFA_advance_loc: 5 to 00000000004255b1
  DW_CFA_restore_state
  DW_CFA_advance_loc: 56 to 00000000004255e9
  DW_CFA_remember_state
  DW_CFA_def_cfa_offset: 56
  DW_CFA_advance_loc: 8 to 00000000004255f1
  DW_CFA_def_cfa_offset: 48
  DW_CFA_advance_loc: 1 to 00000000004255f2
  DW_CFA_def_cfa_offset: 40
  DW_CFA_advance_loc: 2 to 00000000004255f4
  DW_CFA_def_cfa_offset: 32
  DW_CFA_advance_loc: 2 to 00000000004255f6
  DW_CFA_def_cfa_offset: 24
  DW_CFA_advance_loc: 2 to 00000000004255f8
  DW_CFA_def_cfa_offset: 16
  DW_CFA_advance_loc: 2 to 00000000004255fa
  DW_CFA_def_cfa_offset: 8
  DW_CFA_advance_loc: 5 to 00000000004255ff
  DW_CFA_restore_state
  DW_CFA_advance_loc: 46 to 000000000042562d
  DW_CFA_remember_state
  DW_CFA_def_cfa_offset: 56
  DW_CFA_advance_loc: 8 to 0000000000425635
  DW_CFA_def_cfa_offset: 48
  DW_CFA_advance_loc: 1 to 0000000000425636
  DW_CFA_def_cfa_offset: 40
  DW_CFA_advance_loc: 2 to 0000000000425638
  DW_CFA_def_cfa_offset: 32
  DW_CFA_advance_loc: 2 to 000000000042563a
  DW_CFA_def_cfa_offset: 24
  DW_CFA_advance_loc: 2 to 000000000042563c
  DW_CFA_def_cfa_offset: 16
  DW_CFA_advance_loc: 2 to 000000000042563e
  DW_CFA_def_cfa_offset: 8
  DW_CFA_advance_loc: 5 to 0000000000425643
  DW_CFA_restore_state
  DW_CFA_advance_loc: 56 to 000000000042567b
  DW_CFA_remember_state
  DW_CFA_def_cfa_offset: 56
  DW_CFA_advance_loc: 8 to 0000000000425683
  DW_CFA_def_cfa_offset: 48
  DW_CFA_advance_loc: 1 to 0000000000425684
  DW_CFA_def_cfa_offset: 40
  DW_CFA_advance_loc: 2 to 0000000000425686
  DW_CFA_def_cfa_offset: 32
  DW_CFA_advance_loc: 2 to 0000000000425688
  DW_CFA_def_cfa_offset: 24
  DW_CFA_advance_loc: 2 to 000000000042568a
  DW_CFA_def_cfa_offset: 16
  DW_CFA_advance_loc: 2 to 000000000042568c
  DW_CFA_def_cfa_offset: 8
  DW_CFA_advance_loc: 5 to 0000000000425691
  DW_CFA_restore_state
  DW_CFA_advance_loc: 46 to 00000000004256bf
  DW_CFA_remember_state
  DW_CFA_def_cfa_offset: 56
  DW_CFA_advance_loc: 8 to 00000000004256c7
  DW_CFA_def_cfa_offset: 48
  DW_CFA_advance_loc: 1 to 00000000004256c8
  DW_CFA_def_cfa_offset: 40
  DW_CFA_advance_loc: 2 to 00000000004256ca
  DW_CFA_def_cfa_offset: 32
  DW_CFA_advance_loc: 2 to 00000000004256cc
  DW_CFA_def_cfa_offset: 24
  DW_CFA_advance_loc: 2 to 00000000004256ce
  DW_CFA_def_cfa_offset: 16
  DW_CFA_advance_loc: 2 to 00000000004256d0
  DW_CFA_def_cfa_offset: 8
  DW_CFA_advance_loc: 5 to 00000000004256d5
  DW_CFA_restore_state
  DW_CFA_advance_loc: 56 to 000000000042570d
  DW_CFA_remember_state
  DW_CFA_def_cfa_offset: 56
  DW_CFA_advance_loc: 8 to 0000000000425715
  DW_CFA_def_cfa_offset: 48
  DW_CFA_advance_loc: 1 to 0000000000425716
  DW_CFA_def_cfa_offset: 40
  DW_CFA_advance_loc: 2 to 0000000000425718
  DW_CFA_def_cfa_offset: 32
  DW_CFA_advance_loc: 2 to 000000000042571a
  DW_CFA_def_cfa_offset: 24
  DW_CFA_advance_loc: 2 to 000000000042571c
  DW_CFA_def_cfa_offset: 16
  DW_CFA_advance_loc: 2 to 000000000042571e
  DW_CFA_def_cfa_offset: 8
  DW_CFA_advance_loc: 5 to 0000000000425723
  DW_CFA_restore_state
  DW_CFA_advance_loc: 46 to 0000000000425751
  DW_CFA_remember_state
  DW_CFA_def_cfa_offset: 56
  DW_CFA_advance_loc: 8 to 0000000000425759
  DW_CFA_def_cfa_offset: 48
  DW_CFA_advance_loc: 1 to 000000000042575a
  DW_CFA_def_cfa_offset: 40
  DW_CFA_advance_loc: 2 to 000000000042575c
  DW_CFA_def_cfa_offset: 32
  DW_CFA_advance_loc: 2 to 000000000042575e
  DW_CFA_def_cfa_offset: 24
  DW_CFA_advance_loc: 2 to 0000000000425760
  DW_CFA_def_cfa_offset: 16
  DW_CFA_advance_loc: 2 to 0000000000425762
  DW_CFA_def_cfa_offset: 8
  DW_CFA_advance_loc: 5 to 0000000000425767
  DW_CFA_restore_state
  DW_CFA_advance_loc: 56 to 000000000042579f
  DW_CFA_remember_state
  DW_CFA_def_cfa_offset: 56
  DW_CFA_advance_loc: 8 to 00000000004257a7
  DW_CFA_def_cfa_offset: 48
  DW_CFA_advance_loc: 1 to 00000000004257a8
  DW_CFA_def_cfa_offset: 40
  DW_CFA_advance_loc: 2 to 00000000004257aa
  DW_CFA_def_cfa_offset: 32
  DW_CFA_advance_loc: 2 to 00000000004257ac
  DW_CFA_def_cfa_offset: 24
  DW_CFA_advance_loc: 2 to 00000000004257ae
  DW_CFA_def_cfa_offset: 16
  DW_CFA_advance_loc: 2 to 00000000004257b0
  DW_CFA_def_cfa_offset: 8
  DW_CFA_advance_loc: 5 to 00000000004257b5
  DW_CFA_restore_state
  DW_CFA_advance_loc: 46 to 00000000004257e3
  DW_CFA_remember_state
  DW_CFA_def_cfa_offset: 56
  DW_CFA_advance_loc: 8 to 00000000004257eb
  DW_CFA_def_cfa_offset: 48
  DW_CFA_advance_loc: 1 to 00000000004257ec
  DW_CFA_def_cfa_offset: 40
  DW_CFA_advance_loc: 2 to 00000000004257ee
  DW_CFA_def_cfa_offset: 32
  DW_CFA_advance_loc: 2 to 00000000004257f0
  DW_CFA_def_cfa_offset: 24
  DW_CFA_advance_loc: 2 to 00000000004257f2
  DW_CFA_def_cfa_offset: 16
  DW_CFA_advance_loc: 2 to 00000000004257f4
  DW_CFA_def_cfa_offset: 8
  DW_CFA_advance_loc: 5 to 00000000004257f9
  DW_CFA_restore_state
  DW_CFA_advance_loc: 56 to 0000000000425831
  DW_CFA_remember_state
  DW_CFA_def_cfa_offset: 56
  DW_CFA_advance_loc: 8 to 0000000000425839
  DW_CFA_def_cfa_offset: 48
  DW_CFA_advance_loc: 1 to 000000000042583a
  DW_CFA_def_cfa_offset: 40
  DW_CFA_advance_loc: 2 to 000000000042583c
  DW_CFA_def_cfa_offset: 32
  DW_CFA_advance_loc: 2 to 000000000042583e
  DW_CFA_def_cfa_offset: 24
  DW_CFA_advance_loc: 2 to 0000000000425840
  DW_CFA_def_cfa_offset: 16
  DW_CFA_advance_loc: 2 to 0000000000425842
  DW_CFA_def_cfa_offset: 8
  DW_CFA_advance_loc: 5 to 0000000000425847
  DW_CFA_restore_state
  DW_CFA_advance_loc: 46 to 0000000000425875
  DW_CFA_remember_state
  DW_CFA_def_cfa_offset: 56
  DW_CFA_advance_loc: 8 to 000000000042587d
  DW_CFA_def_cfa_offset: 48
  DW_CFA_advance_loc: 1 to 000000000042587e
  DW_CFA_def_cfa_offset: 40
  DW_CFA_advance_loc: 2 to 0000000000425880
  DW_CFA_def_cfa_offset: 32
  DW_CFA_advance_loc: 2 to 0000000000425882
  DW_CFA_def_cfa_offset: 24
  DW_CFA_advance_loc: 2 to 0000000000425884
  DW_CFA_def_cfa_offset: 16
  DW_CFA_advance_loc: 2 to 0000000000425886
  DW_CFA_def_cfa_offset: 8
  DW_CFA_advance_loc: 5 to 000000000042588b
  DW_CFA_restore_state
  DW_CFA_advance_loc: 56 to 00000000004258c3
  DW_CFA_remember_state
  DW_CFA_def_cfa_offset: 56
  DW_CFA_advance_loc: 8 to 00000000004258cb
  DW_CFA_def_cfa_offset: 48
  DW_CFA_advance_loc: 1 to 00000000004258cc
  DW_CFA_def_cfa_offset: 40
  DW_CFA_advance_loc: 2 to 00000000004258ce
  DW_CFA_def_cfa_offset: 32
  DW_CFA_advance_loc: 2 to 00000000004258d0
  DW_CFA_def_cfa_offset: 24
  DW_CFA_advance_loc: 2 to 00000000004258d2
  DW_CFA_def_cfa_offset: 16
  DW_CFA_advance_loc: 2 to 00000000004258d4
  DW_CFA_def_cfa_offset: 8
  DW_CFA_advance_loc: 5 to 00000000004258d9
  DW_CFA_restore_state
  DW_CFA_advance_loc: 46 to 0000000000425907
  DW_CFA_remember_state
  DW_CFA_def_cfa_offset: 56
  DW_CFA_advance_loc: 8 to 000000000042590f
  DW_CFA_def_cfa_offset: 48
  DW_CFA_advance_loc: 1 to 0000000000425910
  DW_CFA_def_cfa_offset: 40
  DW_CFA_advance_loc: 2 to 0000000000425912
  DW_CFA_def_cfa_offset: 32
  DW_CFA_advance_loc: 2 to 0000000000425914
  DW_CFA_def_cfa_offset: 24
  DW_CFA_advance_loc: 2 to 0000000000425916
  DW_CFA_def_cfa_offset: 16
  DW_CFA_advance_loc: 2 to 0000000000425918
  DW_CFA_def_cfa_offset: 8
  DW_CFA_advance_loc: 5 to 000000000042591d
  DW_CFA_restore_state
  DW_CFA_advance_loc: 56 to 0000000000425955
  DW_CFA_remember_state
  DW_CFA_def_cfa_offset: 56
  DW_CFA_advance_loc: 8 to 000000000042595d
  DW_CFA_def_cfa_offset: 48
  DW_CFA_advance_loc: 1 to 000000000042595e
  DW_CFA_def_cfa_offset: 40
  DW_CFA_advance_loc: 2 to 0000000000425960
  DW_CFA_def_cfa_offset: 32
  DW_CFA_advance_loc: 2 to 0000000000425962
  DW_CFA_def_cfa_offset: 24
  DW_CFA_advance_loc: 2 to 0000000000425964
  DW_CFA_def_cfa_offset: 16
  DW_CFA_advance_loc: 2 to 0000000000425966
  DW_CFA_def_cfa_offset: 8
  DW_CFA_advance_loc: 5 to 000000000042596b
  DW_CFA_restore_state
  DW_CFA_advance_loc: 46 to 0000000000425999
  DW_CFA_remember_state
  DW_CFA_def_cfa_offset: 56
  DW_CFA_advance_loc: 8 to 00000000004259a1
  DW_CFA_def_cfa_offset: 48
  DW_CFA_advance_loc: 1 to 00000000004259a2
  DW_CFA_def_cfa_offset: 40
  DW_CFA_advance_loc: 2 to 00000000004259a4
  DW_CFA_def_cfa_offset: 32
  DW_CFA_advance_loc: 2 to 00000000004259a6
  DW_CFA_def_cfa_offset: 24
  DW_CFA_advance_loc: 2 to 00000000004259a8
  DW_CFA_def_cfa_offset: 16
  DW_CFA_advance_loc: 2 to 00000000004259aa
  DW_CFA_def_cfa_offset: 8
  DW_CFA_advance_loc: 5 to 00000000004259af
  DW_CFA_restore_state
  DW_CFA_advance_loc: 56 to 00000000004259e7
  DW_CFA_remember_state
  DW_CFA_def_cfa_offset: 56
  DW_CFA_advance_loc: 8 to 00000000004259ef
  DW_CFA_def_cfa_offset: 48
  DW_CFA_advance_loc: 1 to 00000000004259f0
  DW_CFA_def_cfa_offset: 40
  DW_CFA_advance_loc: 2 to 00000000004259f2
  DW_CFA_def_cfa_offset: 32
  DW_CFA_advance_loc: 2 to 00000000004259f4
  DW_CFA_def_cfa_offset: 24
  DW_CFA_advance_loc: 2 to 00000000004259f6
  DW_CFA_def_cfa_offset: 16
  DW_CFA_advance_loc: 2 to 00000000004259f8
  DW_CFA_def_cfa_offset: 8
  DW_CFA_advance_loc: 5 to 00000000004259fd
  DW_CFA_restore_state
  DW_CFA_advance_loc: 46 to 0000000000425a2b
  DW_CFA_remember_state
  DW_CFA_def_cfa_offset: 56
  DW_CFA_advance_loc: 8 to 0000000000425a33
  DW_CFA_def_cfa_offset: 48
  DW_CFA_advance_loc: 1 to 0000000000425a34
  DW_CFA_def_cfa_offset: 40
  DW_CFA_advance_loc: 2 to 0000000000425a36
  DW_CFA_def_cfa_offset: 32
  DW_CFA_advance_loc: 2 to 0000000000425a38
  DW_CFA_def_cfa_offset: 24
  DW_CFA_advance_loc: 2 to 0000000000425a3a
  DW_CFA_def_cfa_offset: 16
  DW_CFA_advance_loc: 2 to 0000000000425a3c
  DW_CFA_def_cfa_offset: 8
  DW_CFA_advance_loc: 5 to 0000000000425a41
  DW_CFA_restore_state
  DW_CFA_advance_loc: 56 to 0000000000425a79
  DW_CFA_remember_state
  DW_CFA_def_cfa_offset: 56
  DW_CFA_advance_loc: 8 to 0000000000425a81
  DW_CFA_def_cfa_offset: 48
  DW_CFA_advance_loc: 1 to 0000000000425a82
  DW_CFA_def_cfa_offset: 40
  DW_CFA_advance_loc: 2 to 0000000000425a84
  DW_CFA_def_cfa_offset: 32
  DW_CFA_advance_loc: 2 to 0000000000425a86
  DW_CFA_def_cfa_offset: 24
  DW_CFA_advance_loc: 2 to 0000000000425a88
  DW_CFA_def_cfa_offset: 16
  DW_CFA_advance_loc: 2 to 0000000000425a8a
  DW_CFA_def_cfa_offset: 8
  DW_CFA_advance_loc: 5 to 0000000000425a8f
  DW_CFA_restore_state
  DW_CFA_advance_loc: 46 to 0000000000425abd
  DW_CFA_remember_state
  DW_CFA_def_cfa_offset: 56
  DW_CFA_advance_loc: 8 to 0000000000425ac5
  DW_CFA_def_cfa_offset: 48
  DW_CFA_advance_loc: 1 to 0000000000425ac6
  DW_CFA_def_cfa_offset: 40
  DW_CFA_advance_loc: 2 to 0000000000425ac8
  DW_CFA_def_cfa_offset: 32
  DW_CFA_advance_loc: 2 to 0000000000425aca
  DW_CFA_def_cfa_offset: 24
  DW_CFA_advance_loc: 2 to 0000000000425acc
  DW_CFA_def_cfa_offset: 16
  DW_CFA_advance_loc: 2 to 0000000000425ace
  DW_CFA_def_cfa_offset: 8
  DW_CFA_advance_loc: 5 to 0000000000425ad3
  DW_CFA_restore_state
  DW_CFA_advance_loc: 56 to 0000000000425b0b
  DW_CFA_remember_state
  DW_CFA_def_cfa_offset: 56
  DW_CFA_advance_loc: 8 to 0000000000425b13
  DW_CFA_def_cfa_offset: 48
  DW_CFA_advance_loc: 1 to 0000000000425b14
  DW_CFA_def_cfa_offset: 40
  DW_CFA_advance_loc: 2 to 0000000000425b16
  DW_CFA_def_cfa_offset: 32
  DW_CFA_advance_loc: 2 to 0000000000425b18
  DW_CFA_def_cfa_offset: 24
  DW_CFA_advance_loc: 2 to 0000000000425b1a
  DW_CFA_def_cfa_offset: 16
  DW_CFA_advance_loc: 2 to 0000000000425b1c
  DW_CFA_def_cfa_offset: 8
  DW_CFA_advance_loc: 5 to 0000000000425b21
  DW_CFA_restore_state
  DW_CFA_advance_loc: 46 to 0000000000425b4f
  DW_CFA_remember_state
  DW_CFA_def_cfa_offset: 56
  DW_CFA_advance_loc: 8 to 0000000000425b57
  DW_CFA_def_cfa_offset: 48
  DW_CFA_advance_loc: 1 to 0000000000425b58
  DW_CFA_def_cfa_offset: 40
  DW_CFA_advance_loc: 2 to 0000000000425b5a
  DW_CFA_def_cfa_offset: 32
  DW_CFA_advance_loc: 2 to 0000000000425b5c
  DW_CFA_def_cfa_offset: 24
  DW_CFA_advance_loc: 2 to 0000000000425b5e
  DW_CFA_def_cfa_offset: 16
  DW_CFA_advance_loc: 2 to 0000000000425b60
  DW_CFA_def_cfa_offset: 8
  DW_CFA_advance_loc: 5 to 0000000000425b65
  DW_CFA_restore_state
  DW_CFA_advance_loc: 56 to 0000000000425b9d
  DW_CFA_remember_state
  DW_CFA_def_cfa_offset: 56
  DW_CFA_advance_loc: 8 to 0000000000425ba5
  DW_CFA_def_cfa_offset: 48
  DW_CFA_advance_loc: 1 to 0000000000425ba6
  DW_CFA_def_cfa_offset: 40
  DW_CFA_advance_loc: 2 to 0000000000425ba8
  DW_CFA_def_cfa_offset: 32
  DW_CFA_advance_loc: 2 to 0000000000425baa
  DW_CFA_def_cfa_offset: 24
  DW_CFA_advance_loc: 2 to 0000000000425bac
  DW_CFA_def_cfa_offset: 16
  DW_CFA_advance_loc: 2 to 0000000000425bae
  DW_CFA_def_cfa_offset: 8
  DW_CFA_advance_loc: 5 to 0000000000425bb3
  DW_CFA_restore_state
  DW_CFA_advance_loc: 46 to 0000000000425be1
  DW_CFA_remember_state
  DW_CFA_def_cfa_offset: 56
  DW_CFA_advance_loc: 8 to 0000000000425be9
  DW_CFA_def_cfa_offset: 48
  DW_CFA_advance_loc: 1 to 0000000000425bea
  DW_CFA_def_cfa_offset: 40
  DW_CFA_advance_loc: 2 to 0000000000425bec
  DW_CFA_def_cfa_offset: 32
  DW_CFA_advance_loc: 2 to 0000000000425bee
  DW_CFA_def_cfa_offset: 24
  DW_CFA_advance_loc: 2 to 0000000000425bf0
  DW_CFA_def_cfa_offset: 16
  DW_CFA_advance_loc: 2 to 0000000000425bf2
  DW_CFA_def_cfa_offset: 8
  DW_CFA_advance_loc: 5 to 0000000000425bf7
  DW_CFA_restore_state
  DW_CFA_advance_loc: 56 to 0000000000425c2f
  DW_CFA_remember_state
  DW_CFA_def_cfa_offset: 56
  DW_CFA_advance_loc: 8 to 0000000000425c37
  DW_CFA_def_cfa_offset: 48
  DW_CFA_advance_loc: 1 to 0000000000425c38
  DW_CFA_def_cfa_offset: 40
  DW_CFA_advance_loc: 2 to 0000000000425c3a
  DW_CFA_def_cfa_offset: 32
  DW_CFA_advance_loc: 2 to 0000000000425c3c
  DW_CFA_def_cfa_offset: 24
  DW_CFA_advance_loc: 2 to 0000000000425c3e
  DW_CFA_def_cfa_offset: 16
  DW_CFA_advance_loc: 2 to 0000000000425c40
  DW_CFA_def_cfa_offset: 8
  DW_CFA_advance_loc: 5 to 0000000000425c45
  DW_CFA_restore_state
  DW_CFA_advance_loc: 46 to 0000000000425c73
  DW_CFA_remember_state
  DW_CFA_def_cfa_offset: 56
  DW_CFA_advance_loc: 8 to 0000000000425c7b
  DW_CFA_def_cfa_offset: 48
  DW_CFA_advance_loc: 1 to 0000000000425c7c
  DW_CFA_def_cfa_offset: 40
  DW_CFA_advance_loc: 2 to 0000000000425c7e
  DW_CFA_def_cfa_offset: 32
  DW_CFA_advance_loc: 2 to 0000000000425c80
  DW_CFA_def_cfa_offset: 24
  DW_CFA_advance_loc: 2 to 0000000000425c82
  DW_CFA_def_cfa_offset: 16
  DW_CFA_advance_loc: 2 to 0000000000425c84
  DW_CFA_def_cfa_offset: 8
  DW_CFA_advance_loc: 5 to 0000000000425c89
  DW_CFA_restore_state
  DW_CFA_advance_loc: 56 to 0000000000425cc1
  DW_CFA_remember_state
  DW_CFA_def_cfa_offset: 56
  DW_CFA_advance_loc: 8 to 0000000000425cc9
  DW_CFA_def_cfa_offset: 48
  DW_CFA_advance_loc: 1 to 0000000000425cca
  DW_CFA_def_cfa_offset: 40
  DW_CFA_advance_loc: 2 to 0000000000425ccc
  DW_CFA_def_cfa_offset: 32
  DW_CFA_advance_loc: 2 to 0000000000425cce
  DW_CFA_def_cfa_offset: 24
  DW_CFA_advance_loc: 2 to 0000000000425cd0
  DW_CFA_def_cfa_offset: 16
  DW_CFA_advance_loc: 2 to 0000000000425cd2
  DW_CFA_def_cfa_offset: 8
  DW_CFA_advance_loc: 5 to 0000000000425cd7
  DW_CFA_restore_state
  DW_CFA_advance_loc: 46 to 0000000000425d05
  DW_CFA_remember_state
  DW_CFA_def_cfa_offset: 56
  DW_CFA_advance_loc: 8 to 0000000000425d0d
  DW_CFA_def_cfa_offset: 48
  DW_CFA_advance_loc: 1 to 0000000000425d0e
  DW_CFA_def_cfa_offset: 40
  DW_CFA_advance_loc: 2 to 0000000000425d10
  DW_CFA_def_cfa_offset: 32
  DW_CFA_advance_loc: 2 to 0000000000425d12
  DW_CFA_def_cfa_offset: 24
  DW_CFA_advance_loc: 2 to 0000000000425d14
  DW_CFA_def_cfa_offset: 16
  DW_CFA_advance_loc: 2 to 0000000000425d16
  DW_CFA_def_cfa_offset: 8
  DW_CFA_advance_loc: 5 to 0000000000425d1b
  DW_CFA_restore_state
  DW_CFA_advance_loc: 56 to 0000000000425d53
  DW_CFA_remember_state
  DW_CFA_def_cfa_offset: 56
  DW_CFA_advance_loc: 8 to 0000000000425d5b
  DW_CFA_def_cfa_offset: 48
  DW_CFA_advance_loc: 1 to 0000000000425d5c
  DW_CFA_def_cfa_offset: 40
  DW_CFA_advance_loc: 2 to 0000000000425d5e
  DW_CFA_def_cfa_offset: 32
  DW_CFA_advance_loc: 2 to 0000000000425d60
  DW_CFA_def_cfa_offset: 24
  DW_CFA_advance_loc: 2 to 0000000000425d62
  DW_CFA_def_cfa_offset: 16
  DW_CFA_advance_loc: 2 to 0000000000425d64
  DW_CFA_def_cfa_offset: 8
  DW_CFA_advance_loc: 5 to 0000000000425d69
  DW_CFA_restore_state
  DW_CFA_advance_loc: 46 to 0000000000425d97
  DW_CFA_remember_state
  DW_CFA_def_cfa_offset: 56
  DW_CFA_advance_loc: 8 to 0000000000425d9f
  DW_CFA_def_cfa_offset: 48
  DW_CFA_advance_loc: 1 to 0000000000425da0
  DW_CFA_def_cfa_offset: 40
  DW_CFA_advance_loc: 2 to 0000000000425da2
  DW_CFA_def_cfa_offset: 32
  DW_CFA_advance_loc: 2 to 0000000000425da4
  DW_CFA_def_cfa_offset: 24
  DW_CFA_advance_loc: 2 to 0000000000425da6
  DW_CFA_def_cfa_offset: 16
  DW_CFA_advance_loc: 2 to 0000000000425da8
  DW_CFA_def_cfa_offset: 8
  DW_CFA_advance_loc: 5 to 0000000000425dad
  DW_CFA_restore_state
  DW_CFA_advance_loc: 56 to 0000000000425de5
  DW_CFA_remember_state
  DW_CFA_def_cfa_offset: 56
  DW_CFA_advance_loc: 8 to 0000000000425ded
  DW_CFA_def_cfa_offset: 48
  DW_CFA_advance_loc: 1 to 0000000000425dee
  DW_CFA_def_cfa_offset: 40
  DW_CFA_advance_loc: 2 to 0000000000425df0
  DW_CFA_def_cfa_offset: 32
  DW_CFA_advance_loc: 2 to 0000000000425df2
  DW_CFA_def_cfa_offset: 24
  DW_CFA_advance_loc: 2 to 0000000000425df4
  DW_CFA_def_cfa_offset: 16
  DW_CFA_advance_loc: 2 to 0000000000425df6
  DW_CFA_def_cfa_offset: 8
  DW_CFA_advance_loc: 5 to 0000000000425dfb
  DW_CFA_restore_state
  DW_CFA_advance_loc: 46 to 0000000000425e29
  DW_CFA_remember_state
  DW_CFA_def_cfa_offset: 56
  DW_CFA_advance_loc: 8 to 0000000000425e31
  DW_CFA_def_cfa_offset: 48
  DW_CFA_advance_loc: 1 to 0000000000425e32
  DW_CFA_def_cfa_offset: 40
  DW_CFA_advance_loc: 2 to 0000000000425e34
  DW_CFA_def_cfa_offset: 32
  DW_CFA_advance_loc: 2 to 0000000000425e36
  DW_CFA_def_cfa_offset: 24
  DW_CFA_advance_loc: 2 to 0000000000425e38
  DW_CFA_def_cfa_offset: 16
  DW_CFA_advance_loc: 2 to 0000000000425e3a
  DW_CFA_def_cfa_offset: 8
  DW_CFA_advance_loc: 5 to 0000000000425e3f
  DW_CFA_restore_state
  DW_CFA_advance_loc: 56 to 0000000000425e77
  DW_CFA_remember_state
  DW_CFA_def_cfa_offset: 56
  DW_CFA_advance_loc: 8 to 0000000000425e7f
  DW_CFA_def_cfa_offset: 48
  DW_CFA_advance_loc: 1 to 0000000000425e80
  DW_CFA_def_cfa_offset: 40
  DW_CFA_advance_loc: 2 to 0000000000425e82
  DW_CFA_def_cfa_offset: 32
  DW_CFA_advance_loc: 2 to 0000000000425e84
  DW_CFA_def_cfa_offset: 24
  DW_CFA_advance_loc: 2 to 0000000000425e86
  DW_CFA_def_cfa_offset: 16
  DW_CFA_advance_loc: 2 to 0000000000425e88
  DW_CFA_def_cfa_offset: 8
  DW_CFA_advance_loc: 5 to 0000000000425e8d
  DW_CFA_restore_state
  DW_CFA_advance_loc: 46 to 0000000000425ebb
  DW_CFA_remember_state
  DW_CFA_def_cfa_offset: 56
  DW_CFA_advance_loc: 8 to 0000000000425ec3
  DW_CFA_def_cfa_offset: 48
  DW_CFA_advance_loc: 1 to 0000000000425ec4
  DW_CFA_def_cfa_offset: 40
  DW_CFA_advance_loc: 2 to 0000000000425ec6
  DW_CFA_def_cfa_offset: 32
  DW_CFA_advance_loc: 2 to 0000000000425ec8
  DW_CFA_def_cfa_offset: 24
  DW_CFA_advance_loc: 2 to 0000000000425eca
  DW_CFA_def_cfa_offset: 16
  DW_CFA_advance_loc: 2 to 0000000000425ecc
  DW_CFA_def_cfa_offset: 8
  DW_CFA_advance_loc: 5 to 0000000000425ed1
  DW_CFA_restore_state
  DW_CFA_advance_loc: 56 to 0000000000425f09
  DW_CFA_remember_state
  DW_CFA_def_cfa_offset: 56
  DW_CFA_advance_loc: 8 to 0000000000425f11
  DW_CFA_def_cfa_offset: 48
  DW_CFA_advance_loc: 1 to 0000000000425f12
  DW_CFA_def_cfa_offset: 40
  DW_CFA_advance_loc: 2 to 0000000000425f14
  DW_CFA_def_cfa_offset: 32
  DW_CFA_advance_loc: 2 to 0000000000425f16
  DW_CFA_def_cfa_offset: 24
  DW_CFA_advance_loc: 2 to 0000000000425f18
  DW_CFA_def_cfa_offset: 16
  DW_CFA_advance_loc: 2 to 0000000000425f1a
  DW_CFA_def_cfa_offset: 8
  DW_CFA_advance_loc: 5 to 0000000000425f1f
  DW_CFA_restore_state
  DW_CFA_advance_loc: 46 to 0000000000425f4d
  DW_CFA_remember_state
  DW_CFA_def_cfa_offset: 56
  DW_CFA_advance_loc: 8 to 0000000000425f55
  DW_CFA_def_cfa_offset: 48
  DW_CFA_advance_loc: 1 to 0000000000425f56
  DW_CFA_def_cfa_offset: 40
  DW_CFA_advance_loc: 2 to 0000000000425f58
  DW_CFA_def_cfa_offset: 32
  DW_CFA_advance_loc: 2 to 0000000000425f5a
  DW_CFA_def_cfa_offset: 24
  DW_CFA_advance_loc: 2 to 0000000000425f5c
  DW_CFA_def_cfa_offset: 16
  DW_CFA_advance_loc: 2 to 0000000000425f5e
  DW_CFA_def_cfa_offset: 8
  DW_CFA_advance_loc: 5 to 0000000000425f63
  DW_CFA_restore_state
  DW_CFA_advance_loc: 56 to 0000000000425f9b
  DW_CFA_remember_state
  DW_CFA_def_cfa_offset: 56
  DW_CFA_advance_loc: 8 to 0000000000425fa3
  DW_CFA_def_cfa_offset: 48
  DW_CFA_advance_loc: 1 to 0000000000425fa4
  DW_CFA_def_cfa_offset: 40
  DW_CFA_advance_loc: 2 to 0000000000425fa6
  DW_CFA_def_cfa_offset: 32
  DW_CFA_advance_loc: 2 to 0000000000425fa8
  DW_CFA_def_cfa_offset: 24
  DW_CFA_advance_loc: 2 to 0000000000425faa
  DW_CFA_def_cfa_offset: 16
  DW_CFA_advance_loc: 2 to 0000000000425fac
  DW_CFA_def_cfa_offset: 8
  DW_CFA_advance_loc: 5 to 0000000000425fb1
  DW_CFA_restore_state
  DW_CFA_advance_loc: 46 to 0000000000425fdf
  DW_CFA_remember_state
  DW_CFA_def_cfa_offset: 56
  DW_CFA_advance_loc: 8 to 0000000000425fe7
  DW_CFA_def_cfa_offset: 48
  DW_CFA_advance_loc: 1 to 0000000000425fe8
  DW_CFA_def_cfa_offset: 40
  DW_CFA_advance_loc: 2 to 0000000000425fea
  DW_CFA_def_cfa_offset: 32
  DW_CFA_advance_loc: 2 to 0000000000425fec
  DW_CFA_def_cfa_offset: 24
  DW_CFA_advance_loc: 2 to 0000000000425fee
  DW_CFA_def_cfa_offset: 16
  DW_CFA_advance_loc: 2 to 0000000000425ff0
  DW_CFA_def_cfa_offset: 8
  DW_CFA_advance_loc: 5 to 0000000000425ff5
  DW_CFA_restore_state
  DW_CFA_advance_loc: 56 to 000000000042602d
  DW_CFA_remember_state
  DW_CFA_def_cfa_offset: 56
  DW_CFA_advance_loc: 8 to 0000000000426035
  DW_CFA_def_cfa_offset: 48
  DW_CFA_advance_loc: 1 to 0000000000426036
  DW_CFA_def_cfa_offset: 40
  DW_CFA_advance_loc: 2 to 0000000000426038
  DW_CFA_def_cfa_offset: 32
  DW_CFA_advance_loc: 2 to 000000000042603a
  DW_CFA_def_cfa_offset: 24
  DW_CFA_advance_loc: 2 to 000000000042603c
  DW_CFA_def_cfa_offset: 16
  DW_CFA_advance_loc: 2 to 000000000042603e
  DW_CFA_def_cfa_offset: 8
  DW_CFA_advance_loc: 5 to 0000000000426043
  DW_CFA_restore_state
  DW_CFA_advance_loc: 46 to 0000000000426071
  DW_CFA_remember_state
  DW_CFA_def_cfa_offset: 56
  DW_CFA_advance_loc: 8 to 0000000000426079
  DW_CFA_def_cfa_offset: 48
  DW_CFA_advance_loc: 1 to 000000000042607a
  DW_CFA_def_cfa_offset: 40
  DW_CFA_advance_loc: 2 to 000000000042607c
  DW_CFA_def_cfa_offset: 32
  DW_CFA_advance_loc: 2 to 000000000042607e
  DW_CFA_def_cfa_offset: 24
  DW_CFA_advance_loc: 2 to 0000000000426080
  DW_CFA_def_cfa_offset: 16
  DW_CFA_advance_loc: 2 to 0000000000426082
  DW_CFA_def_cfa_offset: 8
  DW_CFA_advance_loc: 5 to 0000000000426087
  DW_CFA_restore_state
  DW_CFA_advance_loc: 56 to 00000000004260bf
  DW_CFA_remember_state
  DW_CFA_def_cfa_offset: 56
  DW_CFA_advance_loc: 8 to 00000000004260c7
  DW_CFA_def_cfa_offset: 48
  DW_CFA_advance_loc: 1 to 00000000004260c8
  DW_CFA_def_cfa_offset: 40
  DW_CFA_advance_loc: 2 to 00000000004260ca
  DW_CFA_def_cfa_offset: 32
  DW_CFA_advance_loc: 2 to 00000000004260cc
  DW_CFA_def_cfa_offset: 24
  DW_CFA_advance_loc: 2 to 00000000004260ce
  DW_CFA_def_cfa_offset: 16
  DW_CFA_advance_loc: 2 to 00000000004260d0
  DW_CFA_def_cfa_offset: 8
  DW_CFA_advance_loc: 5 to 00000000004260d5
  DW_CFA_restore_state
  DW_CFA_advance_loc: 46 to 0000000000426103
  DW_CFA_remember_state
  DW_CFA_def_cfa_offset: 56
  DW_CFA_advance_loc: 8 to 000000000042610b
  DW_CFA_def_cfa_offset: 48
  DW_CFA_advance_loc: 1 to 000000000042610c
  DW_CFA_def_cfa_offset: 40
  DW_CFA_advance_loc: 2 to 000000000042610e
  DW_CFA_def_cfa_offset: 32
  DW_CFA_advance_loc: 2 to 0000000000426110
  DW_CFA_def_cfa_offset: 24
  DW_CFA_advance_loc: 2 to 0000000000426112
  DW_CFA_def_cfa_offset: 16
  DW_CFA_advance_loc: 2 to 0000000000426114
  DW_CFA_def_cfa_offset: 8
  DW_CFA_advance_loc: 5 to 0000000000426119
  DW_CFA_restore_state
  DW_CFA_advance_loc: 56 to 0000000000426151
  DW_CFA_remember_state
  DW_CFA_def_cfa_offset: 56
  DW_CFA_advance_loc: 8 to 0000000000426159
  DW_CFA_def_cfa_offset: 48
  DW_CFA_advance_loc: 1 to 000000000042615a
  DW_CFA_def_cfa_offset: 40
  DW_CFA_advance_loc: 2 to 000000000042615c
  DW_CFA_def_cfa_offset: 32
  DW_CFA_advance_loc: 2 to 000000000042615e
  DW_CFA_def_cfa_offset: 24
  DW_CFA_advance_loc: 2 to 0000000000426160
  DW_CFA_def_cfa_offset: 16
  DW_CFA_advance_loc: 2 to 0000000000426162
  DW_CFA_def_cfa_offset: 8
  DW_CFA_advance_loc: 5 to 0000000000426167
  DW_CFA_restore_state
  DW_CFA_advance_loc: 46 to 0000000000426195
  DW_CFA_remember_state
  DW_CFA_def_cfa_offset: 56
  DW_CFA_advance_loc: 8 to 000000000042619d
  DW_CFA_def_cfa_offset: 48
  DW_CFA_advance_loc: 1 to 000000000042619e
  DW_CFA_def_cfa_offset: 40
  DW_CFA_advance_loc: 2 to 00000000004261a0
  DW_CFA_def_cfa_offset: 32
  DW_CFA_advance_loc: 2 to 00000000004261a2
  DW_CFA_def_cfa_offset: 24
  DW_CFA_advance_loc: 2 to 00000000004261a4
  DW_CFA_def_cfa_offset: 16
  DW_CFA_advance_loc: 2 to 00000000004261a6
  DW_CFA_def_cfa_offset: 8
  DW_CFA_advance_loc: 5 to 00000000004261ab
  DW_CFA_restore_state
  DW_CFA_advance_loc: 56 to 00000000004261e3
  DW_CFA_remember_state
  DW_CFA_def_cfa_offset: 56
  DW_CFA_advance_loc: 8 to 00000000004261eb
  DW_CFA_def_cfa_offset: 48
  DW_CFA_advance_loc: 1 to 00000000004261ec
  DW_CFA_def_cfa_offset: 40
  DW_CFA_advance_loc: 2 to 00000000004261ee
  DW_CFA_def_cfa_offset: 32
  DW_CFA_advance_loc: 2 to 00000000004261f0
  DW_CFA_def_cfa_offset: 24
  DW_CFA_advance_loc: 2 to 00000000004261f2
  DW_CFA_def_cfa_offset: 16
  DW_CFA_advance_loc: 2 to 00000000004261f4
  DW_CFA_def_cfa_offset: 8
  DW_CFA_advance_loc: 5 to 00000000004261f9
  DW_CFA_restore_state
  DW_CFA_advance_loc: 46 to 0000000000426227
  DW_CFA_remember_state
  DW_CFA_def_cfa_offset: 56
  DW_CFA_advance_loc: 8 to 000000000042622f
  DW_CFA_def_cfa_offset: 48
  DW_CFA_advance_loc: 1 to 0000000000426230
  DW_CFA_def_cfa_offset: 40
  DW_CFA_advance_loc: 2 to 0000000000426232
  DW_CFA_def_cfa_offset: 32
  DW_CFA_advance_loc: 2 to 0000000000426234
  DW_CFA_def_cfa_offset: 24
  DW_CFA_advance_loc: 2 to 0000000000426236
  DW_CFA_def_cfa_offset: 16
  DW_CFA_advance_loc: 2 to 0000000000426238
  DW_CFA_def_cfa_offset: 8
  DW_CFA_advance_loc: 5 to 000000000042623d
  DW_CFA_restore_state
  DW_CFA_advance_loc: 56 to 0000000000426275
  DW_CFA_remember_state
  DW_CFA_def_cfa_offset: 56
  DW_CFA_advance_loc: 8 to 000000000042627d
  DW_CFA_def_cfa_offset: 48
  DW_CFA_advance_loc: 1 to 000000000042627e
  DW_CFA_def_cfa_offset: 40
  DW_CFA_advance_loc: 2 to 0000000000426280
  DW_CFA_def_cfa_offset: 32
  DW_CFA_advance_loc: 2 to 0000000000426282
  DW_CFA_def_cfa_offset: 24
  DW_CFA_advance_loc: 2 to 0000000000426284
  DW_CFA_def_cfa_offset: 16
  DW_CFA_advance_loc: 2 to 0000000000426286
  DW_CFA_def_cfa_offset: 8
  DW_CFA_advance_loc: 5 to 000000000042628b
  DW_CFA_restore_state
  DW_CFA_advance_loc: 46 to 00000000004262b9
  DW_CFA_remember_state
  DW_CFA_def_cfa_offset: 56
  DW_CFA_advance_loc: 8 to 00000000004262c1
  DW_CFA_def_cfa_offset: 48
  DW_CFA_advance_loc: 1 to 00000000004262c2
  DW_CFA_def_cfa_offset: 40
  DW_CFA_advance_loc: 2 to 00000000004262c4
  DW_CFA_def_cfa_offset: 32
  DW_CFA_advance_loc: 2 to 00000000004262c6
  DW_CFA_def_cfa_offset: 24
  DW_CFA_advance_loc: 2 to 00000000004262c8
  DW_CFA_def_cfa_offset: 16
  DW_CFA_advance_loc: 2 to 00000000004262ca
  DW_CFA_def_cfa_offset: 8
  DW_CFA_advance_loc: 5 to 00000000004262cf
  DW_CFA_restore_state
  DW_CFA_advance_loc: 56 to 0000000000426307
  DW_CFA_remember_state
  DW_CFA_def_cfa_offset: 56
  DW_CFA_advance_loc: 8 to 000000000042630f
  DW_CFA_def_cfa_offset: 48
  DW_CFA_advance_loc: 1 to 0000000000426310
  DW_CFA_def_cfa_offset: 40
  DW_CFA_advance_loc: 2 to 0000000000426312
  DW_CFA_def_cfa_offset: 32
  DW_CFA_advance_loc: 2 to 0000000000426314
  DW_CFA_def_cfa_offset: 24
  DW_CFA_advance_loc: 2 to 0000000000426316
  DW_CFA_def_cfa_offset: 16
  DW_CFA_advance_loc: 2 to 0000000000426318
  DW_CFA_def_cfa_offset: 8
  DW_CFA_advance_loc: 5 to 000000000042631d
  DW_CFA_restore_state
  DW_CFA_advance_loc: 46 to 000000000042634b
  DW_CFA_remember_state
  DW_CFA_def_cfa_offset: 56
  DW_CFA_advance_loc: 8 to 0000000000426353
  DW_CFA_def_cfa_offset: 48
  DW_CFA_advance_loc: 1 to 0000000000426354
  DW_CFA_def_cfa_offset: 40
  DW_CFA_advance_loc: 2 to 0000000000426356
  DW_CFA_def_cfa_offset: 32
  DW_CFA_advance_loc: 2 to 0000000000426358
  DW_CFA_def_cfa_offset: 24
  DW_CFA_advance_loc: 2 to 000000000042635a
  DW_CFA_def_cfa_offset: 16
  DW_CFA_advance_loc: 2 to 000000000042635c
  DW_CFA_def_cfa_offset: 8
  DW_CFA_advance_loc: 5 to 0000000000426361
  DW_CFA_restore_state
  DW_CFA_advance_loc: 56 to 0000000000426399
  DW_CFA_remember_state
  DW_CFA_def_cfa_offset: 56
  DW_CFA_advance_loc: 8 to 00000000004263a1
  DW_CFA_def_cfa_offset: 48
  DW_CFA_advance_loc: 1 to 00000000004263a2
  DW_CFA_def_cfa_offset: 40
  DW_CFA_advance_loc: 2 to 00000000004263a4
  DW_CFA_def_cfa_offset: 32
  DW_CFA_advance_loc: 2 to 00000000004263a6
  DW_CFA_def_cfa_offset: 24
  DW_CFA_advance_loc: 2 to 00000000004263a8
  DW_CFA_def_cfa_offset: 16
  DW_CFA_advance_loc: 2 to 00000000004263aa
  DW_CFA_def_cfa_offset: 8
  DW_CFA_advance_loc: 5 to 00000000004263af
  DW_CFA_restore_state
  DW_CFA_advance_loc: 46 to 00000000004263dd
  DW_CFA_remember_state
  DW_CFA_def_cfa_offset: 56
  DW_CFA_advance_loc: 8 to 00000000004263e5
  DW_CFA_def_cfa_offset: 48
  DW_CFA_advance_loc: 1 to 00000000004263e6
  DW_CFA_def_cfa_offset: 40
  DW_CFA_advance_loc: 2 to 00000000004263e8
  DW_CFA_def_cfa_offset: 32
  DW_CFA_advance_loc: 2 to 00000000004263ea
  DW_CFA_def_cfa_offset: 24
  DW_CFA_advance_loc: 2 to 00000000004263ec
  DW_CFA_def_cfa_offset: 16
  DW_CFA_advance_loc: 2 to 00000000004263ee
  DW_CFA_def_cfa_offset: 8
  DW_CFA_advance_loc: 5 to 00000000004263f3
  DW_CFA_restore_state
  DW_CFA_advance_loc: 56 to 000000000042642b
  DW_CFA_remember_state
  DW_CFA_def_cfa_offset: 56
  DW_CFA_advance_loc: 8 to 0000000000426433
  DW_CFA_def_cfa_offset: 48
  DW_CFA_advance_loc: 1 to 0000000000426434
  DW_CFA_def_cfa_offset: 40
  DW_CFA_advance_loc: 2 to 0000000000426436
  DW_CFA_def_cfa_offset: 32
  DW_CFA_advance_loc: 2 to 0000000000426438
  DW_CFA_def_cfa_offset: 24
  DW_CFA_advance_loc: 2 to 000000000042643a
  DW_CFA_def_cfa_offset: 16
  DW_CFA_advance_loc: 2 to 000000000042643c
  DW_CFA_def_cfa_offset: 8
  DW_CFA_advance_loc: 5 to 0000000000426441
  DW_CFA_restore_state
  DW_CFA_advance_loc: 46 to 000000000042646f
  DW_CFA_remember_state
  DW_CFA_def_cfa_offset: 56
  DW_CFA_advance_loc: 8 to 0000000000426477
  DW_CFA_def_cfa_offset: 48
  DW_CFA_advance_loc: 1 to 0000000000426478
  DW_CFA_def_cfa_offset: 40
  DW_CFA_advance_loc: 2 to 000000000042647a
  DW_CFA_def_cfa_offset: 32
  DW_CFA_advance_loc: 2 to 000000000042647c
  DW_CFA_def_cfa_offset: 24
  DW_CFA_advance_loc: 2 to 000000000042647e
  DW_CFA_def_cfa_offset: 16
  DW_CFA_advance_loc: 2 to 0000000000426480
  DW_CFA_def_cfa_offset: 8
  DW_CFA_advance_loc: 5 to 0000000000426485
  DW_CFA_restore_state
  DW_CFA_advance_loc: 56 to 00000000004264bd
  DW_CFA_remember_state
  DW_CFA_def_cfa_offset: 56
  DW_CFA_advance_loc: 8 to 00000000004264c5
  DW_CFA_def_cfa_offset: 48
  DW_CFA_advance_loc: 1 to 00000000004264c6
  DW_CFA_def_cfa_offset: 40
  DW_CFA_advance_loc: 2 to 00000000004264c8
  DW_CFA_def_cfa_offset: 32
  DW_CFA_advance_loc: 2 to 00000000004264ca
  DW_CFA_def_cfa_offset: 24
  DW_CFA_advance_loc: 2 to 00000000004264cc
  DW_CFA_def_cfa_offset: 16
  DW_CFA_advance_loc: 2 to 00000000004264ce
  DW_CFA_def_cfa_offset: 8
  DW_CFA_advance_loc: 5 to 00000000004264d3
  DW_CFA_restore_state
  DW_CFA_advance_loc: 46 to 0000000000426501
  DW_CFA_remember_state
  DW_CFA_def_cfa_offset: 56
  DW_CFA_advance_loc: 8 to 0000000000426509
  DW_CFA_def_cfa_offset: 48
  DW_CFA_advance_loc: 1 to 000000000042650a
  DW_CFA_def_cfa_offset: 40
  DW_CFA_advance_loc: 2 to 000000000042650c
  DW_CFA_def_cfa_offset: 32
  DW_CFA_advance_loc: 2 to 000000000042650e
  DW_CFA_def_cfa_offset: 24
  DW_CFA_advance_loc: 2 to 0000000000426510
  DW_CFA_def_cfa_offset: 16
  DW_CFA_advance_loc: 2 to 0000000000426512
  DW_CFA_def_cfa_offset: 8
  DW_CFA_advance_loc: 5 to 0000000000426517
  DW_CFA_restore_state
  DW_CFA_advance_loc: 56 to 000000000042654f
  DW_CFA_remember_state
  DW_CFA_def_cfa_offset: 56
  DW_CFA_advance_loc: 8 to 0000000000426557
  DW_CFA_def_cfa_offset: 48
  DW_CFA_advance_loc: 1 to 0000000000426558
  DW_CFA_def_cfa_offset: 40
  DW_CFA_advance_loc: 2 to 000000000042655a
  DW_CFA_def_cfa_offset: 32
  DW_CFA_advance_loc: 2 to 000000000042655c
  DW_CFA_def_cfa_offset: 24
  DW_CFA_advance_loc: 2 to 000000000042655e
  DW_CFA_def_cfa_offset: 16
  DW_CFA_advance_loc: 2 to 0000000000426560
  DW_CFA_def_cfa_offset: 8
  DW_CFA_advance_loc: 5 to 0000000000426565
  DW_CFA_restore_state
  DW_CFA_advance_loc: 46 to 0000000000426593
  DW_CFA_remember_state
  DW_CFA_def_cfa_offset: 56
  DW_CFA_advance_loc: 8 to 000000000042659b
  DW_CFA_def_cfa_offset: 48
  DW_CFA_advance_loc: 1 to 000000000042659c
  DW_CFA_def_cfa_offset: 40
  DW_CFA_advance_loc: 2 to 000000000042659e
  DW_CFA_def_cfa_offset: 32
  DW_CFA_advance_loc: 2 to 00000000004265a0
  DW_CFA_def_cfa_offset: 24
  DW_CFA_advance_loc: 2 to 00000000004265a2
  DW_CFA_def_cfa_offset: 16
  DW_CFA_advance_loc: 2 to 00000000004265a4
  DW_CFA_def_cfa_offset: 8
  DW_CFA_advance_loc: 5 to 00000000004265a9
  DW_CFA_restore_state
  DW_CFA_advance_loc: 56 to 00000000004265e1
  DW_CFA_remember_state
  DW_CFA_def_cfa_offset: 56
  DW_CFA_advance_loc: 8 to 00000000004265e9
  DW_CFA_def_cfa_offset: 48
  DW_CFA_advance_loc: 1 to 00000000004265ea
  DW_CFA_def_cfa_offset: 40
  DW_CFA_advance_loc: 2 to 00000000004265ec
  DW_CFA_def_cfa_offset: 32
  DW_CFA_advance_loc: 2 to 00000000004265ee
  DW_CFA_def_cfa_offset: 24
  DW_CFA_advance_loc: 2 to 00000000004265f0
  DW_CFA_def_cfa_offset: 16
  DW_CFA_advance_loc: 2 to 00000000004265f2
  DW_CFA_def_cfa_offset: 8
  DW_CFA_advance_loc: 5 to 00000000004265f7
  DW_CFA_restore_state
  DW_CFA_advance_loc: 46 to 0000000000426625
  DW_CFA_remember_state
  DW_CFA_def_cfa_offset: 56
  DW_CFA_advance_loc: 8 to 000000000042662d
  DW_CFA_def_cfa_offset: 48
  DW_CFA_advance_loc: 1 to 000000000042662e
  DW_CFA_def_cfa_offset: 40
  DW_CFA_advance_loc: 2 to 0000000000426630
  DW_CFA_def_cfa_offset: 32
  DW_CFA_advance_loc: 2 to 0000000000426632
  DW_CFA_def_cfa_offset: 24
  DW_CFA_advance_loc: 2 to 0000000000426634
  DW_CFA_def_cfa_offset: 16
  DW_CFA_advance_loc: 2 to 0000000000426636
  DW_CFA_def_cfa_offset: 8
  DW_CFA_advance_loc: 5 to 000000000042663b
  DW_CFA_restore_state
  DW_CFA_advance_loc: 56 to 0000000000426673
  DW_CFA_remember_state
  DW_CFA_def_cfa_offset: 56
  DW_CFA_advance_loc: 8 to 000000000042667b
  DW_CFA_def_cfa_offset: 48
  DW_CFA_advance_loc: 1 to 000000000042667c
  DW_CFA_def_cfa_offset: 40
  DW_CFA_advance_loc: 2 to 000000000042667e
  DW_CFA_def_cfa_offset: 32
  DW_CFA_advance_loc: 2 to 0000000000426680
  DW_CFA_def_cfa_offset: 24
  DW_CFA_advance_loc: 2 to 0000000000426682
  DW_CFA_def_cfa_offset: 16
  DW_CFA_advance_loc: 2 to 0000000000426684
  DW_CFA_def_cfa_offset: 8
  DW_CFA_advance_loc: 5 to 0000000000426689
  DW_CFA_restore_state
  DW_CFA_advance_loc: 46 to 00000000004266b7
  DW_CFA_remember_state
  DW_CFA_def_cfa_offset: 56
  DW_CFA_advance_loc: 8 to 00000000004266bf
  DW_CFA_def_cfa_offset: 48
  DW_CFA_advance_loc: 1 to 00000000004266c0
  DW_CFA_def_cfa_offset: 40
  DW_CFA_advance_loc: 2 to 00000000004266c2
  DW_CFA_def_cfa_offset: 32
  DW_CFA_advance_loc: 2 to 00000000004266c4
  DW_CFA_def_cfa_offset: 24
  DW_CFA_advance_loc: 2 to 00000000004266c6
  DW_CFA_def_cfa_offset: 16
  DW_CFA_advance_loc: 2 to 00000000004266c8
  DW_CFA_def_cfa_offset: 8
  DW_CFA_advance_loc: 5 to 00000000004266cd
  DW_CFA_restore_state
  DW_CFA_advance_loc: 56 to 0000000000426705
  DW_CFA_remember_state
  DW_CFA_def_cfa_offset: 56
  DW_CFA_advance_loc: 8 to 000000000042670d
  DW_CFA_def_cfa_offset: 48
  DW_CFA_advance_loc: 1 to 000000000042670e
  DW_CFA_def_cfa_offset: 40
  DW_CFA_advance_loc: 2 to 0000000000426710
  DW_CFA_def_cfa_offset: 32
  DW_CFA_advance_loc: 2 to 0000000000426712
  DW_CFA_def_cfa_offset: 24
  DW_CFA_advance_loc: 2 to 0000000000426714
  DW_CFA_def_cfa_offset: 16
  DW_CFA_advance_loc: 2 to 0000000000426716
  DW_CFA_def_cfa_offset: 8
  DW_CFA_advance_loc: 5 to 000000000042671b
  DW_CFA_restore_state
  DW_CFA_advance_loc: 46 to 0000000000426749
  DW_CFA_remember_state
  DW_CFA_def_cfa_offset: 56
  DW_CFA_advance_loc: 8 to 0000000000426751
  DW_CFA_def_cfa_offset: 48
  DW_CFA_advance_loc: 1 to 0000000000426752
  DW_CFA_def_cfa_offset: 40
  DW_CFA_advance_loc: 2 to 0000000000426754
  DW_CFA_def_cfa_offset: 32
  DW_CFA_advance_loc: 2 to 0000000000426756
  DW_CFA_def_cfa_offset: 24
  DW_CFA_advance_loc: 2 to 0000000000426758
  DW_CFA_def_cfa_offset: 16
  DW_CFA_advance_loc: 2 to 000000000042675a
  DW_CFA_def_cfa_offset: 8
  DW_CFA_advance_loc: 5 to 000000000042675f
  DW_CFA_restore_state
  DW_CFA_advance_loc: 56 to 0000000000426797
  DW_CFA_remember_state
  DW_CFA_def_cfa_offset: 56
  DW_CFA_advance_loc: 8 to 000000000042679f
  DW_CFA_def_cfa_offset: 48
  DW_CFA_advance_loc: 1 to 00000000004267a0
  DW_CFA_def_cfa_offset: 40
  DW_CFA_advance_loc: 2 to 00000000004267a2
  DW_CFA_def_cfa_offset: 32
  DW_CFA_advance_loc: 2 to 00000000004267a4
  DW_CFA_def_cfa_offset: 24
  DW_CFA_advance_loc: 2 to 00000000004267a6
  DW_CFA_def_cfa_offset: 16
  DW_CFA_advance_loc: 2 to 00000000004267a8
  DW_CFA_def_cfa_offset: 8
  DW_CFA_advance_loc: 5 to 00000000004267ad
  DW_CFA_restore_state
  DW_CFA_advance_loc: 46 to 00000000004267db
  DW_CFA_remember_state
  DW_CFA_def_cfa_offset: 56
  DW_CFA_advance_loc: 8 to 00000000004267e3
  DW_CFA_def_cfa_offset: 48
  DW_CFA_advance_loc: 1 to 00000000004267e4
  DW_CFA_def_cfa_offset: 40
  DW_CFA_advance_loc: 2 to 00000000004267e6
  DW_CFA_def_cfa_offset: 32
  DW_CFA_advance_loc: 2 to 00000000004267e8
  DW_CFA_def_cfa_offset: 24
  DW_CFA_advance_loc: 2 to 00000000004267ea
  DW_CFA_def_cfa_offset: 16
  DW_CFA_advance_loc: 2 to 00000000004267ec
  DW_CFA_def_cfa_offset: 8
  DW_CFA_advance_loc: 5 to 00000000004267f1
  DW_CFA_restore_state
  DW_CFA_advance_loc: 56 to 0000000000426829
  DW_CFA_remember_state
  DW_CFA_def_cfa_offset: 56
  DW_CFA_advance_loc: 8 to 0000000000426831
  DW_CFA_def_cfa_offset: 48
  DW_CFA_advance_loc: 1 to 0000000000426832
  DW_CFA_def_cfa_offset: 40
  DW_CFA_advance_loc: 2 to 0000000000426834
  DW_CFA_def_cfa_offset: 32
  DW_CFA_advance_loc: 2 to 0000000000426836
  DW_CFA_def_cfa_offset: 24
  DW_CFA_advance_loc: 2 to 0000000000426838
  DW_CFA_def_cfa_offset: 16
  DW_CFA_advance_loc: 2 to 000000000042683a
  DW_CFA_def_cfa_offset: 8
  DW_CFA_advance_loc: 5 to 000000000042683f
  DW_CFA_restore_state
  DW_CFA_advance_loc: 46 to 000000000042686d
  DW_CFA_remember_state
  DW_CFA_def_cfa_offset: 56
  DW_CFA_advance_loc: 8 to 0000000000426875
  DW_CFA_def_cfa_offset: 48
  DW_CFA_advance_loc: 1 to 0000000000426876
  DW_CFA_def_cfa_offset: 40
  DW_CFA_advance_loc: 2 to 0000000000426878
  DW_CFA_def_cfa_offset: 32
  DW_CFA_advance_loc: 2 to 000000000042687a
  DW_CFA_def_cfa_offset: 24
  DW_CFA_advance_loc: 2 to 000000000042687c
  DW_CFA_def_cfa_offset: 16
  DW_CFA_advance_loc: 2 to 000000000042687e
  DW_CFA_def_cfa_offset: 8
  DW_CFA_advance_loc: 5 to 0000000000426883
  DW_CFA_restore_state
  DW_CFA_advance_loc: 56 to 00000000004268bb
  DW_CFA_remember_state
  DW_CFA_def_cfa_offset: 56
  DW_CFA_advance_loc: 8 to 00000000004268c3
  DW_CFA_def_cfa_offset: 48
  DW_CFA_advance_loc: 1 to 00000000004268c4
  DW_CFA_def_cfa_offset: 40
  DW_CFA_advance_loc: 2 to 00000000004268c6
  DW_CFA_def_cfa_offset: 32
  DW_CFA_advance_loc: 2 to 00000000004268c8
  DW_CFA_def_cfa_offset: 24
  DW_CFA_advance_loc: 2 to 00000000004268ca
  DW_CFA_def_cfa_offset: 16
  DW_CFA_advance_loc: 2 to 00000000004268cc
  DW_CFA_def_cfa_offset: 8
  DW_CFA_advance_loc: 5 to 00000000004268d1
  DW_CFA_restore_state
  DW_CFA_advance_loc: 46 to 00000000004268ff
  DW_CFA_remember_state
  DW_CFA_def_cfa_offset: 56
  DW_CFA_advance_loc: 8 to 0000000000426907
  DW_CFA_def_cfa_offset: 48
  DW_CFA_advance_loc: 1 to 0000000000426908
  DW_CFA_def_cfa_offset: 40
  DW_CFA_advance_loc: 2 to 000000000042690a
  DW_CFA_def_cfa_offset: 32
  DW_CFA_advance_loc: 2 to 000000000042690c
  DW_CFA_def_cfa_offset: 24
  DW_CFA_advance_loc: 2 to 000000000042690e
  DW_CFA_def_cfa_offset: 16
  DW_CFA_advance_loc: 2 to 0000000000426910
  DW_CFA_def_cfa_offset: 8
  DW_CFA_advance_loc: 5 to 0000000000426915
  DW_CFA_restore_state
  DW_CFA_advance_loc: 56 to 000000000042694d
  DW_CFA_remember_state
  DW_CFA_def_cfa_offset: 56
  DW_CFA_advance_loc: 8 to 0000000000426955
  DW_CFA_def_cfa_offset: 48
  DW_CFA_advance_loc: 1 to 0000000000426956
  DW_CFA_def_cfa_offset: 40
  DW_CFA_advance_loc: 2 to 0000000000426958
  DW_CFA_def_cfa_offset: 32
  DW_CFA_advance_loc: 2 to 000000000042695a
  DW_CFA_def_cfa_offset: 24
  DW_CFA_advance_loc: 2 to 000000000042695c
  DW_CFA_def_cfa_offset: 16
  DW_CFA_advance_loc: 2 to 000000000042695e
  DW_CFA_def_cfa_offset: 8
  DW_CFA_advance_loc: 5 to 0000000000426963
  DW_CFA_restore_state
  DW_CFA_advance_loc: 46 to 0000000000426991
  DW_CFA_remember_state
  DW_CFA_def_cfa_offset: 56
  DW_CFA_advance_loc: 8 to 0000000000426999
  DW_CFA_def_cfa_offset: 48
  DW_CFA_advance_loc: 1 to 000000000042699a
  DW_CFA_def_cfa_offset: 40
  DW_CFA_advance_loc: 2 to 000000000042699c
  DW_CFA_def_cfa_offset: 32
  DW_CFA_advance_loc: 2 to 000000000042699e
  DW_CFA_def_cfa_offset: 24
  DW_CFA_advance_loc: 2 to 00000000004269a0
  DW_CFA_def_cfa_offset: 16
  DW_CFA_advance_loc: 2 to 00000000004269a2
  DW_CFA_def_cfa_offset: 8
  DW_CFA_advance_loc: 5 to 00000000004269a7
  DW_CFA_restore_state
  DW_CFA_advance_loc: 56 to 00000000004269df
  DW_CFA_remember_state
  DW_CFA_def_cfa_offset: 56
  DW_CFA_advance_loc: 8 to 00000000004269e7
  DW_CFA_def_cfa_offset: 48
  DW_CFA_advance_loc: 1 to 00000000004269e8
  DW_CFA_def_cfa_offset: 40
  DW_CFA_advance_loc: 2 to 00000000004269ea
  DW_CFA_def_cfa_offset: 32
  DW_CFA_advance_loc: 2 to 00000000004269ec
  DW_CFA_def_cfa_offset: 24
  DW_CFA_advance_loc: 2 to 00000000004269ee
  DW_CFA_def_cfa_offset: 16
  DW_CFA_advance_loc: 2 to 00000000004269f0
  DW_CFA_def_cfa_offset: 8
  DW_CFA_advance_loc: 5 to 00000000004269f5
  DW_CFA_restore_state
  DW_CFA_advance_loc: 46 to 0000000000426a23
  DW_CFA_remember_state
  DW_CFA_def_cfa_offset: 56
  DW_CFA_advance_loc: 8 to 0000000000426a2b
  DW_CFA_def_cfa_offset: 48
  DW_CFA_advance_loc: 1 to 0000000000426a2c
  DW_CFA_def_cfa_offset: 40
  DW_CFA_advance_loc: 2 to 0000000000426a2e
  DW_CFA_def_cfa_offset: 32
  DW_CFA_advance_loc: 2 to 0000000000426a30
  DW_CFA_def_cfa_offset: 24
  DW_CFA_advance_loc: 2 to 0000000000426a32
  DW_CFA_def_cfa_offset: 16
  DW_CFA_advance_loc: 2 to 0000000000426a34
  DW_CFA_def_cfa_offset: 8
  DW_CFA_advance_loc: 5 to 0000000000426a39
  DW_CFA_restore_state
  DW_CFA_advance_loc: 56 to 0000000000426a71
  DW_CFA_remember_state
  DW_CFA_def_cfa_offset: 56
  DW_CFA_advance_loc: 8 to 0000000000426a79
  DW_CFA_def_cfa_offset: 48
  DW_CFA_advance_loc: 1 to 0000000000426a7a
  DW_CFA_def_cfa_offset: 40
  DW_CFA_advance_loc: 2 to 0000000000426a7c
  DW_CFA_def_cfa_offset: 32
  DW_CFA_advance_loc: 2 to 0000000000426a7e
  DW_CFA_def_cfa_offset: 24
  DW_CFA_advance_loc: 2 to 0000000000426a80
  DW_CFA_def_cfa_offset: 16
  DW_CFA_advance_loc: 2 to 0000000000426a82
  DW_CFA_def_cfa_offset: 8
  DW_CFA_advance_loc: 5 to 0000000000426a87
  DW_CFA_restore_state
  DW_CFA_advance_loc: 46 to 0000000000426ab5
  DW_CFA_remember_state
  DW_CFA_def_cfa_offset: 56
  DW_CFA_advance_loc: 8 to 0000000000426abd
  DW_CFA_def_cfa_offset: 48
  DW_CFA_advance_loc: 1 to 0000000000426abe
  DW_CFA_def_cfa_offset: 40
  DW_CFA_advance_loc: 2 to 0000000000426ac0
  DW_CFA_def_cfa_offset: 32
  DW_CFA_advance_loc: 2 to 0000000000426ac2
  DW_CFA_def_cfa_offset: 24
  DW_CFA_advance_loc: 2 to 0000000000426ac4
  DW_CFA_def_cfa_offset: 16
  DW_CFA_advance_loc: 2 to 0000000000426ac6
  DW_CFA_def_cfa_offset: 8
  DW_CFA_advance_loc: 5 to 0000000000426acb
  DW_CFA_restore_state
  DW_CFA_advance_loc: 56 to 0000000000426b03
  DW_CFA_remember_state
  DW_CFA_def_cfa_offset: 56
  DW_CFA_advance_loc: 8 to 0000000000426b0b
  DW_CFA_def_cfa_offset: 48
  DW_CFA_advance_loc: 1 to 0000000000426b0c
  DW_CFA_def_cfa_offset: 40
  DW_CFA_advance_loc: 2 to 0000000000426b0e
  DW_CFA_def_cfa_offset: 32
  DW_CFA_advance_loc: 2 to 0000000000426b10
  DW_CFA_def_cfa_offset: 24
  DW_CFA_advance_loc: 2 to 0000000000426b12
  DW_CFA_def_cfa_offset: 16
  DW_CFA_advance_loc: 2 to 0000000000426b14
  DW_CFA_def_cfa_offset: 8
  DW_CFA_advance_loc: 5 to 0000000000426b19
  DW_CFA_restore_state
  DW_CFA_advance_loc: 46 to 0000000000426b47
  DW_CFA_remember_state
  DW_CFA_def_cfa_offset: 56
  DW_CFA_advance_loc: 8 to 0000000000426b4f
  DW_CFA_def_cfa_offset: 48
  DW_CFA_advance_loc: 1 to 0000000000426b50
  DW_CFA_def_cfa_offset: 40
  DW_CFA_advance_loc: 2 to 0000000000426b52
  DW_CFA_def_cfa_offset: 32
  DW_CFA_advance_loc: 2 to 0000000000426b54
  DW_CFA_def_cfa_offset: 24
  DW_CFA_advance_loc: 2 to 0000000000426b56
  DW_CFA_def_cfa_offset: 16
  DW_CFA_advance_loc: 2 to 0000000000426b58
  DW_CFA_def_cfa_offset: 8
  DW_CFA_advance_loc: 5 to 0000000000426b5d
  DW_CFA_restore_state
  DW_CFA_advance_loc: 56 to 0000000000426b95
  DW_CFA_remember_state
  DW_CFA_def_cfa_offset: 56
  DW_CFA_advance_loc: 8 to 0000000000426b9d
  DW_CFA_def_cfa_offset: 48
  DW_CFA_advance_loc: 1 to 0000000000426b9e
  DW_CFA_def_cfa_offset: 40
  DW_CFA_advance_loc: 2 to 0000000000426ba0
  DW_CFA_def_cfa_offset: 32
  DW_CFA_advance_loc: 2 to 0000000000426ba2
  DW_CFA_def_cfa_offset: 24
  DW_CFA_advance_loc: 2 to 0000000000426ba4
  DW_CFA_def_cfa_offset: 16
  DW_CFA_advance_loc: 2 to 0000000000426ba6
  DW_CFA_def_cfa_offset: 8
  DW_CFA_advance_loc: 5 to 0000000000426bab
  DW_CFA_restore_state
  DW_CFA_advance_loc: 46 to 0000000000426bd9
  DW_CFA_remember_state
  DW_CFA_def_cfa_offset: 56
  DW_CFA_advance_loc: 8 to 0000000000426be1
  DW_CFA_def_cfa_offset: 48
  DW_CFA_advance_loc: 1 to 0000000000426be2
  DW_CFA_def_cfa_offset: 40
  DW_CFA_advance_loc: 2 to 0000000000426be4
  DW_CFA_def_cfa_offset: 32
  DW_CFA_advance_loc: 2 to 0000000000426be6
  DW_CFA_def_cfa_offset: 24
  DW_CFA_advance_loc: 2 to 0000000000426be8
  DW_CFA_def_cfa_offset: 16
  DW_CFA_advance_loc: 2 to 0000000000426bea
  DW_CFA_def_cfa_offset: 8
  DW_CFA_advance_loc: 5 to 0000000000426bef
  DW_CFA_restore_state
  DW_CFA_advance_loc: 56 to 0000000000426c27
  DW_CFA_remember_state
  DW_CFA_def_cfa_offset: 56
  DW_CFA_advance_loc: 8 to 0000000000426c2f
  DW_CFA_def_cfa_offset: 48
  DW_CFA_advance_loc: 1 to 0000000000426c30
  DW_CFA_def_cfa_offset: 40
  DW_CFA_advance_loc: 2 to 0000000000426c32
  DW_CFA_def_cfa_offset: 32
  DW_CFA_advance_loc: 2 to 0000000000426c34
  DW_CFA_def_cfa_offset: 24
  DW_CFA_advance_loc: 2 to 0000000000426c36
  DW_CFA_def_cfa_offset: 16
  DW_CFA_advance_loc: 2 to 0000000000426c38
  DW_CFA_def_cfa_offset: 8
  DW_CFA_advance_loc: 5 to 0000000000426c3d
  DW_CFA_restore_state
  DW_CFA_advance_loc: 46 to 0000000000426c6b
  DW_CFA_remember_state
  DW_CFA_def_cfa_offset: 56
  DW_CFA_advance_loc: 8 to 0000000000426c73
  DW_CFA_def_cfa_offset: 48
  DW_CFA_advance_loc: 1 to 0000000000426c74
  DW_CFA_def_cfa_offset: 40
  DW_CFA_advance_loc: 2 to 0000000000426c76
  DW_CFA_def_cfa_offset: 32
  DW_CFA_advance_loc: 2 to 0000000000426c78
  DW_CFA_def_cfa_offset: 24
  DW_CFA_advance_loc: 2 to 0000000000426c7a
  DW_CFA_def_cfa_offset: 16
  DW_CFA_advance_loc: 2 to 0000000000426c7c
  DW_CFA_def_cfa_offset: 8
  DW_CFA_advance_loc: 5 to 0000000000426c81
  DW_CFA_restore_state
  DW_CFA_advance_loc: 56 to 0000000000426cb9
  DW_CFA_remember_state
  DW_CFA_def_cfa_offset: 56
  DW_CFA_advance_loc: 8 to 0000000000426cc1
  DW_CFA_def_cfa_offset: 48
  DW_CFA_advance_loc: 1 to 0000000000426cc2
  DW_CFA_def_cfa_offset: 40
  DW_CFA_advance_loc: 2 to 0000000000426cc4
  DW_CFA_def_cfa_offset: 32
  DW_CFA_advance_loc: 2 to 0000000000426cc6
  DW_CFA_def_cfa_offset: 24
  DW_CFA_advance_loc: 2 to 0000000000426cc8
  DW_CFA_def_cfa_offset: 16
  DW_CFA_advance_loc: 2 to 0000000000426cca
  DW_CFA_def_cfa_offset: 8
  DW_CFA_advance_loc: 5 to 0000000000426ccf
  DW_CFA_restore_state
  DW_CFA_advance_loc: 46 to 0000000000426cfd
  DW_CFA_remember_state
  DW_CFA_def_cfa_offset: 56
  DW_CFA_advance_loc: 8 to 0000000000426d05
  DW_CFA_def_cfa_offset: 48
  DW_CFA_advance_loc: 1 to 0000000000426d06
  DW_CFA_def_cfa_offset: 40
  DW_CFA_advance_loc: 2 to 0000000000426d08
  DW_CFA_def_cfa_offset: 32
  DW_CFA_advance_loc: 2 to 0000000000426d0a
  DW_CFA_def_cfa_offset: 24
  DW_CFA_advance_loc: 2 to 0000000000426d0c
  DW_CFA_def_cfa_offset: 16
  DW_CFA_advance_loc: 2 to 0000000000426d0e
  DW_CFA_def_cfa_offset: 8
  DW_CFA_advance_loc: 5 to 0000000000426d13
  DW_CFA_restore_state
  DW_CFA_advance_loc: 56 to 0000000000426d4b
  DW_CFA_remember_state
  DW_CFA_def_cfa_offset: 56
  DW_CFA_advance_loc: 8 to 0000000000426d53
  DW_CFA_def_cfa_offset: 48
  DW_CFA_advance_loc: 1 to 0000000000426d54
  DW_CFA_def_cfa_offset: 40
  DW_CFA_advance_loc: 2 to 0000000000426d56
  DW_CFA_def_cfa_offset: 32
  DW_CFA_advance_loc: 2 to 0000000000426d58
  DW_CFA_def_cfa_offset: 24
  DW_CFA_advance_loc: 2 to 0000000000426d5a
  DW_CFA_def_cfa_offset: 16
  DW_CFA_advance_loc: 2 to 0000000000426d5c
  DW_CFA_def_cfa_offset: 8
  DW_CFA_advance_loc: 5 to 0000000000426d61
  DW_CFA_restore_state
  DW_CFA_advance_loc: 46 to 0000000000426d8f
  DW_CFA_remember_state
  DW_CFA_def_cfa_offset: 56
  DW_CFA_advance_loc: 8 to 0000000000426d97
  DW_CFA_def_cfa_offset: 48
  DW_CFA_advance_loc: 1 to 0000000000426d98
  DW_CFA_def_cfa_offset: 40
  DW_CFA_advance_loc: 2 to 0000000000426d9a
  DW_CFA_def_cfa_offset: 32
  DW_CFA_advance_loc: 2 to 0000000000426d9c
  DW_CFA_def_cfa_offset: 24
  DW_CFA_advance_loc: 2 to 0000000000426d9e
  DW_CFA_def_cfa_offset: 16
  DW_CFA_advance_loc: 2 to 0000000000426da0
  DW_CFA_def_cfa_offset: 8
  DW_CFA_advance_loc: 5 to 0000000000426da5
  DW_CFA_restore_state
  DW_CFA_advance_loc: 56 to 0000000000426ddd
  DW_CFA_remember_state
  DW_CFA_def_cfa_offset: 56
  DW_CFA_advance_loc: 8 to 0000000000426de5
  DW_CFA_def_cfa_offset: 48
  DW_CFA_advance_loc: 1 to 0000000000426de6
  DW_CFA_def_cfa_offset: 40
  DW_CFA_advance_loc: 2 to 0000000000426de8
  DW_CFA_def_cfa_offset: 32
  DW_CFA_advance_loc: 2 to 0000000000426dea
  DW_CFA_def_cfa_offset: 24
  DW_CFA_advance_loc: 2 to 0000000000426dec
  DW_CFA_def_cfa_offset: 16
  DW_CFA_advance_loc: 2 to 0000000000426dee
  DW_CFA_def_cfa_offset: 8
  DW_CFA_advance_loc: 5 to 0000000000426df3
  DW_CFA_restore_state
  DW_CFA_advance_loc: 46 to 0000000000426e21
  DW_CFA_remember_state
  DW_CFA_def_cfa_offset: 56
  DW_CFA_advance_loc: 8 to 0000000000426e29
  DW_CFA_def_cfa_offset: 48
  DW_CFA_advance_loc: 1 to 0000000000426e2a
  DW_CFA_def_cfa_offset: 40
  DW_CFA_advance_loc: 2 to 0000000000426e2c
  DW_CFA_def_cfa_offset: 32
  DW_CFA_advance_loc: 2 to 0000000000426e2e
  DW_CFA_def_cfa_offset: 24
  DW_CFA_advance_loc: 2 to 0000000000426e30
  DW_CFA_def_cfa_offset: 16
  DW_CFA_advance_loc: 2 to 0000000000426e32
  DW_CFA_def_cfa_offset: 8
  DW_CFA_advance_loc: 5 to 0000000000426e37
  DW_CFA_restore_state
  DW_CFA_advance_loc: 56 to 0000000000426e6f
  DW_CFA_remember_state
  DW_CFA_def_cfa_offset: 56
  DW_CFA_advance_loc: 8 to 0000000000426e77
  DW_CFA_def_cfa_offset: 48
  DW_CFA_advance_loc: 1 to 0000000000426e78
  DW_CFA_def_cfa_offset: 40
  DW_CFA_advance_loc: 2 to 0000000000426e7a
  DW_CFA_def_cfa_offset: 32
  DW_CFA_advance_loc: 2 to 0000000000426e7c
  DW_CFA_def_cfa_offset: 24
  DW_CFA_advance_loc: 2 to 0000000000426e7e
  DW_CFA_def_cfa_offset: 16
  DW_CFA_advance_loc: 2 to 0000000000426e80
  DW_CFA_def_cfa_offset: 8
  DW_CFA_advance_loc: 5 to 0000000000426e85
  DW_CFA_restore_state
  DW_CFA_advance_loc: 46 to 0000000000426eb3
  DW_CFA_remember_state
  DW_CFA_def_cfa_offset: 56
  DW_CFA_advance_loc: 8 to 0000000000426ebb
  DW_CFA_def_cfa_offset: 48
  DW_CFA_advance_loc: 1 to 0000000000426ebc
  DW_CFA_def_cfa_offset: 40
  DW_CFA_advance_loc: 2 to 0000000000426ebe
  DW_CFA_def_cfa_offset: 32
  DW_CFA_advance_loc: 2 to 0000000000426ec0
  DW_CFA_def_cfa_offset: 24
  DW_CFA_advance_loc: 2 to 0000000000426ec2
  DW_CFA_def_cfa_offset: 16
  DW_CFA_advance_loc: 2 to 0000000000426ec4
  DW_CFA_def_cfa_offset: 8
  DW_CFA_advance_loc: 5 to 0000000000426ec9
  DW_CFA_restore_state
  DW_CFA_advance_loc: 56 to 0000000000426f01
  DW_CFA_remember_state
  DW_CFA_def_cfa_offset: 56
  DW_CFA_advance_loc: 8 to 0000000000426f09
  DW_CFA_def_cfa_offset: 48
  DW_CFA_advance_loc: 1 to 0000000000426f0a
  DW_CFA_def_cfa_offset: 40
  DW_CFA_advance_loc: 2 to 0000000000426f0c
  DW_CFA_def_cfa_offset: 32
  DW_CFA_advance_loc: 2 to 0000000000426f0e
  DW_CFA_def_cfa_offset: 24
  DW_CFA_advance_loc: 2 to 0000000000426f10
  DW_CFA_def_cfa_offset: 16
  DW_CFA_advance_loc: 2 to 0000000000426f12
  DW_CFA_def_cfa_offset: 8
  DW_CFA_advance_loc: 5 to 0000000000426f17
  DW_CFA_restore_state
  DW_CFA_advance_loc: 46 to 0000000000426f45
  DW_CFA_remember_state
  DW_CFA_def_cfa_offset: 56
  DW_CFA_advance_loc: 8 to 0000000000426f4d
  DW_CFA_def_cfa_offset: 48
  DW_CFA_advance_loc: 1 to 0000000000426f4e
  DW_CFA_def_cfa_offset: 40
  DW_CFA_advance_loc: 2 to 0000000000426f50
  DW_CFA_def_cfa_offset: 32
  DW_CFA_advance_loc: 2 to 0000000000426f52
  DW_CFA_def_cfa_offset: 24
  DW_CFA_advance_loc: 2 to 0000000000426f54
  DW_CFA_def_cfa_offset: 16
  DW_CFA_advance_loc: 2 to 0000000000426f56
  DW_CFA_def_cfa_offset: 8
  DW_CFA_advance_loc: 5 to 0000000000426f5b
  DW_CFA_restore_state
  DW_CFA_advance_loc: 56 to 0000000000426f93
  DW_CFA_remember_state
  DW_CFA_def_cfa_offset: 56
  DW_CFA_advance_loc: 8 to 0000000000426f9b
  DW_CFA_def_cfa_offset: 48
  DW_CFA_advance_loc: 1 to 0000000000426f9c
  DW_CFA_def_cfa_offset: 40
  DW_CFA_advance_loc: 2 to 0000000000426f9e
  DW_CFA_def_cfa_offset: 32
  DW_CFA_advance_loc: 2 to 0000000000426fa0
  DW_CFA_def_cfa_offset: 24
  DW_CFA_advance_loc: 2 to 0000000000426fa2
  DW_CFA_def_cfa_offset: 16
  DW_CFA_advance_loc: 2 to 0000000000426fa4
  DW_CFA_def_cfa_offset: 8
  DW_CFA_advance_loc: 5 to 0000000000426fa9
  DW_CFA_restore_state
  DW_CFA_advance_loc: 46 to 0000000000426fd7
  DW_CFA_remember_state
  DW_CFA_def_cfa_offset: 56
  DW_CFA_advance_loc: 8 to 0000000000426fdf
  DW_CFA_def_cfa_offset: 48
  DW_CFA_advance_loc: 1 to 0000000000426fe0
  DW_CFA_def_cfa_offset: 40
  DW_CFA_advance_loc: 2 to 0000000000426fe2
  DW_CFA_def_cfa_offset: 32
  DW_CFA_advance_loc: 2 to 0000000000426fe4
  DW_CFA_def_cfa_offset: 24
  DW_CFA_advance_loc: 2 to 0000000000426fe6
  DW_CFA_def_cfa_offset: 16
  DW_CFA_advance_loc: 2 to 0000000000426fe8
  DW_CFA_def_cfa_offset: 8
  DW_CFA_advance_loc: 5 to 0000000000426fed
  DW_CFA_restore_state
  DW_CFA_advance_loc: 56 to 0000000000427025
  DW_CFA_remember_state
  DW_CFA_def_cfa_offset: 56
  DW_CFA_advance_loc: 8 to 000000000042702d
  DW_CFA_def_cfa_offset: 48
  DW_CFA_advance_loc: 1 to 000000000042702e
  DW_CFA_def_cfa_offset: 40
  DW_CFA_advance_loc: 2 to 0000000000427030
  DW_CFA_def_cfa_offset: 32
  DW_CFA_advance_loc: 2 to 0000000000427032
  DW_CFA_def_cfa_offset: 24
  DW_CFA_advance_loc: 2 to 0000000000427034
  DW_CFA_def_cfa_offset: 16
  DW_CFA_advance_loc: 2 to 0000000000427036
  DW_CFA_def_cfa_offset: 8
  DW_CFA_advance_loc: 5 to 000000000042703b
  DW_CFA_restore_state
  DW_CFA_advance_loc: 46 to 0000000000427069
  DW_CFA_remember_state
  DW_CFA_def_cfa_offset: 56
  DW_CFA_advance_loc: 8 to 0000000000427071
  DW_CFA_def_cfa_offset: 48
  DW_CFA_advance_loc: 1 to 0000000000427072
  DW_CFA_def_cfa_offset: 40
  DW_CFA_advance_loc: 2 to 0000000000427074
  DW_CFA_def_cfa_offset: 32
  DW_CFA_advance_loc: 2 to 0000000000427076
  DW_CFA_def_cfa_offset: 24
  DW_CFA_advance_loc: 2 to 0000000000427078
  DW_CFA_def_cfa_offset: 16
  DW_CFA_advance_loc: 2 to 000000000042707a
  DW_CFA_def_cfa_offset: 8
  DW_CFA_advance_loc: 5 to 000000000042707f
  DW_CFA_restore_state
  DW_CFA_advance_loc: 56 to 00000000004270b7
  DW_CFA_remember_state
  DW_CFA_def_cfa_offset: 56
  DW_CFA_advance_loc: 8 to 00000000004270bf
  DW_CFA_def_cfa_offset: 48
  DW_CFA_advance_loc: 1 to 00000000004270c0
  DW_CFA_def_cfa_offset: 40
  DW_CFA_advance_loc: 2 to 00000000004270c2
  DW_CFA_def_cfa_offset: 32
  DW_CFA_advance_loc: 2 to 00000000004270c4
  DW_CFA_def_cfa_offset: 24
  DW_CFA_advance_loc: 2 to 00000000004270c6
  DW_CFA_def_cfa_offset: 16
  DW_CFA_advance_loc: 2 to 00000000004270c8
  DW_CFA_def_cfa_offset: 8
  DW_CFA_advance_loc: 5 to 00000000004270cd
  DW_CFA_restore_state
  DW_CFA_advance_loc: 46 to 00000000004270fb
  DW_CFA_remember_state
  DW_CFA_def_cfa_offset: 56
  DW_CFA_advance_loc: 8 to 0000000000427103
  DW_CFA_def_cfa_offset: 48
  DW_CFA_advance_loc: 1 to 0000000000427104
  DW_CFA_def_cfa_offset: 40
  DW_CFA_advance_loc: 2 to 0000000000427106
  DW_CFA_def_cfa_offset: 32
  DW_CFA_advance_loc: 2 to 0000000000427108
  DW_CFA_def_cfa_offset: 24
  DW_CFA_advance_loc: 2 to 000000000042710a
  DW_CFA_def_cfa_offset: 16
  DW_CFA_advance_loc: 2 to 000000000042710c
  DW_CFA_def_cfa_offset: 8
  DW_CFA_advance_loc: 5 to 0000000000427111
  DW_CFA_restore_state
  DW_CFA_advance_loc: 56 to 0000000000427149
  DW_CFA_remember_state
  DW_CFA_def_cfa_offset: 56
  DW_CFA_advance_loc: 8 to 0000000000427151
  DW_CFA_def_cfa_offset: 48
  DW_CFA_advance_loc: 1 to 0000000000427152
  DW_CFA_def_cfa_offset: 40
  DW_CFA_advance_loc: 2 to 0000000000427154
  DW_CFA_def_cfa_offset: 32
  DW_CFA_advance_loc: 2 to 0000000000427156
  DW_CFA_def_cfa_offset: 24
  DW_CFA_advance_loc: 2 to 0000000000427158
  DW_CFA_def_cfa_offset: 16
  DW_CFA_advance_loc: 2 to 000000000042715a
  DW_CFA_def_cfa_offset: 8
  DW_CFA_advance_loc: 5 to 000000000042715f
  DW_CFA_restore_state
  DW_CFA_advance_loc: 46 to 000000000042718d
  DW_CFA_remember_state
  DW_CFA_def_cfa_offset: 56
  DW_CFA_advance_loc: 8 to 0000000000427195
  DW_CFA_def_cfa_offset: 48
  DW_CFA_advance_loc: 1 to 0000000000427196
  DW_CFA_def_cfa_offset: 40
  DW_CFA_advance_loc: 2 to 0000000000427198
  DW_CFA_def_cfa_offset: 32
  DW_CFA_advance_loc: 2 to 000000000042719a
  DW_CFA_def_cfa_offset: 24
  DW_CFA_advance_loc: 2 to 000000000042719c
  DW_CFA_def_cfa_offset: 16
  DW_CFA_advance_loc: 2 to 000000000042719e
  DW_CFA_def_cfa_offset: 8
  DW_CFA_advance_loc: 5 to 00000000004271a3
  DW_CFA_restore_state
  DW_CFA_advance_loc: 56 to 00000000004271db
  DW_CFA_remember_state
  DW_CFA_def_cfa_offset: 56
  DW_CFA_advance_loc: 8 to 00000000004271e3
  DW_CFA_def_cfa_offset: 48
  DW_CFA_advance_loc: 1 to 00000000004271e4
  DW_CFA_def_cfa_offset: 40
  DW_CFA_advance_loc: 2 to 00000000004271e6
  DW_CFA_def_cfa_offset: 32
  DW_CFA_advance_loc: 2 to 00000000004271e8
  DW_CFA_def_cfa_offset: 24
  DW_CFA_advance_loc: 2 to 00000000004271ea
  DW_CFA_def_cfa_offset: 16
  DW_CFA_advance_loc: 2 to 00000000004271ec
  DW_CFA_def_cfa_offset: 8
  DW_CFA_advance_loc: 5 to 00000000004271f1
  DW_CFA_restore_state
  DW_CFA_advance_loc: 46 to 000000000042721f
  DW_CFA_remember_state
  DW_CFA_def_cfa_offset: 56
  DW_CFA_advance_loc: 8 to 0000000000427227
  DW_CFA_def_cfa_offset: 48
  DW_CFA_advance_loc: 1 to 0000000000427228
  DW_CFA_def_cfa_offset: 40
  DW_CFA_advance_loc: 2 to 000000000042722a
  DW_CFA_def_cfa_offset: 32
  DW_CFA_advance_loc: 2 to 000000000042722c
  DW_CFA_def_cfa_offset: 24
  DW_CFA_advance_loc: 2 to 000000000042722e
  DW_CFA_def_cfa_offset: 16
  DW_CFA_advance_loc: 2 to 0000000000427230
  DW_CFA_def_cfa_offset: 8
  DW_CFA_advance_loc: 5 to 0000000000427235
  DW_CFA_restore_state
  DW_CFA_advance_loc: 56 to 000000000042726d
  DW_CFA_remember_state
