  Version:               1
  Augmentation:          ""
  Code alignment factor: 1
  Data alignment factor: -8
  Return address column: 16

  DW_CFA_def_cfa: r7 (rsp) ofs 8
  DW_CFA_offset: r16 (rip) at cfa-8
  DW_CFA_nop
  DW_CFA_nop
  DW_CFA_nop
  DW_CFA_nop
  DW_CFA_nop
  DW_CFA_nop

0000eb70 0000000000000024 0000eb58 FDE cie=0000eb58 pc=0000000000464910..0000000000464975
  DW_CFA_advance_loc: 4 to 0000000000464914
  DW_CFA_def_cfa_offset: 32
  DW_CFA_advance_loc1: 91 to 000000000046496f
  DW_CFA_remember_state
  DW_CFA_def_cfa_offset: 8
  DW_CFA_advance_loc: 1 to 0000000000464970
  DW_CFA_restore_state
  DW_CFA_nop
  DW_CFA_nop
  DW_CFA_nop
  DW_CFA_nop
  DW_CFA_nop
  DW_CFA_nop

0000eb98 0000000000000014 ffffffff CIE
  Version:               1
  Augmentation:          ""
  Code alignment factor: 1
  Data alignment factor: -8
  Return address column: 16

  DW_CFA_def_cfa: r7 (rsp) ofs 8
  DW_CFA_offset: r16 (rip) at cfa-8
  DW_CFA_nop
  DW_CFA_nop
  DW_CFA_nop
  DW_CFA_nop
  DW_CFA_nop
  DW_CFA_nop

0000ebb0 0000000000000014 0000eb98 FDE cie=0000eb98 pc=0000000000464980..00000000004649b8

0000ebc8 0000000000000014 0000eb98 FDE cie=0000eb98 pc=00000000004649c0..00000000004649fc

0000ebe0 0000000000000014 0000eb98 FDE cie=0000eb98 pc=0000000000464a00..0000000000464a99

0000ebf8 0000000000000054 0000eb98 FDE cie=0000eb98 pc=0000000000464aa0..0000000000464c2d
  DW_CFA_advance_loc: 2 to 0000000000464aa2
  DW_CFA_def_cfa_offset: 16
  DW_CFA_offset: r15 (r15) at cfa-16
  DW_CFA_advance_loc: 2 to 0000000000464aa4
  DW_CFA_def_cfa_offset: 24
  DW_CFA_offset: r14 (r14) at cfa-24
  DW_CFA_advance_loc: 2 to 0000000000464aa6
  DW_CFA_def_cfa_offset: 32
  DW_CFA_offset: r13 (r13) at cfa-32
  DW_CFA_advance_loc: 2 to 0000000000464aa8
  DW_CFA_def_cfa_offset: 40
  DW_CFA_offset: r12 (r12) at cfa-40
  DW_CFA_advance_loc: 1 to 0000000000464aa9
  DW_CFA_def_cfa_offset: 48
  DW_CFA_offset: r6 (rbp) at cfa-48
  DW_CFA_advance_loc: 1 to 0000000000464aaa
  DW_CFA_def_cfa_offset: 56
  DW_CFA_offset: r3 (rbx) at cfa-56
  DW_CFA_advance_loc: 4 to 0000000000464aae
  DW_CFA_def_cfa_offset: 96
  DW_CFA_advance_loc1: 197 to 0000000000464b73
  DW_CFA_remember_state
  DW_CFA_def_cfa_offset: 56
  DW_CFA_advance_loc: 4 to 0000000000464b77
  DW_CFA_def_cfa_offset: 48
  DW_CFA_advance_loc: 1 to 0000000000464b78
  DW_CFA_def_cfa_offset: 40
  DW_CFA_advance_loc: 2 to 0000000000464b7a
  DW_CFA_def_cfa_offset: 32
  DW_CFA_advance_loc: 2 to 0000000000464b7c
  DW_CFA_def_cfa_offset: 24
  DW_CFA_advance_loc: 2 to 0000000000464b7e
  DW_CFA_def_cfa_offset: 16
  DW_CFA_advance_loc: 2 to 0000000000464b80
  DW_CFA_def_cfa_offset: 8
  DW_CFA_advance_loc: 8 to 0000000000464b88
  DW_CFA_restore_state
  DW_CFA_nop
  DW_CFA_nop
  DW_CFA_nop
  DW_CFA_nop
  DW_CFA_nop
  DW_CFA_nop

0000ec50 0000000000000014 0000eb98 FDE cie=0000eb98 pc=0000000000464c30..0000000000464c3c

0000ec68 000000000000001c 0000eb98 FDE cie=0000eb98 pc=0000000000464c40..0000000000464c68
  DW_CFA_advance_loc: 1 to 0000000000464c41
  DW_CFA_def_cfa_offset: 16
  DW_CFA_offset: r6 (rbp) at cfa-16
  DW_CFA_advance_loc: 34 to 0000000000464c63
  DW_CFA_def_cfa_offset: 8

0000ec88 0000000000000014 0000eb98 FDE cie=0000eb98 pc=0000000000464c70..0000000000464c7c

0000eca0 0000000000000024 0000eb98 FDE cie=0000eb98 pc=0000000000464c80..0000000000464cea
  DW_CFA_advance_loc: 4 to 0000000000464c84
  DW_CFA_def_cfa_offset: 48
  DW_CFA_advance_loc1: 96 to 0000000000464ce4
  DW_CFA_remember_state
  DW_CFA_def_cfa_offset: 8
  DW_CFA_advance_loc: 1 to 0000000000464ce5
  DW_CFA_restore_state
  DW_CFA_nop
  DW_CFA_nop
  DW_CFA_nop
  DW_CFA_nop
  DW_CFA_nop
  DW_CFA_nop

0000ecc8 000000000000002c 0000eb98 FDE cie=0000eb98 pc=0000000000464cf0..0000000000464d8c
  DW_CFA_advance_loc: 1 to 0000000000464cf1
  DW_CFA_def_cfa_offset: 16
  DW_CFA_offset: r6 (rbp) at cfa-16
  DW_CFA_advance_loc: 14 to 0000000000464cff
  DW_CFA_def_cfa_offset: 48
  DW_CFA_advance_loc1: 134 to 0000000000464d85
  DW_CFA_remember_state
  DW_CFA_def_cfa_offset: 16
  DW_CFA_advance_loc: 1 to 0000000000464d86
  DW_CFA_def_cfa_offset: 8
  DW_CFA_advance_loc: 1 to 0000000000464d87
  DW_CFA_restore_state
  DW_CFA_nop
  DW_CFA_nop
  DW_CFA_nop
  DW_CFA_nop
  DW_CFA_nop
  DW_CFA_nop

0000ecf8 000000000000002c 0000eb98 FDE cie=0000eb98 pc=0000000000464d90..0000000000464e09
  DW_CFA_advance_loc: 1 to 0000000000464d91
  DW_CFA_def_cfa_offset: 16
  DW_CFA_offset: r6 (rbp) at cfa-16
  DW_CFA_advance_loc: 14 to 0000000000464d9f
  DW_CFA_def_cfa_offset: 48
  DW_CFA_advance_loc1: 99 to 0000000000464e02
  DW_CFA_remember_state
  DW_CFA_def_cfa_offset: 16
  DW_CFA_advance_loc: 1 to 0000000000464e03
  DW_CFA_def_cfa_offset: 8
  DW_CFA_advance_loc: 1 to 0000000000464e04
  DW_CFA_restore_state
  DW_CFA_nop
  DW_CFA_nop
  DW_CFA_nop
  DW_CFA_nop
  DW_CFA_nop
  DW_CFA_nop

0000ed28 0000000000000054 0000eb98 FDE cie=0000eb98 pc=0000000000464e10..000000000046541e
  DW_CFA_advance_loc: 2 to 0000000000464e12
  DW_CFA_def_cfa_offset: 16
  DW_CFA_offset: r15 (r15) at cfa-16
  DW_CFA_advance_loc: 13 to 0000000000464e1f
  DW_CFA_def_cfa_offset: 24
  DW_CFA_offset: r14 (r14) at cfa-24
  DW_CFA_advance_loc: 9 to 0000000000464e28
  DW_CFA_def_cfa_offset: 32
  DW_CFA_offset: r13 (r13) at cfa-32
  DW_CFA_advance_loc: 5 to 0000000000464e2d
  DW_CFA_def_cfa_offset: 40
  DW_CFA_offset: r12 (r12) at cfa-40
  DW_CFA_advance_loc: 7 to 0000000000464e34
  DW_CFA_def_cfa_offset: 48
  DW_CFA_offset: r6 (rbp) at cfa-48
  DW_CFA_advance_loc: 1 to 0000000000464e35
  DW_CFA_def_cfa_offset: 56
  DW_CFA_offset: r3 (rbx) at cfa-56
  DW_CFA_advance_loc: 7 to 0000000000464e3c
  DW_CFA_def_cfa_offset: 1344
  DW_CFA_advance_loc2: 512 to 000000000046503c
  DW_CFA_remember_state
  DW_CFA_def_cfa_offset: 56
  DW_CFA_advance_loc: 3 to 000000000046503f
  DW_CFA_def_cfa_offset: 48
  DW_CFA_advance_loc: 1 to 0000000000465040
  DW_CFA_def_cfa_offset: 40
  DW_CFA_advance_loc: 2 to 0000000000465042
  DW_CFA_def_cfa_offset: 32
  DW_CFA_advance_loc: 2 to 0000000000465044
  DW_CFA_def_cfa_offset: 24
  DW_CFA_advance_loc: 2 to 0000000000465046
  DW_CFA_def_cfa_offset: 16
  DW_CFA_advance_loc: 2 to 0000000000465048
  DW_CFA_def_cfa_offset: 8
  DW_CFA_advance_loc: 8 to 0000000000465050
  DW_CFA_restore_state
  DW_CFA_nop
  DW_CFA_nop
  DW_CFA_nop
  DW_CFA_nop

0000ed80 0000000000000034 0000eb98 FDE cie=0000eb98 pc=0000000000465420..00000000004658e4
  DW_CFA_advance_loc: 1 to 0000000000465421
  DW_CFA_def_cfa_offset: 16
  DW_CFA_offset: r6 (rbp) at cfa-16
  DW_CFA_advance_loc: 3 to 0000000000465424
  DW_CFA_def_cfa_register: r6 (rbp)
  DW_CFA_advance_loc: 13 to 0000000000465431
  DW_CFA_offset: r15 (r15) at cfa-24
  DW_CFA_offset: r14 (r14) at cfa-32
  DW_CFA_offset: r13 (r13) at cfa-40
  DW_CFA_offset: r12 (r12) at cfa-48
  DW_CFA_offset: r3 (rbx) at cfa-56
  DW_CFA_advance_loc2: 1197 to 00000000004658de
  DW_CFA_remember_state
  DW_CFA_def_cfa: r7 (rsp) ofs 8
  DW_CFA_advance_loc: 1 to 00000000004658df
  DW_CFA_restore_state
  DW_CFA_nop
  DW_CFA_nop
  DW_CFA_nop
  DW_CFA_nop

0000edb8 000000000000003c 0000eb98 FDE cie=0000eb98 pc=00000000004658f0..0000000000465a15
  DW_CFA_advance_loc: 2 to 00000000004658f2
  DW_CFA_def_cfa_offset: 16
  DW_CFA_offset: r12 (r12) at cfa-16
  DW_CFA_advance_loc: 1 to 00000000004658f3
  DW_CFA_def_cfa_offset: 24
  DW_CFA_offset: r6 (rbp) at cfa-24
  DW_CFA_advance_loc: 4 to 00000000004658f7
  DW_CFA_def_cfa_offset: 32
  DW_CFA_advance_loc1: 64 to 0000000000465937
  DW_CFA_remember_state
  DW_CFA_def_cfa_offset: 24
  DW_CFA_advance_loc: 1 to 0000000000465938
  DW_CFA_def_cfa_offset: 16
  DW_CFA_advance_loc: 2 to 000000000046593a
  DW_CFA_def_cfa_offset: 8
  DW_CFA_advance_loc: 6 to 0000000000465940
  DW_CFA_restore_state
  DW_CFA_advance_loc1: 147 to 00000000004659d3
  DW_CFA_remember_state
  DW_CFA_def_cfa_offset: 24
  DW_CFA_advance_loc: 1 to 00000000004659d4
  DW_CFA_def_cfa_offset: 16
  DW_CFA_advance_loc: 2 to 00000000004659d6
  DW_CFA_def_cfa_offset: 8
  DW_CFA_advance_loc: 10 to 00000000004659e0
  DW_CFA_restore_state
  DW_CFA_nop

0000edf8 0000000000000054 0000eb98 FDE cie=0000eb98 pc=0000000000465a20..0000000000465ba8
  DW_CFA_advance_loc: 2 to 0000000000465a22
  DW_CFA_def_cfa_offset: 16
  DW_CFA_offset: r15 (r15) at cfa-16
  DW_CFA_advance_loc: 2 to 0000000000465a24
  DW_CFA_def_cfa_offset: 24
  DW_CFA_offset: r14 (r14) at cfa-24
  DW_CFA_advance_loc: 2 to 0000000000465a26
  DW_CFA_def_cfa_offset: 32
  DW_CFA_offset: r13 (r13) at cfa-32
  DW_CFA_advance_loc: 5 to 0000000000465a2b
  DW_CFA_def_cfa_offset: 40
  DW_CFA_offset: r12 (r12) at cfa-40
  DW_CFA_advance_loc: 4 to 0000000000465a2f
  DW_CFA_def_cfa_offset: 48
  DW_CFA_offset: r6 (rbp) at cfa-48
  DW_CFA_advance_loc: 4 to 0000000000465a33
  DW_CFA_def_cfa_offset: 56
  DW_CFA_offset: r3 (rbx) at cfa-56
  DW_CFA_advance_loc: 10 to 0000000000465a3d
  DW_CFA_def_cfa_offset: 256
  DW_CFA_advance_loc1: 235 to 0000000000465b28
  DW_CFA_remember_state
  DW_CFA_def_cfa_offset: 56
  DW_CFA_advance_loc: 4 to 0000000000465b2c
  DW_CFA_def_cfa_offset: 48
  DW_CFA_advance_loc: 1 to 0000000000465b2d
  DW_CFA_def_cfa_offset: 40
  DW_CFA_advance_loc: 2 to 0000000000465b2f
  DW_CFA_def_cfa_offset: 32
  DW_CFA_advance_loc: 2 to 0000000000465b31
  DW_CFA_def_cfa_offset: 24
  DW_CFA_advance_loc: 2 to 0000000000465b33
  DW_CFA_def_cfa_offset: 16
  DW_CFA_advance_loc: 2 to 0000000000465b35
  DW_CFA_def_cfa_offset: 8
  DW_CFA_advance_loc: 11 to 0000000000465b40
  DW_CFA_restore_state
  DW_CFA_nop
  DW_CFA_nop
  DW_CFA_nop
  DW_CFA_nop
  DW_CFA_nop

0000ee50 0000000000000054 0000eb98 FDE cie=0000eb98 pc=0000000000465bb0..0000000000466723
  DW_CFA_advance_loc: 2 to 0000000000465bb2
  DW_CFA_def_cfa_offset: 16
  DW_CFA_offset: r15 (r15) at cfa-16
  DW_CFA_advance_loc: 15 to 0000000000465bc1
  DW_CFA_def_cfa_offset: 24
  DW_CFA_offset: r14 (r14) at cfa-24
  DW_CFA_advance_loc: 6 to 0000000000465bc7
  DW_CFA_def_cfa_offset: 32
  DW_CFA_offset: r13 (r13) at cfa-32
  DW_CFA_advance_loc: 6 to 0000000000465bcd
  DW_CFA_def_cfa_offset: 40
  DW_CFA_offset: r12 (r12) at cfa-40
  DW_CFA_advance_loc: 8 to 0000000000465bd5
  DW_CFA_def_cfa_offset: 48
  DW_CFA_offset: r6 (rbp) at cfa-48
  DW_CFA_advance_loc: 1 to 0000000000465bd6
  DW_CFA_def_cfa_offset: 56
  DW_CFA_offset: r3 (rbx) at cfa-56
  DW_CFA_advance_loc: 7 to 0000000000465bdd
  DW_CFA_def_cfa_offset: 224
  DW_CFA_advance_loc2: 1678 to 000000000046626b
  DW_CFA_remember_state
  DW_CFA_def_cfa_offset: 56
  DW_CFA_advance_loc: 4 to 000000000046626f
  DW_CFA_def_cfa_offset: 48
  DW_CFA_advance_loc: 1 to 0000000000466270
  DW_CFA_def_cfa_offset: 40
  DW_CFA_advance_loc: 2 to 0000000000466272
  DW_CFA_def_cfa_offset: 32
  DW_CFA_advance_loc: 2 to 0000000000466274
  DW_CFA_def_cfa_offset: 24
  DW_CFA_advance_loc: 2 to 0000000000466276
  DW_CFA_def_cfa_offset: 16
  DW_CFA_advance_loc: 2 to 0000000000466278
  DW_CFA_def_cfa_offset: 8
  DW_CFA_advance_loc: 1 to 0000000000466279
  DW_CFA_restore_state
  DW_CFA_nop
  DW_CFA_nop
  DW_CFA_nop
  DW_CFA_nop

0000eea8 0000000000000014 ffffffff CIE
  Version:               1
  Augmentation:          ""
  Code alignment factor: 1
  Data alignment factor: -8
  Return address column: 16

  DW_CFA_def_cfa: r7 (rsp) ofs 8
  DW_CFA_offset: r16 (rip) at cfa-8
  DW_CFA_nop
  DW_CFA_nop
  DW_CFA_nop
  DW_CFA_nop
  DW_CFA_nop
  DW_CFA_nop

0000eec0 0000000000000014 0000eea8 FDE cie=0000eea8 pc=0000000000466730..0000000000466731

0000eed8 0000000000000014 ffffffff CIE
  Version:               1
  Augmentation:          ""
  Code alignment factor: 1
  Data alignment factor: -8
  Return address column: 16

  DW_CFA_def_cfa: r7 (rsp) ofs 8
  DW_CFA_offset: r16 (rip) at cfa-8
  DW_CFA_nop
  DW_CFA_nop
  DW_CFA_nop
  DW_CFA_nop
  DW_CFA_nop
  DW_CFA_nop

0000eef0 0000000000000014 0000eed8 FDE cie=0000eed8 pc=0000000000466740..0000000000466741

0000ef08 0000000000000024 0000eed8 FDE cie=0000eed8 pc=0000000000466750..0000000000466787
  DW_CFA_advance_loc: 4 to 0000000000466754
  DW_CFA_def_cfa_offset: 16
  DW_CFA_advance_loc: 38 to 000000000046677a
  DW_CFA_remember_state
  DW_CFA_def_cfa_offset: 8
  DW_CFA_advance_loc: 6 to 0000000000466780
  DW_CFA_restore_state
  DW_CFA_nop
  DW_CFA_nop
  DW_CFA_nop
  DW_CFA_nop
  DW_CFA_nop
  DW_CFA_nop
  DW_CFA_nop

0000ef30 000000000000001c 0000eed8 FDE cie=0000eed8 pc=0000000000466790..00000000004667e0
  DW_CFA_advance_loc: 4 to 0000000000466794
  DW_CFA_def_cfa_offset: 16
  DW_CFA_advance_loc1: 70 to 00000000004667da
  DW_CFA_def_cfa_offset: 8
  DW_CFA_nop

0000ef50 000000000000001c 0000eed8 FDE cie=0000eed8 pc=00000000004667e0..0000000000466833
  DW_CFA_advance_loc: 4 to 00000000004667e4
  DW_CFA_def_cfa_offset: 16
  DW_CFA_advance_loc1: 74 to 000000000046682e
  DW_CFA_def_cfa_offset: 8
  DW_CFA_nop

0000ef70 0000000000000054 0000eed8 FDE cie=0000eed8 pc=0000000000466840..0000000000466ceb
  DW_CFA_advance_loc: 2 to 0000000000466842
  DW_CFA_def_cfa_offset: 16
  DW_CFA_offset: r15 (r15) at cfa-16
  DW_CFA_advance_loc: 9 to 000000000046684b
  DW_CFA_def_cfa_offset: 24
  DW_CFA_offset: r14 (r14) at cfa-24
  DW_CFA_advance_loc: 17 to 000000000046685c
  DW_CFA_def_cfa_offset: 32
  DW_CFA_offset: r13 (r13) at cfa-32
  DW_CFA_advance_loc: 2 to 000000000046685e
  DW_CFA_def_cfa_offset: 40
  DW_CFA_offset: r12 (r12) at cfa-40
  DW_CFA_advance_loc: 1 to 000000000046685f
  DW_CFA_def_cfa_offset: 48
  DW_CFA_offset: r6 (rbp) at cfa-48
  DW_CFA_advance_loc: 8 to 0000000000466867
  DW_CFA_def_cfa_offset: 56
  DW_CFA_offset: r3 (rbx) at cfa-56
  DW_CFA_advance_loc: 7 to 000000000046686e
  DW_CFA_def_cfa_offset: 416
  DW_CFA_advance_loc2: 678 to 0000000000466b14
  DW_CFA_remember_state
  DW_CFA_def_cfa_offset: 56
  DW_CFA_advance_loc: 4 to 0000000000466b18
  DW_CFA_def_cfa_offset: 48
  DW_CFA_advance_loc: 1 to 0000000000466b19
  DW_CFA_def_cfa_offset: 40
  DW_CFA_advance_loc: 2 to 0000000000466b1b
  DW_CFA_def_cfa_offset: 32
  DW_CFA_advance_loc: 2 to 0000000000466b1d
  DW_CFA_def_cfa_offset: 24
  DW_CFA_advance_loc: 2 to 0000000000466b1f
  DW_CFA_def_cfa_offset: 16
  DW_CFA_advance_loc: 2 to 0000000000466b21
  DW_CFA_def_cfa_offset: 8
  DW_CFA_advance_loc: 7 to 0000000000466b28
  DW_CFA_restore_state
  DW_CFA_nop
  DW_CFA_nop
  DW_CFA_nop
  DW_CFA_nop

0000efc8 0000000000000024 0000eed8 FDE cie=0000eed8 pc=0000000000466cf0..0000000000466d9a
  DW_CFA_advance_loc: 4 to 0000000000466cf4
  DW_CFA_def_cfa_offset: 16
  DW_CFA_advance_loc1: 71 to 0000000000466d3b
  DW_CFA_remember_state
  DW_CFA_def_cfa_offset: 8
  DW_CFA_advance_loc: 5 to 0000000000466d40
  DW_CFA_restore_state
  DW_CFA_nop
  DW_CFA_nop
  DW_CFA_nop
  DW_CFA_nop
  DW_CFA_nop
  DW_CFA_nop

0000eff0 000000000000002c 0000eed8 FDE cie=0000eed8 pc=0000000000466da0..0000000000466f20
  DW_CFA_advance_loc: 1 to 0000000000466da1
  DW_CFA_def_cfa_offset: 16
  DW_CFA_offset: r6 (rbp) at cfa-16
  DW_CFA_advance_loc: 8 to 0000000000466da9
  DW_CFA_def_cfa_offset: 32
  DW_CFA_advance_loc2: 280 to 0000000000466ec1
  DW_CFA_remember_state
  DW_CFA_def_cfa_offset: 16
  DW_CFA_advance_loc: 1 to 0000000000466ec2
  DW_CFA_def_cfa_offset: 8
  DW_CFA_advance_loc: 6 to 0000000000466ec8
  DW_CFA_restore_state
  DW_CFA_nop
  DW_CFA_nop
  DW_CFA_nop
  DW_CFA_nop
  DW_CFA_nop

0000f020 0000000000000024 0000eed8 FDE cie=0000eed8 pc=0000000000466f20..0000000000466f7b
  DW_CFA_advance_loc: 4 to 0000000000466f24
  DW_CFA_def_cfa_offset: 48
  DW_CFA_advance_loc1: 81 to 0000000000466f75
  DW_CFA_remember_state
  DW_CFA_def_cfa_offset: 8
  DW_CFA_advance_loc: 1 to 0000000000466f76
  DW_CFA_restore_state
  DW_CFA_nop
  DW_CFA_nop
  DW_CFA_nop
  DW_CFA_nop
  DW_CFA_nop
  DW_CFA_nop

0000f048 0000000000000014 ffffffff CIE
  Version:               1
  Augmentation:          ""
  Code alignment factor: 1
  Data alignment factor: -8
  Return address column: 16

  DW_CFA_def_cfa: r7 (rsp) ofs 8
  DW_CFA_offset: r16 (rip) at cfa-8
  DW_CFA_nop
  DW_CFA_nop
  DW_CFA_nop
  DW_CFA_nop
  DW_CFA_nop
  DW_CFA_nop

0000f060 000000000000002c 0000f048 FDE cie=0000f048 pc=0000000000466f80..0000000000466ff3
  DW_CFA_advance_loc: 5 to 0000000000466f85
  DW_CFA_def_cfa_offset: 16
  DW_CFA_offset: r6 (rbp) at cfa-16
  DW_CFA_advance_loc: 10 to 0000000000466f8f
  DW_CFA_def_cfa_offset: 24
  DW_CFA_offset: r3 (rbx) at cfa-24
  DW_CFA_advance_loc1: 97 to 0000000000466ff0
  DW_CFA_def_cfa_offset: 16
  DW_CFA_advance_loc: 1 to 0000000000466ff1
  DW_CFA_def_cfa_offset: 8
  DW_CFA_advance_loc: 1 to 0000000000466ff2
  DW_CFA_restore: r3 (rbx)
  DW_CFA_restore: r6 (rbp)
  DW_CFA_nop
  DW_CFA_nop
  DW_CFA_nop
  DW_CFA_nop

0000f090 0000000000000034 0000f048 FDE cie=0000f048 pc=0000000000467000..0000000000467088
  DW_CFA_advance_loc: 10 to 000000000046700a
  DW_CFA_def_cfa_offset: 16
  DW_CFA_offset: r12 (r12) at cfa-16
  DW_CFA_advance_loc: 13 to 0000000000467017
  DW_CFA_def_cfa_offset: 24
  DW_CFA_offset: r6 (rbp) at cfa-24
  DW_CFA_advance_loc: 1 to 0000000000467018
  DW_CFA_def_cfa_offset: 32
  DW_CFA_offset: r3 (rbx) at cfa-32
  DW_CFA_advance_loc1: 107 to 0000000000467083
  DW_CFA_def_cfa_offset: 24
  DW_CFA_advance_loc: 1 to 0000000000467084
  DW_CFA_def_cfa_offset: 16
  DW_CFA_advance_loc: 2 to 0000000000467086
  DW_CFA_def_cfa_offset: 8
  DW_CFA_advance_loc: 1 to 0000000000467087
  DW_CFA_restore: r3 (rbx)
  DW_CFA_restore: r6 (rbp)
  DW_CFA_restore: r12 (r12)
  DW_CFA_nop
  DW_CFA_nop
  DW_CFA_nop

0000f0c8 0000000000000044 0000f048 FDE cie=0000f048 pc=0000000000467090..000000000046712e
  DW_CFA_advance_loc: 10 to 000000000046709a
  DW_CFA_def_cfa_offset: 16
  DW_CFA_offset: r14 (r14) at cfa-16
  DW_CFA_advance_loc: 12 to 00000000004670a6
  DW_CFA_def_cfa_offset: 24
  DW_CFA_offset: r13 (r13) at cfa-24
  DW_CFA_advance_loc: 13 to 00000000004670b3
  DW_CFA_def_cfa_offset: 32
  DW_CFA_offset: r12 (r12) at cfa-32
  DW_CFA_advance_loc: 8 to 00000000004670bb
  DW_CFA_def_cfa_offset: 40
  DW_CFA_offset: r6 (rbp) at cfa-40
  DW_CFA_advance_loc: 3 to 00000000004670be
  DW_CFA_def_cfa_offset: 48
  DW_CFA_offset: r3 (rbx) at cfa-48
  DW_CFA_advance_loc1: 103 to 0000000000467125
  DW_CFA_def_cfa_offset: 40
  DW_CFA_advance_loc: 1 to 0000000000467126
  DW_CFA_def_cfa_offset: 32
  DW_CFA_advance_loc: 2 to 0000000000467128
  DW_CFA_def_cfa_offset: 24
  DW_CFA_advance_loc: 2 to 000000000046712a
  DW_CFA_def_cfa_offset: 16
  DW_CFA_advance_loc: 2 to 000000000046712c
  DW_CFA_def_cfa_offset: 8
  DW_CFA_advance_loc: 1 to 000000000046712d
  DW_CFA_restore: r3 (rbx)
  DW_CFA_restore: r6 (rbp)
  DW_CFA_restore: r12 (r12)
  DW_CFA_restore: r13 (r13)
  DW_CFA_restore: r14 (r14)
  DW_CFA_nop

0000f110 0000000000000054 0000f048 FDE cie=0000f048 pc=0000000000467130..00000000004671d6
  DW_CFA_advance_loc: 22 to 0000000000467146
  DW_CFA_def_cfa_offset: 16
  DW_CFA_offset: r15 (r15) at cfa-16
  DW_CFA_advance_loc: 5 to 000000000046714b
  DW_CFA_def_cfa_offset: 24
  DW_CFA_offset: r14 (r14) at cfa-24
  DW_CFA_advance_loc: 10 to 0000000000467155
  DW_CFA_def_cfa_offset: 32
  DW_CFA_offset: r13 (r13) at cfa-32
  DW_CFA_advance_loc: 7 to 000000000046715c
  DW_CFA_def_cfa_offset: 40
  DW_CFA_offset: r12 (r12) at cfa-40
  DW_CFA_advance_loc: 4 to 0000000000467160
  DW_CFA_def_cfa_offset: 48
  DW_CFA_offset: r6 (rbp) at cfa-48
  DW_CFA_advance_loc: 11 to 000000000046716b
  DW_CFA_def_cfa_offset: 56
  DW_CFA_offset: r3 (rbx) at cfa-56
  DW_CFA_advance_loc: 7 to 0000000000467172
  DW_CFA_def_cfa_offset: 64
  DW_CFA_advance_loc1: 77 to 00000000004671bf
  DW_CFA_def_cfa_offset: 56
  DW_CFA_advance_loc: 1 to 00000000004671c0
  DW_CFA_restore: r3 (rbx)
  DW_CFA_def_cfa_offset: 48
  DW_CFA_advance_loc: 1 to 00000000004671c1
  DW_CFA_restore: r6 (rbp)
  DW_CFA_def_cfa_offset: 40
  DW_CFA_advance_loc: 2 to 00000000004671c3
  DW_CFA_restore: r12 (r12)
  DW_CFA_def_cfa_offset: 32
  DW_CFA_advance_loc: 2 to 00000000004671c5
  DW_CFA_restore: r13 (r13)
  DW_CFA_def_cfa_offset: 24
  DW_CFA_advance_loc: 2 to 00000000004671c7
  DW_CFA_restore: r14 (r14)
  DW_CFA_def_cfa_offset: 16
  DW_CFA_advance_loc: 2 to 00000000004671c9
  DW_CFA_restore: r15 (r15)
  DW_CFA_def_cfa_offset: 8
  DW_CFA_nop
  DW_CFA_nop
  DW_CFA_nop

0000f168 000000000000007c 0000f048 FDE cie=0000f048 pc=00000000004671e0..00000000004673ac
  DW_CFA_advance_loc: 2 to 00000000004671e2
  DW_CFA_def_cfa_offset: 16
  DW_CFA_offset: r13 (r13) at cfa-16
  DW_CFA_advance_loc: 2 to 00000000004671e4
  DW_CFA_def_cfa_offset: 24
  DW_CFA_offset: r12 (r12) at cfa-24
  DW_CFA_advance_loc: 1 to 00000000004671e5
  DW_CFA_def_cfa_offset: 32
  DW_CFA_offset: r6 (rbp) at cfa-32
  DW_CFA_advance_loc: 1 to 00000000004671e6
  DW_CFA_def_cfa_offset: 40
  DW_CFA_offset: r3 (rbx) at cfa-40
  DW_CFA_advance_loc: 4 to 00000000004671ea
  DW_CFA_def_cfa_offset: 48
  DW_CFA_advance_loc1: 174 to 0000000000467298
  DW_CFA_def_cfa_offset: 56
  DW_CFA_advance_loc: 32 to 00000000004672b8
  DW_CFA_def_cfa_offset: 64
  DW_CFA_advance_loc: 1 to 00000000004672b9
  DW_CFA_def_cfa_offset: 72
  DW_CFA_advance_loc: 2 to 00000000004672bb
  DW_CFA_def_cfa_offset: 80
  DW_CFA_advance_loc: 9 to 00000000004672c4
  DW_CFA_def_cfa_offset: 56
  DW_CFA_advance_loc: 9 to 00000000004672cd
  DW_CFA_def_cfa_offset: 64
  DW_CFA_advance_loc: 25 to 00000000004672e6
  DW_CFA_def_cfa_offset: 56
  DW_CFA_advance_loc: 2 to 00000000004672e8
  DW_CFA_def_cfa_offset: 48
  DW_CFA_advance_loc: 56 to 0000000000467320
  DW_CFA_def_cfa_offset: 56
  DW_CFA_advance_loc: 8 to 0000000000467328
  DW_CFA_def_cfa_offset: 64
  DW_CFA_advance_loc: 4 to 000000000046732c
  DW_CFA_def_cfa_offset: 72
  DW_CFA_advance_loc: 2 to 000000000046732e
  DW_CFA_def_cfa_offset: 80
  DW_CFA_advance_loc: 4 to 0000000000467332
  DW_CFA_def_cfa_offset: 88
  DW_CFA_advance_loc: 2 to 0000000000467334
  DW_CFA_def_cfa_offset: 96
  DW_CFA_advance_loc: 23 to 000000000046734b
  DW_CFA_def_cfa_offset: 48
  DW_CFA_advance_loc: 16 to 000000000046735b
  DW_CFA_remember_state
  DW_CFA_def_cfa_offset: 40
  DW_CFA_advance_loc: 3 to 000000000046735e
  DW_CFA_def_cfa_offset: 32
  DW_CFA_advance_loc: 1 to 000000000046735f
  DW_CFA_def_cfa_offset: 24
  DW_CFA_advance_loc: 2 to 0000000000467361
  DW_CFA_def_cfa_offset: 16
  DW_CFA_advance_loc: 2 to 0000000000467363
  DW_CFA_def_cfa_offset: 8
  DW_CFA_advance_loc: 13 to 0000000000467370
  DW_CFA_restore_state
  DW_CFA_advance_loc: 1 to 0000000000467371
  DW_CFA_def_cfa_offset: 56
  DW_CFA_advance_loc: 8 to 0000000000467379
  DW_CFA_def_cfa_offset: 64
  DW_CFA_advance_loc: 4 to 000000000046737d
  DW_CFA_def_cfa_offset: 72
  DW_CFA_advance_loc: 2 to 000000000046737f
  DW_CFA_def_cfa_offset: 80
  DW_CFA_advance_loc: 23 to 0000000000467396
  DW_CFA_def_cfa_offset: 48
  DW_CFA_nop
  DW_CFA_nop

0000f1e8 000000000000006c 0000f048 FDE cie=0000f048 pc=00000000004673b0..000000000046786f
  DW_CFA_advance_loc: 1 to 00000000004673b1
  DW_CFA_def_cfa_offset: 16
  DW_CFA_offset: r6 (rbp) at cfa-16
  DW_CFA_advance_loc: 1 to 00000000004673b2
  DW_CFA_def_cfa_offset: 24
  DW_CFA_offset: r3 (rbx) at cfa-24
  DW_CFA_advance_loc: 7 to 00000000004673b9
  DW_CFA_def_cfa_offset: 192
  DW_CFA_advance_loc2: 275 to 00000000004674cc
  DW_CFA_remember_state
  DW_CFA_def_cfa_offset: 24
  DW_CFA_advance_loc: 1 to 00000000004674cd
  DW_CFA_def_cfa_offset: 16
  DW_CFA_advance_loc: 1 to 00000000004674ce
  DW_CFA_def_cfa_offset: 8
  DW_CFA_advance_loc: 2 to 00000000004674d0
  DW_CFA_restore_state
  DW_CFA_advance_loc1: 209 to 00000000004675a1
  DW_CFA_def_cfa_offset: 200
  DW_CFA_advance_loc: 11 to 00000000004675ac
  DW_CFA_def_cfa_offset: 208
  DW_CFA_advance_loc: 37 to 00000000004675d1
  DW_CFA_def_cfa_offset: 200
  DW_CFA_advance_loc: 1 to 00000000004675d2
  DW_CFA_def_cfa_offset: 192
  DW_CFA_advance_loc1: 189 to 000000000046768f
  DW_CFA_def_cfa_offset: 200
  DW_CFA_advance_loc: 8 to 0000000000467697
  DW_CFA_def_cfa_offset: 208
  DW_CFA_advance_loc: 15 to 00000000004676a6
  DW_CFA_def_cfa_offset: 216
  DW_CFA_advance_loc: 8 to 00000000004676ae
  DW_CFA_def_cfa_offset: 224
  DW_CFA_advance_loc: 9 to 00000000004676b7
  DW_CFA_def_cfa_offset: 192
  DW_CFA_advance_loc1: 105 to 0000000000467720
  DW_CFA_def_cfa_offset: 200
  DW_CFA_advance_loc: 8 to 0000000000467728
  DW_CFA_def_cfa_offset: 208
  DW_CFA_advance_loc: 15 to 0000000000467737
  DW_CFA_def_cfa_offset: 216
  DW_CFA_advance_loc: 14 to 0000000000467745
  DW_CFA_def_cfa_offset: 224
  DW_CFA_advance_loc: 9 to 000000000046774e
  DW_CFA_def_cfa_offset: 192
  DW_CFA_nop

0000f258 000000000000004c 0000f048 FDE cie=0000f048 pc=0000000000467870..0000000000467a34
  DW_CFA_advance_loc: 2 to 0000000000467872
  DW_CFA_def_cfa_offset: 16
  DW_CFA_offset: r12 (r12) at cfa-16
  DW_CFA_advance_loc: 1 to 0000000000467873
  DW_CFA_def_cfa_offset: 24
  DW_CFA_offset: r6 (rbp) at cfa-24
  DW_CFA_advance_loc: 1 to 0000000000467874
  DW_CFA_def_cfa_offset: 32
  DW_CFA_offset: r3 (rbx) at cfa-32
  DW_CFA_advance_loc: 7 to 000000000046787b
  DW_CFA_def_cfa_offset: 240
  DW_CFA_advance_loc1: 214 to 0000000000467951
  DW_CFA_remember_state
  DW_CFA_def_cfa_offset: 32
  DW_CFA_advance_loc: 1 to 0000000000467952
  DW_CFA_def_cfa_offset: 24
  DW_CFA_advance_loc: 1 to 0000000000467953
  DW_CFA_def_cfa_offset: 16
  DW_CFA_advance_loc: 2 to 0000000000467955
  DW_CFA_def_cfa_offset: 8
  DW_CFA_advance_loc: 5 to 000000000046795a
  DW_CFA_restore_state
  DW_CFA_advance_loc1: 208 to 0000000000467a2a
  DW_CFA_remember_state
  DW_CFA_def_cfa_offset: 32
  DW_CFA_advance_loc: 1 to 0000000000467a2b
  DW_CFA_def_cfa_offset: 24
  DW_CFA_advance_loc: 1 to 0000000000467a2c
  DW_CFA_def_cfa_offset: 16
  DW_CFA_advance_loc: 2 to 0000000000467a2e
  DW_CFA_def_cfa_offset: 8
  DW_CFA_advance_loc: 1 to 0000000000467a2f
  DW_CFA_restore_state
  DW_CFA_nop
  DW_CFA_nop
  DW_CFA_nop
  DW_CFA_nop
  DW_CFA_nop

0000f2a8 000000000000003c 0000f048 FDE cie=0000f048 pc=0000000000467a40..0000000000467ab1
  DW_CFA_advance_loc: 2 to 0000000000467a42
  DW_CFA_def_cfa_offset: 16
  DW_CFA_offset: r12 (r12) at cfa-16
  DW_CFA_advance_loc: 4 to 0000000000467a46
  DW_CFA_def_cfa_offset: 24
  DW_CFA_offset: r6 (rbp) at cfa-24
  DW_CFA_advance_loc: 1 to 0000000000467a47
  DW_CFA_def_cfa_offset: 32
  DW_CFA_offset: r3 (rbx) at cfa-32
  DW_CFA_advance_loc: 14 to 0000000000467a55
  DW_CFA_def_cfa_offset: 240
  DW_CFA_advance_loc1: 82 to 0000000000467aa7
  DW_CFA_remember_state
  DW_CFA_def_cfa_offset: 32
  DW_CFA_advance_loc: 1 to 0000000000467aa8
  DW_CFA_def_cfa_offset: 24
  DW_CFA_advance_loc: 1 to 0000000000467aa9
  DW_CFA_def_cfa_offset: 16
  DW_CFA_advance_loc: 2 to 0000000000467aab
  DW_CFA_def_cfa_offset: 8
  DW_CFA_advance_loc: 1 to 0000000000467aac
  DW_CFA_restore_state
  DW_CFA_nop
  DW_CFA_nop
  DW_CFA_nop
  DW_CFA_nop
  DW_CFA_nop

0000f2e8 0000000000000014 ffffffff CIE
  Version:               1
  Augmentation:          ""
  Code alignment factor: 1
  Data alignment factor: -8
  Return address column: 16

  DW_CFA_def_cfa: r7 (rsp) ofs 8
  DW_CFA_offset: r16 (rip) at cfa-8
  DW_CFA_nop
  DW_CFA_nop
  DW_CFA_nop
  DW_CFA_nop
  DW_CFA_nop
  DW_CFA_nop

0000f300 0000000000000054 0000f2e8 FDE cie=0000f2e8 pc=0000000000467ac0..0000000000467bbe
  DW_CFA_advance_loc: 2 to 0000000000467ac2
  DW_CFA_def_cfa_offset: 16
  DW_CFA_offset: r15 (r15) at cfa-16
  DW_CFA_advance_loc: 2 to 0000000000467ac4
  DW_CFA_def_cfa_offset: 24
  DW_CFA_offset: r14 (r14) at cfa-24
  DW_CFA_advance_loc: 5 to 0000000000467ac9
  DW_CFA_def_cfa_offset: 32
  DW_CFA_offset: r13 (r13) at cfa-32
  DW_CFA_advance_loc: 5 to 0000000000467ace
  DW_CFA_def_cfa_offset: 40
  DW_CFA_offset: r12 (r12) at cfa-40
  DW_CFA_advance_loc: 4 to 0000000000467ad2
  DW_CFA_def_cfa_offset: 48
  DW_CFA_offset: r6 (rbp) at cfa-48
  DW_CFA_advance_loc: 4 to 0000000000467ad6
  DW_CFA_def_cfa_offset: 56
  DW_CFA_offset: r3 (rbx) at cfa-56
  DW_CFA_advance_loc: 7 to 0000000000467add
  DW_CFA_def_cfa_offset: 96
  DW_CFA_advance_loc1: 195 to 0000000000467ba0
  DW_CFA_remember_state
  DW_CFA_def_cfa_offset: 56
  DW_CFA_advance_loc: 1 to 0000000000467ba1
  DW_CFA_def_cfa_offset: 48
  DW_CFA_advance_loc: 1 to 0000000000467ba2
  DW_CFA_def_cfa_offset: 40
  DW_CFA_advance_loc: 2 to 0000000000467ba4
  DW_CFA_def_cfa_offset: 32
  DW_CFA_advance_loc: 2 to 0000000000467ba6
  DW_CFA_def_cfa_offset: 24
  DW_CFA_advance_loc: 2 to 0000000000467ba8
  DW_CFA_def_cfa_offset: 16
  DW_CFA_advance_loc: 2 to 0000000000467baa
  DW_CFA_def_cfa_offset: 8
  DW_CFA_advance_loc: 6 to 0000000000467bb0
  DW_CFA_restore_state
  DW_CFA_nop
  DW_CFA_nop
  DW_CFA_nop
  DW_CFA_nop
  DW_CFA_nop
  DW_CFA_nop

0000f358 0000000000000014 ffffffff CIE
  Version:               1
  Augmentation:          ""
  Code alignment factor: 1
  Data alignment factor: -8
  Return address column: 16

  DW_CFA_def_cfa: r7 (rsp) ofs 8
  DW_CFA_offset: r16 (rip) at cfa-8
  DW_CFA_nop
  DW_CFA_nop
  DW_CFA_nop
  DW_CFA_nop
  DW_CFA_nop
  DW_CFA_nop

0000f370 000000000000001c 0000f358 FDE cie=0000f358 pc=0000000000467bc0..0000000000467bea
  DW_CFA_advance_loc: 2 to 0000000000467bc2
  DW_CFA_def_cfa_offset: 16
  DW_CFA_offset: r12 (r12) at cfa-16
  DW_CFA_advance_loc: 39 to 0000000000467be9
  DW_CFA_def_cfa_offset: 8

0000f390 0000000000000014 0000f358 FDE cie=0000f358 pc=0000000000467bf0..0000000000467c2f

0000f3a8 000000000000002c 0000f358 FDE cie=0000f358 pc=0000000000467c30..0000000000467cee
  DW_CFA_advance_loc: 2 to 0000000000467c32
  DW_CFA_def_cfa_offset: 16
  DW_CFA_offset: r12 (r12) at cfa-16
  DW_CFA_advance_loc: 1 to 0000000000467c33
  DW_CFA_def_cfa_offset: 24
  DW_CFA_offset: r3 (rbx) at cfa-24
  DW_CFA_advance_loc: 4 to 0000000000467c37
  DW_CFA_def_cfa_offset: 32
  DW_CFA_advance_loc1: 176 to 0000000000467ce7
  DW_CFA_def_cfa_offset: 24
  DW_CFA_advance_loc: 4 to 0000000000467ceb
  DW_CFA_def_cfa_offset: 16
  DW_CFA_advance_loc: 2 to 0000000000467ced
  DW_CFA_def_cfa_offset: 8
  DW_CFA_nop

0000f3d8 000000000000001c 0000f358 FDE cie=0000f358 pc=0000000000467cf0..0000000000467d1c
  DW_CFA_advance_loc: 2 to 0000000000467cf2
  DW_CFA_def_cfa_offset: 16
  DW_CFA_offset: r12 (r12) at cfa-16
  DW_CFA_advance_loc: 41 to 0000000000467d1b
  DW_CFA_def_cfa_offset: 8

0000f3f8 000000000000002c 0000f358 FDE cie=0000f358 pc=0000000000467d20..0000000000467dc8
  DW_CFA_advance_loc: 15 to 0000000000467d2f
  DW_CFA_def_cfa_offset: 16
  DW_CFA_offset: r6 (rbp) at cfa-16
  DW_CFA_advance_loc1: 90 to 0000000000467d89
  DW_CFA_remember_state
  DW_CFA_restore: r6 (rbp)
  DW_CFA_def_cfa_offset: 8
  DW_CFA_advance_loc: 7 to 0000000000467d90
  DW_CFA_restore_state
  DW_CFA_advance_loc: 47 to 0000000000467dbf
  DW_CFA_def_cfa_offset: 8
  DW_CFA_advance_loc: 1 to 0000000000467dc0
  DW_CFA_restore: r6 (rbp)
  DW_CFA_nop
  DW_CFA_nop
  DW_CFA_nop
  DW_CFA_nop
  DW_CFA_nop
  DW_CFA_nop

0000f428 0000000000000014 0000f358 FDE cie=0000f358 pc=0000000000467dd0..0000000000467dd3

0000f440 0000000000000014 ffffffff CIE
  Version:               1
  Augmentation:          ""
  Code alignment factor: 1
  Data alignment factor: -8
  Return address column: 16

  DW_CFA_def_cfa: r7 (rsp) ofs 8
  DW_CFA_offset: r16 (rip) at cfa-8
  DW_CFA_nop
  DW_CFA_nop
  DW_CFA_nop
  DW_CFA_nop
  DW_CFA_nop
  DW_CFA_nop

0000f458 0000000000000054 0000f440 FDE cie=0000f440 pc=0000000000467de0..0000000000467e9e
  DW_CFA_advance_loc: 2 to 0000000000467de2
  DW_CFA_def_cfa_offset: 16
  DW_CFA_offset: r15 (r15) at cfa-16
  DW_CFA_advance_loc: 5 to 0000000000467de7
  DW_CFA_def_cfa_offset: 24
  DW_CFA_offset: r14 (r14) at cfa-24
  DW_CFA_advance_loc: 10 to 0000000000467df1
  DW_CFA_def_cfa_offset: 32
  DW_CFA_offset: r13 (r13) at cfa-32
  DW_CFA_advance_loc: 7 to 0000000000467df8
  DW_CFA_def_cfa_offset: 40
  DW_CFA_offset: r12 (r12) at cfa-40
  DW_CFA_advance_loc: 4 to 0000000000467dfc
  DW_CFA_def_cfa_offset: 48
  DW_CFA_offset: r6 (rbp) at cfa-48
  DW_CFA_advance_loc: 6 to 0000000000467e02
  DW_CFA_def_cfa_offset: 56
  DW_CFA_offset: r3 (rbx) at cfa-56
  DW_CFA_advance_loc: 7 to 0000000000467e09
  DW_CFA_def_cfa_offset: 64
  DW_CFA_advance_loc1: 91 to 0000000000467e64
  DW_CFA_remember_state
  DW_CFA_def_cfa_offset: 56
  DW_CFA_advance_loc: 1 to 0000000000467e65
  DW_CFA_def_cfa_offset: 48
  DW_CFA_advance_loc: 1 to 0000000000467e66
  DW_CFA_def_cfa_offset: 40
  DW_CFA_advance_loc: 2 to 0000000000467e68
  DW_CFA_def_cfa_offset: 32
  DW_CFA_advance_loc: 2 to 0000000000467e6a
  DW_CFA_def_cfa_offset: 24
  DW_CFA_advance_loc: 2 to 0000000000467e6c
  DW_CFA_def_cfa_offset: 16
  DW_CFA_advance_loc: 2 to 0000000000467e6e
  DW_CFA_def_cfa_offset: 8
  DW_CFA_advance_loc: 10 to 0000000000467e78
  DW_CFA_restore_state
  DW_CFA_nop
  DW_CFA_nop
  DW_CFA_nop
  DW_CFA_nop
  DW_CFA_nop
  DW_CFA_nop

0000f4b0 0000000000000014 ffffffff CIE
  Version:               1
  Augmentation:          ""
  Code alignment factor: 1
  Data alignment factor: -8
  Return address column: 16

  DW_CFA_def_cfa: r7 (rsp) ofs 8
  DW_CFA_offset: r16 (rip) at cfa-8
  DW_CFA_nop
  DW_CFA_nop
  DW_CFA_nop
  DW_CFA_nop
  DW_CFA_nop
  DW_CFA_nop

0000f4c8 0000000000000044 0000f4b0 FDE cie=0000f4b0 pc=0000000000467ea0..0000000000467f42
  DW_CFA_advance_loc: 2 to 0000000000467ea2
  DW_CFA_def_cfa_offset: 16
  DW_CFA_offset: r14 (r14) at cfa-16
  DW_CFA_advance_loc: 5 to 0000000000467ea7
  DW_CFA_def_cfa_offset: 24
  DW_CFA_offset: r13 (r13) at cfa-24
  DW_CFA_advance_loc: 10 to 0000000000467eb1
  DW_CFA_def_cfa_offset: 32
  DW_CFA_offset: r12 (r12) at cfa-32
  DW_CFA_advance_loc: 6 to 0000000000467eb7
  DW_CFA_def_cfa_offset: 40
  DW_CFA_offset: r6 (rbp) at cfa-40
  DW_CFA_advance_loc: 6 to 0000000000467ebd
  DW_CFA_def_cfa_offset: 48
  DW_CFA_offset: r3 (rbx) at cfa-48
  DW_CFA_advance_loc1: 81 to 0000000000467f0e
  DW_CFA_remember_state
  DW_CFA_def_cfa_offset: 40
  DW_CFA_advance_loc: 1 to 0000000000467f0f
  DW_CFA_def_cfa_offset: 32
  DW_CFA_advance_loc: 2 to 0000000000467f11
  DW_CFA_def_cfa_offset: 24
  DW_CFA_advance_loc: 2 to 0000000000467f13
  DW_CFA_def_cfa_offset: 16
  DW_CFA_advance_loc: 2 to 0000000000467f15
  DW_CFA_def_cfa_offset: 8
  DW_CFA_advance_loc: 11 to 0000000000467f20
  DW_CFA_restore_state
  DW_CFA_nop
  DW_CFA_nop
  DW_CFA_nop
  DW_CFA_nop

0000f510 0000000000000014 ffffffff CIE
  Version:               1
  Augmentation:          ""
  Code alignment factor: 1
  Data alignment factor: -8
  Return address column: 16

  DW_CFA_def_cfa: r7 (rsp) ofs 8
  DW_CFA_offset: r16 (rip) at cfa-8
  DW_CFA_nop
  DW_CFA_nop
  DW_CFA_nop
  DW_CFA_nop
  DW_CFA_nop
  DW_CFA_nop

0000f528 0000000000000054 0000f510 FDE cie=0000f510 pc=0000000000467f50..00000000004681a9
  DW_CFA_advance_loc: 2 to 0000000000467f52
  DW_CFA_def_cfa_offset: 16
  DW_CFA_offset: r15 (r15) at cfa-16
  DW_CFA_advance_loc: 5 to 0000000000467f57
  DW_CFA_def_cfa_offset: 24
  DW_CFA_offset: r14 (r14) at cfa-24
  DW_CFA_advance_loc: 2 to 0000000000467f59
  DW_CFA_def_cfa_offset: 32
  DW_CFA_offset: r13 (r13) at cfa-32
  DW_CFA_advance_loc: 2 to 0000000000467f5b
  DW_CFA_def_cfa_offset: 40
  DW_CFA_offset: r12 (r12) at cfa-40
  DW_CFA_advance_loc: 1 to 0000000000467f5c
  DW_CFA_def_cfa_offset: 48
  DW_CFA_offset: r6 (rbp) at cfa-48
  DW_CFA_advance_loc: 11 to 0000000000467f67
  DW_CFA_def_cfa_offset: 56
  DW_CFA_offset: r3 (rbx) at cfa-56
  DW_CFA_advance_loc: 11 to 0000000000467f72
  DW_CFA_def_cfa_offset: 4192
  DW_CFA_advance_loc2: 445 to 000000000046812f
  DW_CFA_remember_state
  DW_CFA_def_cfa_offset: 56
  DW_CFA_advance_loc: 1 to 0000000000468130
  DW_CFA_def_cfa_offset: 48
  DW_CFA_advance_loc: 1 to 0000000000468131
  DW_CFA_def_cfa_offset: 40
  DW_CFA_advance_loc: 2 to 0000000000468133
  DW_CFA_def_cfa_offset: 32
  DW_CFA_advance_loc: 2 to 0000000000468135
  DW_CFA_def_cfa_offset: 24
  DW_CFA_advance_loc: 2 to 0000000000468137
  DW_CFA_def_cfa_offset: 16
  DW_CFA_advance_loc: 2 to 0000000000468139
  DW_CFA_def_cfa_offset: 8
  DW_CFA_advance_loc: 7 to 0000000000468140
  DW_CFA_restore_state
  DW_CFA_nop
  DW_CFA_nop
  DW_CFA_nop
  DW_CFA_nop

0000f580 0000000000000014 ffffffff CIE
  Version:               1
  Augmentation:          ""
  Code alignment factor: 1
  Data alignment factor: -8
  Return address column: 16

  DW_CFA_def_cfa: r7 (rsp) ofs 8
  DW_CFA_offset: r16 (rip) at cfa-8
  DW_CFA_nop
  DW_CFA_nop
  DW_CFA_nop
  DW_CFA_nop
  DW_CFA_nop
  DW_CFA_nop

0000f598 0000000000000034 0000f580 FDE cie=0000f580 pc=00000000004681b0..0000000000468211
  DW_CFA_advance_loc: 13 to 00000000004681bd
  DW_CFA_def_cfa_offset: 16
  DW_CFA_offset: r3 (rbx) at cfa-16
  DW_CFA_advance_loc: 6 to 00000000004681c3
  DW_CFA_def_cfa_offset: 32
  DW_CFA_advance_loc: 9 to 00000000004681cc
  DW_CFA_remember_state
  DW_CFA_def_cfa_offset: 16
  DW_CFA_advance_loc: 1 to 00000000004681cd
  DW_CFA_def_cfa_offset: 8
  DW_CFA_advance_loc: 3 to 00000000004681d0
  DW_CFA_restore_state
  DW_CFA_advance_loc: 54 to 0000000000468206
  DW_CFA_def_cfa_offset: 16
  DW_CFA_advance_loc: 1 to 0000000000468207
  DW_CFA_def_cfa_offset: 8
  DW_CFA_advance_loc: 9 to 0000000000468210
  DW_CFA_restore: r3 (rbx)
  DW_CFA_nop
  DW_CFA_nop
  DW_CFA_nop
  DW_CFA_nop
  DW_CFA_nop
  DW_CFA_nop
  DW_CFA_nop

0000f5d0 0000000000000014 ffffffff CIE
  Version:               1
  Augmentation:          ""
  Code alignment factor: 1
  Data alignment factor: -8
  Return address column: 16

  DW_CFA_def_cfa: r7 (rsp) ofs 8
  DW_CFA_offset: r16 (rip) at cfa-8
  DW_CFA_nop
  DW_CFA_nop
  DW_CFA_nop
  DW_CFA_nop
  DW_CFA_nop
  DW_CFA_nop

0000f5e8 0000000000000054 0000f5d0 FDE cie=0000f5d0 pc=0000000000468220..00000000004684f2
  DW_CFA_advance_loc: 2 to 0000000000468222
  DW_CFA_def_cfa_offset: 16
  DW_CFA_offset: r15 (r15) at cfa-16
  DW_CFA_advance_loc: 5 to 0000000000468227
  DW_CFA_def_cfa_offset: 24
  DW_CFA_offset: r14 (r14) at cfa-24
  DW_CFA_advance_loc: 2 to 0000000000468229
  DW_CFA_def_cfa_offset: 32
  DW_CFA_offset: r13 (r13) at cfa-32
  DW_CFA_advance_loc: 2 to 000000000046822b
  DW_CFA_def_cfa_offset: 40
  DW_CFA_offset: r12 (r12) at cfa-40
  DW_CFA_advance_loc: 1 to 000000000046822c
  DW_CFA_def_cfa_offset: 48
  DW_CFA_offset: r6 (rbp) at cfa-48
  DW_CFA_advance_loc: 1 to 000000000046822d
  DW_CFA_def_cfa_offset: 56
  DW_CFA_offset: r3 (rbx) at cfa-56
  DW_CFA_advance_loc: 4 to 0000000000468231
  DW_CFA_def_cfa_offset: 160
  DW_CFA_advance_loc2: 547 to 0000000000468454
  DW_CFA_remember_state
  DW_CFA_def_cfa_offset: 56
  DW_CFA_advance_loc: 6 to 000000000046845a
  DW_CFA_def_cfa_offset: 48
  DW_CFA_advance_loc: 1 to 000000000046845b
  DW_CFA_def_cfa_offset: 40
  DW_CFA_advance_loc: 2 to 000000000046845d
  DW_CFA_def_cfa_offset: 32
  DW_CFA_advance_loc: 2 to 000000000046845f
  DW_CFA_def_cfa_offset: 24
  DW_CFA_advance_loc: 2 to 0000000000468461
  DW_CFA_def_cfa_offset: 16
  DW_CFA_advance_loc: 2 to 0000000000468463
  DW_CFA_def_cfa_offset: 8
  DW_CFA_advance_loc: 1 to 0000000000468464
  DW_CFA_restore_state
  DW_CFA_nop
  DW_CFA_nop
  DW_CFA_nop
  DW_CFA_nop

0000f640 000000000000005c 0000f5d0 FDE cie=0000f5d0 pc=0000000000468500..000000000046878a
  DW_CFA_advance_loc: 2 to 0000000000468502
  DW_CFA_def_cfa_offset: 16
  DW_CFA_offset: r15 (r15) at cfa-16
  DW_CFA_advance_loc: 8 to 000000000046850a
  DW_CFA_def_cfa_offset: 24
  DW_CFA_offset: r14 (r14) at cfa-24
  DW_CFA_advance_loc: 4 to 000000000046850e
  DW_CFA_def_cfa_offset: 32
  DW_CFA_offset: r13 (r13) at cfa-32
  DW_CFA_advance_loc: 5 to 0000000000468513
  DW_CFA_def_cfa_offset: 40
  DW_CFA_offset: r12 (r12) at cfa-40
  DW_CFA_advance_loc: 1 to 0000000000468514
  DW_CFA_def_cfa_offset: 48
  DW_CFA_offset: r6 (rbp) at cfa-48
  DW_CFA_advance_loc: 3 to 0000000000468517
  DW_CFA_def_cfa_offset: 56
  DW_CFA_offset: r3 (rbx) at cfa-56
  DW_CFA_advance_loc: 8 to 000000000046851f
  DW_CFA_def_cfa_offset: 128
  DW_CFA_advance_loc2: 533 to 0000000000468734
  DW_CFA_def_cfa_offset: 136
  DW_CFA_advance_loc: 6 to 000000000046873a
  DW_CFA_def_cfa_offset: 144
  DW_CFA_advance_loc: 32 to 000000000046875a
  DW_CFA_def_cfa_offset: 56
  DW_CFA_advance_loc: 1 to 000000000046875b
  DW_CFA_def_cfa_offset: 48
  DW_CFA_advance_loc: 1 to 000000000046875c
  DW_CFA_def_cfa_offset: 40
  DW_CFA_advance_loc: 2 to 000000000046875e
  DW_CFA_def_cfa_offset: 32
  DW_CFA_advance_loc: 2 to 0000000000468760
  DW_CFA_def_cfa_offset: 24
  DW_CFA_advance_loc: 2 to 0000000000468762
  DW_CFA_def_cfa_offset: 16
  DW_CFA_advance_loc: 2 to 0000000000468764
  DW_CFA_def_cfa_offset: 8
  DW_CFA_advance_loc: 4 to 0000000000468768
  DW_CFA_def_cfa_offset: 128
  DW_CFA_nop
  DW_CFA_nop
  DW_CFA_nop

0000f6a0 0000000000000044 0000f5d0 FDE cie=0000f5d0 pc=0000000000468790..00000000004689fa
  DW_CFA_advance_loc: 2 to 0000000000468792
  DW_CFA_def_cfa_offset: 16
  DW_CFA_offset: r13 (r13) at cfa-16
  DW_CFA_advance_loc: 2 to 0000000000468794
  DW_CFA_def_cfa_offset: 24
  DW_CFA_offset: r12 (r12) at cfa-24
  DW_CFA_advance_loc: 4 to 0000000000468798
  DW_CFA_def_cfa_offset: 32
  DW_CFA_offset: r6 (rbp) at cfa-32
  DW_CFA_advance_loc: 4 to 000000000046879c
  DW_CFA_def_cfa_offset: 40
  DW_CFA_offset: r3 (rbx) at cfa-40
  DW_CFA_advance_loc: 4 to 00000000004687a0
  DW_CFA_def_cfa_offset: 144
  DW_CFA_advance_loc2: 374 to 0000000000468916
  DW_CFA_remember_state
  DW_CFA_def_cfa_offset: 40
  DW_CFA_advance_loc: 1 to 0000000000468917
  DW_CFA_def_cfa_offset: 32
  DW_CFA_advance_loc: 1 to 0000000000468918
  DW_CFA_def_cfa_offset: 24
  DW_CFA_advance_loc: 2 to 000000000046891a
  DW_CFA_def_cfa_offset: 16
  DW_CFA_advance_loc: 2 to 000000000046891c
  DW_CFA_def_cfa_offset: 8
  DW_CFA_advance_loc: 4 to 0000000000468920
  DW_CFA_restore_state
  DW_CFA_nop
  DW_CFA_nop
  DW_CFA_nop
  DW_CFA_nop

0000f6e8 000000000000002c 0000f5d0 FDE cie=0000f5d0 pc=0000000000468a00..0000000000468a27
  DW_CFA_advance_loc: 2 to 0000000000468a02
  DW_CFA_def_cfa_offset: 16
  DW_CFA_offset: r12 (r12) at cfa-16
  DW_CFA_advance_loc: 4 to 0000000000468a06
  DW_CFA_def_cfa_offset: 24
  DW_CFA_offset: r6 (rbp) at cfa-24
  DW_CFA_advance_loc: 7 to 0000000000468a0d
  DW_CFA_def_cfa_offset: 32
  DW_CFA_advance_loc: 9 to 0000000000468a16
  DW_CFA_def_cfa_offset: 24
  DW_CFA_advance_loc: 10 to 0000000000468a20
  DW_CFA_def_cfa_offset: 16
  DW_CFA_advance_loc: 2 to 0000000000468a22
  DW_CFA_def_cfa_offset: 8
  DW_CFA_nop
  DW_CFA_nop

0000f718 0000000000000014 0000f5d0 FDE cie=0000f5d0 pc=0000000000468a30..0000000000468a6f

0000f730 0000000000000034 0000f5d0 FDE cie=0000f5d0 pc=0000000000468a70..0000000000468adc
  DW_CFA_advance_loc: 1 to 0000000000468a71
  DW_CFA_def_cfa_offset: 16
  DW_CFA_offset: r6 (rbp) at cfa-16
  DW_CFA_advance_loc: 1 to 0000000000468a72
  DW_CFA_def_cfa_offset: 24
  DW_CFA_offset: r3 (rbx) at cfa-24
  DW_CFA_advance_loc: 7 to 0000000000468a79
  DW_CFA_def_cfa_offset: 32
  DW_CFA_advance_loc1: 67 to 0000000000468abc
  DW_CFA_remember_state
  DW_CFA_def_cfa_offset: 24
  DW_CFA_advance_loc: 3 to 0000000000468abf
  DW_CFA_def_cfa_offset: 16
  DW_CFA_advance_loc: 1 to 0000000000468ac0
  DW_CFA_def_cfa_offset: 8
  DW_CFA_advance_loc: 16 to 0000000000468ad0
  DW_CFA_restore_state
  DW_CFA_nop
  DW_CFA_nop
  DW_CFA_nop
  DW_CFA_nop
  DW_CFA_nop
  DW_CFA_nop

0000f768 0000000000000014 0000f5d0 FDE cie=0000f5d0 pc=0000000000468ae0..0000000000468aee

0000f780 0000000000000014 0000f5d0 FDE cie=0000f5d0 pc=0000000000468af0..0000000000468afe

0000f798 0000000000000014 0000f5d0 FDE cie=0000f5d0 pc=0000000000468b00..0000000000468b29

0000f7b0 0000000000000014 0000f5d0 FDE cie=0000f5d0 pc=0000000000468b30..0000000000468b59

0000f7c8 0000000000000014 ffffffff CIE
  Version:               1
  Augmentation:          ""
  Code alignment factor: 1
  Data alignment factor: -8
  Return address column: 16

  DW_CFA_def_cfa: r7 (rsp) ofs 8
  DW_CFA_offset: r16 (rip) at cfa-8
  DW_CFA_nop
  DW_CFA_nop
  DW_CFA_nop
  DW_CFA_nop
  DW_CFA_nop
  DW_CFA_nop

0000f7e0 000000000000002c 0000f7c8 FDE cie=0000f7c8 pc=0000000000468b60..0000000000468bda
  DW_CFA_advance_loc: 1 to 0000000000468b61
  DW_CFA_def_cfa_offset: 16
  DW_CFA_offset: r6 (rbp) at cfa-16
  DW_CFA_advance_loc: 3 to 0000000000468b64
  DW_CFA_def_cfa_register: r6 (rbp)
  DW_CFA_advance_loc: 4 to 0000000000468b68
  DW_CFA_offset: r14 (r14) at cfa-24
  DW_CFA_offset: r13 (r13) at cfa-32
  DW_CFA_advance_loc1: 80 to 0000000000468bb8
  DW_CFA_remember_state
  DW_CFA_def_cfa: r7 (rsp) ofs 8
  DW_CFA_advance_loc: 8 to 0000000000468bc0
  DW_CFA_restore_state
  DW_CFA_nop
  DW_CFA_nop
  DW_CFA_nop

0000f810 0000000000000034 0000f7c8 FDE cie=0000f7c8 pc=0000000000468be0..0000000000468c65
  DW_CFA_advance_loc: 1 to 0000000000468be1
  DW_CFA_def_cfa_offset: 16
  DW_CFA_offset: r6 (rbp) at cfa-16
  DW_CFA_advance_loc: 3 to 0000000000468be4
  DW_CFA_def_cfa_register: r6 (rbp)
  DW_CFA_advance_loc: 4 to 0000000000468be8
  DW_CFA_offset: r15 (r15) at cfa-24
  DW_CFA_offset: r14 (r14) at cfa-32
  DW_CFA_advance_loc: 5 to 0000000000468bed
  DW_CFA_offset: r13 (r13) at cfa-40
  DW_CFA_advance_loc: 9 to 0000000000468bf6
  DW_CFA_offset: r12 (r12) at cfa-48
  DW_CFA_advance_loc1: 88 to 0000000000468c4e
  DW_CFA_remember_state
  DW_CFA_def_cfa: r7 (rsp) ofs 8
  DW_CFA_advance_loc: 2 to 0000000000468c50
  DW_CFA_restore_state
  DW_CFA_nop
  DW_CFA_nop
  DW_CFA_nop
  DW_CFA_nop
  DW_CFA_nop

0000f848 0000000000000014 ffffffff CIE
  Version:               1
  Augmentation:          ""
  Code alignment factor: 1
  Data alignment factor: -8
  Return address column: 16

  DW_CFA_def_cfa: r7 (rsp) ofs 8
  DW_CFA_offset: r16 (rip) at cfa-8
  DW_CFA_nop
  DW_CFA_nop
  DW_CFA_nop
  DW_CFA_nop
  DW_CFA_nop
  DW_CFA_nop

0000f860 0000000000000054 0000f848 FDE cie=0000f848 pc=0000000000468c70..0000000000468edf
  DW_CFA_advance_loc: 2 to 0000000000468c72
  DW_CFA_def_cfa_offset: 16
  DW_CFA_offset: r15 (r15) at cfa-16
  DW_CFA_advance_loc: 15 to 0000000000468c81
  DW_CFA_def_cfa_offset: 24
  DW_CFA_offset: r14 (r14) at cfa-24
  DW_CFA_advance_loc: 2 to 0000000000468c83
  DW_CFA_def_cfa_offset: 32
  DW_CFA_offset: r13 (r13) at cfa-32
  DW_CFA_advance_loc: 2 to 0000000000468c85
  DW_CFA_def_cfa_offset: 40
  DW_CFA_offset: r12 (r12) at cfa-40
  DW_CFA_advance_loc: 1 to 0000000000468c86
  DW_CFA_def_cfa_offset: 48
  DW_CFA_offset: r6 (rbp) at cfa-48
  DW_CFA_advance_loc: 1 to 0000000000468c87
  DW_CFA_def_cfa_offset: 56
  DW_CFA_offset: r3 (rbx) at cfa-56
  DW_CFA_advance_loc: 4 to 0000000000468c8b
  DW_CFA_def_cfa_offset: 112
  DW_CFA_advance_loc2: 317 to 0000000000468dc8
  DW_CFA_remember_state
  DW_CFA_def_cfa_offset: 56
  DW_CFA_advance_loc: 1 to 0000000000468dc9
  DW_CFA_def_cfa_offset: 48
  DW_CFA_advance_loc: 1 to 0000000000468dca
  DW_CFA_def_cfa_offset: 40
  DW_CFA_advance_loc: 2 to 0000000000468dcc
  DW_CFA_def_cfa_offset: 32
  DW_CFA_advance_loc: 2 to 0000000000468dce
  DW_CFA_def_cfa_offset: 24
  DW_CFA_advance_loc: 2 to 0000000000468dd0
  DW_CFA_def_cfa_offset: 16
  DW_CFA_advance_loc: 2 to 0000000000468dd2
  DW_CFA_def_cfa_offset: 8
  DW_CFA_advance_loc: 6 to 0000000000468dd8
  DW_CFA_restore_state
  DW_CFA_nop
  DW_CFA_nop
  DW_CFA_nop
  DW_CFA_nop
  DW_CFA_nop

0000f8b8 0000000000000014 ffffffff CIE
  Version:               1
  Augmentation:          ""
  Code alignment factor: 1
  Data alignment factor: -8
  Return address column: 16

  DW_CFA_def_cfa: r7 (rsp) ofs 8
  DW_CFA_offset: r16 (rip) at cfa-8
  DW_CFA_nop
  DW_CFA_nop
  DW_CFA_nop
  DW_CFA_nop
  DW_CFA_nop
  DW_CFA_nop

0000f8d0 0000000000000034 0000f8b8 FDE cie=0000f8b8 pc=0000000000468ee0..0000000000468ff9
  DW_CFA_advance_loc: 1 to 0000000000468ee1
  DW_CFA_def_cfa_offset: 16
  DW_CFA_offset: r6 (rbp) at cfa-16
  DW_CFA_advance_loc: 5 to 0000000000468ee6
  DW_CFA_def_cfa_offset: 24
  DW_CFA_offset: r3 (rbx) at cfa-24
  DW_CFA_advance_loc: 4 to 0000000000468eea
  DW_CFA_def_cfa_offset: 48
  DW_CFA_advance_loc: 48 to 0000000000468f1a
  DW_CFA_remember_state
  DW_CFA_def_cfa_offset: 24
  DW_CFA_advance_loc: 1 to 0000000000468f1b
  DW_CFA_def_cfa_offset: 16
  DW_CFA_advance_loc: 1 to 0000000000468f1c
  DW_CFA_def_cfa_offset: 8
  DW_CFA_advance_loc: 4 to 0000000000468f20
  DW_CFA_restore_state
  DW_CFA_nop
  DW_CFA_nop
  DW_CFA_nop
  DW_CFA_nop
  DW_CFA_nop
  DW_CFA_nop
  DW_CFA_nop

0000f908 0000000000000014 ffffffff CIE
  Version:               1
  Augmentation:          ""
  Code alignment factor: 1
  Data alignment factor: -8
  Return address column: 16

  DW_CFA_def_cfa: r7 (rsp) ofs 8
  DW_CFA_offset: r16 (rip) at cfa-8
  DW_CFA_nop
  DW_CFA_nop
  DW_CFA_nop
  DW_CFA_nop
  DW_CFA_nop
  DW_CFA_nop

0000f920 0000000000000014 0000f908 FDE cie=0000f908 pc=0000000000469000..0000000000469001

0000f938 0000000000000014 0000f908 FDE cie=0000f908 pc=0000000000469010..0000000000469049

0000f950 0000000000000024 0000f908 FDE cie=0000f908 pc=0000000000469050..00000000004690bb
  DW_CFA_advance_loc: 8 to 0000000000469058
  DW_CFA_def_cfa_offset: 16
  DW_CFA_offset: r6 (rbp) at cfa-16
  DW_CFA_advance_loc: 42 to 0000000000469082
  DW_CFA_remember_state
  DW_CFA_def_cfa_offset: 8
  DW_CFA_advance_loc: 14 to 0000000000469090
  DW_CFA_restore_state
  DW_CFA_advance_loc: 36 to 00000000004690b4
  DW_CFA_def_cfa_offset: 8
  DW_CFA_nop
  DW_CFA_nop

0000f978 0000000000000014 0000f908 FDE cie=0000f908 pc=00000000004690c0..00000000004690cc

0000f990 0000000000000054 0000f908 FDE cie=0000f908 pc=00000000004690d0..0000000000469510
  DW_CFA_advance_loc: 2 to 00000000004690d2
  DW_CFA_def_cfa_offset: 16
  DW_CFA_offset: r15 (r15) at cfa-16
  DW_CFA_advance_loc: 2 to 00000000004690d4
  DW_CFA_def_cfa_offset: 24
  DW_CFA_offset: r14 (r14) at cfa-24
  DW_CFA_advance_loc: 2 to 00000000004690d6
  DW_CFA_def_cfa_offset: 32
  DW_CFA_offset: r13 (r13) at cfa-32
  DW_CFA_advance_loc: 10 to 00000000004690e0
  DW_CFA_def_cfa_offset: 40
  DW_CFA_offset: r12 (r12) at cfa-40
  DW_CFA_advance_loc: 1 to 00000000004690e1
  DW_CFA_def_cfa_offset: 48
  DW_CFA_offset: r6 (rbp) at cfa-48
  DW_CFA_advance_loc: 4 to 00000000004690e5
  DW_CFA_def_cfa_offset: 56
  DW_CFA_offset: r3 (rbx) at cfa-56
  DW_CFA_advance_loc: 6 to 00000000004690eb
  DW_CFA_def_cfa_offset: 96
  DW_CFA_advance_loc2: 839 to 0000000000469432
  DW_CFA_remember_state
  DW_CFA_def_cfa_offset: 56
  DW_CFA_advance_loc: 1 to 0000000000469433
  DW_CFA_def_cfa_offset: 48
  DW_CFA_advance_loc: 1 to 0000000000469434
  DW_CFA_def_cfa_offset: 40
  DW_CFA_advance_loc: 2 to 0000000000469436
  DW_CFA_def_cfa_offset: 32
  DW_CFA_advance_loc: 2 to 0000000000469438
  DW_CFA_def_cfa_offset: 24
  DW_CFA_advance_loc: 2 to 000000000046943a
  DW_CFA_def_cfa_offset: 16
  DW_CFA_advance_loc: 2 to 000000000046943c
  DW_CFA_def_cfa_offset: 8
  DW_CFA_advance_loc: 4 to 0000000000469440
  DW_CFA_restore_state
  DW_CFA_nop
  DW_CFA_nop
  DW_CFA_nop
  DW_CFA_nop
  DW_CFA_nop

0000f9e8 000000000000004c 0000f908 FDE cie=0000f908 pc=0000000000469510..00000000004695d4
  DW_CFA_advance_loc: 2 to 0000000000469512
  DW_CFA_def_cfa_offset: 16
  DW_CFA_offset: r15 (r15) at cfa-16
  DW_CFA_advance_loc: 9 to 000000000046951b
  DW_CFA_def_cfa_offset: 24
  DW_CFA_offset: r14 (r14) at cfa-24
  DW_CFA_advance_loc: 2 to 000000000046951d
  DW_CFA_def_cfa_offset: 32
  DW_CFA_offset: r13 (r13) at cfa-32
  DW_CFA_advance_loc: 2 to 000000000046951f
  DW_CFA_def_cfa_offset: 40
  DW_CFA_offset: r12 (r12) at cfa-40
  DW_CFA_advance_loc: 4 to 0000000000469523
  DW_CFA_def_cfa_offset: 48
  DW_CFA_offset: r6 (rbp) at cfa-48
  DW_CFA_advance_loc: 4 to 0000000000469527
  DW_CFA_def_cfa_offset: 56
  DW_CFA_offset: r3 (rbx) at cfa-56
  DW_CFA_advance_loc: 4 to 000000000046952b
  DW_CFA_def_cfa_offset: 64
  DW_CFA_advance_loc1: 145 to 00000000004695bc
  DW_CFA_def_cfa_offset: 56
  DW_CFA_advance_loc: 9 to 00000000004695c5
  DW_CFA_def_cfa_offset: 48
  DW_CFA_advance_loc: 1 to 00000000004695c6
  DW_CFA_def_cfa_offset: 40
  DW_CFA_advance_loc: 2 to 00000000004695c8
  DW_CFA_def_cfa_offset: 32
  DW_CFA_advance_loc: 2 to 00000000004695ca
  DW_CFA_def_cfa_offset: 24
  DW_CFA_advance_loc: 2 to 00000000004695cc
  DW_CFA_def_cfa_offset: 16
  DW_CFA_advance_loc: 2 to 00000000004695ce
  DW_CFA_def_cfa_offset: 8
  DW_CFA_nop

0000fa38 0000000000000044 0000f908 FDE cie=0000f908 pc=00000000004695e0..00000000004696a2
  DW_CFA_advance_loc: 19 to 00000000004695f3
  DW_CFA_def_cfa_offset: 16
  DW_CFA_offset: r14 (r14) at cfa-16
  DW_CFA_advance_loc: 10 to 00000000004695fd
  DW_CFA_def_cfa_offset: 24
  DW_CFA_offset: r13 (r13) at cfa-24
  DW_CFA_advance_loc: 12 to 0000000000469609
  DW_CFA_def_cfa_offset: 32
  DW_CFA_offset: r12 (r12) at cfa-32
  DW_CFA_advance_loc: 1 to 000000000046960a
  DW_CFA_def_cfa_offset: 40
  DW_CFA_offset: r6 (rbp) at cfa-40
  DW_CFA_advance_loc: 1 to 000000000046960b
  DW_CFA_def_cfa_offset: 48
  DW_CFA_offset: r3 (rbx) at cfa-48
  DW_CFA_advance_loc1: 142 to 0000000000469699
  DW_CFA_def_cfa_offset: 40
  DW_CFA_advance_loc: 1 to 000000000046969a
  DW_CFA_def_cfa_offset: 32
  DW_CFA_advance_loc: 2 to 000000000046969c
  DW_CFA_def_cfa_offset: 24
  DW_CFA_advance_loc: 2 to 000000000046969e
  DW_CFA_def_cfa_offset: 16
  DW_CFA_advance_loc: 2 to 00000000004696a0
  DW_CFA_def_cfa_offset: 8
  DW_CFA_advance_loc: 1 to 00000000004696a1
  DW_CFA_restore: r3 (rbx)
  DW_CFA_restore: r6 (rbp)
  DW_CFA_restore: r12 (r12)
  DW_CFA_restore: r13 (r13)
  DW_CFA_restore: r14 (r14)
  DW_CFA_nop

0000fa80 0000000000000014 0000f908 FDE cie=0000f908 pc=00000000004696b0..00000000004696b1

0000fa98 0000000000000014 ffffffff CIE
  Version:               1
  Augmentation:          ""
  Code alignment factor: 1
  Data alignment factor: -8
  Return address column: 16

  DW_CFA_def_cfa: r7 (rsp) ofs 8
  DW_CFA_offset: r16 (rip) at cfa-8
  DW_CFA_nop
  DW_CFA_nop
  DW_CFA_nop
  DW_CFA_nop
  DW_CFA_nop
  DW_CFA_nop

0000fab0 0000000000000054 0000fa98 FDE cie=0000fa98 pc=00000000004696c0..00000000004698fb
  DW_CFA_advance_loc: 2 to 00000000004696c2
  DW_CFA_def_cfa_offset: 16
  DW_CFA_offset: r12 (r12) at cfa-16
  DW_CFA_advance_loc: 1 to 00000000004696c3
  DW_CFA_def_cfa_offset: 24
  DW_CFA_offset: r6 (rbp) at cfa-24
  DW_CFA_advance_loc: 1 to 00000000004696c4
  DW_CFA_def_cfa_offset: 32
  DW_CFA_offset: r3 (rbx) at cfa-32
  DW_CFA_advance_loc: 4 to 00000000004696c8
  DW_CFA_def_cfa_offset: 48
  DW_CFA_advance_loc2: 345 to 0000000000469821
  DW_CFA_remember_state
  DW_CFA_def_cfa_offset: 32
  DW_CFA_advance_loc: 1 to 0000000000469822
  DW_CFA_def_cfa_offset: 24
  DW_CFA_advance_loc: 1 to 0000000000469823
  DW_CFA_def_cfa_offset: 16
  DW_CFA_advance_loc: 2 to 0000000000469825
  DW_CFA_def_cfa_offset: 8
  DW_CFA_advance_loc: 11 to 0000000000469830
  DW_CFA_restore_state
  DW_CFA_advance_loc: 34 to 0000000000469852
  DW_CFA_remember_state
  DW_CFA_def_cfa_offset: 32
  DW_CFA_advance_loc: 1 to 0000000000469853
  DW_CFA_def_cfa_offset: 24
  DW_CFA_advance_loc: 1 to 0000000000469854
  DW_CFA_def_cfa_offset: 16
  DW_CFA_advance_loc: 2 to 0000000000469856
  DW_CFA_def_cfa_offset: 8
  DW_CFA_advance_loc: 10 to 0000000000469860
  DW_CFA_restore_state
  DW_CFA_advance_loc: 53 to 0000000000469895
  DW_CFA_def_cfa_offset: 56
  DW_CFA_advance_loc: 55 to 00000000004698cc
  DW_CFA_def_cfa_offset: 64
  DW_CFA_advance_loc: 37 to 00000000004698f1
  DW_CFA_def_cfa_offset: 56
  DW_CFA_advance_loc: 5 to 00000000004698f6
  DW_CFA_def_cfa_offset: 48
  DW_CFA_nop
  DW_CFA_nop

0000fb08 0000000000000014 ffffffff CIE
  Version:               1
  Augmentation:          ""
  Code alignment factor: 1
  Data alignment factor: -8
  Return address column: 16

  DW_CFA_def_cfa: r7 (rsp) ofs 8
  DW_CFA_offset: r16 (rip) at cfa-8
  DW_CFA_nop
  DW_CFA_nop
  DW_CFA_nop
  DW_CFA_nop
  DW_CFA_nop
  DW_CFA_nop

0000fb20 000000000000004c 0000fb08 FDE cie=0000fb08 pc=0000000000469900..0000000000469984
  DW_CFA_advance_loc: 2 to 0000000000469902
  DW_CFA_def_cfa_offset: 16
  DW_CFA_offset: r15 (r15) at cfa-16
  DW_CFA_advance_loc: 2 to 0000000000469904
  DW_CFA_def_cfa_offset: 24
  DW_CFA_offset: r14 (r14) at cfa-24
  DW_CFA_advance_loc: 2 to 0000000000469906
  DW_CFA_def_cfa_offset: 32
  DW_CFA_offset: r13 (r13) at cfa-32
  DW_CFA_advance_loc: 2 to 0000000000469908
  DW_CFA_def_cfa_offset: 40
  DW_CFA_offset: r12 (r12) at cfa-40
  DW_CFA_advance_loc: 1 to 0000000000469909
  DW_CFA_def_cfa_offset: 48
  DW_CFA_offset: r6 (rbp) at cfa-48
  DW_CFA_advance_loc: 1 to 000000000046990a
  DW_CFA_def_cfa_offset: 56
  DW_CFA_offset: r3 (rbx) at cfa-56
  DW_CFA_advance_loc: 4 to 000000000046990e
  DW_CFA_def_cfa_offset: 64
  DW_CFA_advance_loc1: 107 to 0000000000469979
  DW_CFA_def_cfa_offset: 56
  DW_CFA_advance_loc: 1 to 000000000046997a
  DW_CFA_def_cfa_offset: 48
  DW_CFA_advance_loc: 1 to 000000000046997b
  DW_CFA_def_cfa_offset: 40
  DW_CFA_advance_loc: 2 to 000000000046997d
  DW_CFA_def_cfa_offset: 32
  DW_CFA_advance_loc: 2 to 000000000046997f
  DW_CFA_def_cfa_offset: 24
  DW_CFA_advance_loc: 2 to 0000000000469981
  DW_CFA_def_cfa_offset: 16
  DW_CFA_advance_loc: 2 to 0000000000469983
  DW_CFA_def_cfa_offset: 8
  DW_CFA_nop

0000fb70 0000000000000044 0000fb08 FDE cie=0000fb08 pc=0000000000469990..0000000000469ac8
  DW_CFA_advance_loc: 2 to 0000000000469992
  DW_CFA_def_cfa_offset: 16
  DW_CFA_offset: r14 (r14) at cfa-16
  DW_CFA_advance_loc: 2 to 0000000000469994
  DW_CFA_def_cfa_offset: 24
  DW_CFA_offset: r13 (r13) at cfa-24
  DW_CFA_advance_loc: 2 to 0000000000469996
  DW_CFA_def_cfa_offset: 32
  DW_CFA_offset: r12 (r12) at cfa-32
  DW_CFA_advance_loc: 1 to 0000000000469997
  DW_CFA_def_cfa_offset: 40
  DW_CFA_offset: r6 (rbp) at cfa-40
  DW_CFA_advance_loc: 4 to 000000000046999b
  DW_CFA_def_cfa_offset: 48
  DW_CFA_offset: r3 (rbx) at cfa-48
  DW_CFA_advance_loc2: 278 to 0000000000469ab1
  DW_CFA_remember_state
  DW_CFA_def_cfa_offset: 40
  DW_CFA_advance_loc: 1 to 0000000000469ab2
  DW_CFA_def_cfa_offset: 32
  DW_CFA_advance_loc: 2 to 0000000000469ab4
  DW_CFA_def_cfa_offset: 24
  DW_CFA_advance_loc: 2 to 0000000000469ab6
  DW_CFA_def_cfa_offset: 16
  DW_CFA_advance_loc: 2 to 0000000000469ab8
  DW_CFA_def_cfa_offset: 8
  DW_CFA_advance_loc: 8 to 0000000000469ac0
  DW_CFA_restore_state
  DW_CFA_nop
  DW_CFA_nop
  DW_CFA_nop

0000fbb8 0000000000000044 0000fb08 FDE cie=0000fb08 pc=0000000000469ad0..0000000000469c28
  DW_CFA_advance_loc: 2 to 0000000000469ad2
  DW_CFA_def_cfa_offset: 16
  DW_CFA_offset: r14 (r14) at cfa-16
  DW_CFA_advance_loc: 2 to 0000000000469ad4
  DW_CFA_def_cfa_offset: 24
  DW_CFA_offset: r13 (r13) at cfa-24
  DW_CFA_advance_loc: 2 to 0000000000469ad6
  DW_CFA_def_cfa_offset: 32
  DW_CFA_offset: r12 (r12) at cfa-32
  DW_CFA_advance_loc: 4 to 0000000000469ada
  DW_CFA_def_cfa_offset: 40
  DW_CFA_offset: r6 (rbp) at cfa-40
  DW_CFA_advance_loc: 8 to 0000000000469ae2
  DW_CFA_def_cfa_offset: 48
  DW_CFA_offset: r3 (rbx) at cfa-48
  DW_CFA_advance_loc2: 303 to 0000000000469c11
  DW_CFA_remember_state
  DW_CFA_def_cfa_offset: 40
  DW_CFA_advance_loc: 1 to 0000000000469c12
  DW_CFA_def_cfa_offset: 32
  DW_CFA_advance_loc: 2 to 0000000000469c14
  DW_CFA_def_cfa_offset: 24
  DW_CFA_advance_loc: 2 to 0000000000469c16
  DW_CFA_def_cfa_offset: 16
  DW_CFA_advance_loc: 2 to 0000000000469c18
  DW_CFA_def_cfa_offset: 8
  DW_CFA_advance_loc: 8 to 0000000000469c20
  DW_CFA_restore_state
  DW_CFA_nop
  DW_CFA_nop
  DW_CFA_nop

0000fc00 0000000000000044 0000fb08 FDE cie=0000fb08 pc=0000000000469c30..0000000000469d68
  DW_CFA_advance_loc: 2 to 0000000000469c32
  DW_CFA_def_cfa_offset: 16
  DW_CFA_offset: r14 (r14) at cfa-16
  DW_CFA_advance_loc: 2 to 0000000000469c34
  DW_CFA_def_cfa_offset: 24
  DW_CFA_offset: r13 (r13) at cfa-24
  DW_CFA_advance_loc: 2 to 0000000000469c36
  DW_CFA_def_cfa_offset: 32
  DW_CFA_offset: r12 (r12) at cfa-32
  DW_CFA_advance_loc: 1 to 0000000000469c37
  DW_CFA_def_cfa_offset: 40
  DW_CFA_offset: r6 (rbp) at cfa-40
  DW_CFA_advance_loc: 4 to 0000000000469c3b
  DW_CFA_def_cfa_offset: 48
  DW_CFA_offset: r3 (rbx) at cfa-48
  DW_CFA_advance_loc2: 278 to 0000000000469d51
  DW_CFA_remember_state
  DW_CFA_def_cfa_offset: 40
  DW_CFA_advance_loc: 1 to 0000000000469d52
  DW_CFA_def_cfa_offset: 32
  DW_CFA_advance_loc: 2 to 0000000000469d54
  DW_CFA_def_cfa_offset: 24
  DW_CFA_advance_loc: 2 to 0000000000469d56
  DW_CFA_def_cfa_offset: 16
  DW_CFA_advance_loc: 2 to 0000000000469d58
  DW_CFA_def_cfa_offset: 8
  DW_CFA_advance_loc: 8 to 0000000000469d60
  DW_CFA_restore_state
  DW_CFA_nop
  DW_CFA_nop
  DW_CFA_nop

0000fc48 0000000000000044 0000fb08 FDE cie=0000fb08 pc=0000000000469d70..0000000000469ec8
  DW_CFA_advance_loc: 2 to 0000000000469d72
  DW_CFA_def_cfa_offset: 16
  DW_CFA_offset: r14 (r14) at cfa-16
  DW_CFA_advance_loc: 2 to 0000000000469d74
  DW_CFA_def_cfa_offset: 24
  DW_CFA_offset: r13 (r13) at cfa-24
  DW_CFA_advance_loc: 2 to 0000000000469d76
  DW_CFA_def_cfa_offset: 32
  DW_CFA_offset: r12 (r12) at cfa-32
  DW_CFA_advance_loc: 4 to 0000000000469d7a
  DW_CFA_def_cfa_offset: 40
  DW_CFA_offset: r6 (rbp) at cfa-40
  DW_CFA_advance_loc: 8 to 0000000000469d82
  DW_CFA_def_cfa_offset: 48
  DW_CFA_offset: r3 (rbx) at cfa-48
  DW_CFA_advance_loc2: 303 to 0000000000469eb1
  DW_CFA_remember_state
  DW_CFA_def_cfa_offset: 40
  DW_CFA_advance_loc: 1 to 0000000000469eb2
  DW_CFA_def_cfa_offset: 32
  DW_CFA_advance_loc: 2 to 0000000000469eb4
  DW_CFA_def_cfa_offset: 24
  DW_CFA_advance_loc: 2 to 0000000000469eb6
  DW_CFA_def_cfa_offset: 16
  DW_CFA_advance_loc: 2 to 0000000000469eb8
  DW_CFA_def_cfa_offset: 8
  DW_CFA_advance_loc: 8 to 0000000000469ec0
  DW_CFA_restore_state
  DW_CFA_nop
  DW_CFA_nop
  DW_CFA_nop

0000fc90 000000000000003c 0000fb08 FDE cie=0000fb08 pc=0000000000469ed0..0000000000469f77
  DW_CFA_advance_loc: 9 to 0000000000469ed9
  DW_CFA_def_cfa_offset: 16
  DW_CFA_offset: r14 (r14) at cfa-16
  DW_CFA_advance_loc: 2 to 0000000000469edb
  DW_CFA_def_cfa_offset: 24
  DW_CFA_offset: r12 (r12) at cfa-24
  DW_CFA_advance_loc: 1 to 0000000000469edc
  DW_CFA_def_cfa_offset: 32
  DW_CFA_offset: r6 (rbp) at cfa-32
  DW_CFA_advance_loc: 1 to 0000000000469edd
  DW_CFA_def_cfa_offset: 40
  DW_CFA_offset: r3 (rbx) at cfa-40
  DW_CFA_advance_loc1: 148 to 0000000000469f71
  DW_CFA_def_cfa_offset: 32
  DW_CFA_advance_loc: 1 to 0000000000469f72
  DW_CFA_def_cfa_offset: 24
  DW_CFA_advance_loc: 2 to 0000000000469f74
  DW_CFA_def_cfa_offset: 16
  DW_CFA_advance_loc: 2 to 0000000000469f76
  DW_CFA_def_cfa_offset: 8
  DW_CFA_nop
  DW_CFA_nop
  DW_CFA_nop
  DW_CFA_nop
  DW_CFA_nop
  DW_CFA_nop
  DW_CFA_nop

0000fcd0 0000000000000034 0000fb08 FDE cie=0000fb08 pc=0000000000469f80..000000000046a025
  DW_CFA_advance_loc: 9 to 0000000000469f89
  DW_CFA_def_cfa_offset: 16
  DW_CFA_offset: r14 (r14) at cfa-16
  DW_CFA_advance_loc: 1 to 0000000000469f8a
  DW_CFA_def_cfa_offset: 24
  DW_CFA_offset: r6 (rbp) at cfa-24
  DW_CFA_advance_loc: 1 to 0000000000469f8b
  DW_CFA_def_cfa_offset: 32
  DW_CFA_offset: r3 (rbx) at cfa-32
  DW_CFA_advance_loc1: 150 to 000000000046a021
  DW_CFA_def_cfa_offset: 24
  DW_CFA_advance_loc: 1 to 000000000046a022
  DW_CFA_def_cfa_offset: 16
  DW_CFA_advance_loc: 2 to 000000000046a024
  DW_CFA_def_cfa_offset: 8
  DW_CFA_nop
  DW_CFA_nop
  DW_CFA_nop
  DW_CFA_nop
  DW_CFA_nop
  DW_CFA_nop
  DW_CFA_nop

0000fd08 000000000000002c 0000fb08 FDE cie=0000fb08 pc=000000000046a030..000000000046a0b3
  DW_CFA_advance_loc: 1 to 000000000046a031
  DW_CFA_def_cfa_offset: 16
  DW_CFA_offset: r6 (rbp) at cfa-16
  DW_CFA_advance_loc: 4 to 000000000046a035
  DW_CFA_def_cfa_offset: 24
  DW_CFA_offset: r3 (rbx) at cfa-24
  DW_CFA_advance_loc1: 124 to 000000000046a0b1
  DW_CFA_def_cfa_offset: 16
  DW_CFA_advance_loc: 1 to 000000000046a0b2
  DW_CFA_def_cfa_offset: 8
  DW_CFA_nop
  DW_CFA_nop
  DW_CFA_nop
  DW_CFA_nop
  DW_CFA_nop
  DW_CFA_nop
  DW_CFA_nop

0000fd38 000000000000003c 0000fb08 FDE cie=0000fb08 pc=000000000046a0c0..000000000046a167
  DW_CFA_advance_loc: 2 to 000000000046a0c2
  DW_CFA_def_cfa_offset: 16
  DW_CFA_offset: r13 (r13) at cfa-16
  DW_CFA_advance_loc: 2 to 000000000046a0c4
  DW_CFA_def_cfa_offset: 24
  DW_CFA_offset: r12 (r12) at cfa-24
  DW_CFA_advance_loc: 1 to 000000000046a0c5
  DW_CFA_def_cfa_offset: 32
  DW_CFA_offset: r6 (rbp) at cfa-32
  DW_CFA_advance_loc: 8 to 000000000046a0cd
  DW_CFA_def_cfa_offset: 40
  DW_CFA_offset: r3 (rbx) at cfa-40
  DW_CFA_advance_loc1: 148 to 000000000046a161
  DW_CFA_def_cfa_offset: 32
  DW_CFA_advance_loc: 1 to 000000000046a162
  DW_CFA_def_cfa_offset: 24
  DW_CFA_advance_loc: 2 to 000000000046a164
  DW_CFA_def_cfa_offset: 16
  DW_CFA_advance_loc: 2 to 000000000046a166
  DW_CFA_def_cfa_offset: 8
  DW_CFA_nop
  DW_CFA_nop
  DW_CFA_nop
  DW_CFA_nop
  DW_CFA_nop
  DW_CFA_nop
  DW_CFA_nop

0000fd78 0000000000000054 0000fb08 FDE cie=0000fb08 pc=000000000046a170..000000000046a68c
  DW_CFA_advance_loc: 40 to 000000000046a198
  DW_CFA_def_cfa_offset: 16
  DW_CFA_offset: r15 (r15) at cfa-16
  DW_CFA_advance_loc: 16 to 000000000046a1a8
  DW_CFA_def_cfa_offset: 24
  DW_CFA_offset: r14 (r14) at cfa-24
  DW_CFA_advance_loc: 13 to 000000000046a1b5
  DW_CFA_def_cfa_offset: 32
  DW_CFA_offset: r13 (r13) at cfa-32
  DW_CFA_advance_loc: 2 to 000000000046a1b7
  DW_CFA_def_cfa_offset: 40
  DW_CFA_offset: r12 (r12) at cfa-40
  DW_CFA_advance_loc: 1 to 000000000046a1b8
  DW_CFA_def_cfa_offset: 48
  DW_CFA_offset: r6 (rbp) at cfa-48
  DW_CFA_advance_loc: 1 to 000000000046a1b9
  DW_CFA_def_cfa_offset: 56
  DW_CFA_offset: r3 (rbx) at cfa-56
  DW_CFA_advance_loc2: 1200 to 000000000046a669
  DW_CFA_remember_state
  DW_CFA_def_cfa_offset: 48
  DW_CFA_advance_loc: 1 to 000000000046a66a
  DW_CFA_def_cfa_offset: 40
  DW_CFA_advance_loc: 2 to 000000000046a66c
  DW_CFA_def_cfa_offset: 32
  DW_CFA_advance_loc: 2 to 000000000046a66e
  DW_CFA_def_cfa_offset: 24
  DW_CFA_advance_loc: 2 to 000000000046a670
  DW_CFA_def_cfa_offset: 16
  DW_CFA_advance_loc: 2 to 000000000046a672
  DW_CFA_def_cfa_offset: 8
  DW_CFA_advance_loc: 6 to 000000000046a678
  DW_CFA_restore_state
  DW_CFA_advance_loc: 19 to 000000000046a68b
  DW_CFA_def_cfa_offset: 8
  DW_CFA_restore: r3 (rbx)
  DW_CFA_restore: r6 (rbp)
  DW_CFA_restore: r12 (r12)
  DW_CFA_restore: r13 (r13)
  DW_CFA_restore: r14 (r14)
  DW_CFA_restore: r15 (r15)
  DW_CFA_nop
  DW_CFA_nop

0000fdd0 0000000000000054 0000fb08 FDE cie=0000fb08 pc=000000000046a690..000000000046aa84
  DW_CFA_advance_loc: 39 to 000000000046a6b7
  DW_CFA_def_cfa_offset: 16
  DW_CFA_offset: r15 (r15) at cfa-16
  DW_CFA_advance_loc: 14 to 000000000046a6c5
  DW_CFA_def_cfa_offset: 24
  DW_CFA_offset: r14 (r14) at cfa-24
  DW_CFA_advance_loc: 10 to 000000000046a6cf
  DW_CFA_def_cfa_offset: 32
  DW_CFA_offset: r13 (r13) at cfa-32
  DW_CFA_advance_loc: 2 to 000000000046a6d1
  DW_CFA_def_cfa_offset: 40
  DW_CFA_offset: r12 (r12) at cfa-40
  DW_CFA_advance_loc: 1 to 000000000046a6d2
  DW_CFA_def_cfa_offset: 48
  DW_CFA_offset: r6 (rbp) at cfa-48
  DW_CFA_advance_loc: 1 to 000000000046a6d3
  DW_CFA_def_cfa_offset: 56
  DW_CFA_offset: r3 (rbx) at cfa-56
  DW_CFA_advance_loc2: 910 to 000000000046aa61
  DW_CFA_remember_state
  DW_CFA_def_cfa_offset: 48
  DW_CFA_advance_loc: 1 to 000000000046aa62
  DW_CFA_def_cfa_offset: 40
  DW_CFA_advance_loc: 2 to 000000000046aa64
  DW_CFA_def_cfa_offset: 32
  DW_CFA_advance_loc: 2 to 000000000046aa66
  DW_CFA_def_cfa_offset: 24
  DW_CFA_advance_loc: 2 to 000000000046aa68
  DW_CFA_def_cfa_offset: 16
  DW_CFA_advance_loc: 2 to 000000000046aa6a
  DW_CFA_def_cfa_offset: 8
  DW_CFA_advance_loc: 6 to 000000000046aa70
  DW_CFA_restore_state
  DW_CFA_advance_loc: 19 to 000000000046aa83
  DW_CFA_def_cfa_offset: 8
  DW_CFA_restore: r3 (rbx)
  DW_CFA_restore: r6 (rbp)
  DW_CFA_restore: r12 (r12)
  DW_CFA_restore: r13 (r13)
  DW_CFA_restore: r14 (r14)
  DW_CFA_restore: r15 (r15)
  DW_CFA_nop
  DW_CFA_nop

0000fe28 000000000000004c 0000fb08 FDE cie=0000fb08 pc=000000000046aa90..000000000046af53
  DW_CFA_advance_loc: 2 to 000000000046aa92
  DW_CFA_def_cfa_offset: 16
  DW_CFA_offset: r15 (r15) at cfa-16
  DW_CFA_advance_loc: 12 to 000000000046aa9e
  DW_CFA_def_cfa_offset: 24
  DW_CFA_offset: r14 (r14) at cfa-24
  DW_CFA_advance_loc: 5 to 000000000046aaa3
  DW_CFA_def_cfa_offset: 32
  DW_CFA_offset: r13 (r13) at cfa-32
  DW_CFA_advance_loc: 2 to 000000000046aaa5
  DW_CFA_def_cfa_offset: 40
  DW_CFA_offset: r12 (r12) at cfa-40
  DW_CFA_advance_loc: 1 to 000000000046aaa6
  DW_CFA_def_cfa_offset: 48
  DW_CFA_offset: r6 (rbp) at cfa-48
  DW_CFA_advance_loc: 1 to 000000000046aaa7
  DW_CFA_def_cfa_offset: 56
  DW_CFA_offset: r3 (rbx) at cfa-56
  DW_CFA_advance_loc2: 1162 to 000000000046af31
  DW_CFA_remember_state
  DW_CFA_def_cfa_offset: 48
  DW_CFA_advance_loc: 1 to 000000000046af32
  DW_CFA_def_cfa_offset: 40
  DW_CFA_advance_loc: 2 to 000000000046af34
  DW_CFA_def_cfa_offset: 32
  DW_CFA_advance_loc: 2 to 000000000046af36
  DW_CFA_def_cfa_offset: 24
  DW_CFA_advance_loc: 2 to 000000000046af38
  DW_CFA_def_cfa_offset: 16
  DW_CFA_advance_loc: 2 to 000000000046af3a
  DW_CFA_def_cfa_offset: 8
  DW_CFA_advance_loc: 6 to 000000000046af40
  DW_CFA_restore_state
  DW_CFA_nop
  DW_CFA_nop
  DW_CFA_nop

0000fe78 000000000000004c 0000fb08 FDE cie=0000fb08 pc=000000000046af60..000000000046b19b
  DW_CFA_advance_loc: 9 to 000000000046af69
  DW_CFA_def_cfa_offset: 16
  DW_CFA_offset: r15 (r15) at cfa-16
  DW_CFA_advance_loc: 2 to 000000000046af6b
  DW_CFA_def_cfa_offset: 24
  DW_CFA_offset: r14 (r14) at cfa-24
  DW_CFA_advance_loc: 2 to 000000000046af6d
  DW_CFA_def_cfa_offset: 32
  DW_CFA_offset: r13 (r13) at cfa-32
  DW_CFA_advance_loc: 2 to 000000000046af6f
  DW_CFA_def_cfa_offset: 40
  DW_CFA_offset: r12 (r12) at cfa-40
  DW_CFA_advance_loc: 1 to 000000000046af70
  DW_CFA_def_cfa_offset: 48
  DW_CFA_offset: r6 (rbp) at cfa-48
  DW_CFA_advance_loc: 1 to 000000000046af71
  DW_CFA_def_cfa_offset: 56
  DW_CFA_offset: r3 (rbx) at cfa-56
  DW_CFA_advance_loc2: 528 to 000000000046b181
  DW_CFA_remember_state
  DW_CFA_def_cfa_offset: 48
  DW_CFA_advance_loc: 1 to 000000000046b182
  DW_CFA_def_cfa_offset: 40
  DW_CFA_advance_loc: 2 to 000000000046b184
  DW_CFA_def_cfa_offset: 32
  DW_CFA_advance_loc: 2 to 000000000046b186
  DW_CFA_def_cfa_offset: 24
  DW_CFA_advance_loc: 2 to 000000000046b188
  DW_CFA_def_cfa_offset: 16
  DW_CFA_advance_loc: 2 to 000000000046b18a
  DW_CFA_def_cfa_offset: 8
  DW_CFA_advance_loc: 6 to 000000000046b190
  DW_CFA_restore_state
  DW_CFA_nop
  DW_CFA_nop
  DW_CFA_nop

0000fec8 000000000000003c 0000fb08 FDE cie=0000fb08 pc=000000000046b1a0..000000000046b2a8
  DW_CFA_advance_loc: 2 to 000000000046b1a2
  DW_CFA_def_cfa_offset: 16
  DW_CFA_offset: r13 (r13) at cfa-16
  DW_CFA_advance_loc: 2 to 000000000046b1a4
  DW_CFA_def_cfa_offset: 24
  DW_CFA_offset: r12 (r12) at cfa-24
  DW_CFA_advance_loc: 1 to 000000000046b1a5
  DW_CFA_def_cfa_offset: 32
  DW_CFA_offset: r6 (rbp) at cfa-32
  DW_CFA_advance_loc: 8 to 000000000046b1ad
  DW_CFA_def_cfa_offset: 40
  DW_CFA_offset: r3 (rbx) at cfa-40
  DW_CFA_advance_loc1: 228 to 000000000046b291
  DW_CFA_remember_state
  DW_CFA_def_cfa_offset: 32
  DW_CFA_advance_loc: 1 to 000000000046b292
  DW_CFA_def_cfa_offset: 24
  DW_CFA_advance_loc: 2 to 000000000046b294
  DW_CFA_def_cfa_offset: 16
  DW_CFA_advance_loc: 2 to 000000000046b296
  DW_CFA_def_cfa_offset: 8
  DW_CFA_advance_loc: 10 to 000000000046b2a0
  DW_CFA_restore_state
  DW_CFA_nop
  DW_CFA_nop
  DW_CFA_nop
  DW_CFA_nop

0000ff08 0000000000000044 0000fb08 FDE cie=0000fb08 pc=000000000046b2b0..000000000046b5f0
  DW_CFA_advance_loc: 2 to 000000000046b2b2
  DW_CFA_def_cfa_offset: 16
  DW_CFA_offset: r14 (r14) at cfa-16
  DW_CFA_advance_loc: 2 to 000000000046b2b4
  DW_CFA_def_cfa_offset: 24
  DW_CFA_offset: r13 (r13) at cfa-24
  DW_CFA_advance_loc: 2 to 000000000046b2b6
  DW_CFA_def_cfa_offset: 32
  DW_CFA_offset: r12 (r12) at cfa-32
  DW_CFA_advance_loc: 1 to 000000000046b2b7
  DW_CFA_def_cfa_offset: 40
  DW_CFA_offset: r6 (rbp) at cfa-40
  DW_CFA_advance_loc: 1 to 000000000046b2b8
  DW_CFA_def_cfa_offset: 48
  DW_CFA_offset: r3 (rbx) at cfa-48
  DW_CFA_advance_loc2: 673 to 000000000046b559
  DW_CFA_remember_state
  DW_CFA_def_cfa_offset: 40
  DW_CFA_advance_loc: 1 to 000000000046b55a
  DW_CFA_def_cfa_offset: 32
  DW_CFA_advance_loc: 2 to 000000000046b55c
  DW_CFA_def_cfa_offset: 24
  DW_CFA_advance_loc: 2 to 000000000046b55e
  DW_CFA_def_cfa_offset: 16
  DW_CFA_advance_loc: 2 to 000000000046b560
  DW_CFA_def_cfa_offset: 8
  DW_CFA_advance_loc: 8 to 000000000046b568
  DW_CFA_restore_state
  DW_CFA_nop
  DW_CFA_nop
  DW_CFA_nop

0000ff50 0000000000000044 0000fb08 FDE cie=0000fb08 pc=000000000046b5f0..000000000046b978
  DW_CFA_advance_loc: 9 to 000000000046b5f9
  DW_CFA_def_cfa_offset: 16
  DW_CFA_offset: r14 (r14) at cfa-16
  DW_CFA_advance_loc: 2 to 000000000046b5fb
  DW_CFA_def_cfa_offset: 24
  DW_CFA_offset: r13 (r13) at cfa-24
  DW_CFA_advance_loc: 2 to 000000000046b5fd
  DW_CFA_def_cfa_offset: 32
  DW_CFA_offset: r12 (r12) at cfa-32
  DW_CFA_advance_loc: 4 to 000000000046b601
  DW_CFA_def_cfa_offset: 40
  DW_CFA_offset: r6 (rbp) at cfa-40
  DW_CFA_advance_loc: 1 to 000000000046b602
  DW_CFA_def_cfa_offset: 48
  DW_CFA_offset: r3 (rbx) at cfa-48
  DW_CFA_advance_loc2: 735 to 000000000046b8e1
  DW_CFA_remember_state
  DW_CFA_def_cfa_offset: 40
  DW_CFA_advance_loc: 1 to 000000000046b8e2
  DW_CFA_def_cfa_offset: 32
  DW_CFA_advance_loc: 2 to 000000000046b8e4
  DW_CFA_def_cfa_offset: 24
  DW_CFA_advance_loc: 2 to 000000000046b8e6
  DW_CFA_def_cfa_offset: 16
  DW_CFA_advance_loc: 2 to 000000000046b8e8
  DW_CFA_def_cfa_offset: 8
  DW_CFA_advance_loc: 8 to 000000000046b8f0
  DW_CFA_restore_state
  DW_CFA_nop
  DW_CFA_nop
  DW_CFA_nop

0000ff98 0000000000000044 0000fb08 FDE cie=0000fb08 pc=000000000046b980..000000000046bcc0
  DW_CFA_advance_loc: 2 to 000000000046b982
  DW_CFA_def_cfa_offset: 16
  DW_CFA_offset: r14 (r14) at cfa-16
  DW_CFA_advance_loc: 2 to 000000000046b984
  DW_CFA_def_cfa_offset: 24
  DW_CFA_offset: r13 (r13) at cfa-24
  DW_CFA_advance_loc: 2 to 000000000046b986
  DW_CFA_def_cfa_offset: 32
  DW_CFA_offset: r12 (r12) at cfa-32
  DW_CFA_advance_loc: 1 to 000000000046b987
  DW_CFA_def_cfa_offset: 40
  DW_CFA_offset: r6 (rbp) at cfa-40
  DW_CFA_advance_loc: 1 to 000000000046b988
  DW_CFA_def_cfa_offset: 48
  DW_CFA_offset: r3 (rbx) at cfa-48
  DW_CFA_advance_loc2: 673 to 000000000046bc29
  DW_CFA_remember_state
  DW_CFA_def_cfa_offset: 40
  DW_CFA_advance_loc: 1 to 000000000046bc2a
  DW_CFA_def_cfa_offset: 32
  DW_CFA_advance_loc: 2 to 000000000046bc2c
  DW_CFA_def_cfa_offset: 24
  DW_CFA_advance_loc: 2 to 000000000046bc2e
  DW_CFA_def_cfa_offset: 16
  DW_CFA_advance_loc: 2 to 000000000046bc30
  DW_CFA_def_cfa_offset: 8
  DW_CFA_advance_loc: 8 to 000000000046bc38
  DW_CFA_restore_state
  DW_CFA_nop
  DW_CFA_nop
  DW_CFA_nop

0000ffe0 0000000000000044 0000fb08 FDE cie=0000fb08 pc=000000000046bcc0..000000000046c048
  DW_CFA_advance_loc: 9 to 000000000046bcc9
  DW_CFA_def_cfa_offset: 16
  DW_CFA_offset: r14 (r14) at cfa-16
  DW_CFA_advance_loc: 2 to 000000000046bccb
  DW_CFA_def_cfa_offset: 24
  DW_CFA_offset: r13 (r13) at cfa-24
  DW_CFA_advance_loc: 2 to 000000000046bccd
  DW_CFA_def_cfa_offset: 32
  DW_CFA_offset: r12 (r12) at cfa-32
  DW_CFA_advance_loc: 4 to 000000000046bcd1
  DW_CFA_def_cfa_offset: 40
  DW_CFA_offset: r6 (rbp) at cfa-40
  DW_CFA_advance_loc: 1 to 000000000046bcd2
  DW_CFA_def_cfa_offset: 48
  DW_CFA_offset: r3 (rbx) at cfa-48
  DW_CFA_advance_loc2: 735 to 000000000046bfb1
  DW_CFA_remember_state
  DW_CFA_def_cfa_offset: 40
  DW_CFA_advance_loc: 1 to 000000000046bfb2
  DW_CFA_def_cfa_offset: 32
  DW_CFA_advance_loc: 2 to 000000000046bfb4
  DW_CFA_def_cfa_offset: 24
  DW_CFA_advance_loc: 2 to 000000000046bfb6
  DW_CFA_def_cfa_offset: 16
  DW_CFA_advance_loc: 2 to 000000000046bfb8
  DW_CFA_def_cfa_offset: 8
  DW_CFA_advance_loc: 8 to 000000000046bfc0
  DW_CFA_restore_state
  DW_CFA_nop
  DW_CFA_nop
  DW_CFA_nop

00010028 0000000000000034 0000fb08 FDE cie=0000fb08 pc=000000000046c050..000000000046c0ed
  DW_CFA_advance_loc: 9 to 000000000046c059
  DW_CFA_def_cfa_offset: 16
  DW_CFA_offset: r14 (r14) at cfa-16
  DW_CFA_advance_loc: 1 to 000000000046c05a
  DW_CFA_def_cfa_offset: 24
  DW_CFA_offset: r6 (rbp) at cfa-24
  DW_CFA_advance_loc: 1 to 000000000046c05b
  DW_CFA_def_cfa_offset: 32
  DW_CFA_offset: r3 (rbx) at cfa-32
  DW_CFA_advance_loc1: 142 to 000000000046c0e9
  DW_CFA_def_cfa_offset: 24
  DW_CFA_advance_loc: 1 to 000000000046c0ea
  DW_CFA_def_cfa_offset: 16
  DW_CFA_advance_loc: 2 to 000000000046c0ec
  DW_CFA_def_cfa_offset: 8
  DW_CFA_nop
  DW_CFA_nop
  DW_CFA_nop
  DW_CFA_nop
  DW_CFA_nop
  DW_CFA_nop
  DW_CFA_nop

00010060 000000000000002c 0000fb08 FDE cie=0000fb08 pc=000000000046c0f0..000000000046c185
  DW_CFA_advance_loc: 33 to 000000000046c111
  DW_CFA_def_cfa_offset: 16
  DW_CFA_offset: r14 (r14) at cfa-16
  DW_CFA_advance_loc: 6 to 000000000046c117
  DW_CFA_def_cfa_offset: 24
  DW_CFA_offset: r3 (rbx) at cfa-24
  DW_CFA_advance_loc1: 106 to 000000000046c181
  DW_CFA_def_cfa_offset: 16
  DW_CFA_advance_loc: 2 to 000000000046c183
  DW_CFA_def_cfa_offset: 8
  DW_CFA_advance_loc: 1 to 000000000046c184
  DW_CFA_restore: r3 (rbx)
  DW_CFA_restore: r14 (r14)
  DW_CFA_nop
  DW_CFA_nop
  DW_CFA_nop
  DW_CFA_nop

00010090 0000000000000034 0000fb08 FDE cie=0000fb08 pc=000000000046c190..000000000046c338
  DW_CFA_advance_loc: 9 to 000000000046c199
  DW_CFA_def_cfa_offset: 16
  DW_CFA_offset: r12 (r12) at cfa-16
  DW_CFA_advance_loc: 4 to 000000000046c19d
  DW_CFA_def_cfa_offset: 24
  DW_CFA_offset: r6 (rbp) at cfa-24
  DW_CFA_advance_loc: 1 to 000000000046c19e
  DW_CFA_def_cfa_offset: 32
  DW_CFA_offset: r3 (rbx) at cfa-32
  DW_CFA_advance_loc2: 347 to 000000000046c2f9
  DW_CFA_remember_state
  DW_CFA_def_cfa_offset: 24
  DW_CFA_advance_loc: 1 to 000000000046c2fa
  DW_CFA_def_cfa_offset: 16
  DW_CFA_advance_loc: 2 to 000000000046c2fc
  DW_CFA_def_cfa_offset: 8
  DW_CFA_advance_loc: 4 to 000000000046c300
  DW_CFA_restore_state
  DW_CFA_nop
  DW_CFA_nop
  DW_CFA_nop

000100c8 0000000000000014 0000fb08 FDE cie=0000fb08 pc=000000000046c340..000000000046c341

000100e0 000000000000007c 0000fb08 FDE cie=0000fb08 pc=000000000046c350..000000000046c61f
  DW_CFA_advance_loc: 9 to 000000000046c359
  DW_CFA_def_cfa_offset: 16
  DW_CFA_offset: r13 (r13) at cfa-16
  DW_CFA_advance_loc: 18 to 000000000046c36b
  DW_CFA_def_cfa_offset: 24
  DW_CFA_offset: r12 (r12) at cfa-24
  DW_CFA_advance_loc: 9 to 000000000046c374
  DW_CFA_def_cfa_offset: 32
  DW_CFA_offset: r6 (rbp) at cfa-32
  DW_CFA_advance_loc: 8 to 000000000046c37c
  DW_CFA_def_cfa_offset: 40
  DW_CFA_offset: r3 (rbx) at cfa-40
  DW_CFA_advance_loc2: 259 to 000000000046c47f
  DW_CFA_remember_state
  DW_CFA_def_cfa_offset: 32
  DW_CFA_advance_loc: 4 to 000000000046c483
  DW_CFA_def_cfa_offset: 24
  DW_CFA_advance_loc: 2 to 000000000046c485
  DW_CFA_def_cfa_offset: 16
  DW_CFA_advance_loc: 2 to 000000000046c487
  DW_CFA_def_cfa_offset: 8
  DW_CFA_advance_loc: 9 to 000000000046c490
  DW_CFA_restore_state
  DW_CFA_advance_loc1: 231 to 000000000046c577
  DW_CFA_remember_state
  DW_CFA_def_cfa_offset: 32
  DW_CFA_advance_loc: 1 to 000000000046c578
  DW_CFA_def_cfa_offset: 24
  DW_CFA_advance_loc: 6 to 000000000046c57e
  DW_CFA_def_cfa_offset: 16
  DW_CFA_advance_loc: 2 to 000000000046c580
  DW_CFA_def_cfa_offset: 8
  DW_CFA_advance_loc: 4 to 000000000046c584
  DW_CFA_restore_state
  DW_CFA_advance_loc: 11 to 000000000046c58f
  DW_CFA_remember_state
  DW_CFA_def_cfa_offset: 32
  DW_CFA_advance_loc: 1 to 000000000046c590
  DW_CFA_def_cfa_offset: 24
  DW_CFA_advance_loc: 6 to 000000000046c596
  DW_CFA_def_cfa_offset: 16
  DW_CFA_advance_loc: 2 to 000000000046c598
  DW_CFA_def_cfa_offset: 8
  DW_CFA_advance_loc: 4 to 000000000046c59c
  DW_CFA_restore_state
  DW_CFA_advance_loc: 23 to 000000000046c5b3
  DW_CFA_remember_state
  DW_CFA_def_cfa_offset: 32
  DW_CFA_advance_loc: 1 to 000000000046c5b4
  DW_CFA_def_cfa_offset: 24
  DW_CFA_advance_loc: 6 to 000000000046c5ba
  DW_CFA_def_cfa_offset: 16
  DW_CFA_advance_loc: 2 to 000000000046c5bc
  DW_CFA_def_cfa_offset: 8
  DW_CFA_advance_loc: 7 to 000000000046c5c3
  DW_CFA_restore_state
  DW_CFA_advance_loc: 4 to 000000000046c5c7
  DW_CFA_remember_state
  DW_CFA_def_cfa_offset: 32
  DW_CFA_advance_loc: 1 to 000000000046c5c8
  DW_CFA_def_cfa_offset: 24
  DW_CFA_advance_loc: 6 to 000000000046c5ce
  DW_CFA_def_cfa_offset: 16
  DW_CFA_advance_loc: 2 to 000000000046c5d0
  DW_CFA_def_cfa_offset: 8
  DW_CFA_advance_loc: 7 to 000000000046c5d7
  DW_CFA_restore_state
  DW_CFA_nop
  DW_CFA_nop
  DW_CFA_nop
  DW_CFA_nop
  DW_CFA_nop
  DW_CFA_nop

00010160 0000000000000014 0000fb08 FDE cie=0000fb08 pc=000000000046c620..000000000046c621

00010178 0000000000000014 ffffffff CIE
  Version:               1
  Augmentation:          ""
  Code alignment factor: 1
  Data alignment factor: -8
  Return address column: 16

  DW_CFA_def_cfa: r7 (rsp) ofs 8
  DW_CFA_offset: r16 (rip) at cfa-8
  DW_CFA_nop
  DW_CFA_nop
  DW_CFA_nop
  DW_CFA_nop
  DW_CFA_nop
  DW_CFA_nop

00010190 0000000000000034 00010178 FDE cie=00010178 pc=000000000046c630..000000000046c6b1
  DW_CFA_advance_loc: 10 to 000000000046c63a
  DW_CFA_def_cfa_offset: 16
  DW_CFA_offset: r6 (rbp) at cfa-16
  DW_CFA_advance_loc: 5 to 000000000046c63f
  DW_CFA_def_cfa_offset: 24
  DW_CFA_offset: r3 (rbx) at cfa-24
  DW_CFA_advance_loc: 4 to 000000000046c643
  DW_CFA_def_cfa_offset: 32
  DW_CFA_advance_loc1: 98 to 000000000046c6a5
  DW_CFA_def_cfa_offset: 24
  DW_CFA_advance_loc: 1 to 000000000046c6a6
  DW_CFA_def_cfa_offset: 16
  DW_CFA_advance_loc: 1 to 000000000046c6a7
  DW_CFA_def_cfa_offset: 8
  DW_CFA_advance_loc: 9 to 000000000046c6b0
  DW_CFA_restore: r3 (rbx)
  DW_CFA_restore: r6 (rbp)
  DW_CFA_nop
  DW_CFA_nop
  DW_CFA_nop
  DW_CFA_nop
  DW_CFA_nop
  DW_CFA_nop

000101c8 0000000000000034 00010178 FDE cie=00010178 pc=000000000046c6c0..000000000046c741
  DW_CFA_advance_loc: 10 to 000000000046c6ca
  DW_CFA_def_cfa_offset: 16
  DW_CFA_offset: r6 (rbp) at cfa-16
  DW_CFA_advance_loc: 5 to 000000000046c6cf
  DW_CFA_def_cfa_offset: 24
  DW_CFA_offset: r3 (rbx) at cfa-24
  DW_CFA_advance_loc: 4 to 000000000046c6d3
  DW_CFA_def_cfa_offset: 32
  DW_CFA_advance_loc1: 98 to 000000000046c735
  DW_CFA_def_cfa_offset: 24
  DW_CFA_advance_loc: 1 to 000000000046c736
  DW_CFA_def_cfa_offset: 16
  DW_CFA_advance_loc: 1 to 000000000046c737
  DW_CFA_def_cfa_offset: 8
  DW_CFA_advance_loc: 9 to 000000000046c740
  DW_CFA_restore: r3 (rbx)
  DW_CFA_restore: r6 (rbp)
  DW_CFA_nop
  DW_CFA_nop
  DW_CFA_nop
  DW_CFA_nop
  DW_CFA_nop
  DW_CFA_nop

00010200 0000000000000014 ffffffff CIE
  Version:               1
  Augmentation:          ""
  Code alignment factor: 1
  Data alignment factor: -8
  Return address column: 16

  DW_CFA_def_cfa: r7 (rsp) ofs 8
  DW_CFA_offset: r16 (rip) at cfa-8
  DW_CFA_nop
  DW_CFA_nop
  DW_CFA_nop
  DW_CFA_nop
  DW_CFA_nop
  DW_CFA_nop

00010218 0000000000000054 00010200 FDE cie=00010200 pc=000000000046c750..000000000046c7e7
  DW_CFA_advance_loc: 2 to 000000000046c752
  DW_CFA_def_cfa_offset: 16
  DW_CFA_offset: r14 (r14) at cfa-16
  DW_CFA_advance_loc: 2 to 000000000046c754
  DW_CFA_def_cfa_offset: 24
  DW_CFA_offset: r13 (r13) at cfa-24
  DW_CFA_advance_loc: 5 to 000000000046c759
  DW_CFA_def_cfa_offset: 32
  DW_CFA_offset: r12 (r12) at cfa-32
  DW_CFA_advance_loc: 4 to 000000000046c75d
  DW_CFA_def_cfa_offset: 40
  DW_CFA_offset: r6 (rbp) at cfa-40
  DW_CFA_advance_loc: 4 to 000000000046c761
  DW_CFA_def_cfa_offset: 48
  DW_CFA_offset: r3 (rbx) at cfa-48
  DW_CFA_advance_loc1: 99 to 000000000046c7c4
  DW_CFA_remember_state
  DW_CFA_def_cfa_offset: 40
  DW_CFA_advance_loc: 1 to 000000000046c7c5
  DW_CFA_def_cfa_offset: 32
  DW_CFA_advance_loc: 2 to 000000000046c7c7
  DW_CFA_def_cfa_offset: 24
  DW_CFA_advance_loc: 2 to 000000000046c7c9
  DW_CFA_def_cfa_offset: 16
  DW_CFA_advance_loc: 2 to 000000000046c7cb
  DW_CFA_def_cfa_offset: 8
  DW_CFA_advance_loc: 5 to 000000000046c7d0
  DW_CFA_restore_state
  DW_CFA_advance_loc: 9 to 000000000046c7d9
  DW_CFA_def_cfa_offset: 40
  DW_CFA_advance_loc: 3 to 000000000046c7dc
  DW_CFA_def_cfa_offset: 32
  DW_CFA_advance_loc: 2 to 000000000046c7de
  DW_CFA_def_cfa_offset: 24
  DW_CFA_advance_loc: 2 to 000000000046c7e0
  DW_CFA_def_cfa_offset: 16
  DW_CFA_advance_loc: 2 to 000000000046c7e2
  DW_CFA_def_cfa_offset: 8
  DW_CFA_nop
  DW_CFA_nop
  DW_CFA_nop
  DW_CFA_nop
  DW_CFA_nop

00010270 0000000000000014 ffffffff CIE
  Version:               1
  Augmentation:          ""
  Code alignment factor: 1
  Data alignment factor: -8
  Return address column: 16

  DW_CFA_def_cfa: r7 (rsp) ofs 8
  DW_CFA_offset: r16 (rip) at cfa-8
  DW_CFA_nop
  DW_CFA_nop
  DW_CFA_nop
  DW_CFA_nop
  DW_CFA_nop
  DW_CFA_nop

00010288 0000000000000034 00010270 FDE cie=00010270 pc=000000000046c7f0..000000000046c856
  DW_CFA_advance_loc: 2 to 000000000046c7f2
  DW_CFA_def_cfa_offset: 16
  DW_CFA_offset: r13 (r13) at cfa-16
  DW_CFA_advance_loc: 2 to 000000000046c7f4
  DW_CFA_def_cfa_offset: 24
  DW_CFA_offset: r12 (r12) at cfa-24
  DW_CFA_advance_loc: 7 to 000000000046c7fb
  DW_CFA_def_cfa_offset: 48
  DW_CFA_advance_loc: 57 to 000000000046c834
  DW_CFA_remember_state
  DW_CFA_def_cfa_offset: 24
  DW_CFA_advance_loc: 2 to 000000000046c836
  DW_CFA_def_cfa_offset: 16
  DW_CFA_advance_loc: 2 to 000000000046c838
  DW_CFA_def_cfa_offset: 8
  DW_CFA_advance_loc: 8 to 000000000046c840
  DW_CFA_restore_state
  DW_CFA_nop
  DW_CFA_nop
  DW_CFA_nop
  DW_CFA_nop
  DW_CFA_nop
  DW_CFA_nop
  DW_CFA_nop

000102c0 0000000000000014 ffffffff CIE
  Version:               1
  Augmentation:          ""
  Code alignment factor: 1
  Data alignment factor: -8
  Return address column: 16

  DW_CFA_def_cfa: r7 (rsp) ofs 8
  DW_CFA_offset: r16 (rip) at cfa-8
  DW_CFA_nop
  DW_CFA_nop
  DW_CFA_nop
  DW_CFA_nop
  DW_CFA_nop
  DW_CFA_nop

000102d8 0000000000000054 000102c0 FDE cie=000102c0 pc=000000000046c860..000000000046cbb1
  DW_CFA_advance_loc: 2 to 000000000046c862
  DW_CFA_def_cfa_offset: 16
  DW_CFA_offset: r15 (r15) at cfa-16
  DW_CFA_advance_loc: 2 to 000000000046c864
  DW_CFA_def_cfa_offset: 24
  DW_CFA_offset: r14 (r14) at cfa-24
  DW_CFA_advance_loc: 2 to 000000000046c866
  DW_CFA_def_cfa_offset: 32
  DW_CFA_offset: r13 (r13) at cfa-32
  DW_CFA_advance_loc: 2 to 000000000046c868
  DW_CFA_def_cfa_offset: 40
  DW_CFA_offset: r12 (r12) at cfa-40
  DW_CFA_advance_loc: 1 to 000000000046c869
  DW_CFA_def_cfa_offset: 48
  DW_CFA_offset: r6 (rbp) at cfa-48
  DW_CFA_advance_loc: 1 to 000000000046c86a
  DW_CFA_def_cfa_offset: 56
  DW_CFA_offset: r3 (rbx) at cfa-56
  DW_CFA_advance_loc: 7 to 000000000046c871
  DW_CFA_def_cfa_offset: 1152
  DW_CFA_advance_loc2: 258 to 000000000046c973
  DW_CFA_remember_state
  DW_CFA_def_cfa_offset: 56
  DW_CFA_advance_loc: 1 to 000000000046c974
  DW_CFA_def_cfa_offset: 48
  DW_CFA_advance_loc: 1 to 000000000046c975
  DW_CFA_def_cfa_offset: 40
  DW_CFA_advance_loc: 2 to 000000000046c977
  DW_CFA_def_cfa_offset: 32
  DW_CFA_advance_loc: 2 to 000000000046c979
  DW_CFA_def_cfa_offset: 24
  DW_CFA_advance_loc: 2 to 000000000046c97b
  DW_CFA_def_cfa_offset: 16
  DW_CFA_advance_loc: 2 to 000000000046c97d
  DW_CFA_def_cfa_offset: 8
  DW_CFA_advance_loc: 3 to 000000000046c980
  DW_CFA_restore_state
  DW_CFA_nop
  DW_CFA_nop
  DW_CFA_nop
  DW_CFA_nop

00010330 0000000000000014 ffffffff CIE
  Version:               1
  Augmentation:          ""
  Code alignment factor: 1
  Data alignment factor: -8
  Return address column: 16

  DW_CFA_def_cfa: r7 (rsp) ofs 8
  DW_CFA_offset: r16 (rip) at cfa-8
  DW_CFA_nop
  DW_CFA_nop
  DW_CFA_nop
  DW_CFA_nop
  DW_CFA_nop
  DW_CFA_nop

00010348 000000000000001c 00010330 FDE cie=00010330 pc=000000000046cbc0..000000000046cc58
  DW_CFA_advance_loc1: 108 to 000000000046cc2c
  DW_CFA_def_cfa_offset: 16
  DW_CFA_advance_loc: 32 to 000000000046cc4c
  DW_CFA_def_cfa_offset: 8
  DW_CFA_nop

00010368 0000000000000054 00010330 FDE cie=00010330 pc=000000000046cc60..000000000046d427
  DW_CFA_advance_loc: 2 to 000000000046cc62
  DW_CFA_def_cfa_offset: 16
  DW_CFA_offset: r15 (r15) at cfa-16
  DW_CFA_advance_loc: 6 to 000000000046cc68
  DW_CFA_def_cfa_offset: 24
  DW_CFA_offset: r14 (r14) at cfa-24
  DW_CFA_advance_loc: 2 to 000000000046cc6a
  DW_CFA_def_cfa_offset: 32
  DW_CFA_offset: r13 (r13) at cfa-32
  DW_CFA_advance_loc: 2 to 000000000046cc6c
  DW_CFA_def_cfa_offset: 40
  DW_CFA_offset: r12 (r12) at cfa-40
  DW_CFA_advance_loc: 1 to 000000000046cc6d
  DW_CFA_def_cfa_offset: 48
  DW_CFA_offset: r6 (rbp) at cfa-48
  DW_CFA_advance_loc: 1 to 000000000046cc6e
  DW_CFA_def_cfa_offset: 56
  DW_CFA_offset: r3 (rbx) at cfa-56
  DW_CFA_advance_loc: 9 to 000000000046cc77
  DW_CFA_def_cfa_offset: 192
  DW_CFA_advance_loc2: 777 to 000000000046cf80
  DW_CFA_remember_state
  DW_CFA_def_cfa_offset: 56
  DW_CFA_advance_loc: 1 to 000000000046cf81
  DW_CFA_def_cfa_offset: 48
  DW_CFA_advance_loc: 1 to 000000000046cf82
  DW_CFA_def_cfa_offset: 40
  DW_CFA_advance_loc: 2 to 000000000046cf84
  DW_CFA_def_cfa_offset: 32
  DW_CFA_advance_loc: 2 to 000000000046cf86
  DW_CFA_def_cfa_offset: 24
  DW_CFA_advance_loc: 2 to 000000000046cf88
  DW_CFA_def_cfa_offset: 16
  DW_CFA_advance_loc: 2 to 000000000046cf8a
  DW_CFA_def_cfa_offset: 8
  DW_CFA_advance_loc: 6 to 000000000046cf90
  DW_CFA_restore_state
  DW_CFA_nop
  DW_CFA_nop
  DW_CFA_nop
  DW_CFA_nop

000103c0 0000000000000014 ffffffff CIE
  Version:               1
  Augmentation:          ""
  Code alignment factor: 1
  Data alignment factor: -8
  Return address column: 16

  DW_CFA_def_cfa: r7 (rsp) ofs 8
  DW_CFA_offset: r16 (rip) at cfa-8
  DW_CFA_nop
  DW_CFA_nop
  DW_CFA_nop
  DW_CFA_nop
  DW_CFA_nop
  DW_CFA_nop

000103d8 0000000000000014 000103c0 FDE cie=000103c0 pc=000000000046d430..000000000046d475

000103f0 0000000000000014 000103c0 FDE cie=000103c0 pc=000000000046d480..000000000046d4d4

00010408 0000000000000014 ffffffff CIE
  Version:               1
  Augmentation:          ""
  Code alignment factor: 1
  Data alignment factor: -8
  Return address column: 16

  DW_CFA_def_cfa: r7 (rsp) ofs 8
  DW_CFA_offset: r16 (rip) at cfa-8
  DW_CFA_nop
  DW_CFA_nop
  DW_CFA_nop
  DW_CFA_nop
  DW_CFA_nop
  DW_CFA_nop

00010420 0000000000000024 00010408 FDE cie=00010408 pc=000000000046d4e0..000000000046d534
  DW_CFA_advance_loc: 8 to 000000000046d4e8
  DW_CFA_def_cfa_offset: 16
  DW_CFA_offset: r3 (rbx) at cfa-16
  DW_CFA_advance_loc: 41 to 000000000046d511
  DW_CFA_remember_state
  DW_CFA_def_cfa_offset: 8
  DW_CFA_advance_loc: 15 to 000000000046d520
  DW_CFA_restore_state
  DW_CFA_advance_loc: 15 to 000000000046d52f
  DW_CFA_def_cfa_offset: 8
  DW_CFA_nop
  DW_CFA_nop

00010448 0000000000000014 ffffffff CIE
  Version:               1
  Augmentation:          ""
  Code alignment factor: 1
  Data alignment factor: -8
  Return address column: 16

  DW_CFA_def_cfa: r7 (rsp) ofs 8
  DW_CFA_offset: r16 (rip) at cfa-8
  DW_CFA_nop
  DW_CFA_nop
  DW_CFA_nop
  DW_CFA_nop
  DW_CFA_nop
  DW_CFA_nop

00010460 000000000000002c 00010448 FDE cie=00010448 pc=000000000046d540..000000000046d5af
  DW_CFA_advance_loc: 4 to 000000000046d544
  DW_CFA_def_cfa_offset: 16
  DW_CFA_advance_loc: 47 to 000000000046d573
  DW_CFA_remember_state
  DW_CFA_def_cfa_offset: 8
  DW_CFA_advance_loc: 13 to 000000000046d580
  DW_CFA_restore_state
  DW_CFA_advance_loc: 15 to 000000000046d58f
  DW_CFA_remember_state
  DW_CFA_def_cfa_offset: 8
  DW_CFA_advance_loc: 9 to 000000000046d598
  DW_CFA_restore_state
  DW_CFA_advance_loc: 18 to 000000000046d5aa
  DW_CFA_def_cfa_offset: 8
  DW_CFA_nop
  DW_CFA_nop
  DW_CFA_nop
  DW_CFA_nop
  DW_CFA_nop
  DW_CFA_nop

00010490 0000000000000014 ffffffff CIE
  Version:               1
  Augmentation:          ""
  Code alignment factor: 1
  Data alignment factor: -8
  Return address column: 16

  DW_CFA_def_cfa: r7 (rsp) ofs 8
  DW_CFA_offset: r16 (rip) at cfa-8
  DW_CFA_nop
  DW_CFA_nop
  DW_CFA_nop
  DW_CFA_nop
  DW_CFA_nop
  DW_CFA_nop

000104a8 0000000000000024 00010490 FDE cie=00010490 pc=000000000046d5b0..000000000046d604
  DW_CFA_advance_loc: 8 to 000000000046d5b8
  DW_CFA_def_cfa_offset: 16
  DW_CFA_offset: r3 (rbx) at cfa-16
  DW_CFA_advance_loc: 41 to 000000000046d5e1
  DW_CFA_remember_state
  DW_CFA_def_cfa_offset: 8
  DW_CFA_advance_loc: 15 to 000000000046d5f0
  DW_CFA_restore_state
  DW_CFA_advance_loc: 15 to 000000000046d5ff
  DW_CFA_def_cfa_offset: 8
  DW_CFA_nop
  DW_CFA_nop

000104d0 0000000000000014 ffffffff CIE
  Version:               1
  Augmentation:          ""
  Code alignment factor: 1
  Data alignment factor: -8
  Return address column: 16

  DW_CFA_def_cfa: r7 (rsp) ofs 8
  DW_CFA_offset: r16 (rip) at cfa-8
  DW_CFA_nop
  DW_CFA_nop
  DW_CFA_nop
  DW_CFA_nop
  DW_CFA_nop
  DW_CFA_nop

000104e8 0000000000000024 000104d0 FDE cie=000104d0 pc=000000000046d610..000000000046d668
  DW_CFA_advance_loc: 4 to 000000000046d614
  DW_CFA_def_cfa_offset: 32
  DW_CFA_advance_loc1: 78 to 000000000046d662
  DW_CFA_remember_state
  DW_CFA_def_cfa_offset: 8
  DW_CFA_advance_loc: 1 to 000000000046d663
  DW_CFA_restore_state
  DW_CFA_nop
  DW_CFA_nop
  DW_CFA_nop
  DW_CFA_nop
  DW_CFA_nop
  DW_CFA_nop

00010510 0000000000000024 000104d0 FDE cie=000104d0 pc=000000000046d670..000000000046d6d2
  DW_CFA_advance_loc: 4 to 000000000046d674
  DW_CFA_def_cfa_offset: 32
  DW_CFA_advance_loc1: 88 to 000000000046d6cc
  DW_CFA_remember_state
  DW_CFA_def_cfa_offset: 8
  DW_CFA_advance_loc: 1 to 000000000046d6cd
  DW_CFA_restore_state
  DW_CFA_nop
  DW_CFA_nop
  DW_CFA_nop
  DW_CFA_nop
  DW_CFA_nop
  DW_CFA_nop

00010538 0000000000000024 000104d0 FDE cie=000104d0 pc=000000000046d6e0..000000000046d74e
  DW_CFA_advance_loc: 4 to 000000000046d6e4
  DW_CFA_def_cfa_offset: 32
  DW_CFA_advance_loc1: 100 to 000000000046d748
  DW_CFA_remember_state
  DW_CFA_def_cfa_offset: 8
  DW_CFA_advance_loc: 1 to 000000000046d749
  DW_CFA_restore_state
  DW_CFA_nop
  DW_CFA_nop
  DW_CFA_nop
  DW_CFA_nop
  DW_CFA_nop
  DW_CFA_nop

00010560 000000000000001c 000104d0 FDE cie=000104d0 pc=000000000046d750..000000000046d76c
  DW_CFA_advance_loc: 1 to 000000000046d751
  DW_CFA_def_cfa_offset: 16
  DW_CFA_offset: r3 (rbx) at cfa-16
  DW_CFA_advance_loc: 26 to 000000000046d76b
  DW_CFA_def_cfa_offset: 8

00010580 0000000000000024 000104d0 FDE cie=000104d0 pc=000000000046d770..000000000046d847
  DW_CFA_advance_loc: 4 to 000000000046d774
  DW_CFA_def_cfa_offset: 32
  DW_CFA_advance_loc: 50 to 000000000046d7a6
  DW_CFA_remember_state
  DW_CFA_def_cfa_offset: 8
  DW_CFA_advance_loc: 10 to 000000000046d7b0
  DW_CFA_restore_state
  DW_CFA_nop
  DW_CFA_nop
  DW_CFA_nop
  DW_CFA_nop
  DW_CFA_nop
  DW_CFA_nop
  DW_CFA_nop

000105a8 0000000000000014 ffffffff CIE
  Version:               1
  Augmentation:          ""
  Code alignment factor: 1
  Data alignment factor: -8
  Return address column: 16

  DW_CFA_def_cfa: r7 (rsp) ofs 8
  DW_CFA_offset: r16 (rip) at cfa-8
  DW_CFA_nop
  DW_CFA_nop
  DW_CFA_nop
  DW_CFA_nop
  DW_CFA_nop
  DW_CFA_nop

000105c0 0000000000000044 000105a8 FDE cie=000105a8 pc=000000000046d850..000000000046d91e
  DW_CFA_advance_loc: 2 to 000000000046d852
  DW_CFA_def_cfa_offset: 16
  DW_CFA_offset: r14 (r14) at cfa-16
  DW_CFA_advance_loc: 2 to 000000000046d854
  DW_CFA_def_cfa_offset: 24
  DW_CFA_offset: r13 (r13) at cfa-24
  DW_CFA_advance_loc: 2 to 000000000046d856
  DW_CFA_def_cfa_offset: 32
  DW_CFA_offset: r12 (r12) at cfa-32
  DW_CFA_advance_loc: 1 to 000000000046d857
  DW_CFA_def_cfa_offset: 40
  DW_CFA_offset: r6 (rbp) at cfa-40
  DW_CFA_advance_loc: 1 to 000000000046d858
  DW_CFA_def_cfa_offset: 48
  DW_CFA_offset: r3 (rbx) at cfa-48
  DW_CFA_advance_loc1: 106 to 000000000046d8c2
  DW_CFA_remember_state
  DW_CFA_def_cfa_offset: 40
  DW_CFA_advance_loc: 1 to 000000000046d8c3
  DW_CFA_def_cfa_offset: 32
  DW_CFA_advance_loc: 2 to 000000000046d8c5
  DW_CFA_def_cfa_offset: 24
  DW_CFA_advance_loc: 2 to 000000000046d8c7
  DW_CFA_def_cfa_offset: 16
  DW_CFA_advance_loc: 2 to 000000000046d8c9
  DW_CFA_def_cfa_offset: 8
  DW_CFA_advance_loc: 7 to 000000000046d8d0
  DW_CFA_restore_state
  DW_CFA_nop
  DW_CFA_nop
  DW_CFA_nop
  DW_CFA_nop

00010608 000000000000001c ffffffff CIE
  Version:               1
  Augmentation:          ""
  Code alignment factor: 1
  Data alignment factor: -8
  Return address column: 16

  DW_CFA_def_cfa: r7 (rsp) ofs 8
  DW_CFA_offset: r16 (rip) at cfa-8
  DW_CFA_def_cfa_offset: 48
  DW_CFA_offset: r3 (rbx) at cfa-48
  DW_CFA_offset: r6 (rbp) at cfa-40
  DW_CFA_offset: r12 (r12) at cfa-32
  DW_CFA_offset: r13 (r13) at cfa-24
  DW_CFA_offset: r14 (r14) at cfa-16
  DW_CFA_nop
  DW_CFA_nop

00010628 0000000000000014 00010608 FDE cie=00010608 pc=0000000000405d10..0000000000405d1a

00010640 0000000000000014 000105a8 FDE cie=000105a8 pc=000000000046d920..000000000046d927

00010658 0000000000000024 000105a8 FDE cie=000105a8 pc=000000000046d930..000000000046d97e
  DW_CFA_advance_loc: 4 to 000000000046d934
  DW_CFA_def_cfa_offset: 16
  DW_CFA_advance_loc: 23 to 000000000046d94b
  DW_CFA_remember_state
  DW_CFA_def_cfa_offset: 8
  DW_CFA_advance_loc: 5 to 000000000046d950
  DW_CFA_restore_state
  DW_CFA_advance_loc: 45 to 000000000046d97d
  DW_CFA_def_cfa_offset: 8
  DW_CFA_nop
  DW_CFA_nop
  DW_CFA_nop
  DW_CFA_nop

00010680 0000000000000014 ffffffff CIE
  Version:               1
  Augmentation:          ""
  Code alignment factor: 1
  Data alignment factor: -8
  Return address column: 16

  DW_CFA_def_cfa: r7 (rsp) ofs 8
  DW_CFA_offset: r16 (rip) at cfa-8
  DW_CFA_nop
  DW_CFA_nop
  DW_CFA_nop
  DW_CFA_nop
  DW_CFA_nop
  DW_CFA_nop

00010698 000000000000001c 00010680 FDE cie=00010680 pc=000000000046d980..000000000046d99a
  DW_CFA_advance_loc: 4 to 000000000046d984
  DW_CFA_def_cfa_offset: 16
  DW_CFA_advance_loc: 21 to 000000000046d999
  DW_CFA_def_cfa_offset: 8
  DW_CFA_nop
  DW_CFA_nop

000106b8 000000000000001c 00010680 FDE cie=00010680 pc=000000000046d9a0..000000000046d9bd
  DW_CFA_advance_loc: 2 to 000000000046d9a2
  DW_CFA_def_cfa_offset: 16
  DW_CFA_offset: r12 (r12) at cfa-16
  DW_CFA_advance_loc: 26 to 000000000046d9bc
  DW_CFA_def_cfa_offset: 8

000106d8 000000000000001c 00010680 FDE cie=00010680 pc=000000000046d9c0..000000000046d9da
  DW_CFA_advance_loc: 4 to 000000000046d9c4
  DW_CFA_def_cfa_offset: 16
  DW_CFA_advance_loc: 21 to 000000000046d9d9
  DW_CFA_def_cfa_offset: 8
  DW_CFA_nop
  DW_CFA_nop

000106f8 000000000000001c 00010680 FDE cie=00010680 pc=000000000046d9e0..000000000046d9fb
  DW_CFA_advance_loc: 4 to 000000000046d9e4
  DW_CFA_def_cfa_offset: 16
  DW_CFA_advance_loc: 22 to 000000000046d9fa
  DW_CFA_def_cfa_offset: 8
  DW_CFA_nop
  DW_CFA_nop

00010718 000000000000001c 00010680 FDE cie=00010680 pc=000000000046da00..000000000046da1f
  DW_CFA_advance_loc: 1 to 000000000046da01
  DW_CFA_def_cfa_offset: 16
  DW_CFA_offset: r3 (rbx) at cfa-16
  DW_CFA_advance_loc: 26 to 000000000046da1b
  DW_CFA_def_cfa_offset: 8

00010738 000000000000001c 00010680 FDE cie=00010680 pc=000000000046da20..000000000046da3b
  DW_CFA_advance_loc: 4 to 000000000046da24
  DW_CFA_def_cfa_offset: 16
  DW_CFA_advance_loc: 22 to 000000000046da3a
  DW_CFA_def_cfa_offset: 8
  DW_CFA_nop
  DW_CFA_nop

00010758 000000000000001c 00010680 FDE cie=00010680 pc=000000000046da40..000000000046da5f
  DW_CFA_advance_loc: 1 to 000000000046da41
  DW_CFA_def_cfa_offset: 16
  DW_CFA_offset: r3 (rbx) at cfa-16
  DW_CFA_advance_loc: 26 to 000000000046da5b
  DW_CFA_def_cfa_offset: 8

00010778 0000000000000014 ffffffff CIE
  Version:               1
  Augmentation:          ""
  Code alignment factor: 1
  Data alignment factor: -8
  Return address column: 16

  DW_CFA_def_cfa: r7 (rsp) ofs 8
  DW_CFA_offset: r16 (rip) at cfa-8
  DW_CFA_nop
  DW_CFA_nop
  DW_CFA_nop
  DW_CFA_nop
  DW_CFA_nop
  DW_CFA_nop

00010790 000000000000002c 00010778 FDE cie=00010778 pc=000000000046da60..000000000046daba
  DW_CFA_advance_loc: 6 to 000000000046da66
  DW_CFA_def_cfa_offset: 16
  DW_CFA_offset: r3 (rbx) at cfa-16
  DW_CFA_advance_loc: 20 to 000000000046da7a
  DW_CFA_remember_state
  DW_CFA_def_cfa_offset: 8
  DW_CFA_advance_loc: 6 to 000000000046da80
  DW_CFA_restore_state
  DW_CFA_advance_loc: 26 to 000000000046da9a
  DW_CFA_remember_state
  DW_CFA_restore: r3 (rbx)
  DW_CFA_def_cfa_offset: 8
  DW_CFA_advance_loc: 6 to 000000000046daa0
  DW_CFA_restore_state
  DW_CFA_advance_loc: 6 to 000000000046daa6
  DW_CFA_restore: r3 (rbx)
  DW_CFA_def_cfa_offset: 8
  DW_CFA_nop
  DW_CFA_nop

000107c0 0000000000000034 00010778 FDE cie=00010778 pc=000000000046dac0..000000000046db5a
  DW_CFA_advance_loc: 9 to 000000000046dac9
  DW_CFA_def_cfa_offset: 16
  DW_CFA_offset: r3 (rbx) at cfa-16
  DW_CFA_advance_loc1: 84 to 000000000046db1d
  DW_CFA_remember_state
  DW_CFA_restore: r3 (rbx)
  DW_CFA_def_cfa_offset: 8
  DW_CFA_advance_loc: 11 to 000000000046db28
  DW_CFA_restore_state
  DW_CFA_advance_loc: 6 to 000000000046db2e
  DW_CFA_remember_state
  DW_CFA_restore: r3 (rbx)
  DW_CFA_def_cfa_offset: 8
  DW_CFA_advance_loc: 10 to 000000000046db38
  DW_CFA_restore_state
  DW_CFA_advance_loc: 1 to 000000000046db39
  DW_CFA_remember_state
  DW_CFA_def_cfa_offset: 8
  DW_CFA_advance_loc: 7 to 000000000046db40
  DW_CFA_restore_state
  DW_CFA_advance_loc: 16 to 000000000046db50
  DW_CFA_def_cfa_offset: 8
  DW_CFA_restore: r3 (rbx)
  DW_CFA_nop
  DW_CFA_nop

000107f8 000000000000001c 00010778 FDE cie=00010778 pc=000000000046db60..000000000046db74
  DW_CFA_advance_loc: 4 to 000000000046db64
  DW_CFA_def_cfa_offset: 16
  DW_CFA_advance_loc: 11 to 000000000046db6f
  DW_CFA_def_cfa_offset: 8
  DW_CFA_nop
  DW_CFA_nop

00010818 0000000000000014 ffffffff CIE
  Version:               1
  Augmentation:          ""
  Code alignment factor: 1
  Data alignment factor: -8
  Return address column: 16

  DW_CFA_def_cfa: r7 (rsp) ofs 8
  DW_CFA_offset: r16 (rip) at cfa-8
  DW_CFA_nop
  DW_CFA_nop
  DW_CFA_nop
  DW_CFA_nop
  DW_CFA_nop
  DW_CFA_nop

00010830 0000000000000014 00010818 FDE cie=00010818 pc=000000000046db80..000000000046dbae

00010848 0000000000000014 00010818 FDE cie=00010818 pc=000000000046dbb0..000000000046dc26

00010860 0000000000000014 ffffffff CIE
  Version:               1
  Augmentation:          ""
  Code alignment factor: 1
  Data alignment factor: -8
  Return address column: 16

  DW_CFA_def_cfa: r7 (rsp) ofs 8
  DW_CFA_offset: r16 (rip) at cfa-8
  DW_CFA_nop
  DW_CFA_nop
  DW_CFA_nop
  DW_CFA_nop
  DW_CFA_nop
  DW_CFA_nop

00010878 0000000000000014 00010860 FDE cie=00010860 pc=000000000046dc30..000000000046dc67

00010890 0000000000000014 ffffffff CIE
  Version:               1
  Augmentation:          ""
  Code alignment factor: 1
  Data alignment factor: -8
  Return address column: 16

  DW_CFA_def_cfa: r7 (rsp) ofs 8
  DW_CFA_offset: r16 (rip) at cfa-8
  DW_CFA_nop
  DW_CFA_nop
  DW_CFA_nop
  DW_CFA_nop
  DW_CFA_nop
  DW_CFA_nop

000108a8 000000000000006c 00010890 FDE cie=00010890 pc=000000000046dc70..000000000046e40c
  DW_CFA_advance_loc: 2 to 000000000046dc72
  DW_CFA_def_cfa_offset: 16
  DW_CFA_offset: r15 (r15) at cfa-16
  DW_CFA_advance_loc: 2 to 000000000046dc74
  DW_CFA_def_cfa_offset: 24
  DW_CFA_offset: r14 (r14) at cfa-24
  DW_CFA_advance_loc: 5 to 000000000046dc79
  DW_CFA_def_cfa_offset: 32
  DW_CFA_offset: r13 (r13) at cfa-32
  DW_CFA_advance_loc: 5 to 000000000046dc7e
  DW_CFA_def_cfa_offset: 40
  DW_CFA_offset: r12 (r12) at cfa-40
  DW_CFA_advance_loc: 4 to 000000000046dc82
  DW_CFA_def_cfa_offset: 48
  DW_CFA_offset: r6 (rbp) at cfa-48
  DW_CFA_advance_loc: 4 to 000000000046dc86
  DW_CFA_def_cfa_offset: 56
  DW_CFA_offset: r3 (rbx) at cfa-56
  DW_CFA_advance_loc: 7 to 000000000046dc8d
  DW_CFA_def_cfa_offset: 112
  DW_CFA_advance_loc2: 819 to 000000000046dfc0
  DW_CFA_remember_state
  DW_CFA_def_cfa_offset: 56
  DW_CFA_advance_loc: 1 to 000000000046dfc1
  DW_CFA_def_cfa_offset: 48
  DW_CFA_advance_loc: 1 to 000000000046dfc2
  DW_CFA_def_cfa_offset: 40
  DW_CFA_advance_loc: 2 to 000000000046dfc4
  DW_CFA_def_cfa_offset: 32
  DW_CFA_advance_loc: 2 to 000000000046dfc6
  DW_CFA_def_cfa_offset: 24
  DW_CFA_advance_loc: 2 to 000000000046dfc8
  DW_CFA_def_cfa_offset: 16
  DW_CFA_advance_loc: 2 to 000000000046dfca
  DW_CFA_def_cfa_offset: 8
  DW_CFA_advance_loc: 6 to 000000000046dfd0
  DW_CFA_restore_state
  DW_CFA_advance_loc: 24 to 000000000046dfe8
  DW_CFA_remember_state
  DW_CFA_def_cfa_offset: 56
  DW_CFA_advance_loc: 6 to 000000000046dfee
  DW_CFA_def_cfa_offset: 48
  DW_CFA_advance_loc: 1 to 000000000046dfef
  DW_CFA_def_cfa_offset: 40
  DW_CFA_advance_loc: 2 to 000000000046dff1
  DW_CFA_def_cfa_offset: 32
  DW_CFA_advance_loc: 2 to 000000000046dff3
  DW_CFA_def_cfa_offset: 24
  DW_CFA_advance_loc: 2 to 000000000046dff5
  DW_CFA_def_cfa_offset: 16
  DW_CFA_advance_loc: 2 to 000000000046dff7
  DW_CFA_def_cfa_offset: 8
  DW_CFA_advance_loc: 9 to 000000000046e000
  DW_CFA_restore_state
  DW_CFA_nop
  DW_CFA_nop
  DW_CFA_nop
  DW_CFA_nop
  DW_CFA_nop

00010918 000000000000006c 00010890 FDE cie=00010890 pc=000000000046e410..000000000046e8d7
  DW_CFA_advance_loc: 2 to 000000000046e412
  DW_CFA_def_cfa_offset: 16
  DW_CFA_offset: r15 (r15) at cfa-16
  DW_CFA_advance_loc: 5 to 000000000046e417
  DW_CFA_def_cfa_offset: 24
  DW_CFA_offset: r14 (r14) at cfa-24
  DW_CFA_advance_loc: 2 to 000000000046e419
  DW_CFA_def_cfa_offset: 32
  DW_CFA_offset: r13 (r13) at cfa-32
  DW_CFA_advance_loc: 5 to 000000000046e41e
  DW_CFA_def_cfa_offset: 40
  DW_CFA_offset: r12 (r12) at cfa-40
  DW_CFA_advance_loc: 4 to 000000000046e422
  DW_CFA_def_cfa_offset: 48
  DW_CFA_offset: r6 (rbp) at cfa-48
  DW_CFA_advance_loc: 1 to 000000000046e423
  DW_CFA_def_cfa_offset: 56
  DW_CFA_offset: r3 (rbx) at cfa-56
  DW_CFA_advance_loc: 7 to 000000000046e42a
  DW_CFA_def_cfa_offset: 96
  DW_CFA_advance_loc1: 67 to 000000000046e46d
  DW_CFA_remember_state
  DW_CFA_def_cfa_offset: 56
  DW_CFA_advance_loc: 6 to 000000000046e473
  DW_CFA_def_cfa_offset: 48
  DW_CFA_advance_loc: 1 to 000000000046e474
  DW_CFA_def_cfa_offset: 40
  DW_CFA_advance_loc: 2 to 000000000046e476
  DW_CFA_def_cfa_offset: 32
  DW_CFA_advance_loc: 2 to 000000000046e478
  DW_CFA_def_cfa_offset: 24
  DW_CFA_advance_loc: 2 to 000000000046e47a
  DW_CFA_def_cfa_offset: 16
  DW_CFA_advance_loc: 2 to 000000000046e47c
  DW_CFA_def_cfa_offset: 8
  DW_CFA_advance_loc: 12 to 000000000046e488
  DW_CFA_restore_state
  DW_CFA_advance_loc2: 738 to 000000000046e76a
  DW_CFA_remember_state
  DW_CFA_def_cfa_offset: 56
  DW_CFA_advance_loc: 1 to 000000000046e76b
  DW_CFA_def_cfa_offset: 48
  DW_CFA_advance_loc: 1 to 000000000046e76c
  DW_CFA_def_cfa_offset: 40
  DW_CFA_advance_loc: 2 to 000000000046e76e
  DW_CFA_def_cfa_offset: 32
  DW_CFA_advance_loc: 2 to 000000000046e770
  DW_CFA_def_cfa_offset: 24
  DW_CFA_advance_loc: 2 to 000000000046e772
  DW_CFA_def_cfa_offset: 16
  DW_CFA_advance_loc: 2 to 000000000046e774
  DW_CFA_def_cfa_offset: 8
  DW_CFA_advance_loc: 4 to 000000000046e778
  DW_CFA_restore_state
  DW_CFA_nop
  DW_CFA_nop
  DW_CFA_nop
  DW_CFA_nop

00010988 000000000000006c 00010890 FDE cie=00010890 pc=000000000046e8e0..000000000046edb8
  DW_CFA_advance_loc: 2 to 000000000046e8e2
  DW_CFA_def_cfa_offset: 16
  DW_CFA_offset: r15 (r15) at cfa-16
  DW_CFA_advance_loc: 2 to 000000000046e8e4
  DW_CFA_def_cfa_offset: 24
  DW_CFA_offset: r14 (r14) at cfa-24
  DW_CFA_advance_loc: 2 to 000000000046e8e6
  DW_CFA_def_cfa_offset: 32
  DW_CFA_offset: r13 (r13) at cfa-32
  DW_CFA_advance_loc: 2 to 000000000046e8e8
  DW_CFA_def_cfa_offset: 40
  DW_CFA_offset: r12 (r12) at cfa-40
  DW_CFA_advance_loc: 4 to 000000000046e8ec
  DW_CFA_def_cfa_offset: 48
  DW_CFA_offset: r6 (rbp) at cfa-48
  DW_CFA_advance_loc: 1 to 000000000046e8ed
  DW_CFA_def_cfa_offset: 56
  DW_CFA_offset: r3 (rbx) at cfa-56
  DW_CFA_advance_loc: 7 to 000000000046e8f4
  DW_CFA_def_cfa_offset: 96
  DW_CFA_advance_loc1: 67 to 000000000046e937
  DW_CFA_remember_state
  DW_CFA_def_cfa_offset: 56
  DW_CFA_advance_loc: 6 to 000000000046e93d
  DW_CFA_def_cfa_offset: 48
  DW_CFA_advance_loc: 1 to 000000000046e93e
  DW_CFA_def_cfa_offset: 40
  DW_CFA_advance_loc: 2 to 000000000046e940
  DW_CFA_def_cfa_offset: 32
  DW_CFA_advance_loc: 2 to 000000000046e942
  DW_CFA_def_cfa_offset: 24
  DW_CFA_advance_loc: 2 to 000000000046e944
  DW_CFA_def_cfa_offset: 16
  DW_CFA_advance_loc: 2 to 000000000046e946
  DW_CFA_def_cfa_offset: 8
  DW_CFA_advance_loc: 10 to 000000000046e950
  DW_CFA_restore_state
  DW_CFA_advance_loc2: 756 to 000000000046ec44
  DW_CFA_remember_state
  DW_CFA_def_cfa_offset: 56
  DW_CFA_advance_loc: 1 to 000000000046ec45
  DW_CFA_def_cfa_offset: 48
  DW_CFA_advance_loc: 1 to 000000000046ec46
  DW_CFA_def_cfa_offset: 40
  DW_CFA_advance_loc: 2 to 000000000046ec48
  DW_CFA_def_cfa_offset: 32
  DW_CFA_advance_loc: 2 to 000000000046ec4a
  DW_CFA_def_cfa_offset: 24
  DW_CFA_advance_loc: 2 to 000000000046ec4c
  DW_CFA_def_cfa_offset: 16
  DW_CFA_advance_loc: 2 to 000000000046ec4e
  DW_CFA_def_cfa_offset: 8
  DW_CFA_advance_loc: 2 to 000000000046ec50
  DW_CFA_restore_state
  DW_CFA_nop
  DW_CFA_nop
  DW_CFA_nop
  DW_CFA_nop

000109f8 000000000000006c 00010890 FDE cie=00010890 pc=000000000046edc0..000000000046f287
  DW_CFA_advance_loc: 2 to 000000000046edc2
  DW_CFA_def_cfa_offset: 16
  DW_CFA_offset: r15 (r15) at cfa-16
  DW_CFA_advance_loc: 2 to 000000000046edc4
  DW_CFA_def_cfa_offset: 24
  DW_CFA_offset: r14 (r14) at cfa-24
  DW_CFA_advance_loc: 5 to 000000000046edc9
  DW_CFA_def_cfa_offset: 32
  DW_CFA_offset: r13 (r13) at cfa-32
  DW_CFA_advance_loc: 2 to 000000000046edcb
  DW_CFA_def_cfa_offset: 40
  DW_CFA_offset: r12 (r12) at cfa-40
  DW_CFA_advance_loc: 4 to 000000000046edcf
  DW_CFA_def_cfa_offset: 48
  DW_CFA_offset: r6 (rbp) at cfa-48
  DW_CFA_advance_loc: 1 to 000000000046edd0
  DW_CFA_def_cfa_offset: 56
  DW_CFA_offset: r3 (rbx) at cfa-56
  DW_CFA_advance_loc: 7 to 000000000046edd7
  DW_CFA_def_cfa_offset: 96
  DW_CFA_advance_loc1: 67 to 000000000046ee1a
  DW_CFA_remember_state
  DW_CFA_def_cfa_offset: 56
  DW_CFA_advance_loc: 6 to 000000000046ee20
  DW_CFA_def_cfa_offset: 48
  DW_CFA_advance_loc: 1 to 000000000046ee21
  DW_CFA_def_cfa_offset: 40
  DW_CFA_advance_loc: 2 to 000000000046ee23
  DW_CFA_def_cfa_offset: 32
  DW_CFA_advance_loc: 2 to 000000000046ee25
  DW_CFA_def_cfa_offset: 24
  DW_CFA_advance_loc: 2 to 000000000046ee27
  DW_CFA_def_cfa_offset: 16
  DW_CFA_advance_loc: 2 to 000000000046ee29
  DW_CFA_def_cfa_offset: 8
  DW_CFA_advance_loc: 7 to 000000000046ee30
  DW_CFA_restore_state
  DW_CFA_advance_loc2: 738 to 000000000046f112
  DW_CFA_remember_state
  DW_CFA_def_cfa_offset: 56
  DW_CFA_advance_loc: 1 to 000000000046f113
  DW_CFA_def_cfa_offset: 48
  DW_CFA_advance_loc: 1 to 000000000046f114
  DW_CFA_def_cfa_offset: 40
  DW_CFA_advance_loc: 2 to 000000000046f116
  DW_CFA_def_cfa_offset: 32
  DW_CFA_advance_loc: 2 to 000000000046f118
  DW_CFA_def_cfa_offset: 24
  DW_CFA_advance_loc: 2 to 000000000046f11a
  DW_CFA_def_cfa_offset: 16
  DW_CFA_advance_loc: 2 to 000000000046f11c
  DW_CFA_def_cfa_offset: 8
  DW_CFA_advance_loc: 4 to 000000000046f120
  DW_CFA_restore_state
  DW_CFA_nop
  DW_CFA_nop
  DW_CFA_nop
  DW_CFA_nop

00010a68 000000000000006c 00010890 FDE cie=00010890 pc=000000000046f290..000000000046f787
  DW_CFA_advance_loc: 2 to 000000000046f292
  DW_CFA_def_cfa_offset: 16
  DW_CFA_offset: r15 (r15) at cfa-16
  DW_CFA_advance_loc: 2 to 000000000046f294
  DW_CFA_def_cfa_offset: 24
  DW_CFA_offset: r14 (r14) at cfa-24
  DW_CFA_advance_loc: 5 to 000000000046f299
  DW_CFA_def_cfa_offset: 32
  DW_CFA_offset: r13 (r13) at cfa-32
  DW_CFA_advance_loc: 2 to 000000000046f29b
  DW_CFA_def_cfa_offset: 40
  DW_CFA_offset: r12 (r12) at cfa-40
  DW_CFA_advance_loc: 4 to 000000000046f29f
  DW_CFA_def_cfa_offset: 48
  DW_CFA_offset: r6 (rbp) at cfa-48
  DW_CFA_advance_loc: 1 to 000000000046f2a0
  DW_CFA_def_cfa_offset: 56
  DW_CFA_offset: r3 (rbx) at cfa-56
  DW_CFA_advance_loc: 7 to 000000000046f2a7
  DW_CFA_def_cfa_offset: 96
  DW_CFA_advance_loc1: 79 to 000000000046f2f6
  DW_CFA_remember_state
  DW_CFA_def_cfa_offset: 56
  DW_CFA_advance_loc: 6 to 000000000046f2fc
  DW_CFA_def_cfa_offset: 48
  DW_CFA_advance_loc: 1 to 000000000046f2fd
  DW_CFA_def_cfa_offset: 40
  DW_CFA_advance_loc: 2 to 000000000046f2ff
  DW_CFA_def_cfa_offset: 32
  DW_CFA_advance_loc: 2 to 000000000046f301
  DW_CFA_def_cfa_offset: 24
  DW_CFA_advance_loc: 2 to 000000000046f303
  DW_CFA_def_cfa_offset: 16
  DW_CFA_advance_loc: 2 to 000000000046f305
  DW_CFA_def_cfa_offset: 8
  DW_CFA_advance_loc: 11 to 000000000046f310
  DW_CFA_restore_state
  DW_CFA_advance_loc2: 773 to 000000000046f615
  DW_CFA_remember_state
  DW_CFA_def_cfa_offset: 56
  DW_CFA_advance_loc: 1 to 000000000046f616
  DW_CFA_def_cfa_offset: 48
  DW_CFA_advance_loc: 1 to 000000000046f617
  DW_CFA_def_cfa_offset: 40
  DW_CFA_advance_loc: 2 to 000000000046f619
  DW_CFA_def_cfa_offset: 32
  DW_CFA_advance_loc: 2 to 000000000046f61b
  DW_CFA_def_cfa_offset: 24
  DW_CFA_advance_loc: 2 to 000000000046f61d
  DW_CFA_def_cfa_offset: 16
  DW_CFA_advance_loc: 2 to 000000000046f61f
  DW_CFA_def_cfa_offset: 8
  DW_CFA_advance_loc: 1 to 000000000046f620
  DW_CFA_restore_state
  DW_CFA_nop
  DW_CFA_nop
  DW_CFA_nop
  DW_CFA_nop

00010ad8 000000000000006c 00010890 FDE cie=00010890 pc=000000000046f790..000000000046fc87
  DW_CFA_advance_loc: 2 to 000000000046f792
  DW_CFA_def_cfa_offset: 16
  DW_CFA_offset: r15 (r15) at cfa-16
  DW_CFA_advance_loc: 5 to 000000000046f797
  DW_CFA_def_cfa_offset: 24
  DW_CFA_offset: r14 (r14) at cfa-24
  DW_CFA_advance_loc: 2 to 000000000046f799
  DW_CFA_def_cfa_offset: 32
  DW_CFA_offset: r13 (r13) at cfa-32
  DW_CFA_advance_loc: 5 to 000000000046f79e
  DW_CFA_def_cfa_offset: 40
  DW_CFA_offset: r12 (r12) at cfa-40
  DW_CFA_advance_loc: 4 to 000000000046f7a2
  DW_CFA_def_cfa_offset: 48
  DW_CFA_offset: r6 (rbp) at cfa-48
  DW_CFA_advance_loc: 1 to 000000000046f7a3
  DW_CFA_def_cfa_offset: 56
  DW_CFA_offset: r3 (rbx) at cfa-56
  DW_CFA_advance_loc: 7 to 000000000046f7aa
  DW_CFA_def_cfa_offset: 96
  DW_CFA_advance_loc1: 79 to 000000000046f7f9
  DW_CFA_remember_state
  DW_CFA_def_cfa_offset: 56
  DW_CFA_advance_loc: 6 to 000000000046f7ff
  DW_CFA_def_cfa_offset: 48
  DW_CFA_advance_loc: 1 to 000000000046f800
  DW_CFA_def_cfa_offset: 40
  DW_CFA_advance_loc: 2 to 000000000046f802
  DW_CFA_def_cfa_offset: 32
  DW_CFA_advance_loc: 2 to 000000000046f804
  DW_CFA_def_cfa_offset: 24
  DW_CFA_advance_loc: 2 to 000000000046f806
  DW_CFA_def_cfa_offset: 16
  DW_CFA_advance_loc: 2 to 000000000046f808
  DW_CFA_def_cfa_offset: 8
  DW_CFA_advance_loc: 8 to 000000000046f810
  DW_CFA_restore_state
  DW_CFA_advance_loc2: 772 to 000000000046fb14
  DW_CFA_remember_state
  DW_CFA_def_cfa_offset: 56
  DW_CFA_advance_loc: 1 to 000000000046fb15
  DW_CFA_def_cfa_offset: 48
  DW_CFA_advance_loc: 1 to 000000000046fb16
  DW_CFA_def_cfa_offset: 40
  DW_CFA_advance_loc: 2 to 000000000046fb18
  DW_CFA_def_cfa_offset: 32
  DW_CFA_advance_loc: 2 to 000000000046fb1a
  DW_CFA_def_cfa_offset: 24
  DW_CFA_advance_loc: 2 to 000000000046fb1c
  DW_CFA_def_cfa_offset: 16
  DW_CFA_advance_loc: 2 to 000000000046fb1e
  DW_CFA_def_cfa_offset: 8
  DW_CFA_advance_loc: 2 to 000000000046fb20
  DW_CFA_restore_state
  DW_CFA_nop
  DW_CFA_nop
  DW_CFA_nop
  DW_CFA_nop

00010b48 0000000000000014 ffffffff CIE
  Version:               1
  Augmentation:          ""
  Code alignment factor: 1
  Data alignment factor: -8
  Return address column: 16

  DW_CFA_def_cfa: r7 (rsp) ofs 8
  DW_CFA_offset: r16 (rip) at cfa-8
  DW_CFA_nop
  DW_CFA_nop
  DW_CFA_nop
  DW_CFA_nop
  DW_CFA_nop
  DW_CFA_nop

00010b60 000000000000001c 00010b48 FDE cie=00010b48 pc=000000000046fc90..000000000046fcbb
  DW_CFA_advance_loc: 1 to 000000000046fc91
  DW_CFA_def_cfa_offset: 16
  DW_CFA_offset: r3 (rbx) at cfa-16
  DW_CFA_advance_loc: 41 to 000000000046fcba
  DW_CFA_def_cfa_offset: 8

00010b80 0000000000000014 ffffffff CIE
  Version:               1
  Augmentation:          ""
  Code alignment factor: 1
  Data alignment factor: -8
  Return address column: 16

  DW_CFA_def_cfa: r7 (rsp) ofs 8
  DW_CFA_offset: r16 (rip) at cfa-8
  DW_CFA_nop
  DW_CFA_nop
  DW_CFA_nop
  DW_CFA_nop
  DW_CFA_nop
  DW_CFA_nop

00010b98 0000000000000014 00010b80 FDE cie=00010b80 pc=000000000046fcc0..000000000046fcc9

00010bb0 000000000000003c 00010b80 FDE cie=00010b80 pc=000000000046fcd0..000000000046fd79
  DW_CFA_advance_loc: 1 to 000000000046fcd1
  DW_CFA_def_cfa_offset: 16
  DW_CFA_offset: r6 (rbp) at cfa-16
  DW_CFA_advance_loc: 1 to 000000000046fcd2
  DW_CFA_def_cfa_offset: 24
  DW_CFA_offset: r3 (rbx) at cfa-24
  DW_CFA_advance_loc: 4 to 000000000046fcd6
  DW_CFA_def_cfa_offset: 32
  DW_CFA_advance_loc: 58 to 000000000046fd10
  DW_CFA_remember_state
  DW_CFA_def_cfa_offset: 24
  DW_CFA_advance_loc: 6 to 000000000046fd16
  DW_CFA_def_cfa_offset: 16
  DW_CFA_advance_loc: 1 to 000000000046fd17
  DW_CFA_def_cfa_offset: 8
  DW_CFA_advance_loc: 9 to 000000000046fd20
  DW_CFA_restore_state
  DW_CFA_advance_loc1: 69 to 000000000046fd65
  DW_CFA_remember_state
  DW_CFA_def_cfa_offset: 24
  DW_CFA_advance_loc: 3 to 000000000046fd68
  DW_CFA_def_cfa_offset: 16
  DW_CFA_advance_loc: 1 to 000000000046fd69
  DW_CFA_def_cfa_offset: 8
  DW_CFA_advance_loc: 7 to 000000000046fd70
  DW_CFA_restore_state
  DW_CFA_nop
  DW_CFA_nop

00010bf0 0000000000000014 ffffffff CIE
  Version:               1
  Augmentation:          ""
  Code alignment factor: 1
  Data alignment factor: -8
  Return address column: 16

  DW_CFA_def_cfa: r7 (rsp) ofs 8
  DW_CFA_offset: r16 (rip) at cfa-8
  DW_CFA_nop
  DW_CFA_nop
  DW_CFA_nop
  DW_CFA_nop
  DW_CFA_nop
  DW_CFA_nop

00010c08 0000000000000044 00010bf0 FDE cie=00010bf0 pc=000000000046fd80..000000000046fe04
  DW_CFA_advance_loc: 2 to 000000000046fd82
  DW_CFA_def_cfa_offset: 16
  DW_CFA_offset: r13 (r13) at cfa-16
  DW_CFA_advance_loc: 2 to 000000000046fd84
  DW_CFA_def_cfa_offset: 24
  DW_CFA_offset: r12 (r12) at cfa-24
  DW_CFA_advance_loc: 9 to 000000000046fd8d
  DW_CFA_def_cfa_offset: 32
  DW_CFA_offset: r6 (rbp) at cfa-32
  DW_CFA_advance_loc: 4 to 000000000046fd91
  DW_CFA_def_cfa_offset: 40
  DW_CFA_offset: r3 (rbx) at cfa-40
  DW_CFA_advance_loc: 14 to 000000000046fd9f
  DW_CFA_def_cfa_offset: 4176
  DW_CFA_advance_loc1: 89 to 000000000046fdf8
  DW_CFA_remember_state
  DW_CFA_def_cfa_offset: 40
  DW_CFA_advance_loc: 1 to 000000000046fdf9
  DW_CFA_def_cfa_offset: 32
  DW_CFA_advance_loc: 1 to 000000000046fdfa
  DW_CFA_def_cfa_offset: 24
  DW_CFA_advance_loc: 2 to 000000000046fdfc
  DW_CFA_def_cfa_offset: 16
  DW_CFA_advance_loc: 2 to 000000000046fdfe
  DW_CFA_def_cfa_offset: 8
  DW_CFA_advance_loc: 1 to 000000000046fdff
  DW_CFA_restore_state
  DW_CFA_nop
  DW_CFA_nop
  DW_CFA_nop
  DW_CFA_nop
  DW_CFA_nop

00010c50 0000000000000014 ffffffff CIE
  Version:               1
  Augmentation:          ""
  Code alignment factor: 1
  Data alignment factor: -8
  Return address column: 16

  DW_CFA_def_cfa: r7 (rsp) ofs 8
  DW_CFA_offset: r16 (rip) at cfa-8
  DW_CFA_nop
  DW_CFA_nop
  DW_CFA_nop
  DW_CFA_nop
  DW_CFA_nop
  DW_CFA_nop

00010c68 00000000000000bc 00010c50 FDE cie=00010c50 pc=000000000046fe10..0000000000470572
  DW_CFA_advance_loc: 2 to 000000000046fe12
  DW_CFA_def_cfa_offset: 16
  DW_CFA_offset: r15 (r15) at cfa-16
  DW_CFA_advance_loc: 5 to 000000000046fe17
  DW_CFA_def_cfa_offset: 24
  DW_CFA_offset: r14 (r14) at cfa-24
  DW_CFA_advance_loc: 2 to 000000000046fe19
  DW_CFA_def_cfa_offset: 32
  DW_CFA_offset: r13 (r13) at cfa-32
  DW_CFA_advance_loc: 10 to 000000000046fe23
  DW_CFA_def_cfa_offset: 40
  DW_CFA_offset: r12 (r12) at cfa-40
  DW_CFA_advance_loc: 9 to 000000000046fe2c
  DW_CFA_def_cfa_offset: 48
  DW_CFA_offset: r6 (rbp) at cfa-48
  DW_CFA_advance_loc: 11 to 000000000046fe37
  DW_CFA_def_cfa_offset: 56
  DW_CFA_offset: r3 (rbx) at cfa-56
  DW_CFA_advance_loc: 4 to 000000000046fe3b
  DW_CFA_def_cfa_offset: 128
  DW_CFA_advance_loc1: 128 to 000000000046febb
  DW_CFA_def_cfa_offset: 136
  DW_CFA_advance_loc: 7 to 000000000046fec2
  DW_CFA_def_cfa_offset: 144
  DW_CFA_advance_loc: 16 to 000000000046fed2
  DW_CFA_def_cfa_offset: 136
  DW_CFA_advance_loc: 1 to 000000000046fed3
  DW_CFA_def_cfa_offset: 128
  DW_CFA_advance_loc: 53 to 000000000046ff08
  DW_CFA_remember_state
  DW_CFA_def_cfa_offset: 56
  DW_CFA_advance_loc: 3 to 000000000046ff0b
  DW_CFA_def_cfa_offset: 48
  DW_CFA_advance_loc: 1 to 000000000046ff0c
  DW_CFA_def_cfa_offset: 40
  DW_CFA_advance_loc: 2 to 000000000046ff0e
  DW_CFA_def_cfa_offset: 32
  DW_CFA_advance_loc: 2 to 000000000046ff10
  DW_CFA_def_cfa_offset: 24
  DW_CFA_advance_loc: 2 to 000000000046ff12
  DW_CFA_def_cfa_offset: 16
  DW_CFA_advance_loc: 2 to 000000000046ff14
  DW_CFA_def_cfa_offset: 8
  DW_CFA_advance_loc: 4 to 000000000046ff18
  DW_CFA_restore_state
  DW_CFA_advance_loc1: 183 to 000000000046ffcf
  DW_CFA_def_cfa_offset: 136
  DW_CFA_advance_loc: 7 to 000000000046ffd6
  DW_CFA_def_cfa_offset: 144
  DW_CFA_advance_loc: 17 to 000000000046ffe7
  DW_CFA_def_cfa_offset: 136
  DW_CFA_advance_loc: 2 to 000000000046ffe9
  DW_CFA_def_cfa_offset: 128
  DW_CFA_advance_loc1: 227 to 00000000004700cc
  DW_CFA_def_cfa_offset: 136
  DW_CFA_advance_loc: 7 to 00000000004700d3
  DW_CFA_def_cfa_offset: 144
  DW_CFA_advance_loc: 16 to 00000000004700e3
  DW_CFA_def_cfa_offset: 136
  DW_CFA_advance_loc: 1 to 00000000004700e4
  DW_CFA_def_cfa_offset: 128
  DW_CFA_advance_loc1: 252 to 00000000004701e0
  DW_CFA_def_cfa_offset: 136
  DW_CFA_advance_loc: 9 to 00000000004701e9
  DW_CFA_def_cfa_offset: 144
  DW_CFA_advance_loc: 14 to 00000000004701f7
  DW_CFA_def_cfa_offset: 136
  DW_CFA_advance_loc: 1 to 00000000004701f8
  DW_CFA_def_cfa_offset: 128
  DW_CFA_advance_loc2: 349 to 0000000000470355
  DW_CFA_def_cfa_offset: 136
  DW_CFA_advance_loc: 9 to 000000000047035e
  DW_CFA_def_cfa_offset: 144
  DW_CFA_advance_loc: 14 to 000000000047036c
  DW_CFA_def_cfa_offset: 136
  DW_CFA_advance_loc: 1 to 000000000047036d
  DW_CFA_def_cfa_offset: 128
  DW_CFA_advance_loc2: 304 to 000000000047049d
  DW_CFA_def_cfa_offset: 136
  DW_CFA_advance_loc: 7 to 00000000004704a4
  DW_CFA_def_cfa_offset: 144
  DW_CFA_advance_loc: 17 to 00000000004704b5
  DW_CFA_def_cfa_offset: 136
  DW_CFA_advance_loc: 2 to 00000000004704b7
  DW_CFA_def_cfa_offset: 128
  DW_CFA_nop
  DW_CFA_nop
  DW_CFA_nop
  DW_CFA_nop
  DW_CFA_nop
  DW_CFA_nop

00010d28 0000000000000024 ffffffff CIE
  Version:               1
  Augmentation:          ""
  Code alignment factor: 1
  Data alignment factor: -8
  Return address column: 16

  DW_CFA_def_cfa: r7 (rsp) ofs 8
  DW_CFA_offset: r16 (rip) at cfa-8
  DW_CFA_def_cfa_offset: 128
  DW_CFA_offset: r3 (rbx) at cfa-56
  DW_CFA_offset: r6 (rbp) at cfa-48
  DW_CFA_offset: r12 (r12) at cfa-40
  DW_CFA_offset: r13 (r13) at cfa-32
  DW_CFA_offset: r14 (r14) at cfa-24
  DW_CFA_offset: r15 (r15) at cfa-16
  DW_CFA_nop
  DW_CFA_nop
  DW_CFA_nop
  DW_CFA_nop
  DW_CFA_nop
  DW_CFA_nop
  DW_CFA_nop

00010d50 0000000000000014 00010d28 FDE cie=00010d28 pc=0000000000405d1a..0000000000405d78

00010d68 0000000000000014 ffffffff CIE
  Version:               1
  Augmentation:          ""
  Code alignment factor: 1
  Data alignment factor: -8
  Return address column: 16

  DW_CFA_def_cfa: r7 (rsp) ofs 8
  DW_CFA_offset: r16 (rip) at cfa-8
  DW_CFA_nop
  DW_CFA_nop
  DW_CFA_nop
  DW_CFA_nop
  DW_CFA_nop
  DW_CFA_nop

00010d80 000000000000008c 00010d68 FDE cie=00010d68 pc=0000000000470580..000000000047085c
  DW_CFA_advance_loc: 2 to 0000000000470582
  DW_CFA_def_cfa_offset: 16
  DW_CFA_offset: r15 (r15) at cfa-16
  DW_CFA_advance_loc: 2 to 0000000000470584
  DW_CFA_def_cfa_offset: 24
  DW_CFA_offset: r14 (r14) at cfa-24
  DW_CFA_advance_loc: 2 to 0000000000470586
  DW_CFA_def_cfa_offset: 32
  DW_CFA_offset: r13 (r13) at cfa-32
  DW_CFA_advance_loc: 2 to 0000000000470588
  DW_CFA_def_cfa_offset: 40
  DW_CFA_offset: r12 (r12) at cfa-40
  DW_CFA_advance_loc: 1 to 0000000000470589
  DW_CFA_def_cfa_offset: 48
  DW_CFA_offset: r6 (rbp) at cfa-48
  DW_CFA_advance_loc: 1 to 000000000047058a
  DW_CFA_def_cfa_offset: 56
  DW_CFA_offset: r3 (rbx) at cfa-56
  DW_CFA_advance_loc: 7 to 0000000000470591
  DW_CFA_def_cfa_offset: 1184
  DW_CFA_advance_loc1: 176 to 0000000000470641
  DW_CFA_remember_state
  DW_CFA_def_cfa_offset: 56
  DW_CFA_advance_loc: 1 to 0000000000470642
  DW_CFA_def_cfa_offset: 48
  DW_CFA_advance_loc: 1 to 0000000000470643
  DW_CFA_def_cfa_offset: 40
  DW_CFA_advance_loc: 2 to 0000000000470645
  DW_CFA_def_cfa_offset: 32
  DW_CFA_advance_loc: 2 to 0000000000470647
  DW_CFA_def_cfa_offset: 24
  DW_CFA_advance_loc: 2 to 0000000000470649
  DW_CFA_def_cfa_offset: 16
  DW_CFA_advance_loc: 2 to 000000000047064b
  DW_CFA_def_cfa_offset: 8
  DW_CFA_advance_loc: 5 to 0000000000470650
  DW_CFA_restore_state
  DW_CFA_advance_loc: 46 to 000000000047067e
  DW_CFA_remember_state
  DW_CFA_def_cfa_offset: 56
  DW_CFA_advance_loc: 6 to 0000000000470684
  DW_CFA_def_cfa_offset: 48
  DW_CFA_advance_loc: 1 to 0000000000470685
  DW_CFA_def_cfa_offset: 40
  DW_CFA_advance_loc: 2 to 0000000000470687
  DW_CFA_def_cfa_offset: 32
  DW_CFA_advance_loc: 2 to 0000000000470689
  DW_CFA_def_cfa_offset: 24
  DW_CFA_advance_loc: 2 to 000000000047068b
  DW_CFA_def_cfa_offset: 16
  DW_CFA_advance_loc: 2 to 000000000047068d
  DW_CFA_def_cfa_offset: 8
  DW_CFA_advance_loc: 11 to 0000000000470698
  DW_CFA_restore_state
  DW_CFA_advance_loc1: 81 to 00000000004706e9
  DW_CFA_def_cfa_offset: 1192
  DW_CFA_advance_loc: 9 to 00000000004706f2
  DW_CFA_def_cfa_offset: 1200
  DW_CFA_advance_loc: 21 to 0000000000470707
  DW_CFA_def_cfa_offset: 1192
  DW_CFA_advance_loc: 1 to 0000000000470708
  DW_CFA_def_cfa_offset: 1184
  DW_CFA_advance_loc1: 225 to 00000000004707e9
  DW_CFA_def_cfa_offset: 1192
  DW_CFA_advance_loc: 9 to 00000000004707f2
  DW_CFA_def_cfa_offset: 1200
  DW_CFA_advance_loc: 22 to 0000000000470808
  DW_CFA_def_cfa_offset: 1192
  DW_CFA_advance_loc: 1 to 0000000000470809
  DW_CFA_def_cfa_offset: 1184
  DW_CFA_nop
  DW_CFA_nop
  DW_CFA_nop

00010e10 0000000000000014 00010d68 FDE cie=00010d68 pc=0000000000470860..00000000004708a1

00010e28 0000000000000014 ffffffff CIE
  Version:               1
  Augmentation:          ""
  Code alignment factor: 1
  Data alignment factor: -8
  Return address column: 16

  DW_CFA_def_cfa: r7 (rsp) ofs 8
  DW_CFA_offset: r16 (rip) at cfa-8
  DW_CFA_nop
  DW_CFA_nop
  DW_CFA_nop
  DW_CFA_nop
  DW_CFA_nop
  DW_CFA_nop

00010e40 0000000000000024 00010e28 FDE cie=00010e28 pc=00000000004708b0..00000000004708c6
  DW_CFA_advance_loc: 4 to 00000000004708b4
  DW_CFA_def_cfa_offset: 16
  DW_CFA_advance_loc: 6 to 00000000004708ba
  DW_CFA_def_cfa_offset: 24
  DW_CFA_advance_loc: 2 to 00000000004708bc
  DW_CFA_def_cfa_offset: 32
  DW_CFA_advance_loc: 9 to 00000000004708c5
  DW_CFA_def_cfa_offset: 8
  DW_CFA_nop
  DW_CFA_nop
  DW_CFA_nop
  DW_CFA_nop

00010e68 000000000000002c 00010e28 FDE cie=00010e28 pc=00000000004708d0..0000000000470922
  DW_CFA_advance_loc: 17 to 00000000004708e1
  DW_CFA_def_cfa_offset: 16
  DW_CFA_offset: r12 (r12) at cfa-16
  DW_CFA_advance_loc: 14 to 00000000004708ef
  DW_CFA_def_cfa_offset: 24
  DW_CFA_advance_loc: 6 to 00000000004708f5
  DW_CFA_def_cfa_offset: 32
  DW_CFA_advance_loc: 27 to 0000000000470910
  DW_CFA_def_cfa_offset: 24
  DW_CFA_advance_loc: 1 to 0000000000470911
  DW_CFA_def_cfa_offset: 16
  DW_CFA_advance_loc: 2 to 0000000000470913
  DW_CFA_def_cfa_offset: 8
  DW_CFA_advance_loc: 5 to 0000000000470918
  DW_CFA_restore: r12 (r12)
  DW_CFA_nop
  DW_CFA_nop

00010e98 0000000000000014 ffffffff CIE
  Version:               1
  Augmentation:          ""
  Code alignment factor: 1
  Data alignment factor: -8
  Return address column: 16

  DW_CFA_def_cfa: r7 (rsp) ofs 8
  DW_CFA_offset: r16 (rip) at cfa-8
  DW_CFA_nop
  DW_CFA_nop
  DW_CFA_nop
  DW_CFA_nop
  DW_CFA_nop
  DW_CFA_nop

00010eb0 0000000000000054 00010e98 FDE cie=00010e98 pc=0000000000470930..0000000000470bc6
  DW_CFA_advance_loc: 2 to 0000000000470932
  DW_CFA_def_cfa_offset: 16
  DW_CFA_offset: r15 (r15) at cfa-16
  DW_CFA_advance_loc: 2 to 0000000000470934
  DW_CFA_def_cfa_offset: 24
  DW_CFA_offset: r14 (r14) at cfa-24
  DW_CFA_advance_loc: 2 to 0000000000470936
  DW_CFA_def_cfa_offset: 32
  DW_CFA_offset: r13 (r13) at cfa-32
  DW_CFA_advance_loc: 2 to 0000000000470938
  DW_CFA_def_cfa_offset: 40
  DW_CFA_offset: r12 (r12) at cfa-40
  DW_CFA_advance_loc: 1 to 0000000000470939
  DW_CFA_def_cfa_offset: 48
  DW_CFA_offset: r6 (rbp) at cfa-48
  DW_CFA_advance_loc: 1 to 000000000047093a
  DW_CFA_def_cfa_offset: 56
  DW_CFA_offset: r3 (rbx) at cfa-56
  DW_CFA_advance_loc: 4 to 000000000047093e
  DW_CFA_def_cfa_offset: 80
  DW_CFA_advance_loc1: 93 to 000000000047099b
  DW_CFA_remember_state
  DW_CFA_def_cfa_offset: 56
  DW_CFA_advance_loc: 1 to 000000000047099c
  DW_CFA_def_cfa_offset: 48
  DW_CFA_advance_loc: 1 to 000000000047099d
  DW_CFA_def_cfa_offset: 40
  DW_CFA_advance_loc: 2 to 000000000047099f
  DW_CFA_def_cfa_offset: 32
  DW_CFA_advance_loc: 2 to 00000000004709a1
  DW_CFA_def_cfa_offset: 24
  DW_CFA_advance_loc: 2 to 00000000004709a3
  DW_CFA_def_cfa_offset: 16
  DW_CFA_advance_loc: 2 to 00000000004709a5
  DW_CFA_def_cfa_offset: 8
  DW_CFA_advance_loc: 11 to 00000000004709b0
  DW_CFA_restore_state
  DW_CFA_nop
  DW_CFA_nop
  DW_CFA_nop
  DW_CFA_nop
  DW_CFA_nop
  DW_CFA_nop

00010f08 0000000000000054 00010e98 FDE cie=00010e98 pc=0000000000470bd0..0000000000470e4b
  DW_CFA_advance_loc: 2 to 0000000000470bd2
  DW_CFA_def_cfa_offset: 16
  DW_CFA_offset: r15 (r15) at cfa-16
  DW_CFA_advance_loc: 5 to 0000000000470bd7
  DW_CFA_def_cfa_offset: 24
  DW_CFA_offset: r14 (r14) at cfa-24
  DW_CFA_advance_loc: 5 to 0000000000470bdc
  DW_CFA_def_cfa_offset: 32
  DW_CFA_offset: r13 (r13) at cfa-32
  DW_CFA_advance_loc: 5 to 0000000000470be1
  DW_CFA_def_cfa_offset: 40
  DW_CFA_offset: r12 (r12) at cfa-40
  DW_CFA_advance_loc: 4 to 0000000000470be5
  DW_CFA_def_cfa_offset: 48
  DW_CFA_offset: r6 (rbp) at cfa-48
  DW_CFA_advance_loc: 4 to 0000000000470be9
  DW_CFA_def_cfa_offset: 56
  DW_CFA_offset: r3 (rbx) at cfa-56
  DW_CFA_advance_loc: 4 to 0000000000470bed
  DW_CFA_def_cfa_offset: 80
  DW_CFA_advance_loc2: 298 to 0000000000470d17
  DW_CFA_remember_state
  DW_CFA_def_cfa_offset: 56
  DW_CFA_advance_loc: 1 to 0000000000470d18
  DW_CFA_def_cfa_offset: 48
  DW_CFA_advance_loc: 1 to 0000000000470d19
  DW_CFA_def_cfa_offset: 40
  DW_CFA_advance_loc: 2 to 0000000000470d1b
  DW_CFA_def_cfa_offset: 32
  DW_CFA_advance_loc: 2 to 0000000000470d1d
  DW_CFA_def_cfa_offset: 24
  DW_CFA_advance_loc: 2 to 0000000000470d1f
  DW_CFA_def_cfa_offset: 16
  DW_CFA_advance_loc: 2 to 0000000000470d21
  DW_CFA_def_cfa_offset: 8
  DW_CFA_advance_loc: 15 to 0000000000470d30
  DW_CFA_restore_state
  DW_CFA_nop
  DW_CFA_nop
  DW_CFA_nop
  DW_CFA_nop
  DW_CFA_nop

00010f60 0000000000000054 00010e98 FDE cie=00010e98 pc=0000000000470e50..0000000000470fc2
  DW_CFA_advance_loc: 2 to 0000000000470e52
  DW_CFA_def_cfa_offset: 16
  DW_CFA_offset: r15 (r15) at cfa-16
  DW_CFA_advance_loc: 2 to 0000000000470e54
  DW_CFA_def_cfa_offset: 24
  DW_CFA_offset: r14 (r14) at cfa-24
  DW_CFA_advance_loc: 2 to 0000000000470e56
  DW_CFA_def_cfa_offset: 32
  DW_CFA_offset: r13 (r13) at cfa-32
  DW_CFA_advance_loc: 5 to 0000000000470e5b
  DW_CFA_def_cfa_offset: 40
  DW_CFA_offset: r12 (r12) at cfa-40
  DW_CFA_advance_loc: 4 to 0000000000470e5f
  DW_CFA_def_cfa_offset: 48
  DW_CFA_offset: r6 (rbp) at cfa-48
  DW_CFA_advance_loc: 55 to 0000000000470e96
  DW_CFA_remember_state
  DW_CFA_def_cfa_offset: 40
  DW_CFA_advance_loc: 7 to 0000000000470e9d
  DW_CFA_def_cfa_offset: 32
  DW_CFA_advance_loc: 2 to 0000000000470e9f
  DW_CFA_def_cfa_offset: 24
  DW_CFA_advance_loc: 2 to 0000000000470ea1
  DW_CFA_def_cfa_offset: 16
  DW_CFA_advance_loc: 2 to 0000000000470ea3
  DW_CFA_def_cfa_offset: 8
  DW_CFA_advance_loc: 13 to 0000000000470eb0
  DW_CFA_restore_state
  DW_CFA_advance_loc1: 88 to 0000000000470f08
  DW_CFA_remember_state
  DW_CFA_def_cfa_offset: 40
  DW_CFA_advance_loc: 5 to 0000000000470f0d
  DW_CFA_def_cfa_offset: 32
  DW_CFA_advance_loc: 2 to 0000000000470f0f
  DW_CFA_def_cfa_offset: 24
  DW_CFA_advance_loc: 2 to 0000000000470f11
  DW_CFA_def_cfa_offset: 16
  DW_CFA_advance_loc: 2 to 0000000000470f13
  DW_CFA_def_cfa_offset: 8
  DW_CFA_advance_loc: 13 to 0000000000470f20
  DW_CFA_restore_state
  DW_CFA_nop
  DW_CFA_nop

00010fb8 0000000000000054 00010e98 FDE cie=00010e98 pc=0000000000470fd0..000000000047113a
  DW_CFA_advance_loc: 2 to 0000000000470fd2
  DW_CFA_def_cfa_offset: 16
  DW_CFA_offset: r15 (r15) at cfa-16
  DW_CFA_advance_loc: 2 to 0000000000470fd4
  DW_CFA_def_cfa_offset: 24
  DW_CFA_offset: r14 (r14) at cfa-24
  DW_CFA_advance_loc: 2 to 0000000000470fd6
  DW_CFA_def_cfa_offset: 32
  DW_CFA_offset: r13 (r13) at cfa-32
  DW_CFA_advance_loc: 5 to 0000000000470fdb
  DW_CFA_def_cfa_offset: 40
  DW_CFA_offset: r12 (r12) at cfa-40
  DW_CFA_advance_loc: 4 to 0000000000470fdf
  DW_CFA_def_cfa_offset: 48
  DW_CFA_offset: r6 (rbp) at cfa-48
  DW_CFA_advance_loc: 59 to 000000000047101a
  DW_CFA_remember_state
  DW_CFA_def_cfa_offset: 40
  DW_CFA_advance_loc: 7 to 0000000000471021
  DW_CFA_def_cfa_offset: 32
  DW_CFA_advance_loc: 2 to 0000000000471023
  DW_CFA_def_cfa_offset: 24
  DW_CFA_advance_loc: 2 to 0000000000471025
  DW_CFA_def_cfa_offset: 16
  DW_CFA_advance_loc: 2 to 0000000000471027
  DW_CFA_def_cfa_offset: 8
  DW_CFA_advance_loc: 9 to 0000000000471030
  DW_CFA_restore_state
  DW_CFA_advance_loc1: 85 to 0000000000471085
  DW_CFA_remember_state
  DW_CFA_def_cfa_offset: 40
  DW_CFA_advance_loc: 5 to 000000000047108a
  DW_CFA_def_cfa_offset: 32
  DW_CFA_advance_loc: 2 to 000000000047108c
  DW_CFA_def_cfa_offset: 24
  DW_CFA_advance_loc: 2 to 000000000047108e
  DW_CFA_def_cfa_offset: 16
  DW_CFA_advance_loc: 2 to 0000000000471090
  DW_CFA_def_cfa_offset: 8
  DW_CFA_advance_loc: 8 to 0000000000471098
  DW_CFA_restore_state
  DW_CFA_nop
  DW_CFA_nop

00011010 0000000000000014 ffffffff CIE
  Version:               1
  Augmentation:          ""
  Code alignment factor: 1
  Data alignment factor: -8
  Return address column: 16

  DW_CFA_def_cfa: r7 (rsp) ofs 8
  DW_CFA_offset: r16 (rip) at cfa-8
  DW_CFA_nop
  DW_CFA_nop
  DW_CFA_nop
  DW_CFA_nop
  DW_CFA_nop
  DW_CFA_nop

00011028 000000000000007c 00011010 FDE cie=00011010 pc=0000000000471140..00000000004713e2
  DW_CFA_advance_loc: 11 to 000000000047114b
  DW_CFA_def_cfa_offset: 16
  DW_CFA_offset: r15 (r15) at cfa-16
  DW_CFA_advance_loc: 2 to 000000000047114d
  DW_CFA_def_cfa_offset: 24
  DW_CFA_offset: r14 (r14) at cfa-24
  DW_CFA_advance_loc: 2 to 000000000047114f
  DW_CFA_def_cfa_offset: 32
  DW_CFA_offset: r13 (r13) at cfa-32
  DW_CFA_advance_loc: 2 to 0000000000471151
  DW_CFA_def_cfa_offset: 40
  DW_CFA_offset: r12 (r12) at cfa-40
  DW_CFA_advance_loc: 1 to 0000000000471152
  DW_CFA_def_cfa_offset: 48
  DW_CFA_offset: r6 (rbp) at cfa-48
  DW_CFA_advance_loc: 1 to 0000000000471153
  DW_CFA_def_cfa_offset: 56
  DW_CFA_offset: r3 (rbx) at cfa-56
  DW_CFA_advance_loc: 12 to 000000000047115f
  DW_CFA_def_cfa_offset: 64
  DW_CFA_advance_loc2: 509 to 000000000047135c
  DW_CFA_remember_state
  DW_CFA_def_cfa_offset: 56
  DW_CFA_advance_loc: 4 to 0000000000471360
  DW_CFA_def_cfa_offset: 48
  DW_CFA_advance_loc: 1 to 0000000000471361
  DW_CFA_def_cfa_offset: 40
  DW_CFA_advance_loc: 2 to 0000000000471363
  DW_CFA_def_cfa_offset: 32
  DW_CFA_advance_loc: 2 to 0000000000471365
  DW_CFA_def_cfa_offset: 24
  DW_CFA_advance_loc: 2 to 0000000000471367
  DW_CFA_def_cfa_offset: 16
  DW_CFA_advance_loc: 2 to 0000000000471369
  DW_CFA_def_cfa_offset: 8
  DW_CFA_advance_loc: 7 to 0000000000471370
  DW_CFA_restore_state
  DW_CFA_advance_loc: 9 to 0000000000471379
  DW_CFA_remember_state
  DW_CFA_def_cfa_offset: 56
  DW_CFA_advance_loc: 1 to 000000000047137a
  DW_CFA_restore: r3 (rbx)
  DW_CFA_def_cfa_offset: 48
  DW_CFA_advance_loc: 1 to 000000000047137b
  DW_CFA_restore: r6 (rbp)
  DW_CFA_def_cfa_offset: 40
  DW_CFA_advance_loc: 2 to 000000000047137d
  DW_CFA_restore: r12 (r12)
  DW_CFA_def_cfa_offset: 32
  DW_CFA_advance_loc: 2 to 000000000047137f
  DW_CFA_restore: r13 (r13)
  DW_CFA_def_cfa_offset: 24
  DW_CFA_advance_loc: 2 to 0000000000471381
  DW_CFA_restore: r14 (r14)
  DW_CFA_def_cfa_offset: 16
  DW_CFA_advance_loc: 2 to 0000000000471383
  DW_CFA_restore: r15 (r15)
  DW_CFA_def_cfa_offset: 8
  DW_CFA_advance_loc: 13 to 0000000000471390
  DW_CFA_restore_state
  DW_CFA_advance_loc1: 72 to 00000000004713d8
  DW_CFA_def_cfa_offset: 8
  DW_CFA_restore: r3 (rbx)
  DW_CFA_restore: r6 (rbp)
  DW_CFA_restore: r12 (r12)
  DW_CFA_restore: r13 (r13)
  DW_CFA_restore: r14 (r14)
  DW_CFA_restore: r15 (r15)
  DW_CFA_nop
  DW_CFA_nop
  DW_CFA_nop
  DW_CFA_nop
  DW_CFA_nop

000110a8 000000000000006c 00011010 FDE cie=00011010 pc=00000000004713f0..00000000004716d0
  DW_CFA_advance_loc: 2 to 00000000004713f2
  DW_CFA_def_cfa_offset: 16
  DW_CFA_offset: r15 (r15) at cfa-16
  DW_CFA_advance_loc: 2 to 00000000004713f4
  DW_CFA_def_cfa_offset: 24
  DW_CFA_offset: r14 (r14) at cfa-24
  DW_CFA_advance_loc: 2 to 00000000004713f6
  DW_CFA_def_cfa_offset: 32
  DW_CFA_offset: r13 (r13) at cfa-32
  DW_CFA_advance_loc: 2 to 00000000004713f8
  DW_CFA_def_cfa_offset: 40
  DW_CFA_offset: r12 (r12) at cfa-40
  DW_CFA_advance_loc: 1 to 00000000004713f9
  DW_CFA_def_cfa_offset: 48
  DW_CFA_offset: r6 (rbp) at cfa-48
  DW_CFA_advance_loc: 4 to 00000000004713fd
  DW_CFA_def_cfa_offset: 56
  DW_CFA_offset: r3 (rbx) at cfa-56
  DW_CFA_advance_loc: 7 to 0000000000471404
  DW_CFA_def_cfa_offset: 64
  DW_CFA_advance_loc2: 575 to 0000000000471643
  DW_CFA_remember_state
  DW_CFA_def_cfa_offset: 56
  DW_CFA_advance_loc: 4 to 0000000000471647
  DW_CFA_def_cfa_offset: 48
  DW_CFA_advance_loc: 1 to 0000000000471648
  DW_CFA_def_cfa_offset: 40
  DW_CFA_advance_loc: 2 to 000000000047164a
  DW_CFA_def_cfa_offset: 32
  DW_CFA_advance_loc: 2 to 000000000047164c
  DW_CFA_def_cfa_offset: 24
  DW_CFA_advance_loc: 2 to 000000000047164e
  DW_CFA_def_cfa_offset: 16
  DW_CFA_advance_loc: 2 to 0000000000471650
  DW_CFA_def_cfa_offset: 8
  DW_CFA_advance_loc: 8 to 0000000000471658
  DW_CFA_restore_state
  DW_CFA_advance_loc: 9 to 0000000000471661
  DW_CFA_remember_state
  DW_CFA_def_cfa_offset: 56
  DW_CFA_advance_loc: 1 to 0000000000471662
  DW_CFA_def_cfa_offset: 48
  DW_CFA_advance_loc: 1 to 0000000000471663
  DW_CFA_def_cfa_offset: 40
  DW_CFA_advance_loc: 2 to 0000000000471665
  DW_CFA_def_cfa_offset: 32
  DW_CFA_advance_loc: 2 to 0000000000471667
  DW_CFA_def_cfa_offset: 24
  DW_CFA_advance_loc: 2 to 0000000000471669
  DW_CFA_def_cfa_offset: 16
  DW_CFA_advance_loc: 2 to 000000000047166b
  DW_CFA_def_cfa_offset: 8
  DW_CFA_advance_loc: 5 to 0000000000471670
  DW_CFA_restore_state
  DW_CFA_nop
  DW_CFA_nop
  DW_CFA_nop
  DW_CFA_nop
  DW_CFA_nop

00011118 0000000000000014 ffffffff CIE
  Version:               1
  Augmentation:          ""
  Code alignment factor: 1
  Data alignment factor: -8
  Return address column: 16

  DW_CFA_def_cfa: r7 (rsp) ofs 8
  DW_CFA_offset: r16 (rip) at cfa-8
  DW_CFA_nop
  DW_CFA_nop
  DW_CFA_nop
  DW_CFA_nop
  DW_CFA_nop
  DW_CFA_nop

00011130 0000000000000034 00011118 FDE cie=00011118 pc=00000000004716d0..000000000047172c
  DW_CFA_advance_loc: 22 to 00000000004716e6
  DW_CFA_def_cfa_offset: 16
  DW_CFA_offset: r12 (r12) at cfa-16
  DW_CFA_advance_loc: 8 to 00000000004716ee
  DW_CFA_def_cfa_offset: 24
  DW_CFA_offset: r6 (rbp) at cfa-24
  DW_CFA_advance_loc: 9 to 00000000004716f7
  DW_CFA_def_cfa_offset: 32
  DW_CFA_offset: r3 (rbx) at cfa-32
  DW_CFA_advance_loc: 34 to 0000000000471719
  DW_CFA_restore: r3 (rbx)
  DW_CFA_def_cfa_offset: 24
  DW_CFA_advance_loc: 4 to 000000000047171d
  DW_CFA_restore: r6 (rbp)
  DW_CFA_def_cfa_offset: 16
  DW_CFA_advance_loc: 9 to 0000000000471726
  DW_CFA_restore: r12 (r12)
  DW_CFA_def_cfa_offset: 8
  DW_CFA_nop
  DW_CFA_nop
  DW_CFA_nop
  DW_CFA_nop
  DW_CFA_nop

00011168 0000000000000014 ffffffff CIE
  Version:               1
  Augmentation:          ""
  Code alignment factor: 1
  Data alignment factor: -8
  Return address column: 16

  DW_CFA_def_cfa: r7 (rsp) ofs 8
  DW_CFA_offset: r16 (rip) at cfa-8
  DW_CFA_nop
  DW_CFA_nop
  DW_CFA_nop
  DW_CFA_nop
  DW_CFA_nop
  DW_CFA_nop

00011180 0000000000000014 00011168 FDE cie=00011168 pc=0000000000471730..000000000047177b

00011198 0000000000000014 00011168 FDE cie=00011168 pc=0000000000471780..0000000000471811

000111b0 0000000000000014 00011168 FDE cie=00011168 pc=0000000000471820..00000000004718a9

000111c8 0000000000000014 ffffffff CIE
  Version:               1
  Augmentation:          ""
  Code alignment factor: 1
  Data alignment factor: -8
  Return address column: 16

  DW_CFA_def_cfa: r7 (rsp) ofs 8
  DW_CFA_offset: r16 (rip) at cfa-8
  DW_CFA_nop
  DW_CFA_nop
  DW_CFA_nop
  DW_CFA_nop
  DW_CFA_nop
  DW_CFA_nop

000111e0 000000000000002c 000111c8 FDE cie=000111c8 pc=00000000004718b0..000000000047195a
  DW_CFA_advance_loc: 1 to 00000000004718b1
  DW_CFA_def_cfa_offset: 16
  DW_CFA_offset: r6 (rbp) at cfa-16
  DW_CFA_advance_loc: 4 to 00000000004718b5
  DW_CFA_def_cfa_offset: 48
  DW_CFA_advance_loc1: 150 to 000000000047194b
  DW_CFA_remember_state
  DW_CFA_def_cfa_offset: 16
  DW_CFA_advance_loc: 4 to 000000000047194f
  DW_CFA_def_cfa_offset: 8
  DW_CFA_advance_loc: 1 to 0000000000471950
  DW_CFA_restore_state
  DW_CFA_nop
  DW_CFA_nop
  DW_CFA_nop
  DW_CFA_nop
  DW_CFA_nop
  DW_CFA_nop

00011210 000000000000002c 000111c8 FDE cie=000111c8 pc=0000000000471960..0000000000471a59
  DW_CFA_advance_loc: 1 to 0000000000471961
  DW_CFA_def_cfa_offset: 16
  DW_CFA_offset: r6 (rbp) at cfa-16
  DW_CFA_advance_loc: 4 to 0000000000471965
  DW_CFA_def_cfa_offset: 48
  DW_CFA_advance_loc1: 211 to 0000000000471a38
  DW_CFA_remember_state
  DW_CFA_def_cfa_offset: 16
  DW_CFA_advance_loc: 4 to 0000000000471a3c
  DW_CFA_def_cfa_offset: 8
  DW_CFA_advance_loc: 4 to 0000000000471a40
  DW_CFA_restore_state
  DW_CFA_nop
  DW_CFA_nop
  DW_CFA_nop
  DW_CFA_nop
  DW_CFA_nop
  DW_CFA_nop

00011240 0000000000000014 ffffffff CIE
  Version:               1
  Augmentation:          ""
  Code alignment factor: 1
  Data alignment factor: -8
  Return address column: 16

  DW_CFA_def_cfa: r7 (rsp) ofs 8
  DW_CFA_offset: r16 (rip) at cfa-8
  DW_CFA_nop
  DW_CFA_nop
  DW_CFA_nop
  DW_CFA_nop
  DW_CFA_nop
  DW_CFA_nop

00011258 0000000000000054 00011240 FDE cie=00011240 pc=0000000000471a60..0000000000471b0c
  DW_CFA_advance_loc: 2 to 0000000000471a62
  DW_CFA_def_cfa_offset: 16
  DW_CFA_offset: r14 (r14) at cfa-16
  DW_CFA_advance_loc: 7 to 0000000000471a69
  DW_CFA_def_cfa_offset: 24
  DW_CFA_offset: r13 (r13) at cfa-24
  DW_CFA_advance_loc: 2 to 0000000000471a6b
  DW_CFA_def_cfa_offset: 32
  DW_CFA_offset: r12 (r12) at cfa-32
  DW_CFA_advance_loc: 4 to 0000000000471a6f
  DW_CFA_def_cfa_offset: 40
  DW_CFA_offset: r6 (rbp) at cfa-40
  DW_CFA_advance_loc: 9 to 0000000000471a78
  DW_CFA_def_cfa_offset: 48
  DW_CFA_offset: r3 (rbx) at cfa-48
  DW_CFA_advance_loc1: 91 to 0000000000471ad3
  DW_CFA_remember_state
  DW_CFA_def_cfa_offset: 40
  DW_CFA_advance_loc: 4 to 0000000000471ad7
  DW_CFA_def_cfa_offset: 32
  DW_CFA_advance_loc: 2 to 0000000000471ad9
  DW_CFA_def_cfa_offset: 24
  DW_CFA_advance_loc: 2 to 0000000000471adb
  DW_CFA_def_cfa_offset: 16
  DW_CFA_advance_loc: 2 to 0000000000471add
  DW_CFA_def_cfa_offset: 8
  DW_CFA_advance_loc: 3 to 0000000000471ae0
  DW_CFA_restore_state
  DW_CFA_advance_loc: 33 to 0000000000471b01
  DW_CFA_def_cfa_offset: 40
  DW_CFA_advance_loc: 1 to 0000000000471b02
  DW_CFA_def_cfa_offset: 32
  DW_CFA_advance_loc: 5 to 0000000000471b07
  DW_CFA_def_cfa_offset: 24
  DW_CFA_advance_loc: 2 to 0000000000471b09
  DW_CFA_def_cfa_offset: 16
  DW_CFA_advance_loc: 2 to 0000000000471b0b
  DW_CFA_def_cfa_offset: 8
  DW_CFA_nop
  DW_CFA_nop
  DW_CFA_nop
  DW_CFA_nop
  DW_CFA_nop

000112b0 0000000000000054 00011240 FDE cie=00011240 pc=0000000000471b10..0000000000471b6e
  DW_CFA_advance_loc: 7 to 0000000000471b17
  DW_CFA_def_cfa_offset: 16
  DW_CFA_offset: r14 (r14) at cfa-16
  DW_CFA_advance_loc: 5 to 0000000000471b1c
  DW_CFA_def_cfa_offset: 24
  DW_CFA_offset: r13 (r13) at cfa-24
  DW_CFA_advance_loc: 5 to 0000000000471b21
  DW_CFA_def_cfa_offset: 32
  DW_CFA_offset: r12 (r12) at cfa-32
  DW_CFA_advance_loc: 4 to 0000000000471b25
  DW_CFA_def_cfa_offset: 40
  DW_CFA_offset: r6 (rbp) at cfa-40
  DW_CFA_advance_loc: 4 to 0000000000471b29
  DW_CFA_def_cfa_offset: 48
  DW_CFA_offset: r3 (rbx) at cfa-48
  DW_CFA_advance_loc: 39 to 0000000000471b50
  DW_CFA_remember_state
  DW_CFA_def_cfa_offset: 40
  DW_CFA_advance_loc: 6 to 0000000000471b56
  DW_CFA_def_cfa_offset: 32
  DW_CFA_advance_loc: 2 to 0000000000471b58
  DW_CFA_def_cfa_offset: 24
  DW_CFA_advance_loc: 2 to 0000000000471b5a
  DW_CFA_def_cfa_offset: 16
  DW_CFA_advance_loc: 2 to 0000000000471b5c
  DW_CFA_def_cfa_offset: 8
  DW_CFA_advance_loc: 4 to 0000000000471b60
  DW_CFA_restore_state
  DW_CFA_advance_loc: 1 to 0000000000471b61
  DW_CFA_def_cfa_offset: 40
  DW_CFA_advance_loc: 3 to 0000000000471b64
  DW_CFA_def_cfa_offset: 32
  DW_CFA_advance_loc: 2 to 0000000000471b66
  DW_CFA_def_cfa_offset: 24
  DW_CFA_advance_loc: 2 to 0000000000471b68
  DW_CFA_def_cfa_offset: 16
  DW_CFA_advance_loc: 2 to 0000000000471b6a
  DW_CFA_def_cfa_offset: 8
  DW_CFA_advance_loc: 1 to 0000000000471b6b
  DW_CFA_restore: r3 (rbx)
  DW_CFA_restore: r6 (rbp)
  DW_CFA_restore: r12 (r12)
  DW_CFA_restore: r13 (r13)
  DW_CFA_restore: r14 (r14)

00011308 000000000000001c 00011240 FDE cie=00011240 pc=0000000000471b70..0000000000471b8a
  DW_CFA_advance_loc: 1 to 0000000000471b71
  DW_CFA_def_cfa_offset: 16
  DW_CFA_offset: r3 (rbx) at cfa-16
  DW_CFA_advance_loc: 24 to 0000000000471b89
  DW_CFA_def_cfa_offset: 8

00011328 0000000000000014 ffffffff CIE
  Version:               1
  Augmentation:          ""
  Code alignment factor: 1
  Data alignment factor: -8
  Return address column: 16

  DW_CFA_def_cfa: r7 (rsp) ofs 8
  DW_CFA_offset: r16 (rip) at cfa-8
  DW_CFA_nop
  DW_CFA_nop
  DW_CFA_nop
  DW_CFA_nop
  DW_CFA_nop
  DW_CFA_nop

00011340 0000000000000024 00011328 FDE cie=00011328 pc=0000000000471b90..0000000000471bc9
  DW_CFA_advance_loc: 1 to 0000000000471b91
  DW_CFA_def_cfa_offset: 16
  DW_CFA_offset: r6 (rbp) at cfa-16
  DW_CFA_advance_loc: 24 to 0000000000471ba9
  DW_CFA_remember_state
  DW_CFA_def_cfa_offset: 8
  DW_CFA_advance_loc: 15 to 0000000000471bb8
  DW_CFA_restore_state
  DW_CFA_advance_loc: 6 to 0000000000471bbe
  DW_CFA_def_cfa_offset: 8
  DW_CFA_nop
  DW_CFA_nop

00011368 0000000000000014 ffffffff CIE
  Version:               1
  Augmentation:          ""
  Code alignment factor: 1
  Data alignment factor: -8
  Return address column: 16

  DW_CFA_def_cfa: r7 (rsp) ofs 8
  DW_CFA_offset: r16 (rip) at cfa-8
  DW_CFA_nop
  DW_CFA_nop
  DW_CFA_nop
  DW_CFA_nop
  DW_CFA_nop
  DW_CFA_nop

00011380 000000000000004c 00011368 FDE cie=00011368 pc=0000000000471bd0..0000000000471c66
  DW_CFA_advance_loc: 2 to 0000000000471bd2
  DW_CFA_def_cfa_offset: 16
  DW_CFA_offset: r14 (r14) at cfa-16
  DW_CFA_advance_loc: 5 to 0000000000471bd7
  DW_CFA_def_cfa_offset: 24
  DW_CFA_offset: r13 (r13) at cfa-24
  DW_CFA_advance_loc: 5 to 0000000000471bdc
  DW_CFA_def_cfa_offset: 32
  DW_CFA_offset: r12 (r12) at cfa-32
  DW_CFA_advance_loc: 4 to 0000000000471be0
  DW_CFA_def_cfa_offset: 40
  DW_CFA_offset: r6 (rbp) at cfa-40
  DW_CFA_advance_loc: 4 to 0000000000471be4
  DW_CFA_def_cfa_offset: 48
  DW_CFA_offset: r3 (rbx) at cfa-48
  DW_CFA_advance_loc: 7 to 0000000000471beb
  DW_CFA_def_cfa_offset: 80
  DW_CFA_advance_loc1: 109 to 0000000000471c58
  DW_CFA_remember_state
  DW_CFA_def_cfa_offset: 48
  DW_CFA_advance_loc: 1 to 0000000000471c59
  DW_CFA_def_cfa_offset: 40
  DW_CFA_advance_loc: 1 to 0000000000471c5a
  DW_CFA_def_cfa_offset: 32
  DW_CFA_advance_loc: 2 to 0000000000471c5c
  DW_CFA_def_cfa_offset: 24
  DW_CFA_advance_loc: 2 to 0000000000471c5e
  DW_CFA_def_cfa_offset: 16
  DW_CFA_advance_loc: 2 to 0000000000471c60
  DW_CFA_def_cfa_offset: 8
  DW_CFA_advance_loc: 1 to 0000000000471c61
  DW_CFA_restore_state
  DW_CFA_nop
  DW_CFA_nop
  DW_CFA_nop
  DW_CFA_nop
  DW_CFA_nop
  DW_CFA_nop

000113d0 0000000000000014 ffffffff CIE
  Version:               1
  Augmentation:          ""
  Code alignment factor: 1
  Data alignment factor: -8
  Return address column: 16

  DW_CFA_def_cfa: r7 (rsp) ofs 8
  DW_CFA_offset: r16 (rip) at cfa-8
  DW_CFA_nop
  DW_CFA_nop
  DW_CFA_nop
  DW_CFA_nop
  DW_CFA_nop
  DW_CFA_nop

000113e8 0000000000000014 000113d0 FDE cie=000113d0 pc=0000000000471c70..0000000000471c85

00011400 0000000000000014 ffffffff CIE
  Version:               1
  Augmentation:          ""
  Code alignment factor: 1
  Data alignment factor: -8
  Return address column: 16

  DW_CFA_def_cfa: r7 (rsp) ofs 8
  DW_CFA_offset: r16 (rip) at cfa-8
  DW_CFA_nop
  DW_CFA_nop
  DW_CFA_nop
  DW_CFA_nop
  DW_CFA_nop
  DW_CFA_nop

00011418 0000000000000014 00011400 FDE cie=00011400 pc=0000000000471c90..0000000000471ca5

00011430 0000000000000014 ffffffff CIE
  Version:               1
  Augmentation:          ""
  Code alignment factor: 1
  Data alignment factor: -8
  Return address column: 16

  DW_CFA_def_cfa: r7 (rsp) ofs 8
  DW_CFA_offset: r16 (rip) at cfa-8
  DW_CFA_nop
  DW_CFA_nop
  DW_CFA_nop
  DW_CFA_nop
  DW_CFA_nop
  DW_CFA_nop

00011448 0000000000000014 00011430 FDE cie=00011430 pc=0000000000471cb0..0000000000471cc5

00011460 0000000000000014 ffffffff CIE
  Version:               1
  Augmentation:          ""
  Code alignment factor: 1
  Data alignment factor: -8
  Return address column: 16

  DW_CFA_def_cfa: r7 (rsp) ofs 8
  DW_CFA_offset: r16 (rip) at cfa-8
  DW_CFA_nop
  DW_CFA_nop
  DW_CFA_nop
  DW_CFA_nop
  DW_CFA_nop
  DW_CFA_nop

00011478 0000000000000014 00011460 FDE cie=00011460 pc=0000000000471cd0..0000000000471ce5

00011490 0000000000000014 00011460 FDE cie=00011460 pc=0000000000471cf0..0000000000471d09

000114a8 0000000000000014 00011460 FDE cie=00011460 pc=0000000000471d10..0000000000471d25

000114c0 0000000000000014 ffffffff CIE
  Version:               1
  Augmentation:          ""
  Code alignment factor: 1
  Data alignment factor: -8
  Return address column: 16

  DW_CFA_def_cfa: r7 (rsp) ofs 8
  DW_CFA_offset: r16 (rip) at cfa-8
  DW_CFA_nop
  DW_CFA_nop
  DW_CFA_nop
  DW_CFA_nop
  DW_CFA_nop
  DW_CFA_nop

000114d8 0000000000000014 000114c0 FDE cie=000114c0 pc=0000000000471d30..0000000000471d45

000114f0 0000000000000014 ffffffff CIE
  Version:               1
  Augmentation:          ""
  Code alignment factor: 1
  Data alignment factor: -8
  Return address column: 16

  DW_CFA_def_cfa: r7 (rsp) ofs 8
  DW_CFA_offset: r16 (rip) at cfa-8
  DW_CFA_nop
  DW_CFA_nop
  DW_CFA_nop
  DW_CFA_nop
  DW_CFA_nop
  DW_CFA_nop

00011508 0000000000000014 000114f0 FDE cie=000114f0 pc=0000000000471d50..0000000000471d65

00011520 0000000000000014 ffffffff CIE
  Version:               1
  Augmentation:          ""
  Code alignment factor: 1
  Data alignment factor: -8
  Return address column: 16

  DW_CFA_def_cfa: r7 (rsp) ofs 8
  DW_CFA_offset: r16 (rip) at cfa-8
  DW_CFA_nop
  DW_CFA_nop
  DW_CFA_nop
  DW_CFA_nop
  DW_CFA_nop
  DW_CFA_nop

00011538 000000000000004c 00011520 FDE cie=00011520 pc=0000000000471d70..0000000000471e4c
  DW_CFA_advance_loc: 2 to 0000000000471d72
  DW_CFA_def_cfa_offset: 16
  DW_CFA_offset: r14 (r14) at cfa-16
  DW_CFA_advance_loc: 5 to 0000000000471d77
  DW_CFA_def_cfa_offset: 24
  DW_CFA_offset: r13 (r13) at cfa-24
  DW_CFA_advance_loc: 5 to 0000000000471d7c
  DW_CFA_def_cfa_offset: 32
  DW_CFA_offset: r12 (r12) at cfa-32
  DW_CFA_advance_loc: 1 to 0000000000471d7d
  DW_CFA_def_cfa_offset: 40
  DW_CFA_offset: r6 (rbp) at cfa-40
  DW_CFA_advance_loc: 5 to 0000000000471d82
  DW_CFA_def_cfa_offset: 48
  DW_CFA_offset: r3 (rbx) at cfa-48
  DW_CFA_advance_loc: 6 to 0000000000471d88
  DW_CFA_def_cfa_offset: 80
  DW_CFA_advance_loc1: 110 to 0000000000471df6
  DW_CFA_remember_state
  DW_CFA_def_cfa_offset: 48
  DW_CFA_advance_loc: 4 to 0000000000471dfa
  DW_CFA_def_cfa_offset: 40
  DW_CFA_advance_loc: 1 to 0000000000471dfb
  DW_CFA_def_cfa_offset: 32
  DW_CFA_advance_loc: 2 to 0000000000471dfd
  DW_CFA_def_cfa_offset: 24
  DW_CFA_advance_loc: 2 to 0000000000471dff
  DW_CFA_def_cfa_offset: 16
  DW_CFA_advance_loc: 2 to 0000000000471e01
  DW_CFA_def_cfa_offset: 8
  DW_CFA_advance_loc: 7 to 0000000000471e08
  DW_CFA_restore_state
  DW_CFA_nop
  DW_CFA_nop
  DW_CFA_nop
  DW_CFA_nop
  DW_CFA_nop
  DW_CFA_nop

00011588 0000000000000014 ffffffff CIE
  Version:               1
  Augmentation:          ""
  Code alignment factor: 1
  Data alignment factor: -8
  Return address column: 16

  DW_CFA_def_cfa: r7 (rsp) ofs 8
  DW_CFA_offset: r16 (rip) at cfa-8
  DW_CFA_nop
  DW_CFA_nop
  DW_CFA_nop
  DW_CFA_nop
  DW_CFA_nop
  DW_CFA_nop

000115a0 0000000000000044 00011588 FDE cie=00011588 pc=0000000000471e50..0000000000471ead
  DW_CFA_advance_loc: 2 to 0000000000471e52
  DW_CFA_def_cfa_offset: 16
  DW_CFA_offset: r12 (r12) at cfa-16
  DW_CFA_advance_loc: 4 to 0000000000471e56
  DW_CFA_def_cfa_offset: 24
  DW_CFA_offset: r6 (rbp) at cfa-24
  DW_CFA_advance_loc: 6 to 0000000000471e5c
  DW_CFA_def_cfa_offset: 32
  DW_CFA_advance_loc: 21 to 0000000000471e71
  DW_CFA_remember_state
  DW_CFA_def_cfa_offset: 24
  DW_CFA_advance_loc: 6 to 0000000000471e77
  DW_CFA_def_cfa_offset: 16
  DW_CFA_advance_loc: 2 to 0000000000471e79
  DW_CFA_def_cfa_offset: 8
  DW_CFA_advance_loc: 7 to 0000000000471e80
  DW_CFA_restore_state
  DW_CFA_advance_loc: 13 to 0000000000471e8d
  DW_CFA_remember_state
  DW_CFA_def_cfa_offset: 24
  DW_CFA_advance_loc: 6 to 0000000000471e93
  DW_CFA_def_cfa_offset: 16
  DW_CFA_advance_loc: 2 to 0000000000471e95
  DW_CFA_def_cfa_offset: 8
  DW_CFA_advance_loc: 11 to 0000000000471ea0
  DW_CFA_restore_state
  DW_CFA_advance_loc: 4 to 0000000000471ea4
  DW_CFA_def_cfa_offset: 24
  DW_CFA_advance_loc: 6 to 0000000000471eaa
  DW_CFA_def_cfa_offset: 16
  DW_CFA_advance_loc: 2 to 0000000000471eac
  DW_CFA_def_cfa_offset: 8
  DW_CFA_nop
  DW_CFA_nop

000115e8 0000000000000014 ffffffff CIE
  Version:               1
  Augmentation:          ""
  Code alignment factor: 1
  Data alignment factor: -8
  Return address column: 16

  DW_CFA_def_cfa: r7 (rsp) ofs 8
  DW_CFA_offset: r16 (rip) at cfa-8
  DW_CFA_nop
  DW_CFA_nop
  DW_CFA_nop
  DW_CFA_nop
  DW_CFA_nop
  DW_CFA_nop

00011600 0000000000000044 000115e8 FDE cie=000115e8 pc=0000000000471eb0..0000000000471f11
  DW_CFA_advance_loc: 2 to 0000000000471eb2
  DW_CFA_def_cfa_offset: 16
  DW_CFA_offset: r12 (r12) at cfa-16
  DW_CFA_advance_loc: 4 to 0000000000471eb6
  DW_CFA_def_cfa_offset: 24
  DW_CFA_offset: r6 (rbp) at cfa-24
  DW_CFA_advance_loc: 6 to 0000000000471ebc
  DW_CFA_def_cfa_offset: 32
  DW_CFA_advance_loc: 21 to 0000000000471ed1
  DW_CFA_remember_state
  DW_CFA_def_cfa_offset: 24
  DW_CFA_advance_loc: 6 to 0000000000471ed7
  DW_CFA_def_cfa_offset: 16
  DW_CFA_advance_loc: 2 to 0000000000471ed9
  DW_CFA_def_cfa_offset: 8
  DW_CFA_advance_loc: 7 to 0000000000471ee0
  DW_CFA_restore_state
  DW_CFA_advance_loc: 13 to 0000000000471eed
  DW_CFA_remember_state
  DW_CFA_def_cfa_offset: 24
  DW_CFA_advance_loc: 6 to 0000000000471ef3
  DW_CFA_def_cfa_offset: 16
  DW_CFA_advance_loc: 2 to 0000000000471ef5
  DW_CFA_def_cfa_offset: 8
  DW_CFA_advance_loc: 11 to 0000000000471f00
  DW_CFA_restore_state
  DW_CFA_advance_loc: 4 to 0000000000471f04
  DW_CFA_def_cfa_offset: 24
  DW_CFA_advance_loc: 6 to 0000000000471f0a
  DW_CFA_def_cfa_offset: 16
  DW_CFA_advance_loc: 2 to 0000000000471f0c
  DW_CFA_def_cfa_offset: 8
  DW_CFA_nop
  DW_CFA_nop

00011648 0000000000000014 ffffffff CIE
  Version:               1
  Augmentation:          ""
  Code alignment factor: 1
  Data alignment factor: -8
  Return address column: 16

  DW_CFA_def_cfa: r7 (rsp) ofs 8
  DW_CFA_offset: r16 (rip) at cfa-8
  DW_CFA_nop
  DW_CFA_nop
  DW_CFA_nop
  DW_CFA_nop
  DW_CFA_nop
  DW_CFA_nop

00011660 0000000000000014 00011648 FDE cie=00011648 pc=0000000000471f20..0000000000471f35

00011678 000000000000003c 00011648 FDE cie=00011648 pc=0000000000471f40..0000000000471f7c
  DW_CFA_advance_loc: 2 to 0000000000471f42
  DW_CFA_def_cfa_offset: 16
  DW_CFA_offset: r12 (r12) at cfa-16
  DW_CFA_advance_loc: 4 to 0000000000471f46
  DW_CFA_def_cfa_offset: 24
  DW_CFA_offset: r6 (rbp) at cfa-24
  DW_CFA_advance_loc: 7 to 0000000000471f4d
  DW_CFA_def_cfa_offset: 32
  DW_CFA_advance_loc: 30 to 0000000000471f6b
  DW_CFA_remember_state
  DW_CFA_def_cfa_offset: 24
  DW_CFA_advance_loc: 1 to 0000000000471f6c
  DW_CFA_def_cfa_offset: 16
  DW_CFA_advance_loc: 2 to 0000000000471f6e
  DW_CFA_def_cfa_offset: 8
  DW_CFA_advance_loc: 2 to 0000000000471f70
  DW_CFA_restore_state
  DW_CFA_advance_loc: 4 to 0000000000471f74
  DW_CFA_def_cfa_offset: 24
  DW_CFA_advance_loc: 1 to 0000000000471f75
  DW_CFA_def_cfa_offset: 16
  DW_CFA_advance_loc: 2 to 0000000000471f77
  DW_CFA_def_cfa_offset: 8
  DW_CFA_nop
  DW_CFA_nop
  DW_CFA_nop
  DW_CFA_nop
  DW_CFA_nop
  DW_CFA_nop

000116b8 0000000000000014 ffffffff CIE
  Version:               1
  Augmentation:          ""
  Code alignment factor: 1
  Data alignment factor: -8
  Return address column: 16

  DW_CFA_def_cfa: r7 (rsp) ofs 8
  DW_CFA_offset: r16 (rip) at cfa-8
  DW_CFA_nop
  DW_CFA_nop
  DW_CFA_nop
  DW_CFA_nop
  DW_CFA_nop
  DW_CFA_nop

000116d0 0000000000000014 000116b8 FDE cie=000116b8 pc=0000000000471f80..0000000000471f95

000116e8 0000000000000014 ffffffff CIE
  Version:               1
  Augmentation:          ""
  Code alignment factor: 1
  Data alignment factor: -8
  Return address column: 16

  DW_CFA_def_cfa: r7 (rsp) ofs 8
  DW_CFA_offset: r16 (rip) at cfa-8
  DW_CFA_nop
  DW_CFA_nop
  DW_CFA_nop
  DW_CFA_nop
  DW_CFA_nop
  DW_CFA_nop

00011700 000000000000003c 000116e8 FDE cie=000116e8 pc=0000000000471fa0..0000000000471ff7
  DW_CFA_advance_loc: 1 to 0000000000471fa1
  DW_CFA_def_cfa_offset: 16
  DW_CFA_offset: r6 (rbp) at cfa-16
  DW_CFA_advance_loc: 3 to 0000000000471fa4
  DW_CFA_def_cfa_offset: 24
  DW_CFA_offset: r3 (rbx) at cfa-24
  DW_CFA_advance_loc: 6 to 0000000000471faa
  DW_CFA_def_cfa_offset: 32
  DW_CFA_advance_loc: 46 to 0000000000471fd8
  DW_CFA_remember_state
  DW_CFA_def_cfa_offset: 24
  DW_CFA_advance_loc: 3 to 0000000000471fdb
  DW_CFA_def_cfa_offset: 16
  DW_CFA_advance_loc: 1 to 0000000000471fdc
  DW_CFA_def_cfa_offset: 8
  DW_CFA_advance_loc: 4 to 0000000000471fe0
  DW_CFA_restore_state
  DW_CFA_advance_loc: 8 to 0000000000471fe8
  DW_CFA_remember_state
  DW_CFA_def_cfa_offset: 24
  DW_CFA_advance_loc: 1 to 0000000000471fe9
  DW_CFA_def_cfa_offset: 16
  DW_CFA_advance_loc: 1 to 0000000000471fea
  DW_CFA_def_cfa_offset: 8
  DW_CFA_advance_loc: 6 to 0000000000471ff0
  DW_CFA_restore_state
  DW_CFA_nop
  DW_CFA_nop
  DW_CFA_nop

00011740 0000000000000014 ffffffff CIE
  Version:               1
  Augmentation:          ""
  Code alignment factor: 1
  Data alignment factor: -8
  Return address column: 16

  DW_CFA_def_cfa: r7 (rsp) ofs 8
  DW_CFA_offset: r16 (rip) at cfa-8
  DW_CFA_nop
  DW_CFA_nop
  DW_CFA_nop
  DW_CFA_nop
  DW_CFA_nop
  DW_CFA_nop

00011758 000000000000001c 00011740 FDE cie=00011740 pc=0000000000472000..000000000047204b
  DW_CFA_advance_loc: 28 to 000000000047201c
  DW_CFA_def_cfa_offset: 16
  DW_CFA_advance_loc: 42 to 0000000000472046
  DW_CFA_def_cfa_offset: 8
  DW_CFA_nop
  DW_CFA_nop

00011778 0000000000000024 00011740 FDE cie=00011740 pc=0000000000472050..00000000004720a5
  DW_CFA_advance_loc: 20 to 0000000000472064
  DW_CFA_def_cfa_offset: 16
  DW_CFA_advance_loc: 52 to 0000000000472098
  DW_CFA_remember_state
  DW_CFA_def_cfa_offset: 8
  DW_CFA_advance_loc: 8 to 00000000004720a0
  DW_CFA_restore_state
  DW_CFA_advance_loc: 4 to 00000000004720a4
  DW_CFA_def_cfa_offset: 8
  DW_CFA_nop
  DW_CFA_nop
  DW_CFA_nop
  DW_CFA_nop

000117a0 0000000000000014 00011740 FDE cie=00011740 pc=00000000004720b0..00000000004720c4

000117b8 000000000000001c 00011740 FDE cie=00011740 pc=00000000004720d0..00000000004720e8
  DW_CFA_advance_loc: 8 to 00000000004720d8
  DW_CFA_def_cfa_offset: 16
  DW_CFA_offset: r6 (rbp) at cfa-16
  DW_CFA_nop
  DW_CFA_nop
  DW_CFA_nop

000117d8 0000000000000014 ffffffff CIE
  Version:               1
  Augmentation:          ""
  Code alignment factor: 1
  Data alignment factor: -8
  Return address column: 16

  DW_CFA_def_cfa: r7 (rsp) ofs 8
  DW_CFA_offset: r16 (rip) at cfa-8
  DW_CFA_nop
  DW_CFA_nop
  DW_CFA_nop
  DW_CFA_nop
  DW_CFA_nop
  DW_CFA_nop

000117f0 0000000000000034 000117d8 FDE cie=000117d8 pc=00000000004720f0..000000000047224a
  DW_CFA_advance_loc: 2 to 00000000004720f2
  DW_CFA_def_cfa_offset: 16
  DW_CFA_offset: r12 (r12) at cfa-16
  DW_CFA_advance_loc: 1 to 00000000004720f3
  DW_CFA_def_cfa_offset: 24
  DW_CFA_offset: r3 (rbx) at cfa-24
  DW_CFA_advance_loc: 4 to 00000000004720f7
  DW_CFA_def_cfa_offset: 48
  DW_CFA_advance_loc2: 308 to 000000000047222b
  DW_CFA_remember_state
  DW_CFA_def_cfa_offset: 24
  DW_CFA_advance_loc: 1 to 000000000047222c
  DW_CFA_def_cfa_offset: 16
  DW_CFA_advance_loc: 2 to 000000000047222e
  DW_CFA_def_cfa_offset: 8
  DW_CFA_advance_loc: 2 to 0000000000472230
  DW_CFA_restore_state
  DW_CFA_nop
  DW_CFA_nop
  DW_CFA_nop
  DW_CFA_nop
  DW_CFA_nop

00011828 0000000000000014 ffffffff CIE
  Version:               1
  Augmentation:          ""
  Code alignment factor: 1
  Data alignment factor: -8
  Return address column: 16

  DW_CFA_def_cfa: r7 (rsp) ofs 8
  DW_CFA_offset: r16 (rip) at cfa-8
  DW_CFA_nop
  DW_CFA_nop
  DW_CFA_nop
  DW_CFA_nop
  DW_CFA_nop
  DW_CFA_nop

00011840 000000000000003c 00011828 FDE cie=00011828 pc=0000000000472250..00000000004722be
  DW_CFA_advance_loc: 1 to 0000000000472251
  DW_CFA_def_cfa_offset: 16
  DW_CFA_offset: r6 (rbp) at cfa-16
  DW_CFA_advance_loc: 4 to 0000000000472255
  DW_CFA_def_cfa_offset: 24
  DW_CFA_offset: r3 (rbx) at cfa-24
  DW_CFA_advance_loc: 7 to 000000000047225c
  DW_CFA_def_cfa_offset: 32
  DW_CFA_advance_loc: 36 to 0000000000472280
  DW_CFA_remember_state
  DW_CFA_def_cfa_offset: 24
  DW_CFA_advance_loc: 1 to 0000000000472281
  DW_CFA_def_cfa_offset: 16
  DW_CFA_advance_loc: 1 to 0000000000472282
  DW_CFA_def_cfa_offset: 8
  DW_CFA_advance_loc: 6 to 0000000000472288
  DW_CFA_restore_state
  DW_CFA_advance_loc: 51 to 00000000004722bb
  DW_CFA_def_cfa_offset: 24
  DW_CFA_advance_loc: 1 to 00000000004722bc
  DW_CFA_def_cfa_offset: 16
  DW_CFA_advance_loc: 1 to 00000000004722bd
  DW_CFA_def_cfa_offset: 8
  DW_CFA_nop
  DW_CFA_nop
  DW_CFA_nop
  DW_CFA_nop
  DW_CFA_nop
  DW_CFA_nop

00011880 0000000000000014 ffffffff CIE
  Version:               1
  Augmentation:          ""
  Code alignment factor: 1
  Data alignment factor: -8
  Return address column: 16

  DW_CFA_def_cfa: r7 (rsp) ofs 8
  DW_CFA_offset: r16 (rip) at cfa-8
