  DW_CFA_advance_loc: 5 to 000000000042f09e
  DW_CFA_restore_state
  DW_CFA_advance_loc: 56 to 000000000042f0d6
  DW_CFA_remember_state
  DW_CFA_def_cfa_offset: 56
  DW_CFA_advance_loc: 8 to 000000000042f0de
  DW_CFA_def_cfa_offset: 48
  DW_CFA_advance_loc: 1 to 000000000042f0df
  DW_CFA_def_cfa_offset: 40
  DW_CFA_advance_loc: 2 to 000000000042f0e1
  DW_CFA_def_cfa_offset: 32
  DW_CFA_advance_loc: 2 to 000000000042f0e3
  DW_CFA_def_cfa_offset: 24
  DW_CFA_advance_loc: 2 to 000000000042f0e5
  DW_CFA_def_cfa_offset: 16
  DW_CFA_advance_loc: 2 to 000000000042f0e7
  DW_CFA_def_cfa_offset: 8
  DW_CFA_advance_loc: 5 to 000000000042f0ec
  DW_CFA_restore_state
  DW_CFA_advance_loc: 46 to 000000000042f11a
  DW_CFA_remember_state
  DW_CFA_def_cfa_offset: 56
  DW_CFA_advance_loc: 8 to 000000000042f122
  DW_CFA_def_cfa_offset: 48
  DW_CFA_advance_loc: 1 to 000000000042f123
  DW_CFA_def_cfa_offset: 40
  DW_CFA_advance_loc: 2 to 000000000042f125
  DW_CFA_def_cfa_offset: 32
  DW_CFA_advance_loc: 2 to 000000000042f127
  DW_CFA_def_cfa_offset: 24
  DW_CFA_advance_loc: 2 to 000000000042f129
  DW_CFA_def_cfa_offset: 16
  DW_CFA_advance_loc: 2 to 000000000042f12b
  DW_CFA_def_cfa_offset: 8
  DW_CFA_advance_loc: 5 to 000000000042f130
  DW_CFA_restore_state
  DW_CFA_advance_loc: 56 to 000000000042f168
  DW_CFA_remember_state
  DW_CFA_def_cfa_offset: 56
  DW_CFA_advance_loc: 8 to 000000000042f170
  DW_CFA_def_cfa_offset: 48
  DW_CFA_advance_loc: 1 to 000000000042f171
  DW_CFA_def_cfa_offset: 40
  DW_CFA_advance_loc: 2 to 000000000042f173
  DW_CFA_def_cfa_offset: 32
  DW_CFA_advance_loc: 2 to 000000000042f175
  DW_CFA_def_cfa_offset: 24
  DW_CFA_advance_loc: 2 to 000000000042f177
  DW_CFA_def_cfa_offset: 16
  DW_CFA_advance_loc: 2 to 000000000042f179
  DW_CFA_def_cfa_offset: 8
  DW_CFA_advance_loc: 5 to 000000000042f17e
  DW_CFA_restore_state
  DW_CFA_advance_loc: 46 to 000000000042f1ac
  DW_CFA_remember_state
  DW_CFA_def_cfa_offset: 56
  DW_CFA_advance_loc: 8 to 000000000042f1b4
  DW_CFA_def_cfa_offset: 48
  DW_CFA_advance_loc: 1 to 000000000042f1b5
  DW_CFA_def_cfa_offset: 40
  DW_CFA_advance_loc: 2 to 000000000042f1b7
  DW_CFA_def_cfa_offset: 32
  DW_CFA_advance_loc: 2 to 000000000042f1b9
  DW_CFA_def_cfa_offset: 24
  DW_CFA_advance_loc: 2 to 000000000042f1bb
  DW_CFA_def_cfa_offset: 16
  DW_CFA_advance_loc: 2 to 000000000042f1bd
  DW_CFA_def_cfa_offset: 8
  DW_CFA_advance_loc: 5 to 000000000042f1c2
  DW_CFA_restore_state
  DW_CFA_advance_loc: 56 to 000000000042f1fa
  DW_CFA_remember_state
  DW_CFA_def_cfa_offset: 56
  DW_CFA_advance_loc: 8 to 000000000042f202
  DW_CFA_def_cfa_offset: 48
  DW_CFA_advance_loc: 1 to 000000000042f203
  DW_CFA_def_cfa_offset: 40
  DW_CFA_advance_loc: 2 to 000000000042f205
  DW_CFA_def_cfa_offset: 32
  DW_CFA_advance_loc: 2 to 000000000042f207
  DW_CFA_def_cfa_offset: 24
  DW_CFA_advance_loc: 2 to 000000000042f209
  DW_CFA_def_cfa_offset: 16
  DW_CFA_advance_loc: 2 to 000000000042f20b
  DW_CFA_def_cfa_offset: 8
  DW_CFA_advance_loc: 5 to 000000000042f210
  DW_CFA_restore_state
  DW_CFA_advance_loc: 46 to 000000000042f23e
  DW_CFA_remember_state
  DW_CFA_def_cfa_offset: 56
  DW_CFA_advance_loc: 8 to 000000000042f246
  DW_CFA_def_cfa_offset: 48
  DW_CFA_advance_loc: 1 to 000000000042f247
  DW_CFA_def_cfa_offset: 40
  DW_CFA_advance_loc: 2 to 000000000042f249
  DW_CFA_def_cfa_offset: 32
  DW_CFA_advance_loc: 2 to 000000000042f24b
  DW_CFA_def_cfa_offset: 24
  DW_CFA_advance_loc: 2 to 000000000042f24d
  DW_CFA_def_cfa_offset: 16
  DW_CFA_advance_loc: 2 to 000000000042f24f
  DW_CFA_def_cfa_offset: 8
  DW_CFA_advance_loc: 5 to 000000000042f254
  DW_CFA_restore_state
  DW_CFA_advance_loc: 56 to 000000000042f28c
  DW_CFA_remember_state
  DW_CFA_def_cfa_offset: 56
  DW_CFA_advance_loc: 8 to 000000000042f294
  DW_CFA_def_cfa_offset: 48
  DW_CFA_advance_loc: 1 to 000000000042f295
  DW_CFA_def_cfa_offset: 40
  DW_CFA_advance_loc: 2 to 000000000042f297
  DW_CFA_def_cfa_offset: 32
  DW_CFA_advance_loc: 2 to 000000000042f299
  DW_CFA_def_cfa_offset: 24
  DW_CFA_advance_loc: 2 to 000000000042f29b
  DW_CFA_def_cfa_offset: 16
  DW_CFA_advance_loc: 2 to 000000000042f29d
  DW_CFA_def_cfa_offset: 8
  DW_CFA_advance_loc: 5 to 000000000042f2a2
  DW_CFA_restore_state
  DW_CFA_advance_loc: 46 to 000000000042f2d0
  DW_CFA_remember_state
  DW_CFA_def_cfa_offset: 56
  DW_CFA_advance_loc: 8 to 000000000042f2d8
  DW_CFA_def_cfa_offset: 48
  DW_CFA_advance_loc: 1 to 000000000042f2d9
  DW_CFA_def_cfa_offset: 40
  DW_CFA_advance_loc: 2 to 000000000042f2db
  DW_CFA_def_cfa_offset: 32
  DW_CFA_advance_loc: 2 to 000000000042f2dd
  DW_CFA_def_cfa_offset: 24
  DW_CFA_advance_loc: 2 to 000000000042f2df
  DW_CFA_def_cfa_offset: 16
  DW_CFA_advance_loc: 2 to 000000000042f2e1
  DW_CFA_def_cfa_offset: 8
  DW_CFA_advance_loc: 5 to 000000000042f2e6
  DW_CFA_restore_state
  DW_CFA_advance_loc: 56 to 000000000042f31e
  DW_CFA_remember_state
  DW_CFA_def_cfa_offset: 56
  DW_CFA_advance_loc: 8 to 000000000042f326
  DW_CFA_def_cfa_offset: 48
  DW_CFA_advance_loc: 1 to 000000000042f327
  DW_CFA_def_cfa_offset: 40
  DW_CFA_advance_loc: 2 to 000000000042f329
  DW_CFA_def_cfa_offset: 32
  DW_CFA_advance_loc: 2 to 000000000042f32b
  DW_CFA_def_cfa_offset: 24
  DW_CFA_advance_loc: 2 to 000000000042f32d
  DW_CFA_def_cfa_offset: 16
  DW_CFA_advance_loc: 2 to 000000000042f32f
  DW_CFA_def_cfa_offset: 8
  DW_CFA_advance_loc: 5 to 000000000042f334
  DW_CFA_restore_state
  DW_CFA_advance_loc: 46 to 000000000042f362
  DW_CFA_remember_state
  DW_CFA_def_cfa_offset: 56
  DW_CFA_advance_loc: 8 to 000000000042f36a
  DW_CFA_def_cfa_offset: 48
  DW_CFA_advance_loc: 1 to 000000000042f36b
  DW_CFA_def_cfa_offset: 40
  DW_CFA_advance_loc: 2 to 000000000042f36d
  DW_CFA_def_cfa_offset: 32
  DW_CFA_advance_loc: 2 to 000000000042f36f
  DW_CFA_def_cfa_offset: 24
  DW_CFA_advance_loc: 2 to 000000000042f371
  DW_CFA_def_cfa_offset: 16
  DW_CFA_advance_loc: 2 to 000000000042f373
  DW_CFA_def_cfa_offset: 8
  DW_CFA_advance_loc: 5 to 000000000042f378
  DW_CFA_restore_state
  DW_CFA_advance_loc: 56 to 000000000042f3b0
  DW_CFA_remember_state
  DW_CFA_def_cfa_offset: 56
  DW_CFA_advance_loc: 8 to 000000000042f3b8
  DW_CFA_def_cfa_offset: 48
  DW_CFA_advance_loc: 1 to 000000000042f3b9
  DW_CFA_def_cfa_offset: 40
  DW_CFA_advance_loc: 2 to 000000000042f3bb
  DW_CFA_def_cfa_offset: 32
  DW_CFA_advance_loc: 2 to 000000000042f3bd
  DW_CFA_def_cfa_offset: 24
  DW_CFA_advance_loc: 2 to 000000000042f3bf
  DW_CFA_def_cfa_offset: 16
  DW_CFA_advance_loc: 2 to 000000000042f3c1
  DW_CFA_def_cfa_offset: 8
  DW_CFA_advance_loc: 5 to 000000000042f3c6
  DW_CFA_restore_state
  DW_CFA_advance_loc: 46 to 000000000042f3f4
  DW_CFA_remember_state
  DW_CFA_def_cfa_offset: 56
  DW_CFA_advance_loc: 8 to 000000000042f3fc
  DW_CFA_def_cfa_offset: 48
  DW_CFA_advance_loc: 1 to 000000000042f3fd
  DW_CFA_def_cfa_offset: 40
  DW_CFA_advance_loc: 2 to 000000000042f3ff
  DW_CFA_def_cfa_offset: 32
  DW_CFA_advance_loc: 2 to 000000000042f401
  DW_CFA_def_cfa_offset: 24
  DW_CFA_advance_loc: 2 to 000000000042f403
  DW_CFA_def_cfa_offset: 16
  DW_CFA_advance_loc: 2 to 000000000042f405
  DW_CFA_def_cfa_offset: 8
  DW_CFA_advance_loc: 5 to 000000000042f40a
  DW_CFA_restore_state
  DW_CFA_advance_loc: 56 to 000000000042f442
  DW_CFA_remember_state
  DW_CFA_def_cfa_offset: 56
  DW_CFA_advance_loc: 8 to 000000000042f44a
  DW_CFA_def_cfa_offset: 48
  DW_CFA_advance_loc: 1 to 000000000042f44b
  DW_CFA_def_cfa_offset: 40
  DW_CFA_advance_loc: 2 to 000000000042f44d
  DW_CFA_def_cfa_offset: 32
  DW_CFA_advance_loc: 2 to 000000000042f44f
  DW_CFA_def_cfa_offset: 24
  DW_CFA_advance_loc: 2 to 000000000042f451
  DW_CFA_def_cfa_offset: 16
  DW_CFA_advance_loc: 2 to 000000000042f453
  DW_CFA_def_cfa_offset: 8
  DW_CFA_advance_loc: 5 to 000000000042f458
  DW_CFA_restore_state
  DW_CFA_advance_loc: 46 to 000000000042f486
  DW_CFA_remember_state
  DW_CFA_def_cfa_offset: 56
  DW_CFA_advance_loc: 8 to 000000000042f48e
  DW_CFA_def_cfa_offset: 48
  DW_CFA_advance_loc: 1 to 000000000042f48f
  DW_CFA_def_cfa_offset: 40
  DW_CFA_advance_loc: 2 to 000000000042f491
  DW_CFA_def_cfa_offset: 32
  DW_CFA_advance_loc: 2 to 000000000042f493
  DW_CFA_def_cfa_offset: 24
  DW_CFA_advance_loc: 2 to 000000000042f495
  DW_CFA_def_cfa_offset: 16
  DW_CFA_advance_loc: 2 to 000000000042f497
  DW_CFA_def_cfa_offset: 8
  DW_CFA_advance_loc: 5 to 000000000042f49c
  DW_CFA_restore_state
  DW_CFA_advance_loc: 56 to 000000000042f4d4
  DW_CFA_remember_state
  DW_CFA_def_cfa_offset: 56
  DW_CFA_advance_loc: 8 to 000000000042f4dc
  DW_CFA_def_cfa_offset: 48
  DW_CFA_advance_loc: 1 to 000000000042f4dd
  DW_CFA_def_cfa_offset: 40
  DW_CFA_advance_loc: 2 to 000000000042f4df
  DW_CFA_def_cfa_offset: 32
  DW_CFA_advance_loc: 2 to 000000000042f4e1
  DW_CFA_def_cfa_offset: 24
  DW_CFA_advance_loc: 2 to 000000000042f4e3
  DW_CFA_def_cfa_offset: 16
  DW_CFA_advance_loc: 2 to 000000000042f4e5
  DW_CFA_def_cfa_offset: 8
  DW_CFA_advance_loc: 5 to 000000000042f4ea
  DW_CFA_restore_state
  DW_CFA_advance_loc: 46 to 000000000042f518
  DW_CFA_remember_state
  DW_CFA_def_cfa_offset: 56
  DW_CFA_advance_loc: 8 to 000000000042f520
  DW_CFA_def_cfa_offset: 48
  DW_CFA_advance_loc: 1 to 000000000042f521
  DW_CFA_def_cfa_offset: 40
  DW_CFA_advance_loc: 2 to 000000000042f523
  DW_CFA_def_cfa_offset: 32
  DW_CFA_advance_loc: 2 to 000000000042f525
  DW_CFA_def_cfa_offset: 24
  DW_CFA_advance_loc: 2 to 000000000042f527
  DW_CFA_def_cfa_offset: 16
  DW_CFA_advance_loc: 2 to 000000000042f529
  DW_CFA_def_cfa_offset: 8
  DW_CFA_advance_loc: 5 to 000000000042f52e
  DW_CFA_restore_state
  DW_CFA_advance_loc: 56 to 000000000042f566
  DW_CFA_remember_state
  DW_CFA_def_cfa_offset: 56
  DW_CFA_advance_loc: 8 to 000000000042f56e
  DW_CFA_def_cfa_offset: 48
  DW_CFA_advance_loc: 1 to 000000000042f56f
  DW_CFA_def_cfa_offset: 40
  DW_CFA_advance_loc: 2 to 000000000042f571
  DW_CFA_def_cfa_offset: 32
  DW_CFA_advance_loc: 2 to 000000000042f573
  DW_CFA_def_cfa_offset: 24
  DW_CFA_advance_loc: 2 to 000000000042f575
  DW_CFA_def_cfa_offset: 16
  DW_CFA_advance_loc: 2 to 000000000042f577
  DW_CFA_def_cfa_offset: 8
  DW_CFA_advance_loc: 5 to 000000000042f57c
  DW_CFA_restore_state
  DW_CFA_advance_loc: 46 to 000000000042f5aa
  DW_CFA_remember_state
  DW_CFA_def_cfa_offset: 56
  DW_CFA_advance_loc: 8 to 000000000042f5b2
  DW_CFA_def_cfa_offset: 48
  DW_CFA_advance_loc: 1 to 000000000042f5b3
  DW_CFA_def_cfa_offset: 40
  DW_CFA_advance_loc: 2 to 000000000042f5b5
  DW_CFA_def_cfa_offset: 32
  DW_CFA_advance_loc: 2 to 000000000042f5b7
  DW_CFA_def_cfa_offset: 24
  DW_CFA_advance_loc: 2 to 000000000042f5b9
  DW_CFA_def_cfa_offset: 16
  DW_CFA_advance_loc: 2 to 000000000042f5bb
  DW_CFA_def_cfa_offset: 8
  DW_CFA_advance_loc: 5 to 000000000042f5c0
  DW_CFA_restore_state
  DW_CFA_advance_loc: 56 to 000000000042f5f8
  DW_CFA_remember_state
  DW_CFA_def_cfa_offset: 56
  DW_CFA_advance_loc: 8 to 000000000042f600
  DW_CFA_def_cfa_offset: 48
  DW_CFA_advance_loc: 1 to 000000000042f601
  DW_CFA_def_cfa_offset: 40
  DW_CFA_advance_loc: 2 to 000000000042f603
  DW_CFA_def_cfa_offset: 32
  DW_CFA_advance_loc: 2 to 000000000042f605
  DW_CFA_def_cfa_offset: 24
  DW_CFA_advance_loc: 2 to 000000000042f607
  DW_CFA_def_cfa_offset: 16
  DW_CFA_advance_loc: 2 to 000000000042f609
  DW_CFA_def_cfa_offset: 8
  DW_CFA_advance_loc: 5 to 000000000042f60e
  DW_CFA_restore_state
  DW_CFA_advance_loc: 46 to 000000000042f63c
  DW_CFA_remember_state
  DW_CFA_def_cfa_offset: 56
  DW_CFA_advance_loc: 8 to 000000000042f644
  DW_CFA_def_cfa_offset: 48
  DW_CFA_advance_loc: 1 to 000000000042f645
  DW_CFA_def_cfa_offset: 40
  DW_CFA_advance_loc: 2 to 000000000042f647
  DW_CFA_def_cfa_offset: 32
  DW_CFA_advance_loc: 2 to 000000000042f649
  DW_CFA_def_cfa_offset: 24
  DW_CFA_advance_loc: 2 to 000000000042f64b
  DW_CFA_def_cfa_offset: 16
  DW_CFA_advance_loc: 2 to 000000000042f64d
  DW_CFA_def_cfa_offset: 8
  DW_CFA_advance_loc: 5 to 000000000042f652
  DW_CFA_restore_state
  DW_CFA_advance_loc: 56 to 000000000042f68a
  DW_CFA_remember_state
  DW_CFA_def_cfa_offset: 56
  DW_CFA_advance_loc: 8 to 000000000042f692
  DW_CFA_def_cfa_offset: 48
  DW_CFA_advance_loc: 1 to 000000000042f693
  DW_CFA_def_cfa_offset: 40
  DW_CFA_advance_loc: 2 to 000000000042f695
  DW_CFA_def_cfa_offset: 32
  DW_CFA_advance_loc: 2 to 000000000042f697
  DW_CFA_def_cfa_offset: 24
  DW_CFA_advance_loc: 2 to 000000000042f699
  DW_CFA_def_cfa_offset: 16
  DW_CFA_advance_loc: 2 to 000000000042f69b
  DW_CFA_def_cfa_offset: 8
  DW_CFA_advance_loc: 5 to 000000000042f6a0
  DW_CFA_restore_state
  DW_CFA_advance_loc: 46 to 000000000042f6ce
  DW_CFA_remember_state
  DW_CFA_def_cfa_offset: 56
  DW_CFA_advance_loc: 8 to 000000000042f6d6
  DW_CFA_def_cfa_offset: 48
  DW_CFA_advance_loc: 1 to 000000000042f6d7
  DW_CFA_def_cfa_offset: 40
  DW_CFA_advance_loc: 2 to 000000000042f6d9
  DW_CFA_def_cfa_offset: 32
  DW_CFA_advance_loc: 2 to 000000000042f6db
  DW_CFA_def_cfa_offset: 24
  DW_CFA_advance_loc: 2 to 000000000042f6dd
  DW_CFA_def_cfa_offset: 16
  DW_CFA_advance_loc: 2 to 000000000042f6df
  DW_CFA_def_cfa_offset: 8
  DW_CFA_advance_loc: 5 to 000000000042f6e4
  DW_CFA_restore_state
  DW_CFA_advance_loc: 56 to 000000000042f71c
  DW_CFA_remember_state
  DW_CFA_def_cfa_offset: 56
  DW_CFA_advance_loc: 8 to 000000000042f724
  DW_CFA_def_cfa_offset: 48
  DW_CFA_advance_loc: 1 to 000000000042f725
  DW_CFA_def_cfa_offset: 40
  DW_CFA_advance_loc: 2 to 000000000042f727
  DW_CFA_def_cfa_offset: 32
  DW_CFA_advance_loc: 2 to 000000000042f729
  DW_CFA_def_cfa_offset: 24
  DW_CFA_advance_loc: 2 to 000000000042f72b
  DW_CFA_def_cfa_offset: 16
  DW_CFA_advance_loc: 2 to 000000000042f72d
  DW_CFA_def_cfa_offset: 8
  DW_CFA_advance_loc: 5 to 000000000042f732
  DW_CFA_restore_state
  DW_CFA_advance_loc: 46 to 000000000042f760
  DW_CFA_remember_state
  DW_CFA_def_cfa_offset: 56
  DW_CFA_advance_loc: 8 to 000000000042f768
  DW_CFA_def_cfa_offset: 48
  DW_CFA_advance_loc: 1 to 000000000042f769
  DW_CFA_def_cfa_offset: 40
  DW_CFA_advance_loc: 2 to 000000000042f76b
  DW_CFA_def_cfa_offset: 32
  DW_CFA_advance_loc: 2 to 000000000042f76d
  DW_CFA_def_cfa_offset: 24
  DW_CFA_advance_loc: 2 to 000000000042f76f
  DW_CFA_def_cfa_offset: 16
  DW_CFA_advance_loc: 2 to 000000000042f771
  DW_CFA_def_cfa_offset: 8
  DW_CFA_advance_loc: 5 to 000000000042f776
  DW_CFA_restore_state
  DW_CFA_advance_loc: 56 to 000000000042f7ae
  DW_CFA_remember_state
  DW_CFA_def_cfa_offset: 56
  DW_CFA_advance_loc: 8 to 000000000042f7b6
  DW_CFA_def_cfa_offset: 48
  DW_CFA_advance_loc: 1 to 000000000042f7b7
  DW_CFA_def_cfa_offset: 40
  DW_CFA_advance_loc: 2 to 000000000042f7b9
  DW_CFA_def_cfa_offset: 32
  DW_CFA_advance_loc: 2 to 000000000042f7bb
  DW_CFA_def_cfa_offset: 24
  DW_CFA_advance_loc: 2 to 000000000042f7bd
  DW_CFA_def_cfa_offset: 16
  DW_CFA_advance_loc: 2 to 000000000042f7bf
  DW_CFA_def_cfa_offset: 8
  DW_CFA_advance_loc: 5 to 000000000042f7c4
  DW_CFA_restore_state
  DW_CFA_advance_loc: 46 to 000000000042f7f2
  DW_CFA_remember_state
  DW_CFA_def_cfa_offset: 56
  DW_CFA_advance_loc: 8 to 000000000042f7fa
  DW_CFA_def_cfa_offset: 48
  DW_CFA_advance_loc: 1 to 000000000042f7fb
  DW_CFA_def_cfa_offset: 40
  DW_CFA_advance_loc: 2 to 000000000042f7fd
  DW_CFA_def_cfa_offset: 32
  DW_CFA_advance_loc: 2 to 000000000042f7ff
  DW_CFA_def_cfa_offset: 24
  DW_CFA_advance_loc: 2 to 000000000042f801
  DW_CFA_def_cfa_offset: 16
  DW_CFA_advance_loc: 2 to 000000000042f803
  DW_CFA_def_cfa_offset: 8
  DW_CFA_advance_loc: 5 to 000000000042f808
  DW_CFA_restore_state
  DW_CFA_advance_loc: 56 to 000000000042f840
  DW_CFA_remember_state
  DW_CFA_def_cfa_offset: 56
  DW_CFA_advance_loc: 8 to 000000000042f848
  DW_CFA_def_cfa_offset: 48
  DW_CFA_advance_loc: 1 to 000000000042f849
  DW_CFA_def_cfa_offset: 40
  DW_CFA_advance_loc: 2 to 000000000042f84b
  DW_CFA_def_cfa_offset: 32
  DW_CFA_advance_loc: 2 to 000000000042f84d
  DW_CFA_def_cfa_offset: 24
  DW_CFA_advance_loc: 2 to 000000000042f84f
  DW_CFA_def_cfa_offset: 16
  DW_CFA_advance_loc: 2 to 000000000042f851
  DW_CFA_def_cfa_offset: 8
  DW_CFA_advance_loc: 5 to 000000000042f856
  DW_CFA_restore_state
  DW_CFA_advance_loc: 46 to 000000000042f884
  DW_CFA_remember_state
  DW_CFA_def_cfa_offset: 56
  DW_CFA_advance_loc: 8 to 000000000042f88c
  DW_CFA_def_cfa_offset: 48
  DW_CFA_advance_loc: 1 to 000000000042f88d
  DW_CFA_def_cfa_offset: 40
  DW_CFA_advance_loc: 2 to 000000000042f88f
  DW_CFA_def_cfa_offset: 32
  DW_CFA_advance_loc: 2 to 000000000042f891
  DW_CFA_def_cfa_offset: 24
  DW_CFA_advance_loc: 2 to 000000000042f893
  DW_CFA_def_cfa_offset: 16
  DW_CFA_advance_loc: 2 to 000000000042f895
  DW_CFA_def_cfa_offset: 8
  DW_CFA_advance_loc: 5 to 000000000042f89a
  DW_CFA_restore_state
  DW_CFA_advance_loc: 56 to 000000000042f8d2
  DW_CFA_remember_state
  DW_CFA_def_cfa_offset: 56
  DW_CFA_advance_loc: 8 to 000000000042f8da
  DW_CFA_def_cfa_offset: 48
  DW_CFA_advance_loc: 1 to 000000000042f8db
  DW_CFA_def_cfa_offset: 40
  DW_CFA_advance_loc: 2 to 000000000042f8dd
  DW_CFA_def_cfa_offset: 32
  DW_CFA_advance_loc: 2 to 000000000042f8df
  DW_CFA_def_cfa_offset: 24
  DW_CFA_advance_loc: 2 to 000000000042f8e1
  DW_CFA_def_cfa_offset: 16
  DW_CFA_advance_loc: 2 to 000000000042f8e3
  DW_CFA_def_cfa_offset: 8
  DW_CFA_advance_loc: 5 to 000000000042f8e8
  DW_CFA_restore_state
  DW_CFA_advance_loc: 46 to 000000000042f916
  DW_CFA_remember_state
  DW_CFA_def_cfa_offset: 56
  DW_CFA_advance_loc: 8 to 000000000042f91e
  DW_CFA_def_cfa_offset: 48
  DW_CFA_advance_loc: 1 to 000000000042f91f
  DW_CFA_def_cfa_offset: 40
  DW_CFA_advance_loc: 2 to 000000000042f921
  DW_CFA_def_cfa_offset: 32
  DW_CFA_advance_loc: 2 to 000000000042f923
  DW_CFA_def_cfa_offset: 24
  DW_CFA_advance_loc: 2 to 000000000042f925
  DW_CFA_def_cfa_offset: 16
  DW_CFA_advance_loc: 2 to 000000000042f927
  DW_CFA_def_cfa_offset: 8
  DW_CFA_advance_loc: 5 to 000000000042f92c
  DW_CFA_restore_state
  DW_CFA_advance_loc: 56 to 000000000042f964
  DW_CFA_remember_state
  DW_CFA_def_cfa_offset: 56
  DW_CFA_advance_loc: 8 to 000000000042f96c
  DW_CFA_def_cfa_offset: 48
  DW_CFA_advance_loc: 1 to 000000000042f96d
  DW_CFA_def_cfa_offset: 40
  DW_CFA_advance_loc: 2 to 000000000042f96f
  DW_CFA_def_cfa_offset: 32
  DW_CFA_advance_loc: 2 to 000000000042f971
  DW_CFA_def_cfa_offset: 24
  DW_CFA_advance_loc: 2 to 000000000042f973
  DW_CFA_def_cfa_offset: 16
  DW_CFA_advance_loc: 2 to 000000000042f975
  DW_CFA_def_cfa_offset: 8
  DW_CFA_advance_loc: 5 to 000000000042f97a
  DW_CFA_restore_state
  DW_CFA_advance_loc: 46 to 000000000042f9a8
  DW_CFA_remember_state
  DW_CFA_def_cfa_offset: 56
  DW_CFA_advance_loc: 8 to 000000000042f9b0
  DW_CFA_def_cfa_offset: 48
  DW_CFA_advance_loc: 1 to 000000000042f9b1
  DW_CFA_def_cfa_offset: 40
  DW_CFA_advance_loc: 2 to 000000000042f9b3
  DW_CFA_def_cfa_offset: 32
  DW_CFA_advance_loc: 2 to 000000000042f9b5
  DW_CFA_def_cfa_offset: 24
  DW_CFA_advance_loc: 2 to 000000000042f9b7
  DW_CFA_def_cfa_offset: 16
  DW_CFA_advance_loc: 2 to 000000000042f9b9
  DW_CFA_def_cfa_offset: 8
  DW_CFA_advance_loc: 5 to 000000000042f9be
  DW_CFA_restore_state
  DW_CFA_advance_loc: 56 to 000000000042f9f6
  DW_CFA_remember_state
  DW_CFA_def_cfa_offset: 56
  DW_CFA_advance_loc: 8 to 000000000042f9fe
  DW_CFA_def_cfa_offset: 48
  DW_CFA_advance_loc: 1 to 000000000042f9ff
  DW_CFA_def_cfa_offset: 40
  DW_CFA_advance_loc: 2 to 000000000042fa01
  DW_CFA_def_cfa_offset: 32
  DW_CFA_advance_loc: 2 to 000000000042fa03
  DW_CFA_def_cfa_offset: 24
  DW_CFA_advance_loc: 2 to 000000000042fa05
  DW_CFA_def_cfa_offset: 16
  DW_CFA_advance_loc: 2 to 000000000042fa07
  DW_CFA_def_cfa_offset: 8
  DW_CFA_advance_loc: 5 to 000000000042fa0c
  DW_CFA_restore_state
  DW_CFA_advance_loc: 46 to 000000000042fa3a
  DW_CFA_remember_state
  DW_CFA_def_cfa_offset: 56
  DW_CFA_advance_loc: 8 to 000000000042fa42
  DW_CFA_def_cfa_offset: 48
  DW_CFA_advance_loc: 1 to 000000000042fa43
  DW_CFA_def_cfa_offset: 40
  DW_CFA_advance_loc: 2 to 000000000042fa45
  DW_CFA_def_cfa_offset: 32
  DW_CFA_advance_loc: 2 to 000000000042fa47
  DW_CFA_def_cfa_offset: 24
  DW_CFA_advance_loc: 2 to 000000000042fa49
  DW_CFA_def_cfa_offset: 16
  DW_CFA_advance_loc: 2 to 000000000042fa4b
  DW_CFA_def_cfa_offset: 8
  DW_CFA_advance_loc: 5 to 000000000042fa50
  DW_CFA_restore_state
  DW_CFA_advance_loc: 56 to 000000000042fa88
  DW_CFA_remember_state
  DW_CFA_def_cfa_offset: 56
  DW_CFA_advance_loc: 8 to 000000000042fa90
  DW_CFA_def_cfa_offset: 48
  DW_CFA_advance_loc: 1 to 000000000042fa91
  DW_CFA_def_cfa_offset: 40
  DW_CFA_advance_loc: 2 to 000000000042fa93
  DW_CFA_def_cfa_offset: 32
  DW_CFA_advance_loc: 2 to 000000000042fa95
  DW_CFA_def_cfa_offset: 24
  DW_CFA_advance_loc: 2 to 000000000042fa97
  DW_CFA_def_cfa_offset: 16
  DW_CFA_advance_loc: 2 to 000000000042fa99
  DW_CFA_def_cfa_offset: 8
  DW_CFA_advance_loc: 5 to 000000000042fa9e
  DW_CFA_restore_state
  DW_CFA_advance_loc: 46 to 000000000042facc
  DW_CFA_remember_state
  DW_CFA_def_cfa_offset: 56
  DW_CFA_advance_loc: 8 to 000000000042fad4
  DW_CFA_def_cfa_offset: 48
  DW_CFA_advance_loc: 1 to 000000000042fad5
  DW_CFA_def_cfa_offset: 40
  DW_CFA_advance_loc: 2 to 000000000042fad7
  DW_CFA_def_cfa_offset: 32
  DW_CFA_advance_loc: 2 to 000000000042fad9
  DW_CFA_def_cfa_offset: 24
  DW_CFA_advance_loc: 2 to 000000000042fadb
  DW_CFA_def_cfa_offset: 16
  DW_CFA_advance_loc: 2 to 000000000042fadd
  DW_CFA_def_cfa_offset: 8
  DW_CFA_advance_loc: 5 to 000000000042fae2
  DW_CFA_restore_state
  DW_CFA_advance_loc: 56 to 000000000042fb1a
  DW_CFA_remember_state
  DW_CFA_def_cfa_offset: 56
  DW_CFA_advance_loc: 8 to 000000000042fb22
  DW_CFA_def_cfa_offset: 48
  DW_CFA_advance_loc: 1 to 000000000042fb23
  DW_CFA_def_cfa_offset: 40
  DW_CFA_advance_loc: 2 to 000000000042fb25
  DW_CFA_def_cfa_offset: 32
  DW_CFA_advance_loc: 2 to 000000000042fb27
  DW_CFA_def_cfa_offset: 24
  DW_CFA_advance_loc: 2 to 000000000042fb29
  DW_CFA_def_cfa_offset: 16
  DW_CFA_advance_loc: 2 to 000000000042fb2b
  DW_CFA_def_cfa_offset: 8
  DW_CFA_advance_loc: 5 to 000000000042fb30
  DW_CFA_restore_state
  DW_CFA_advance_loc: 46 to 000000000042fb5e
  DW_CFA_remember_state
  DW_CFA_def_cfa_offset: 56
  DW_CFA_advance_loc: 8 to 000000000042fb66
  DW_CFA_def_cfa_offset: 48
  DW_CFA_advance_loc: 1 to 000000000042fb67
  DW_CFA_def_cfa_offset: 40
  DW_CFA_advance_loc: 2 to 000000000042fb69
  DW_CFA_def_cfa_offset: 32
  DW_CFA_advance_loc: 2 to 000000000042fb6b
  DW_CFA_def_cfa_offset: 24
  DW_CFA_advance_loc: 2 to 000000000042fb6d
  DW_CFA_def_cfa_offset: 16
  DW_CFA_advance_loc: 2 to 000000000042fb6f
  DW_CFA_def_cfa_offset: 8
  DW_CFA_advance_loc: 5 to 000000000042fb74
  DW_CFA_restore_state
  DW_CFA_advance_loc: 56 to 000000000042fbac
  DW_CFA_remember_state
  DW_CFA_def_cfa_offset: 56
  DW_CFA_advance_loc: 8 to 000000000042fbb4
  DW_CFA_def_cfa_offset: 48
  DW_CFA_advance_loc: 1 to 000000000042fbb5
  DW_CFA_def_cfa_offset: 40
  DW_CFA_advance_loc: 2 to 000000000042fbb7
  DW_CFA_def_cfa_offset: 32
  DW_CFA_advance_loc: 2 to 000000000042fbb9
  DW_CFA_def_cfa_offset: 24
  DW_CFA_advance_loc: 2 to 000000000042fbbb
  DW_CFA_def_cfa_offset: 16
  DW_CFA_advance_loc: 2 to 000000000042fbbd
  DW_CFA_def_cfa_offset: 8
  DW_CFA_advance_loc: 5 to 000000000042fbc2
  DW_CFA_restore_state
  DW_CFA_advance_loc: 46 to 000000000042fbf0
  DW_CFA_remember_state
  DW_CFA_def_cfa_offset: 56
  DW_CFA_advance_loc: 11 to 000000000042fbfb
  DW_CFA_def_cfa_offset: 48
  DW_CFA_advance_loc: 1 to 000000000042fbfc
  DW_CFA_def_cfa_offset: 40
  DW_CFA_advance_loc: 2 to 000000000042fbfe
  DW_CFA_def_cfa_offset: 32
  DW_CFA_advance_loc: 2 to 000000000042fc00
  DW_CFA_def_cfa_offset: 24
  DW_CFA_advance_loc: 2 to 000000000042fc02
  DW_CFA_def_cfa_offset: 16
  DW_CFA_advance_loc: 2 to 000000000042fc04
  DW_CFA_def_cfa_offset: 8
  DW_CFA_advance_loc: 5 to 000000000042fc09
  DW_CFA_restore_state
  DW_CFA_advance_loc: 56 to 000000000042fc41
  DW_CFA_remember_state
  DW_CFA_def_cfa_offset: 56
  DW_CFA_advance_loc: 8 to 000000000042fc49
  DW_CFA_def_cfa_offset: 48
  DW_CFA_advance_loc: 1 to 000000000042fc4a
  DW_CFA_def_cfa_offset: 40
  DW_CFA_advance_loc: 2 to 000000000042fc4c
  DW_CFA_def_cfa_offset: 32
  DW_CFA_advance_loc: 2 to 000000000042fc4e
  DW_CFA_def_cfa_offset: 24
  DW_CFA_advance_loc: 2 to 000000000042fc50
  DW_CFA_def_cfa_offset: 16
  DW_CFA_advance_loc: 2 to 000000000042fc52
  DW_CFA_def_cfa_offset: 8
  DW_CFA_advance_loc: 5 to 000000000042fc57
  DW_CFA_restore_state
  DW_CFA_advance_loc: 46 to 000000000042fc85
  DW_CFA_remember_state
  DW_CFA_def_cfa_offset: 56
  DW_CFA_advance_loc: 8 to 000000000042fc8d
  DW_CFA_def_cfa_offset: 48
  DW_CFA_advance_loc: 1 to 000000000042fc8e
  DW_CFA_def_cfa_offset: 40
  DW_CFA_advance_loc: 2 to 000000000042fc90
  DW_CFA_def_cfa_offset: 32
  DW_CFA_advance_loc: 2 to 000000000042fc92
  DW_CFA_def_cfa_offset: 24
  DW_CFA_advance_loc: 2 to 000000000042fc94
  DW_CFA_def_cfa_offset: 16
  DW_CFA_advance_loc: 2 to 000000000042fc96
  DW_CFA_def_cfa_offset: 8
  DW_CFA_advance_loc: 5 to 000000000042fc9b
  DW_CFA_restore_state
  DW_CFA_advance_loc: 56 to 000000000042fcd3
  DW_CFA_remember_state
  DW_CFA_def_cfa_offset: 56
  DW_CFA_advance_loc: 8 to 000000000042fcdb
  DW_CFA_def_cfa_offset: 48
  DW_CFA_advance_loc: 1 to 000000000042fcdc
  DW_CFA_def_cfa_offset: 40
  DW_CFA_advance_loc: 2 to 000000000042fcde
  DW_CFA_def_cfa_offset: 32
  DW_CFA_advance_loc: 2 to 000000000042fce0
  DW_CFA_def_cfa_offset: 24
  DW_CFA_advance_loc: 2 to 000000000042fce2
  DW_CFA_def_cfa_offset: 16
  DW_CFA_advance_loc: 2 to 000000000042fce4
  DW_CFA_def_cfa_offset: 8
  DW_CFA_advance_loc: 5 to 000000000042fce9
  DW_CFA_restore_state
  DW_CFA_advance_loc: 46 to 000000000042fd17
  DW_CFA_remember_state
  DW_CFA_def_cfa_offset: 56
  DW_CFA_advance_loc: 8 to 000000000042fd1f
  DW_CFA_def_cfa_offset: 48
  DW_CFA_advance_loc: 1 to 000000000042fd20
  DW_CFA_def_cfa_offset: 40
  DW_CFA_advance_loc: 2 to 000000000042fd22
  DW_CFA_def_cfa_offset: 32
  DW_CFA_advance_loc: 2 to 000000000042fd24
  DW_CFA_def_cfa_offset: 24
  DW_CFA_advance_loc: 2 to 000000000042fd26
  DW_CFA_def_cfa_offset: 16
  DW_CFA_advance_loc: 2 to 000000000042fd28
  DW_CFA_def_cfa_offset: 8
  DW_CFA_advance_loc: 5 to 000000000042fd2d
  DW_CFA_restore_state
  DW_CFA_advance_loc: 56 to 000000000042fd65
  DW_CFA_remember_state
  DW_CFA_def_cfa_offset: 56
  DW_CFA_advance_loc: 8 to 000000000042fd6d
  DW_CFA_def_cfa_offset: 48
  DW_CFA_advance_loc: 1 to 000000000042fd6e
  DW_CFA_def_cfa_offset: 40
  DW_CFA_advance_loc: 2 to 000000000042fd70
  DW_CFA_def_cfa_offset: 32
  DW_CFA_advance_loc: 2 to 000000000042fd72
  DW_CFA_def_cfa_offset: 24
  DW_CFA_advance_loc: 2 to 000000000042fd74
  DW_CFA_def_cfa_offset: 16
  DW_CFA_advance_loc: 2 to 000000000042fd76
  DW_CFA_def_cfa_offset: 8
  DW_CFA_advance_loc: 5 to 000000000042fd7b
  DW_CFA_restore_state
  DW_CFA_advance_loc: 46 to 000000000042fda9
  DW_CFA_remember_state
  DW_CFA_def_cfa_offset: 56
  DW_CFA_advance_loc: 8 to 000000000042fdb1
  DW_CFA_def_cfa_offset: 48
  DW_CFA_advance_loc: 1 to 000000000042fdb2
  DW_CFA_def_cfa_offset: 40
  DW_CFA_advance_loc: 2 to 000000000042fdb4
  DW_CFA_def_cfa_offset: 32
  DW_CFA_advance_loc: 2 to 000000000042fdb6
  DW_CFA_def_cfa_offset: 24
  DW_CFA_advance_loc: 2 to 000000000042fdb8
  DW_CFA_def_cfa_offset: 16
  DW_CFA_advance_loc: 2 to 000000000042fdba
  DW_CFA_def_cfa_offset: 8
  DW_CFA_advance_loc: 5 to 000000000042fdbf
  DW_CFA_restore_state
  DW_CFA_advance_loc: 56 to 000000000042fdf7
  DW_CFA_remember_state
  DW_CFA_def_cfa_offset: 56
  DW_CFA_advance_loc: 8 to 000000000042fdff
  DW_CFA_def_cfa_offset: 48
  DW_CFA_advance_loc: 1 to 000000000042fe00
  DW_CFA_def_cfa_offset: 40
  DW_CFA_advance_loc: 2 to 000000000042fe02
  DW_CFA_def_cfa_offset: 32
  DW_CFA_advance_loc: 2 to 000000000042fe04
  DW_CFA_def_cfa_offset: 24
  DW_CFA_advance_loc: 2 to 000000000042fe06
  DW_CFA_def_cfa_offset: 16
  DW_CFA_advance_loc: 2 to 000000000042fe08
  DW_CFA_def_cfa_offset: 8
  DW_CFA_advance_loc: 5 to 000000000042fe0d
  DW_CFA_restore_state
  DW_CFA_advance_loc: 46 to 000000000042fe3b
  DW_CFA_remember_state
  DW_CFA_def_cfa_offset: 56
  DW_CFA_advance_loc: 8 to 000000000042fe43
  DW_CFA_def_cfa_offset: 48
  DW_CFA_advance_loc: 1 to 000000000042fe44
  DW_CFA_def_cfa_offset: 40
  DW_CFA_advance_loc: 2 to 000000000042fe46
  DW_CFA_def_cfa_offset: 32
  DW_CFA_advance_loc: 2 to 000000000042fe48
  DW_CFA_def_cfa_offset: 24
  DW_CFA_advance_loc: 2 to 000000000042fe4a
  DW_CFA_def_cfa_offset: 16
  DW_CFA_advance_loc: 2 to 000000000042fe4c
  DW_CFA_def_cfa_offset: 8
  DW_CFA_advance_loc: 5 to 000000000042fe51
  DW_CFA_restore_state
  DW_CFA_advance_loc: 56 to 000000000042fe89
  DW_CFA_remember_state
  DW_CFA_def_cfa_offset: 56
  DW_CFA_advance_loc: 8 to 000000000042fe91
  DW_CFA_def_cfa_offset: 48
  DW_CFA_advance_loc: 1 to 000000000042fe92
  DW_CFA_def_cfa_offset: 40
  DW_CFA_advance_loc: 2 to 000000000042fe94
  DW_CFA_def_cfa_offset: 32
  DW_CFA_advance_loc: 2 to 000000000042fe96
  DW_CFA_def_cfa_offset: 24
  DW_CFA_advance_loc: 2 to 000000000042fe98
  DW_CFA_def_cfa_offset: 16
  DW_CFA_advance_loc: 2 to 000000000042fe9a
  DW_CFA_def_cfa_offset: 8
  DW_CFA_advance_loc: 5 to 000000000042fe9f
  DW_CFA_restore_state
  DW_CFA_advance_loc: 46 to 000000000042fecd
  DW_CFA_remember_state
  DW_CFA_def_cfa_offset: 56
  DW_CFA_advance_loc: 8 to 000000000042fed5
  DW_CFA_def_cfa_offset: 48
  DW_CFA_advance_loc: 1 to 000000000042fed6
  DW_CFA_def_cfa_offset: 40
  DW_CFA_advance_loc: 2 to 000000000042fed8
  DW_CFA_def_cfa_offset: 32
  DW_CFA_advance_loc: 2 to 000000000042feda
  DW_CFA_def_cfa_offset: 24
  DW_CFA_advance_loc: 2 to 000000000042fedc
  DW_CFA_def_cfa_offset: 16
  DW_CFA_advance_loc: 2 to 000000000042fede
  DW_CFA_def_cfa_offset: 8
  DW_CFA_advance_loc: 5 to 000000000042fee3
  DW_CFA_restore_state
  DW_CFA_advance_loc: 56 to 000000000042ff1b
  DW_CFA_remember_state
  DW_CFA_def_cfa_offset: 56
  DW_CFA_advance_loc: 8 to 000000000042ff23
  DW_CFA_def_cfa_offset: 48
  DW_CFA_advance_loc: 1 to 000000000042ff24
  DW_CFA_def_cfa_offset: 40
  DW_CFA_advance_loc: 2 to 000000000042ff26
  DW_CFA_def_cfa_offset: 32
  DW_CFA_advance_loc: 2 to 000000000042ff28
  DW_CFA_def_cfa_offset: 24
  DW_CFA_advance_loc: 2 to 000000000042ff2a
  DW_CFA_def_cfa_offset: 16
  DW_CFA_advance_loc: 2 to 000000000042ff2c
  DW_CFA_def_cfa_offset: 8
  DW_CFA_advance_loc: 5 to 000000000042ff31
  DW_CFA_restore_state
  DW_CFA_advance_loc: 46 to 000000000042ff5f
  DW_CFA_remember_state
  DW_CFA_def_cfa_offset: 56
  DW_CFA_advance_loc: 8 to 000000000042ff67
  DW_CFA_def_cfa_offset: 48
  DW_CFA_advance_loc: 1 to 000000000042ff68
  DW_CFA_def_cfa_offset: 40
  DW_CFA_advance_loc: 2 to 000000000042ff6a
  DW_CFA_def_cfa_offset: 32
  DW_CFA_advance_loc: 2 to 000000000042ff6c
  DW_CFA_def_cfa_offset: 24
  DW_CFA_advance_loc: 2 to 000000000042ff6e
  DW_CFA_def_cfa_offset: 16
  DW_CFA_advance_loc: 2 to 000000000042ff70
  DW_CFA_def_cfa_offset: 8
  DW_CFA_advance_loc: 5 to 000000000042ff75
  DW_CFA_restore_state
  DW_CFA_advance_loc: 56 to 000000000042ffad
  DW_CFA_remember_state
  DW_CFA_def_cfa_offset: 56
  DW_CFA_advance_loc: 8 to 000000000042ffb5
  DW_CFA_def_cfa_offset: 48
  DW_CFA_advance_loc: 1 to 000000000042ffb6
  DW_CFA_def_cfa_offset: 40
  DW_CFA_advance_loc: 2 to 000000000042ffb8
  DW_CFA_def_cfa_offset: 32
  DW_CFA_advance_loc: 2 to 000000000042ffba
  DW_CFA_def_cfa_offset: 24
  DW_CFA_advance_loc: 2 to 000000000042ffbc
  DW_CFA_def_cfa_offset: 16
  DW_CFA_advance_loc: 2 to 000000000042ffbe
  DW_CFA_def_cfa_offset: 8
  DW_CFA_advance_loc: 5 to 000000000042ffc3
  DW_CFA_restore_state
  DW_CFA_advance_loc: 46 to 000000000042fff1
  DW_CFA_remember_state
  DW_CFA_def_cfa_offset: 56
  DW_CFA_advance_loc: 8 to 000000000042fff9
  DW_CFA_def_cfa_offset: 48
  DW_CFA_advance_loc: 1 to 000000000042fffa
  DW_CFA_def_cfa_offset: 40
  DW_CFA_advance_loc: 2 to 000000000042fffc
  DW_CFA_def_cfa_offset: 32
  DW_CFA_advance_loc: 2 to 000000000042fffe
  DW_CFA_def_cfa_offset: 24
  DW_CFA_advance_loc: 2 to 0000000000430000
  DW_CFA_def_cfa_offset: 16
  DW_CFA_advance_loc: 2 to 0000000000430002
  DW_CFA_def_cfa_offset: 8
  DW_CFA_advance_loc: 5 to 0000000000430007
  DW_CFA_restore_state
  DW_CFA_advance_loc: 56 to 000000000043003f
  DW_CFA_remember_state
  DW_CFA_def_cfa_offset: 56
  DW_CFA_advance_loc: 8 to 0000000000430047
  DW_CFA_def_cfa_offset: 48
  DW_CFA_advance_loc: 1 to 0000000000430048
  DW_CFA_def_cfa_offset: 40
  DW_CFA_advance_loc: 2 to 000000000043004a
  DW_CFA_def_cfa_offset: 32
  DW_CFA_advance_loc: 2 to 000000000043004c
  DW_CFA_def_cfa_offset: 24
  DW_CFA_advance_loc: 2 to 000000000043004e
  DW_CFA_def_cfa_offset: 16
  DW_CFA_advance_loc: 2 to 0000000000430050
  DW_CFA_def_cfa_offset: 8
  DW_CFA_advance_loc: 5 to 0000000000430055
  DW_CFA_restore_state
  DW_CFA_advance_loc: 46 to 0000000000430083
  DW_CFA_remember_state
  DW_CFA_def_cfa_offset: 56
  DW_CFA_advance_loc: 8 to 000000000043008b
  DW_CFA_def_cfa_offset: 48
  DW_CFA_advance_loc: 1 to 000000000043008c
  DW_CFA_def_cfa_offset: 40
  DW_CFA_advance_loc: 2 to 000000000043008e
  DW_CFA_def_cfa_offset: 32
  DW_CFA_advance_loc: 2 to 0000000000430090
  DW_CFA_def_cfa_offset: 24
  DW_CFA_advance_loc: 2 to 0000000000430092
  DW_CFA_def_cfa_offset: 16
  DW_CFA_advance_loc: 2 to 0000000000430094
  DW_CFA_def_cfa_offset: 8
  DW_CFA_advance_loc: 5 to 0000000000430099
  DW_CFA_restore_state
  DW_CFA_advance_loc: 56 to 00000000004300d1
  DW_CFA_remember_state
  DW_CFA_def_cfa_offset: 56
  DW_CFA_advance_loc: 8 to 00000000004300d9
  DW_CFA_def_cfa_offset: 48
  DW_CFA_advance_loc: 1 to 00000000004300da
  DW_CFA_def_cfa_offset: 40
  DW_CFA_advance_loc: 2 to 00000000004300dc
  DW_CFA_def_cfa_offset: 32
  DW_CFA_advance_loc: 2 to 00000000004300de
  DW_CFA_def_cfa_offset: 24
  DW_CFA_advance_loc: 2 to 00000000004300e0
  DW_CFA_def_cfa_offset: 16
  DW_CFA_advance_loc: 2 to 00000000004300e2
  DW_CFA_def_cfa_offset: 8
  DW_CFA_advance_loc: 5 to 00000000004300e7
  DW_CFA_restore_state
  DW_CFA_advance_loc: 46 to 0000000000430115
  DW_CFA_remember_state
  DW_CFA_def_cfa_offset: 56
  DW_CFA_advance_loc: 8 to 000000000043011d
  DW_CFA_def_cfa_offset: 48
  DW_CFA_advance_loc: 1 to 000000000043011e
  DW_CFA_def_cfa_offset: 40
  DW_CFA_advance_loc: 2 to 0000000000430120
  DW_CFA_def_cfa_offset: 32
  DW_CFA_advance_loc: 2 to 0000000000430122
  DW_CFA_def_cfa_offset: 24
  DW_CFA_advance_loc: 2 to 0000000000430124
  DW_CFA_def_cfa_offset: 16
  DW_CFA_advance_loc: 2 to 0000000000430126
  DW_CFA_def_cfa_offset: 8
  DW_CFA_advance_loc: 5 to 000000000043012b
  DW_CFA_restore_state
  DW_CFA_advance_loc: 56 to 0000000000430163
  DW_CFA_remember_state
  DW_CFA_def_cfa_offset: 56
  DW_CFA_advance_loc: 8 to 000000000043016b
  DW_CFA_def_cfa_offset: 48
  DW_CFA_advance_loc: 1 to 000000000043016c
  DW_CFA_def_cfa_offset: 40
  DW_CFA_advance_loc: 2 to 000000000043016e
  DW_CFA_def_cfa_offset: 32
  DW_CFA_advance_loc: 2 to 0000000000430170
  DW_CFA_def_cfa_offset: 24
  DW_CFA_advance_loc: 2 to 0000000000430172
  DW_CFA_def_cfa_offset: 16
  DW_CFA_advance_loc: 2 to 0000000000430174
  DW_CFA_def_cfa_offset: 8
  DW_CFA_advance_loc: 5 to 0000000000430179
  DW_CFA_restore_state
  DW_CFA_advance_loc: 46 to 00000000004301a7
  DW_CFA_remember_state
  DW_CFA_def_cfa_offset: 56
  DW_CFA_advance_loc: 8 to 00000000004301af
  DW_CFA_def_cfa_offset: 48
  DW_CFA_advance_loc: 1 to 00000000004301b0
  DW_CFA_def_cfa_offset: 40
  DW_CFA_advance_loc: 2 to 00000000004301b2
  DW_CFA_def_cfa_offset: 32
  DW_CFA_advance_loc: 2 to 00000000004301b4
  DW_CFA_def_cfa_offset: 24
  DW_CFA_advance_loc: 2 to 00000000004301b6
  DW_CFA_def_cfa_offset: 16
  DW_CFA_advance_loc: 2 to 00000000004301b8
  DW_CFA_def_cfa_offset: 8
  DW_CFA_advance_loc: 5 to 00000000004301bd
  DW_CFA_restore_state
  DW_CFA_advance_loc: 56 to 00000000004301f5
  DW_CFA_remember_state
  DW_CFA_def_cfa_offset: 56
  DW_CFA_advance_loc: 8 to 00000000004301fd
  DW_CFA_def_cfa_offset: 48
  DW_CFA_advance_loc: 1 to 00000000004301fe
  DW_CFA_def_cfa_offset: 40
  DW_CFA_advance_loc: 2 to 0000000000430200
  DW_CFA_def_cfa_offset: 32
  DW_CFA_advance_loc: 2 to 0000000000430202
  DW_CFA_def_cfa_offset: 24
  DW_CFA_advance_loc: 2 to 0000000000430204
  DW_CFA_def_cfa_offset: 16
  DW_CFA_advance_loc: 2 to 0000000000430206
  DW_CFA_def_cfa_offset: 8
  DW_CFA_advance_loc: 5 to 000000000043020b
  DW_CFA_restore_state
  DW_CFA_advance_loc: 46 to 0000000000430239
  DW_CFA_remember_state
  DW_CFA_def_cfa_offset: 56
  DW_CFA_advance_loc: 8 to 0000000000430241
  DW_CFA_def_cfa_offset: 48
  DW_CFA_advance_loc: 1 to 0000000000430242
  DW_CFA_def_cfa_offset: 40
  DW_CFA_advance_loc: 2 to 0000000000430244
  DW_CFA_def_cfa_offset: 32
  DW_CFA_advance_loc: 2 to 0000000000430246
  DW_CFA_def_cfa_offset: 24
  DW_CFA_advance_loc: 2 to 0000000000430248
  DW_CFA_def_cfa_offset: 16
  DW_CFA_advance_loc: 2 to 000000000043024a
  DW_CFA_def_cfa_offset: 8
  DW_CFA_advance_loc: 5 to 000000000043024f
  DW_CFA_restore_state
  DW_CFA_advance_loc: 56 to 0000000000430287
  DW_CFA_remember_state
  DW_CFA_def_cfa_offset: 56
  DW_CFA_advance_loc: 8 to 000000000043028f
  DW_CFA_def_cfa_offset: 48
  DW_CFA_advance_loc: 1 to 0000000000430290
  DW_CFA_def_cfa_offset: 40
  DW_CFA_advance_loc: 2 to 0000000000430292
  DW_CFA_def_cfa_offset: 32
  DW_CFA_advance_loc: 2 to 0000000000430294
  DW_CFA_def_cfa_offset: 24
  DW_CFA_advance_loc: 2 to 0000000000430296
  DW_CFA_def_cfa_offset: 16
  DW_CFA_advance_loc: 2 to 0000000000430298
  DW_CFA_def_cfa_offset: 8
  DW_CFA_advance_loc: 5 to 000000000043029d
  DW_CFA_restore_state
  DW_CFA_advance_loc: 46 to 00000000004302cb
  DW_CFA_remember_state
  DW_CFA_def_cfa_offset: 56
  DW_CFA_advance_loc: 8 to 00000000004302d3
  DW_CFA_def_cfa_offset: 48
  DW_CFA_advance_loc: 1 to 00000000004302d4
  DW_CFA_def_cfa_offset: 40
  DW_CFA_advance_loc: 2 to 00000000004302d6
  DW_CFA_def_cfa_offset: 32
  DW_CFA_advance_loc: 2 to 00000000004302d8
  DW_CFA_def_cfa_offset: 24
  DW_CFA_advance_loc: 2 to 00000000004302da
  DW_CFA_def_cfa_offset: 16
  DW_CFA_advance_loc: 2 to 00000000004302dc
  DW_CFA_def_cfa_offset: 8
  DW_CFA_advance_loc: 5 to 00000000004302e1
  DW_CFA_restore_state
  DW_CFA_advance_loc: 56 to 0000000000430319
  DW_CFA_remember_state
  DW_CFA_def_cfa_offset: 56
  DW_CFA_advance_loc: 8 to 0000000000430321
  DW_CFA_def_cfa_offset: 48
  DW_CFA_advance_loc: 1 to 0000000000430322
  DW_CFA_def_cfa_offset: 40
  DW_CFA_advance_loc: 2 to 0000000000430324
  DW_CFA_def_cfa_offset: 32
  DW_CFA_advance_loc: 2 to 0000000000430326
  DW_CFA_def_cfa_offset: 24
  DW_CFA_advance_loc: 2 to 0000000000430328
  DW_CFA_def_cfa_offset: 16
  DW_CFA_advance_loc: 2 to 000000000043032a
  DW_CFA_def_cfa_offset: 8
  DW_CFA_advance_loc: 5 to 000000000043032f
  DW_CFA_restore_state
  DW_CFA_advance_loc: 46 to 000000000043035d
  DW_CFA_remember_state
  DW_CFA_def_cfa_offset: 56
  DW_CFA_advance_loc: 8 to 0000000000430365
  DW_CFA_def_cfa_offset: 48
  DW_CFA_advance_loc: 1 to 0000000000430366
  DW_CFA_def_cfa_offset: 40
  DW_CFA_advance_loc: 2 to 0000000000430368
  DW_CFA_def_cfa_offset: 32
  DW_CFA_advance_loc: 2 to 000000000043036a
  DW_CFA_def_cfa_offset: 24
  DW_CFA_advance_loc: 2 to 000000000043036c
  DW_CFA_def_cfa_offset: 16
  DW_CFA_advance_loc: 2 to 000000000043036e
  DW_CFA_def_cfa_offset: 8
  DW_CFA_advance_loc: 5 to 0000000000430373
  DW_CFA_restore_state
  DW_CFA_advance_loc: 56 to 00000000004303ab
  DW_CFA_remember_state
  DW_CFA_def_cfa_offset: 56
  DW_CFA_advance_loc: 8 to 00000000004303b3
  DW_CFA_def_cfa_offset: 48
  DW_CFA_advance_loc: 1 to 00000000004303b4
  DW_CFA_def_cfa_offset: 40
  DW_CFA_advance_loc: 2 to 00000000004303b6
  DW_CFA_def_cfa_offset: 32
  DW_CFA_advance_loc: 2 to 00000000004303b8
  DW_CFA_def_cfa_offset: 24
  DW_CFA_advance_loc: 2 to 00000000004303ba
  DW_CFA_def_cfa_offset: 16
  DW_CFA_advance_loc: 2 to 00000000004303bc
  DW_CFA_def_cfa_offset: 8
  DW_CFA_advance_loc: 5 to 00000000004303c1
  DW_CFA_restore_state
  DW_CFA_advance_loc: 46 to 00000000004303ef
  DW_CFA_remember_state
  DW_CFA_def_cfa_offset: 56
  DW_CFA_advance_loc: 8 to 00000000004303f7
  DW_CFA_def_cfa_offset: 48
  DW_CFA_advance_loc: 1 to 00000000004303f8
  DW_CFA_def_cfa_offset: 40
  DW_CFA_advance_loc: 2 to 00000000004303fa
  DW_CFA_def_cfa_offset: 32
  DW_CFA_advance_loc: 2 to 00000000004303fc
  DW_CFA_def_cfa_offset: 24
  DW_CFA_advance_loc: 2 to 00000000004303fe
  DW_CFA_def_cfa_offset: 16
  DW_CFA_advance_loc: 2 to 0000000000430400
  DW_CFA_def_cfa_offset: 8
  DW_CFA_advance_loc: 5 to 0000000000430405
  DW_CFA_restore_state
  DW_CFA_advance_loc: 56 to 000000000043043d
  DW_CFA_remember_state
  DW_CFA_def_cfa_offset: 56
  DW_CFA_advance_loc: 8 to 0000000000430445
  DW_CFA_def_cfa_offset: 48
  DW_CFA_advance_loc: 1 to 0000000000430446
  DW_CFA_def_cfa_offset: 40
  DW_CFA_advance_loc: 2 to 0000000000430448
  DW_CFA_def_cfa_offset: 32
  DW_CFA_advance_loc: 2 to 000000000043044a
  DW_CFA_def_cfa_offset: 24
  DW_CFA_advance_loc: 2 to 000000000043044c
  DW_CFA_def_cfa_offset: 16
  DW_CFA_advance_loc: 2 to 000000000043044e
  DW_CFA_def_cfa_offset: 8
  DW_CFA_advance_loc: 5 to 0000000000430453
  DW_CFA_restore_state
  DW_CFA_advance_loc: 46 to 0000000000430481
  DW_CFA_remember_state
  DW_CFA_def_cfa_offset: 56
  DW_CFA_advance_loc: 8 to 0000000000430489
  DW_CFA_def_cfa_offset: 48
  DW_CFA_advance_loc: 1 to 000000000043048a
  DW_CFA_def_cfa_offset: 40
  DW_CFA_advance_loc: 2 to 000000000043048c
  DW_CFA_def_cfa_offset: 32
  DW_CFA_advance_loc: 2 to 000000000043048e
  DW_CFA_def_cfa_offset: 24
  DW_CFA_advance_loc: 2 to 0000000000430490
  DW_CFA_def_cfa_offset: 16
  DW_CFA_advance_loc: 2 to 0000000000430492
  DW_CFA_def_cfa_offset: 8
  DW_CFA_advance_loc: 5 to 0000000000430497
  DW_CFA_restore_state
  DW_CFA_advance_loc: 56 to 00000000004304cf
  DW_CFA_remember_state
  DW_CFA_def_cfa_offset: 56
  DW_CFA_advance_loc: 8 to 00000000004304d7
  DW_CFA_def_cfa_offset: 48
  DW_CFA_advance_loc: 1 to 00000000004304d8
  DW_CFA_def_cfa_offset: 40
  DW_CFA_advance_loc: 2 to 00000000004304da
  DW_CFA_def_cfa_offset: 32
  DW_CFA_advance_loc: 2 to 00000000004304dc
  DW_CFA_def_cfa_offset: 24
  DW_CFA_advance_loc: 2 to 00000000004304de
  DW_CFA_def_cfa_offset: 16
  DW_CFA_advance_loc: 2 to 00000000004304e0
  DW_CFA_def_cfa_offset: 8
  DW_CFA_advance_loc: 5 to 00000000004304e5
  DW_CFA_restore_state
  DW_CFA_advance_loc: 46 to 0000000000430513
  DW_CFA_remember_state
  DW_CFA_def_cfa_offset: 56
  DW_CFA_advance_loc: 8 to 000000000043051b
  DW_CFA_def_cfa_offset: 48
  DW_CFA_advance_loc: 1 to 000000000043051c
  DW_CFA_def_cfa_offset: 40
  DW_CFA_advance_loc: 2 to 000000000043051e
  DW_CFA_def_cfa_offset: 32
  DW_CFA_advance_loc: 2 to 0000000000430520
  DW_CFA_def_cfa_offset: 24
  DW_CFA_advance_loc: 2 to 0000000000430522
  DW_CFA_def_cfa_offset: 16
  DW_CFA_advance_loc: 2 to 0000000000430524
  DW_CFA_def_cfa_offset: 8
  DW_CFA_advance_loc: 5 to 0000000000430529
  DW_CFA_restore_state
  DW_CFA_advance_loc: 56 to 0000000000430561
  DW_CFA_remember_state
  DW_CFA_def_cfa_offset: 56
  DW_CFA_advance_loc: 8 to 0000000000430569
  DW_CFA_def_cfa_offset: 48
  DW_CFA_advance_loc: 1 to 000000000043056a
  DW_CFA_def_cfa_offset: 40
  DW_CFA_advance_loc: 2 to 000000000043056c
  DW_CFA_def_cfa_offset: 32
  DW_CFA_advance_loc: 2 to 000000000043056e
  DW_CFA_def_cfa_offset: 24
  DW_CFA_advance_loc: 2 to 0000000000430570
  DW_CFA_def_cfa_offset: 16
  DW_CFA_advance_loc: 2 to 0000000000430572
  DW_CFA_def_cfa_offset: 8
  DW_CFA_advance_loc: 5 to 0000000000430577
  DW_CFA_restore_state
  DW_CFA_advance_loc: 46 to 00000000004305a5
  DW_CFA_remember_state
  DW_CFA_def_cfa_offset: 56
  DW_CFA_advance_loc: 8 to 00000000004305ad
  DW_CFA_def_cfa_offset: 48
  DW_CFA_advance_loc: 1 to 00000000004305ae
  DW_CFA_def_cfa_offset: 40
  DW_CFA_advance_loc: 2 to 00000000004305b0
  DW_CFA_def_cfa_offset: 32
  DW_CFA_advance_loc: 2 to 00000000004305b2
  DW_CFA_def_cfa_offset: 24
  DW_CFA_advance_loc: 2 to 00000000004305b4
  DW_CFA_def_cfa_offset: 16
  DW_CFA_advance_loc: 2 to 00000000004305b6
  DW_CFA_def_cfa_offset: 8
  DW_CFA_advance_loc: 5 to 00000000004305bb
  DW_CFA_restore_state
  DW_CFA_advance_loc: 56 to 00000000004305f3
  DW_CFA_remember_state
  DW_CFA_def_cfa_offset: 56
  DW_CFA_advance_loc: 8 to 00000000004305fb
  DW_CFA_def_cfa_offset: 48
  DW_CFA_advance_loc: 1 to 00000000004305fc
  DW_CFA_def_cfa_offset: 40
  DW_CFA_advance_loc: 2 to 00000000004305fe
  DW_CFA_def_cfa_offset: 32
  DW_CFA_advance_loc: 2 to 0000000000430600
  DW_CFA_def_cfa_offset: 24
  DW_CFA_advance_loc: 2 to 0000000000430602
  DW_CFA_def_cfa_offset: 16
  DW_CFA_advance_loc: 2 to 0000000000430604
  DW_CFA_def_cfa_offset: 8
  DW_CFA_advance_loc: 5 to 0000000000430609
  DW_CFA_restore_state
  DW_CFA_advance_loc: 46 to 0000000000430637
  DW_CFA_remember_state
  DW_CFA_def_cfa_offset: 56
  DW_CFA_advance_loc: 8 to 000000000043063f
  DW_CFA_def_cfa_offset: 48
  DW_CFA_advance_loc: 1 to 0000000000430640
  DW_CFA_def_cfa_offset: 40
  DW_CFA_advance_loc: 2 to 0000000000430642
  DW_CFA_def_cfa_offset: 32
  DW_CFA_advance_loc: 2 to 0000000000430644
  DW_CFA_def_cfa_offset: 24
  DW_CFA_advance_loc: 2 to 0000000000430646
  DW_CFA_def_cfa_offset: 16
  DW_CFA_advance_loc: 2 to 0000000000430648
  DW_CFA_def_cfa_offset: 8
  DW_CFA_advance_loc: 5 to 000000000043064d
  DW_CFA_restore_state
  DW_CFA_advance_loc: 56 to 0000000000430685
  DW_CFA_remember_state
  DW_CFA_def_cfa_offset: 56
  DW_CFA_advance_loc: 8 to 000000000043068d
  DW_CFA_def_cfa_offset: 48
  DW_CFA_advance_loc: 1 to 000000000043068e
  DW_CFA_def_cfa_offset: 40
  DW_CFA_advance_loc: 2 to 0000000000430690
  DW_CFA_def_cfa_offset: 32
  DW_CFA_advance_loc: 2 to 0000000000430692
  DW_CFA_def_cfa_offset: 24
  DW_CFA_advance_loc: 2 to 0000000000430694
  DW_CFA_def_cfa_offset: 16
  DW_CFA_advance_loc: 2 to 0000000000430696
  DW_CFA_def_cfa_offset: 8
  DW_CFA_advance_loc: 5 to 000000000043069b
  DW_CFA_restore_state
  DW_CFA_advance_loc: 46 to 00000000004306c9
  DW_CFA_remember_state
  DW_CFA_def_cfa_offset: 56
  DW_CFA_advance_loc: 8 to 00000000004306d1
  DW_CFA_def_cfa_offset: 48
  DW_CFA_advance_loc: 1 to 00000000004306d2
  DW_CFA_def_cfa_offset: 40
  DW_CFA_advance_loc: 2 to 00000000004306d4
  DW_CFA_def_cfa_offset: 32
  DW_CFA_advance_loc: 2 to 00000000004306d6
  DW_CFA_def_cfa_offset: 24
  DW_CFA_advance_loc: 2 to 00000000004306d8
  DW_CFA_def_cfa_offset: 16
  DW_CFA_advance_loc: 2 to 00000000004306da
  DW_CFA_def_cfa_offset: 8
  DW_CFA_advance_loc: 5 to 00000000004306df
  DW_CFA_restore_state
  DW_CFA_advance_loc: 56 to 0000000000430717
  DW_CFA_remember_state
  DW_CFA_def_cfa_offset: 56
  DW_CFA_advance_loc: 8 to 000000000043071f
  DW_CFA_def_cfa_offset: 48
  DW_CFA_advance_loc: 1 to 0000000000430720
  DW_CFA_def_cfa_offset: 40
  DW_CFA_advance_loc: 2 to 0000000000430722
  DW_CFA_def_cfa_offset: 32
  DW_CFA_advance_loc: 2 to 0000000000430724
  DW_CFA_def_cfa_offset: 24
  DW_CFA_advance_loc: 2 to 0000000000430726
  DW_CFA_def_cfa_offset: 16
  DW_CFA_advance_loc: 2 to 0000000000430728
  DW_CFA_def_cfa_offset: 8
  DW_CFA_advance_loc: 5 to 000000000043072d
  DW_CFA_restore_state
  DW_CFA_advance_loc: 46 to 000000000043075b
  DW_CFA_remember_state
  DW_CFA_def_cfa_offset: 56
  DW_CFA_advance_loc: 8 to 0000000000430763
  DW_CFA_def_cfa_offset: 48
  DW_CFA_advance_loc: 1 to 0000000000430764
  DW_CFA_def_cfa_offset: 40
  DW_CFA_advance_loc: 2 to 0000000000430766
  DW_CFA_def_cfa_offset: 32
  DW_CFA_advance_loc: 2 to 0000000000430768
  DW_CFA_def_cfa_offset: 24
  DW_CFA_advance_loc: 2 to 000000000043076a
  DW_CFA_def_cfa_offset: 16
  DW_CFA_advance_loc: 2 to 000000000043076c
  DW_CFA_def_cfa_offset: 8
  DW_CFA_advance_loc: 5 to 0000000000430771
  DW_CFA_restore_state
  DW_CFA_advance_loc: 56 to 00000000004307a9
  DW_CFA_remember_state
  DW_CFA_def_cfa_offset: 56
  DW_CFA_advance_loc: 8 to 00000000004307b1
  DW_CFA_def_cfa_offset: 48
  DW_CFA_advance_loc: 1 to 00000000004307b2
  DW_CFA_def_cfa_offset: 40
  DW_CFA_advance_loc: 2 to 00000000004307b4
  DW_CFA_def_cfa_offset: 32
  DW_CFA_advance_loc: 2 to 00000000004307b6
  DW_CFA_def_cfa_offset: 24
  DW_CFA_advance_loc: 2 to 00000000004307b8
  DW_CFA_def_cfa_offset: 16
  DW_CFA_advance_loc: 2 to 00000000004307ba
  DW_CFA_def_cfa_offset: 8
  DW_CFA_advance_loc: 5 to 00000000004307bf
  DW_CFA_restore_state
  DW_CFA_advance_loc: 46 to 00000000004307ed
  DW_CFA_remember_state
  DW_CFA_def_cfa_offset: 56
  DW_CFA_advance_loc: 8 to 00000000004307f5
  DW_CFA_def_cfa_offset: 48
  DW_CFA_advance_loc: 1 to 00000000004307f6
  DW_CFA_def_cfa_offset: 40
  DW_CFA_advance_loc: 2 to 00000000004307f8
  DW_CFA_def_cfa_offset: 32
  DW_CFA_advance_loc: 2 to 00000000004307fa
  DW_CFA_def_cfa_offset: 24
  DW_CFA_advance_loc: 2 to 00000000004307fc
  DW_CFA_def_cfa_offset: 16
  DW_CFA_advance_loc: 2 to 00000000004307fe
  DW_CFA_def_cfa_offset: 8
  DW_CFA_advance_loc: 5 to 0000000000430803
  DW_CFA_restore_state
  DW_CFA_advance_loc: 56 to 000000000043083b
  DW_CFA_remember_state
  DW_CFA_def_cfa_offset: 56
  DW_CFA_advance_loc: 8 to 0000000000430843
  DW_CFA_def_cfa_offset: 48
  DW_CFA_advance_loc: 1 to 0000000000430844
  DW_CFA_def_cfa_offset: 40
  DW_CFA_advance_loc: 2 to 0000000000430846
  DW_CFA_def_cfa_offset: 32
  DW_CFA_advance_loc: 2 to 0000000000430848
  DW_CFA_def_cfa_offset: 24
  DW_CFA_advance_loc: 2 to 000000000043084a
  DW_CFA_def_cfa_offset: 16
  DW_CFA_advance_loc: 2 to 000000000043084c
  DW_CFA_def_cfa_offset: 8
  DW_CFA_advance_loc: 5 to 0000000000430851
  DW_CFA_restore_state
  DW_CFA_advance_loc: 46 to 000000000043087f
  DW_CFA_remember_state
  DW_CFA_def_cfa_offset: 56
  DW_CFA_advance_loc: 8 to 0000000000430887
  DW_CFA_def_cfa_offset: 48
  DW_CFA_advance_loc: 1 to 0000000000430888
  DW_CFA_def_cfa_offset: 40
  DW_CFA_advance_loc: 2 to 000000000043088a
  DW_CFA_def_cfa_offset: 32
  DW_CFA_advance_loc: 2 to 000000000043088c
  DW_CFA_def_cfa_offset: 24
  DW_CFA_advance_loc: 2 to 000000000043088e
  DW_CFA_def_cfa_offset: 16
  DW_CFA_advance_loc: 2 to 0000000000430890
  DW_CFA_def_cfa_offset: 8
  DW_CFA_advance_loc: 5 to 0000000000430895
  DW_CFA_restore_state
  DW_CFA_advance_loc: 56 to 00000000004308cd
  DW_CFA_remember_state
  DW_CFA_def_cfa_offset: 56
  DW_CFA_advance_loc: 8 to 00000000004308d5
  DW_CFA_def_cfa_offset: 48
  DW_CFA_advance_loc: 1 to 00000000004308d6
  DW_CFA_def_cfa_offset: 40
  DW_CFA_advance_loc: 2 to 00000000004308d8
  DW_CFA_def_cfa_offset: 32
  DW_CFA_advance_loc: 2 to 00000000004308da
  DW_CFA_def_cfa_offset: 24
  DW_CFA_advance_loc: 2 to 00000000004308dc
  DW_CFA_def_cfa_offset: 16
  DW_CFA_advance_loc: 2 to 00000000004308de
  DW_CFA_def_cfa_offset: 8
  DW_CFA_advance_loc: 5 to 00000000004308e3
  DW_CFA_restore_state
  DW_CFA_advance_loc: 46 to 0000000000430911
  DW_CFA_remember_state
  DW_CFA_def_cfa_offset: 56
  DW_CFA_advance_loc: 8 to 0000000000430919
  DW_CFA_def_cfa_offset: 48
  DW_CFA_advance_loc: 1 to 000000000043091a
  DW_CFA_def_cfa_offset: 40
  DW_CFA_advance_loc: 2 to 000000000043091c
  DW_CFA_def_cfa_offset: 32
  DW_CFA_advance_loc: 2 to 000000000043091e
  DW_CFA_def_cfa_offset: 24
  DW_CFA_advance_loc: 2 to 0000000000430920
  DW_CFA_def_cfa_offset: 16
  DW_CFA_advance_loc: 2 to 0000000000430922
  DW_CFA_def_cfa_offset: 8
  DW_CFA_advance_loc: 5 to 0000000000430927
  DW_CFA_restore_state
  DW_CFA_advance_loc: 56 to 000000000043095f
  DW_CFA_remember_state
  DW_CFA_def_cfa_offset: 56
  DW_CFA_advance_loc: 8 to 0000000000430967
  DW_CFA_def_cfa_offset: 48
  DW_CFA_advance_loc: 1 to 0000000000430968
  DW_CFA_def_cfa_offset: 40
  DW_CFA_advance_loc: 2 to 000000000043096a
  DW_CFA_def_cfa_offset: 32
  DW_CFA_advance_loc: 2 to 000000000043096c
  DW_CFA_def_cfa_offset: 24
  DW_CFA_advance_loc: 2 to 000000000043096e
  DW_CFA_def_cfa_offset: 16
  DW_CFA_advance_loc: 2 to 0000000000430970
  DW_CFA_def_cfa_offset: 8
  DW_CFA_advance_loc: 5 to 0000000000430975
  DW_CFA_restore_state
  DW_CFA_advance_loc: 46 to 00000000004309a3
  DW_CFA_remember_state
  DW_CFA_def_cfa_offset: 56
  DW_CFA_advance_loc: 8 to 00000000004309ab
  DW_CFA_def_cfa_offset: 48
  DW_CFA_advance_loc: 1 to 00000000004309ac
  DW_CFA_def_cfa_offset: 40
  DW_CFA_advance_loc: 2 to 00000000004309ae
  DW_CFA_def_cfa_offset: 32
  DW_CFA_advance_loc: 2 to 00000000004309b0
  DW_CFA_def_cfa_offset: 24
  DW_CFA_advance_loc: 2 to 00000000004309b2
  DW_CFA_def_cfa_offset: 16
  DW_CFA_advance_loc: 2 to 00000000004309b4
  DW_CFA_def_cfa_offset: 8
  DW_CFA_advance_loc: 5 to 00000000004309b9
  DW_CFA_restore_state
  DW_CFA_advance_loc: 56 to 00000000004309f1
  DW_CFA_remember_state
  DW_CFA_def_cfa_offset: 56
  DW_CFA_advance_loc: 8 to 00000000004309f9
  DW_CFA_def_cfa_offset: 48
  DW_CFA_advance_loc: 1 to 00000000004309fa
  DW_CFA_def_cfa_offset: 40
  DW_CFA_advance_loc: 2 to 00000000004309fc
  DW_CFA_def_cfa_offset: 32
  DW_CFA_advance_loc: 2 to 00000000004309fe
  DW_CFA_def_cfa_offset: 24
  DW_CFA_advance_loc: 2 to 0000000000430a00
  DW_CFA_def_cfa_offset: 16
  DW_CFA_advance_loc: 2 to 0000000000430a02
  DW_CFA_def_cfa_offset: 8
  DW_CFA_advance_loc: 5 to 0000000000430a07
  DW_CFA_restore_state
  DW_CFA_advance_loc: 46 to 0000000000430a35
  DW_CFA_remember_state
  DW_CFA_def_cfa_offset: 56
  DW_CFA_advance_loc: 8 to 0000000000430a3d
  DW_CFA_def_cfa_offset: 48
  DW_CFA_advance_loc: 1 to 0000000000430a3e
  DW_CFA_def_cfa_offset: 40
  DW_CFA_advance_loc: 2 to 0000000000430a40
  DW_CFA_def_cfa_offset: 32
  DW_CFA_advance_loc: 2 to 0000000000430a42
  DW_CFA_def_cfa_offset: 24
  DW_CFA_advance_loc: 2 to 0000000000430a44
  DW_CFA_def_cfa_offset: 16
  DW_CFA_advance_loc: 2 to 0000000000430a46
  DW_CFA_def_cfa_offset: 8
  DW_CFA_advance_loc: 5 to 0000000000430a4b
  DW_CFA_restore_state
  DW_CFA_advance_loc: 56 to 0000000000430a83
  DW_CFA_remember_state
  DW_CFA_def_cfa_offset: 56
  DW_CFA_advance_loc: 8 to 0000000000430a8b
  DW_CFA_def_cfa_offset: 48
  DW_CFA_advance_loc: 1 to 0000000000430a8c
  DW_CFA_def_cfa_offset: 40
  DW_CFA_advance_loc: 2 to 0000000000430a8e
  DW_CFA_def_cfa_offset: 32
  DW_CFA_advance_loc: 2 to 0000000000430a90
  DW_CFA_def_cfa_offset: 24
  DW_CFA_advance_loc: 2 to 0000000000430a92
  DW_CFA_def_cfa_offset: 16
  DW_CFA_advance_loc: 2 to 0000000000430a94
  DW_CFA_def_cfa_offset: 8
  DW_CFA_advance_loc: 5 to 0000000000430a99
  DW_CFA_restore_state
  DW_CFA_advance_loc: 46 to 0000000000430ac7
  DW_CFA_remember_state
  DW_CFA_def_cfa_offset: 56
  DW_CFA_advance_loc: 8 to 0000000000430acf
  DW_CFA_def_cfa_offset: 48
  DW_CFA_advance_loc: 1 to 0000000000430ad0
  DW_CFA_def_cfa_offset: 40
  DW_CFA_advance_loc: 2 to 0000000000430ad2
  DW_CFA_def_cfa_offset: 32
  DW_CFA_advance_loc: 2 to 0000000000430ad4
  DW_CFA_def_cfa_offset: 24
  DW_CFA_advance_loc: 2 to 0000000000430ad6
  DW_CFA_def_cfa_offset: 16
  DW_CFA_advance_loc: 2 to 0000000000430ad8
  DW_CFA_def_cfa_offset: 8
  DW_CFA_advance_loc: 5 to 0000000000430add
  DW_CFA_restore_state
  DW_CFA_advance_loc: 56 to 0000000000430b15
  DW_CFA_remember_state
  DW_CFA_def_cfa_offset: 56
  DW_CFA_advance_loc: 8 to 0000000000430b1d
  DW_CFA_def_cfa_offset: 48
  DW_CFA_advance_loc: 1 to 0000000000430b1e
  DW_CFA_def_cfa_offset: 40
  DW_CFA_advance_loc: 2 to 0000000000430b20
  DW_CFA_def_cfa_offset: 32
  DW_CFA_advance_loc: 2 to 0000000000430b22
  DW_CFA_def_cfa_offset: 24
  DW_CFA_advance_loc: 2 to 0000000000430b24
  DW_CFA_def_cfa_offset: 16
  DW_CFA_advance_loc: 2 to 0000000000430b26
  DW_CFA_def_cfa_offset: 8
  DW_CFA_advance_loc: 5 to 0000000000430b2b
  DW_CFA_restore_state
  DW_CFA_advance_loc: 46 to 0000000000430b59
  DW_CFA_remember_state
  DW_CFA_def_cfa_offset: 56
  DW_CFA_advance_loc: 8 to 0000000000430b61
  DW_CFA_def_cfa_offset: 48
  DW_CFA_advance_loc: 1 to 0000000000430b62
  DW_CFA_def_cfa_offset: 40
  DW_CFA_advance_loc: 2 to 0000000000430b64
  DW_CFA_def_cfa_offset: 32
  DW_CFA_advance_loc: 2 to 0000000000430b66
  DW_CFA_def_cfa_offset: 24
  DW_CFA_advance_loc: 2 to 0000000000430b68
  DW_CFA_def_cfa_offset: 16
  DW_CFA_advance_loc: 2 to 0000000000430b6a
  DW_CFA_def_cfa_offset: 8
  DW_CFA_advance_loc: 5 to 0000000000430b6f
  DW_CFA_restore_state
  DW_CFA_advance_loc: 56 to 0000000000430ba7
  DW_CFA_remember_state
  DW_CFA_def_cfa_offset: 56
  DW_CFA_advance_loc: 8 to 0000000000430baf
  DW_CFA_def_cfa_offset: 48
  DW_CFA_advance_loc: 1 to 0000000000430bb0
  DW_CFA_def_cfa_offset: 40
  DW_CFA_advance_loc: 2 to 0000000000430bb2
  DW_CFA_def_cfa_offset: 32
  DW_CFA_advance_loc: 2 to 0000000000430bb4
  DW_CFA_def_cfa_offset: 24
  DW_CFA_advance_loc: 2 to 0000000000430bb6
  DW_CFA_def_cfa_offset: 16
  DW_CFA_advance_loc: 2 to 0000000000430bb8
  DW_CFA_def_cfa_offset: 8
  DW_CFA_advance_loc: 5 to 0000000000430bbd
  DW_CFA_restore_state
  DW_CFA_advance_loc: 46 to 0000000000430beb
  DW_CFA_remember_state
  DW_CFA_def_cfa_offset: 56
  DW_CFA_advance_loc: 8 to 0000000000430bf3
  DW_CFA_def_cfa_offset: 48
  DW_CFA_advance_loc: 1 to 0000000000430bf4
  DW_CFA_def_cfa_offset: 40
  DW_CFA_advance_loc: 2 to 0000000000430bf6
  DW_CFA_def_cfa_offset: 32
  DW_CFA_advance_loc: 2 to 0000000000430bf8
  DW_CFA_def_cfa_offset: 24
  DW_CFA_advance_loc: 2 to 0000000000430bfa
  DW_CFA_def_cfa_offset: 16
  DW_CFA_advance_loc: 2 to 0000000000430bfc
  DW_CFA_def_cfa_offset: 8
  DW_CFA_advance_loc: 5 to 0000000000430c01
  DW_CFA_restore_state
  DW_CFA_advance_loc: 56 to 0000000000430c39
  DW_CFA_remember_state
  DW_CFA_def_cfa_offset: 56
  DW_CFA_advance_loc: 8 to 0000000000430c41
  DW_CFA_def_cfa_offset: 48
  DW_CFA_advance_loc: 1 to 0000000000430c42
  DW_CFA_def_cfa_offset: 40
  DW_CFA_advance_loc: 2 to 0000000000430c44
  DW_CFA_def_cfa_offset: 32
  DW_CFA_advance_loc: 2 to 0000000000430c46
  DW_CFA_def_cfa_offset: 24
  DW_CFA_advance_loc: 2 to 0000000000430c48
  DW_CFA_def_cfa_offset: 16
  DW_CFA_advance_loc: 2 to 0000000000430c4a
  DW_CFA_def_cfa_offset: 8
  DW_CFA_advance_loc: 5 to 0000000000430c4f
  DW_CFA_restore_state
  DW_CFA_advance_loc: 46 to 0000000000430c7d
  DW_CFA_remember_state
  DW_CFA_def_cfa_offset: 56
  DW_CFA_advance_loc: 8 to 0000000000430c85
  DW_CFA_def_cfa_offset: 48
  DW_CFA_advance_loc: 1 to 0000000000430c86
  DW_CFA_def_cfa_offset: 40
  DW_CFA_advance_loc: 2 to 0000000000430c88
  DW_CFA_def_cfa_offset: 32
  DW_CFA_advance_loc: 2 to 0000000000430c8a
  DW_CFA_def_cfa_offset: 24
  DW_CFA_advance_loc: 2 to 0000000000430c8c
  DW_CFA_def_cfa_offset: 16
  DW_CFA_advance_loc: 2 to 0000000000430c8e
  DW_CFA_def_cfa_offset: 8
  DW_CFA_advance_loc: 5 to 0000000000430c93
  DW_CFA_restore_state
  DW_CFA_advance_loc: 56 to 0000000000430ccb
  DW_CFA_remember_state
  DW_CFA_def_cfa_offset: 56
  DW_CFA_advance_loc: 8 to 0000000000430cd3
  DW_CFA_def_cfa_offset: 48
  DW_CFA_advance_loc: 1 to 0000000000430cd4
  DW_CFA_def_cfa_offset: 40
  DW_CFA_advance_loc: 2 to 0000000000430cd6
  DW_CFA_def_cfa_offset: 32
  DW_CFA_advance_loc: 2 to 0000000000430cd8
  DW_CFA_def_cfa_offset: 24
  DW_CFA_advance_loc: 2 to 0000000000430cda
  DW_CFA_def_cfa_offset: 16
  DW_CFA_advance_loc: 2 to 0000000000430cdc
  DW_CFA_def_cfa_offset: 8
  DW_CFA_advance_loc: 5 to 0000000000430ce1
  DW_CFA_restore_state
  DW_CFA_advance_loc: 46 to 0000000000430d0f
  DW_CFA_remember_state
  DW_CFA_def_cfa_offset: 56
  DW_CFA_advance_loc: 8 to 0000000000430d17
  DW_CFA_def_cfa_offset: 48
  DW_CFA_advance_loc: 1 to 0000000000430d18
  DW_CFA_def_cfa_offset: 40
  DW_CFA_advance_loc: 2 to 0000000000430d1a
  DW_CFA_def_cfa_offset: 32
  DW_CFA_advance_loc: 2 to 0000000000430d1c
  DW_CFA_def_cfa_offset: 24
  DW_CFA_advance_loc: 2 to 0000000000430d1e
  DW_CFA_def_cfa_offset: 16
  DW_CFA_advance_loc: 2 to 0000000000430d20
  DW_CFA_def_cfa_offset: 8
  DW_CFA_advance_loc: 5 to 0000000000430d25
  DW_CFA_restore_state
  DW_CFA_advance_loc: 56 to 0000000000430d5d
  DW_CFA_remember_state
  DW_CFA_def_cfa_offset: 56
  DW_CFA_advance_loc: 8 to 0000000000430d65
  DW_CFA_def_cfa_offset: 48
  DW_CFA_advance_loc: 1 to 0000000000430d66
  DW_CFA_def_cfa_offset: 40
  DW_CFA_advance_loc: 2 to 0000000000430d68
  DW_CFA_def_cfa_offset: 32
  DW_CFA_advance_loc: 2 to 0000000000430d6a
  DW_CFA_def_cfa_offset: 24
  DW_CFA_advance_loc: 2 to 0000000000430d6c
  DW_CFA_def_cfa_offset: 16
  DW_CFA_advance_loc: 2 to 0000000000430d6e
  DW_CFA_def_cfa_offset: 8
  DW_CFA_advance_loc: 5 to 0000000000430d73
  DW_CFA_restore_state
  DW_CFA_advance_loc: 46 to 0000000000430da1
  DW_CFA_remember_state
  DW_CFA_def_cfa_offset: 56
  DW_CFA_advance_loc: 8 to 0000000000430da9
  DW_CFA_def_cfa_offset: 48
  DW_CFA_advance_loc: 1 to 0000000000430daa
  DW_CFA_def_cfa_offset: 40
  DW_CFA_advance_loc: 2 to 0000000000430dac
  DW_CFA_def_cfa_offset: 32
  DW_CFA_advance_loc: 2 to 0000000000430dae
  DW_CFA_def_cfa_offset: 24
  DW_CFA_advance_loc: 2 to 0000000000430db0
  DW_CFA_def_cfa_offset: 16
  DW_CFA_advance_loc: 2 to 0000000000430db2
  DW_CFA_def_cfa_offset: 8
  DW_CFA_advance_loc: 5 to 0000000000430db7
  DW_CFA_restore_state
  DW_CFA_advance_loc: 56 to 0000000000430def
  DW_CFA_remember_state
  DW_CFA_def_cfa_offset: 56
  DW_CFA_advance_loc: 8 to 0000000000430df7
  DW_CFA_def_cfa_offset: 48
  DW_CFA_advance_loc: 1 to 0000000000430df8
  DW_CFA_def_cfa_offset: 40
  DW_CFA_advance_loc: 2 to 0000000000430dfa
  DW_CFA_def_cfa_offset: 32
  DW_CFA_advance_loc: 2 to 0000000000430dfc
  DW_CFA_def_cfa_offset: 24
  DW_CFA_advance_loc: 2 to 0000000000430dfe
  DW_CFA_def_cfa_offset: 16
  DW_CFA_advance_loc: 2 to 0000000000430e00
  DW_CFA_def_cfa_offset: 8
  DW_CFA_advance_loc: 5 to 0000000000430e05
  DW_CFA_restore_state
  DW_CFA_advance_loc: 46 to 0000000000430e33
  DW_CFA_remember_state
  DW_CFA_def_cfa_offset: 56
  DW_CFA_advance_loc: 8 to 0000000000430e3b
  DW_CFA_def_cfa_offset: 48
  DW_CFA_advance_loc: 1 to 0000000000430e3c
  DW_CFA_def_cfa_offset: 40
  DW_CFA_advance_loc: 2 to 0000000000430e3e
  DW_CFA_def_cfa_offset: 32
  DW_CFA_advance_loc: 2 to 0000000000430e40
  DW_CFA_def_cfa_offset: 24
  DW_CFA_advance_loc: 2 to 0000000000430e42
  DW_CFA_def_cfa_offset: 16
  DW_CFA_advance_loc: 2 to 0000000000430e44
  DW_CFA_def_cfa_offset: 8
  DW_CFA_advance_loc: 5 to 0000000000430e49
  DW_CFA_restore_state
  DW_CFA_advance_loc: 56 to 0000000000430e81
  DW_CFA_remember_state
  DW_CFA_def_cfa_offset: 56
  DW_CFA_advance_loc: 8 to 0000000000430e89
  DW_CFA_def_cfa_offset: 48
  DW_CFA_advance_loc: 1 to 0000000000430e8a
  DW_CFA_def_cfa_offset: 40
  DW_CFA_advance_loc: 2 to 0000000000430e8c
  DW_CFA_def_cfa_offset: 32
  DW_CFA_advance_loc: 2 to 0000000000430e8e
  DW_CFA_def_cfa_offset: 24
  DW_CFA_advance_loc: 2 to 0000000000430e90
  DW_CFA_def_cfa_offset: 16
  DW_CFA_advance_loc: 2 to 0000000000430e92
  DW_CFA_def_cfa_offset: 8
  DW_CFA_advance_loc: 5 to 0000000000430e97
  DW_CFA_restore_state
  DW_CFA_advance_loc: 46 to 0000000000430ec5
  DW_CFA_remember_state
  DW_CFA_def_cfa_offset: 56
  DW_CFA_advance_loc: 8 to 0000000000430ecd
  DW_CFA_def_cfa_offset: 48
  DW_CFA_advance_loc: 1 to 0000000000430ece
  DW_CFA_def_cfa_offset: 40
  DW_CFA_advance_loc: 2 to 0000000000430ed0
  DW_CFA_def_cfa_offset: 32
  DW_CFA_advance_loc: 2 to 0000000000430ed2
  DW_CFA_def_cfa_offset: 24
  DW_CFA_advance_loc: 2 to 0000000000430ed4
  DW_CFA_def_cfa_offset: 16
  DW_CFA_advance_loc: 2 to 0000000000430ed6
  DW_CFA_def_cfa_offset: 8
  DW_CFA_advance_loc: 5 to 0000000000430edb
  DW_CFA_restore_state
  DW_CFA_advance_loc: 56 to 0000000000430f13
  DW_CFA_remember_state
  DW_CFA_def_cfa_offset: 56
  DW_CFA_advance_loc: 8 to 0000000000430f1b
  DW_CFA_def_cfa_offset: 48
  DW_CFA_advance_loc: 1 to 0000000000430f1c
  DW_CFA_def_cfa_offset: 40
  DW_CFA_advance_loc: 2 to 0000000000430f1e
  DW_CFA_def_cfa_offset: 32
  DW_CFA_advance_loc: 2 to 0000000000430f20
  DW_CFA_def_cfa_offset: 24
  DW_CFA_advance_loc: 2 to 0000000000430f22
  DW_CFA_def_cfa_offset: 16
  DW_CFA_advance_loc: 2 to 0000000000430f24
  DW_CFA_def_cfa_offset: 8
  DW_CFA_advance_loc: 5 to 0000000000430f29
  DW_CFA_restore_state
  DW_CFA_advance_loc: 46 to 0000000000430f57
  DW_CFA_remember_state
  DW_CFA_def_cfa_offset: 56
  DW_CFA_advance_loc: 8 to 0000000000430f5f
  DW_CFA_def_cfa_offset: 48
  DW_CFA_advance_loc: 1 to 0000000000430f60
  DW_CFA_def_cfa_offset: 40
  DW_CFA_advance_loc: 2 to 0000000000430f62
  DW_CFA_def_cfa_offset: 32
  DW_CFA_advance_loc: 2 to 0000000000430f64
  DW_CFA_def_cfa_offset: 24
  DW_CFA_advance_loc: 2 to 0000000000430f66
  DW_CFA_def_cfa_offset: 16
  DW_CFA_advance_loc: 2 to 0000000000430f68
  DW_CFA_def_cfa_offset: 8
  DW_CFA_advance_loc: 5 to 0000000000430f6d
  DW_CFA_restore_state
  DW_CFA_advance_loc: 56 to 0000000000430fa5
  DW_CFA_remember_state
  DW_CFA_def_cfa_offset: 56
  DW_CFA_advance_loc: 8 to 0000000000430fad
  DW_CFA_def_cfa_offset: 48
  DW_CFA_advance_loc: 1 to 0000000000430fae
  DW_CFA_def_cfa_offset: 40
  DW_CFA_advance_loc: 2 to 0000000000430fb0
  DW_CFA_def_cfa_offset: 32
  DW_CFA_advance_loc: 2 to 0000000000430fb2
  DW_CFA_def_cfa_offset: 24
  DW_CFA_advance_loc: 2 to 0000000000430fb4
  DW_CFA_def_cfa_offset: 16
  DW_CFA_advance_loc: 2 to 0000000000430fb6
  DW_CFA_def_cfa_offset: 8
  DW_CFA_advance_loc: 5 to 0000000000430fbb
  DW_CFA_restore_state
  DW_CFA_advance_loc: 46 to 0000000000430fe9
  DW_CFA_remember_state
  DW_CFA_def_cfa_offset: 56
  DW_CFA_advance_loc: 8 to 0000000000430ff1
  DW_CFA_def_cfa_offset: 48
  DW_CFA_advance_loc: 1 to 0000000000430ff2
  DW_CFA_def_cfa_offset: 40
  DW_CFA_advance_loc: 2 to 0000000000430ff4
  DW_CFA_def_cfa_offset: 32
  DW_CFA_advance_loc: 2 to 0000000000430ff6
  DW_CFA_def_cfa_offset: 24
  DW_CFA_advance_loc: 2 to 0000000000430ff8
  DW_CFA_def_cfa_offset: 16
  DW_CFA_advance_loc: 2 to 0000000000430ffa
  DW_CFA_def_cfa_offset: 8
  DW_CFA_advance_loc: 5 to 0000000000430fff
  DW_CFA_restore_state
  DW_CFA_advance_loc: 56 to 0000000000431037
  DW_CFA_remember_state
  DW_CFA_def_cfa_offset: 56
  DW_CFA_advance_loc: 8 to 000000000043103f
  DW_CFA_def_cfa_offset: 48
  DW_CFA_advance_loc: 1 to 0000000000431040
  DW_CFA_def_cfa_offset: 40
  DW_CFA_advance_loc: 2 to 0000000000431042
  DW_CFA_def_cfa_offset: 32
  DW_CFA_advance_loc: 2 to 0000000000431044
  DW_CFA_def_cfa_offset: 24
  DW_CFA_advance_loc: 2 to 0000000000431046
  DW_CFA_def_cfa_offset: 16
  DW_CFA_advance_loc: 2 to 0000000000431048
  DW_CFA_def_cfa_offset: 8
  DW_CFA_advance_loc: 5 to 000000000043104d
  DW_CFA_restore_state
  DW_CFA_advance_loc: 46 to 000000000043107b
  DW_CFA_remember_state
  DW_CFA_def_cfa_offset: 56
  DW_CFA_advance_loc: 8 to 0000000000431083
  DW_CFA_def_cfa_offset: 48
  DW_CFA_advance_loc: 1 to 0000000000431084
  DW_CFA_def_cfa_offset: 40
  DW_CFA_advance_loc: 2 to 0000000000431086
  DW_CFA_def_cfa_offset: 32
  DW_CFA_advance_loc: 2 to 0000000000431088
  DW_CFA_def_cfa_offset: 24
  DW_CFA_advance_loc: 2 to 000000000043108a
  DW_CFA_def_cfa_offset: 16
  DW_CFA_advance_loc: 2 to 000000000043108c
  DW_CFA_def_cfa_offset: 8
  DW_CFA_advance_loc: 5 to 0000000000431091
  DW_CFA_restore_state
  DW_CFA_advance_loc: 56 to 00000000004310c9
  DW_CFA_remember_state
  DW_CFA_def_cfa_offset: 56
  DW_CFA_advance_loc: 8 to 00000000004310d1
  DW_CFA_def_cfa_offset: 48
  DW_CFA_advance_loc: 1 to 00000000004310d2
  DW_CFA_def_cfa_offset: 40
  DW_CFA_advance_loc: 2 to 00000000004310d4
  DW_CFA_def_cfa_offset: 32
  DW_CFA_advance_loc: 2 to 00000000004310d6
  DW_CFA_def_cfa_offset: 24
  DW_CFA_advance_loc: 2 to 00000000004310d8
  DW_CFA_def_cfa_offset: 16
  DW_CFA_advance_loc: 2 to 00000000004310da
  DW_CFA_def_cfa_offset: 8
  DW_CFA_advance_loc: 5 to 00000000004310df
  DW_CFA_restore_state
  DW_CFA_advance_loc: 46 to 000000000043110d
  DW_CFA_remember_state
  DW_CFA_def_cfa_offset: 56
  DW_CFA_advance_loc: 8 to 0000000000431115
  DW_CFA_def_cfa_offset: 48
  DW_CFA_advance_loc: 1 to 0000000000431116
  DW_CFA_def_cfa_offset: 40
  DW_CFA_advance_loc: 2 to 0000000000431118
  DW_CFA_def_cfa_offset: 32
  DW_CFA_advance_loc: 2 to 000000000043111a
  DW_CFA_def_cfa_offset: 24
  DW_CFA_advance_loc: 2 to 000000000043111c
  DW_CFA_def_cfa_offset: 16
  DW_CFA_advance_loc: 2 to 000000000043111e
  DW_CFA_def_cfa_offset: 8
  DW_CFA_advance_loc: 5 to 0000000000431123
  DW_CFA_restore_state
  DW_CFA_advance_loc: 56 to 000000000043115b
  DW_CFA_remember_state
  DW_CFA_def_cfa_offset: 56
  DW_CFA_advance_loc: 8 to 0000000000431163
  DW_CFA_def_cfa_offset: 48
  DW_CFA_advance_loc: 1 to 0000000000431164
  DW_CFA_def_cfa_offset: 40
  DW_CFA_advance_loc: 2 to 0000000000431166
  DW_CFA_def_cfa_offset: 32
  DW_CFA_advance_loc: 2 to 0000000000431168
  DW_CFA_def_cfa_offset: 24
  DW_CFA_advance_loc: 2 to 000000000043116a
  DW_CFA_def_cfa_offset: 16
  DW_CFA_advance_loc: 2 to 000000000043116c
  DW_CFA_def_cfa_offset: 8
  DW_CFA_advance_loc: 5 to 0000000000431171
  DW_CFA_restore_state
  DW_CFA_advance_loc: 46 to 000000000043119f
  DW_CFA_remember_state
  DW_CFA_def_cfa_offset: 56
  DW_CFA_advance_loc: 8 to 00000000004311a7
  DW_CFA_def_cfa_offset: 48
  DW_CFA_advance_loc: 1 to 00000000004311a8
  DW_CFA_def_cfa_offset: 40
  DW_CFA_advance_loc: 2 to 00000000004311aa
  DW_CFA_def_cfa_offset: 32
  DW_CFA_advance_loc: 2 to 00000000004311ac
  DW_CFA_def_cfa_offset: 24
  DW_CFA_advance_loc: 2 to 00000000004311ae
  DW_CFA_def_cfa_offset: 16
  DW_CFA_advance_loc: 2 to 00000000004311b0
  DW_CFA_def_cfa_offset: 8
  DW_CFA_advance_loc: 5 to 00000000004311b5
  DW_CFA_restore_state
  DW_CFA_advance_loc: 56 to 00000000004311ed
  DW_CFA_remember_state
  DW_CFA_def_cfa_offset: 56
  DW_CFA_advance_loc: 8 to 00000000004311f5
  DW_CFA_def_cfa_offset: 48
  DW_CFA_advance_loc: 1 to 00000000004311f6
  DW_CFA_def_cfa_offset: 40
  DW_CFA_advance_loc: 2 to 00000000004311f8
  DW_CFA_def_cfa_offset: 32
  DW_CFA_advance_loc: 2 to 00000000004311fa
  DW_CFA_def_cfa_offset: 24
  DW_CFA_advance_loc: 2 to 00000000004311fc
  DW_CFA_def_cfa_offset: 16
  DW_CFA_advance_loc: 2 to 00000000004311fe
  DW_CFA_def_cfa_offset: 8
  DW_CFA_advance_loc: 5 to 0000000000431203
  DW_CFA_restore_state
  DW_CFA_advance_loc: 46 to 0000000000431231
  DW_CFA_remember_state
  DW_CFA_def_cfa_offset: 56
  DW_CFA_advance_loc: 8 to 0000000000431239
  DW_CFA_def_cfa_offset: 48
  DW_CFA_advance_loc: 1 to 000000000043123a
  DW_CFA_def_cfa_offset: 40
  DW_CFA_advance_loc: 2 to 000000000043123c
  DW_CFA_def_cfa_offset: 32
  DW_CFA_advance_loc: 2 to 000000000043123e
  DW_CFA_def_cfa_offset: 24
  DW_CFA_advance_loc: 2 to 0000000000431240
  DW_CFA_def_cfa_offset: 16
  DW_CFA_advance_loc: 2 to 0000000000431242
  DW_CFA_def_cfa_offset: 8
  DW_CFA_advance_loc: 5 to 0000000000431247
  DW_CFA_restore_state
  DW_CFA_advance_loc: 56 to 000000000043127f
  DW_CFA_remember_state
  DW_CFA_def_cfa_offset: 56
  DW_CFA_advance_loc: 8 to 0000000000431287
  DW_CFA_def_cfa_offset: 48
  DW_CFA_advance_loc: 1 to 0000000000431288
  DW_CFA_def_cfa_offset: 40
  DW_CFA_advance_loc: 2 to 000000000043128a
  DW_CFA_def_cfa_offset: 32
  DW_CFA_advance_loc: 2 to 000000000043128c
  DW_CFA_def_cfa_offset: 24
  DW_CFA_advance_loc: 2 to 000000000043128e
  DW_CFA_def_cfa_offset: 16
  DW_CFA_advance_loc: 2 to 0000000000431290
  DW_CFA_def_cfa_offset: 8
  DW_CFA_advance_loc: 5 to 0000000000431295
  DW_CFA_restore_state
  DW_CFA_advance_loc: 46 to 00000000004312c3
  DW_CFA_remember_state
  DW_CFA_def_cfa_offset: 56
  DW_CFA_advance_loc: 8 to 00000000004312cb
  DW_CFA_def_cfa_offset: 48
  DW_CFA_advance_loc: 1 to 00000000004312cc
  DW_CFA_def_cfa_offset: 40
  DW_CFA_advance_loc: 2 to 00000000004312ce
  DW_CFA_def_cfa_offset: 32
  DW_CFA_advance_loc: 2 to 00000000004312d0
  DW_CFA_def_cfa_offset: 24
  DW_CFA_advance_loc: 2 to 00000000004312d2
  DW_CFA_def_cfa_offset: 16
  DW_CFA_advance_loc: 2 to 00000000004312d4
  DW_CFA_def_cfa_offset: 8
  DW_CFA_advance_loc: 5 to 00000000004312d9
  DW_CFA_restore_state
  DW_CFA_advance_loc: 56 to 0000000000431311
  DW_CFA_remember_state
  DW_CFA_def_cfa_offset: 56
  DW_CFA_advance_loc: 8 to 0000000000431319
  DW_CFA_def_cfa_offset: 48
  DW_CFA_advance_loc: 1 to 000000000043131a
  DW_CFA_def_cfa_offset: 40
  DW_CFA_advance_loc: 2 to 000000000043131c
  DW_CFA_def_cfa_offset: 32
  DW_CFA_advance_loc: 2 to 000000000043131e
  DW_CFA_def_cfa_offset: 24
  DW_CFA_advance_loc: 2 to 0000000000431320
  DW_CFA_def_cfa_offset: 16
  DW_CFA_advance_loc: 2 to 0000000000431322
  DW_CFA_def_cfa_offset: 8
  DW_CFA_advance_loc: 5 to 0000000000431327
  DW_CFA_restore_state
  DW_CFA_advance_loc: 46 to 0000000000431355
  DW_CFA_remember_state
  DW_CFA_def_cfa_offset: 56
  DW_CFA_advance_loc: 8 to 000000000043135d
  DW_CFA_def_cfa_offset: 48
  DW_CFA_advance_loc: 1 to 000000000043135e
  DW_CFA_def_cfa_offset: 40
  DW_CFA_advance_loc: 2 to 0000000000431360
  DW_CFA_def_cfa_offset: 32
  DW_CFA_advance_loc: 2 to 0000000000431362
  DW_CFA_def_cfa_offset: 24
  DW_CFA_advance_loc: 2 to 0000000000431364
  DW_CFA_def_cfa_offset: 16
  DW_CFA_advance_loc: 2 to 0000000000431366
  DW_CFA_def_cfa_offset: 8
  DW_CFA_advance_loc: 5 to 000000000043136b
  DW_CFA_restore_state
  DW_CFA_advance_loc: 56 to 00000000004313a3
  DW_CFA_remember_state
  DW_CFA_def_cfa_offset: 56
  DW_CFA_advance_loc: 8 to 00000000004313ab
  DW_CFA_def_cfa_offset: 48
  DW_CFA_advance_loc: 1 to 00000000004313ac
  DW_CFA_def_cfa_offset: 40
  DW_CFA_advance_loc: 2 to 00000000004313ae
  DW_CFA_def_cfa_offset: 32
  DW_CFA_advance_loc: 2 to 00000000004313b0
  DW_CFA_def_cfa_offset: 24
  DW_CFA_advance_loc: 2 to 00000000004313b2
  DW_CFA_def_cfa_offset: 16
  DW_CFA_advance_loc: 2 to 00000000004313b4
  DW_CFA_def_cfa_offset: 8
  DW_CFA_advance_loc: 5 to 00000000004313b9
  DW_CFA_restore_state
  DW_CFA_advance_loc: 46 to 00000000004313e7
  DW_CFA_remember_state
  DW_CFA_def_cfa_offset: 56
  DW_CFA_advance_loc: 8 to 00000000004313ef
  DW_CFA_def_cfa_offset: 48
  DW_CFA_advance_loc: 1 to 00000000004313f0
  DW_CFA_def_cfa_offset: 40
  DW_CFA_advance_loc: 2 to 00000000004313f2
  DW_CFA_def_cfa_offset: 32
  DW_CFA_advance_loc: 2 to 00000000004313f4
  DW_CFA_def_cfa_offset: 24
  DW_CFA_advance_loc: 2 to 00000000004313f6
  DW_CFA_def_cfa_offset: 16
  DW_CFA_advance_loc: 2 to 00000000004313f8
  DW_CFA_def_cfa_offset: 8
  DW_CFA_advance_loc: 5 to 00000000004313fd
  DW_CFA_restore_state
  DW_CFA_advance_loc: 56 to 0000000000431435
  DW_CFA_remember_state
  DW_CFA_def_cfa_offset: 56
  DW_CFA_advance_loc: 8 to 000000000043143d
  DW_CFA_def_cfa_offset: 48
  DW_CFA_advance_loc: 1 to 000000000043143e
  DW_CFA_def_cfa_offset: 40
  DW_CFA_advance_loc: 2 to 0000000000431440
  DW_CFA_def_cfa_offset: 32
  DW_CFA_advance_loc: 2 to 0000000000431442
  DW_CFA_def_cfa_offset: 24
  DW_CFA_advance_loc: 2 to 0000000000431444
  DW_CFA_def_cfa_offset: 16
  DW_CFA_advance_loc: 2 to 0000000000431446
  DW_CFA_def_cfa_offset: 8
  DW_CFA_advance_loc: 5 to 000000000043144b
  DW_CFA_restore_state
  DW_CFA_advance_loc: 46 to 0000000000431479
  DW_CFA_remember_state
  DW_CFA_def_cfa_offset: 56
  DW_CFA_advance_loc: 8 to 0000000000431481
  DW_CFA_def_cfa_offset: 48
  DW_CFA_advance_loc: 1 to 0000000000431482
  DW_CFA_def_cfa_offset: 40
  DW_CFA_advance_loc: 2 to 0000000000431484
  DW_CFA_def_cfa_offset: 32
  DW_CFA_advance_loc: 2 to 0000000000431486
  DW_CFA_def_cfa_offset: 24
  DW_CFA_advance_loc: 2 to 0000000000431488
  DW_CFA_def_cfa_offset: 16
  DW_CFA_advance_loc: 2 to 000000000043148a
  DW_CFA_def_cfa_offset: 8
  DW_CFA_advance_loc: 5 to 000000000043148f
  DW_CFA_restore_state
  DW_CFA_advance_loc: 56 to 00000000004314c7
  DW_CFA_remember_state
  DW_CFA_def_cfa_offset: 56
  DW_CFA_advance_loc: 8 to 00000000004314cf
  DW_CFA_def_cfa_offset: 48
  DW_CFA_advance_loc: 1 to 00000000004314d0
  DW_CFA_def_cfa_offset: 40
  DW_CFA_advance_loc: 2 to 00000000004314d2
  DW_CFA_def_cfa_offset: 32
  DW_CFA_advance_loc: 2 to 00000000004314d4
  DW_CFA_def_cfa_offset: 24
  DW_CFA_advance_loc: 2 to 00000000004314d6
  DW_CFA_def_cfa_offset: 16
  DW_CFA_advance_loc: 2 to 00000000004314d8
  DW_CFA_def_cfa_offset: 8
  DW_CFA_advance_loc: 5 to 00000000004314dd
  DW_CFA_restore_state
  DW_CFA_advance_loc: 46 to 000000000043150b
  DW_CFA_remember_state
  DW_CFA_def_cfa_offset: 56
  DW_CFA_advance_loc: 8 to 0000000000431513
  DW_CFA_def_cfa_offset: 48
  DW_CFA_advance_loc: 1 to 0000000000431514
  DW_CFA_def_cfa_offset: 40
  DW_CFA_advance_loc: 2 to 0000000000431516
  DW_CFA_def_cfa_offset: 32
  DW_CFA_advance_loc: 2 to 0000000000431518
  DW_CFA_def_cfa_offset: 24
  DW_CFA_advance_loc: 2 to 000000000043151a
  DW_CFA_def_cfa_offset: 16
  DW_CFA_advance_loc: 2 to 000000000043151c
  DW_CFA_def_cfa_offset: 8
  DW_CFA_advance_loc: 5 to 0000000000431521
  DW_CFA_restore_state
  DW_CFA_advance_loc: 56 to 0000000000431559
  DW_CFA_remember_state
  DW_CFA_def_cfa_offset: 56
  DW_CFA_advance_loc: 8 to 0000000000431561
  DW_CFA_def_cfa_offset: 48
  DW_CFA_advance_loc: 1 to 0000000000431562
  DW_CFA_def_cfa_offset: 40
  DW_CFA_advance_loc: 2 to 0000000000431564
  DW_CFA_def_cfa_offset: 32
  DW_CFA_advance_loc: 2 to 0000000000431566
  DW_CFA_def_cfa_offset: 24
  DW_CFA_advance_loc: 2 to 0000000000431568
  DW_CFA_def_cfa_offset: 16
  DW_CFA_advance_loc: 2 to 000000000043156a
  DW_CFA_def_cfa_offset: 8
  DW_CFA_advance_loc: 5 to 000000000043156f
  DW_CFA_restore_state
  DW_CFA_advance_loc: 46 to 000000000043159d
  DW_CFA_remember_state
  DW_CFA_def_cfa_offset: 56
  DW_CFA_advance_loc: 8 to 00000000004315a5
  DW_CFA_def_cfa_offset: 48
  DW_CFA_advance_loc: 1 to 00000000004315a6
  DW_CFA_def_cfa_offset: 40
  DW_CFA_advance_loc: 2 to 00000000004315a8
  DW_CFA_def_cfa_offset: 32
  DW_CFA_advance_loc: 2 to 00000000004315aa
  DW_CFA_def_cfa_offset: 24
  DW_CFA_advance_loc: 2 to 00000000004315ac
  DW_CFA_def_cfa_offset: 16
  DW_CFA_advance_loc: 2 to 00000000004315ae
  DW_CFA_def_cfa_offset: 8
  DW_CFA_advance_loc: 5 to 00000000004315b3
  DW_CFA_restore_state
  DW_CFA_advance_loc: 56 to 00000000004315eb
  DW_CFA_remember_state
  DW_CFA_def_cfa_offset: 56
  DW_CFA_advance_loc: 8 to 00000000004315f3
  DW_CFA_def_cfa_offset: 48
  DW_CFA_advance_loc: 1 to 00000000004315f4
  DW_CFA_def_cfa_offset: 40
  DW_CFA_advance_loc: 2 to 00000000004315f6
  DW_CFA_def_cfa_offset: 32
  DW_CFA_advance_loc: 2 to 00000000004315f8
  DW_CFA_def_cfa_offset: 24
  DW_CFA_advance_loc: 2 to 00000000004315fa
  DW_CFA_def_cfa_offset: 16
  DW_CFA_advance_loc: 2 to 00000000004315fc
  DW_CFA_def_cfa_offset: 8
  DW_CFA_advance_loc: 5 to 0000000000431601
  DW_CFA_restore_state
  DW_CFA_advance_loc: 46 to 000000000043162f
  DW_CFA_remember_state
  DW_CFA_def_cfa_offset: 56
  DW_CFA_advance_loc: 8 to 0000000000431637
  DW_CFA_def_cfa_offset: 48
  DW_CFA_advance_loc: 1 to 0000000000431638
  DW_CFA_def_cfa_offset: 40
  DW_CFA_advance_loc: 2 to 000000000043163a
  DW_CFA_def_cfa_offset: 32
  DW_CFA_advance_loc: 2 to 000000000043163c
  DW_CFA_def_cfa_offset: 24
  DW_CFA_advance_loc: 2 to 000000000043163e
  DW_CFA_def_cfa_offset: 16
  DW_CFA_advance_loc: 2 to 0000000000431640
  DW_CFA_def_cfa_offset: 8
  DW_CFA_advance_loc: 5 to 0000000000431645
  DW_CFA_restore_state
  DW_CFA_advance_loc: 56 to 000000000043167d
  DW_CFA_remember_state
  DW_CFA_def_cfa_offset: 56
  DW_CFA_advance_loc: 8 to 0000000000431685
  DW_CFA_def_cfa_offset: 48
  DW_CFA_advance_loc: 1 to 0000000000431686
  DW_CFA_def_cfa_offset: 40
  DW_CFA_advance_loc: 2 to 0000000000431688
  DW_CFA_def_cfa_offset: 32
  DW_CFA_advance_loc: 2 to 000000000043168a
  DW_CFA_def_cfa_offset: 24
  DW_CFA_advance_loc: 2 to 000000000043168c
  DW_CFA_def_cfa_offset: 16
  DW_CFA_advance_loc: 2 to 000000000043168e
  DW_CFA_def_cfa_offset: 8
  DW_CFA_advance_loc: 5 to 0000000000431693
  DW_CFA_restore_state
  DW_CFA_advance_loc: 46 to 00000000004316c1
  DW_CFA_remember_state
  DW_CFA_def_cfa_offset: 56
  DW_CFA_advance_loc: 8 to 00000000004316c9
  DW_CFA_def_cfa_offset: 48
  DW_CFA_advance_loc: 1 to 00000000004316ca
  DW_CFA_def_cfa_offset: 40
  DW_CFA_advance_loc: 2 to 00000000004316cc
  DW_CFA_def_cfa_offset: 32
  DW_CFA_advance_loc: 2 to 00000000004316ce
  DW_CFA_def_cfa_offset: 24
  DW_CFA_advance_loc: 2 to 00000000004316d0
  DW_CFA_def_cfa_offset: 16
  DW_CFA_advance_loc: 2 to 00000000004316d2
  DW_CFA_def_cfa_offset: 8
  DW_CFA_advance_loc: 5 to 00000000004316d7
  DW_CFA_restore_state
  DW_CFA_advance_loc: 56 to 000000000043170f
  DW_CFA_remember_state
  DW_CFA_def_cfa_offset: 56
  DW_CFA_advance_loc: 8 to 0000000000431717
  DW_CFA_def_cfa_offset: 48
  DW_CFA_advance_loc: 1 to 0000000000431718
  DW_CFA_def_cfa_offset: 40
  DW_CFA_advance_loc: 2 to 000000000043171a
  DW_CFA_def_cfa_offset: 32
  DW_CFA_advance_loc: 2 to 000000000043171c
  DW_CFA_def_cfa_offset: 24
  DW_CFA_advance_loc: 2 to 000000000043171e
  DW_CFA_def_cfa_offset: 16
  DW_CFA_advance_loc: 2 to 0000000000431720
  DW_CFA_def_cfa_offset: 8
  DW_CFA_advance_loc: 5 to 0000000000431725
  DW_CFA_restore_state
  DW_CFA_advance_loc: 46 to 0000000000431753
  DW_CFA_remember_state
  DW_CFA_def_cfa_offset: 56
  DW_CFA_advance_loc: 8 to 000000000043175b
  DW_CFA_def_cfa_offset: 48
  DW_CFA_advance_loc: 1 to 000000000043175c
  DW_CFA_def_cfa_offset: 40
  DW_CFA_advance_loc: 2 to 000000000043175e
  DW_CFA_def_cfa_offset: 32
  DW_CFA_advance_loc: 2 to 0000000000431760
  DW_CFA_def_cfa_offset: 24
  DW_CFA_advance_loc: 2 to 0000000000431762
  DW_CFA_def_cfa_offset: 16
  DW_CFA_advance_loc: 2 to 0000000000431764
  DW_CFA_def_cfa_offset: 8
  DW_CFA_advance_loc: 5 to 0000000000431769
  DW_CFA_restore_state
  DW_CFA_advance_loc: 56 to 00000000004317a1
  DW_CFA_remember_state
  DW_CFA_def_cfa_offset: 56
  DW_CFA_advance_loc: 8 to 00000000004317a9
  DW_CFA_def_cfa_offset: 48
  DW_CFA_advance_loc: 1 to 00000000004317aa
  DW_CFA_def_cfa_offset: 40
  DW_CFA_advance_loc: 2 to 00000000004317ac
  DW_CFA_def_cfa_offset: 32
  DW_CFA_advance_loc: 2 to 00000000004317ae
  DW_CFA_def_cfa_offset: 24
  DW_CFA_advance_loc: 2 to 00000000004317b0
  DW_CFA_def_cfa_offset: 16
  DW_CFA_advance_loc: 2 to 00000000004317b2
  DW_CFA_def_cfa_offset: 8
  DW_CFA_advance_loc: 5 to 00000000004317b7
  DW_CFA_restore_state
  DW_CFA_advance_loc: 46 to 00000000004317e5
  DW_CFA_remember_state
  DW_CFA_def_cfa_offset: 56
  DW_CFA_advance_loc: 8 to 00000000004317ed
  DW_CFA_def_cfa_offset: 48
  DW_CFA_advance_loc: 1 to 00000000004317ee
  DW_CFA_def_cfa_offset: 40
  DW_CFA_advance_loc: 2 to 00000000004317f0
  DW_CFA_def_cfa_offset: 32
  DW_CFA_advance_loc: 2 to 00000000004317f2
  DW_CFA_def_cfa_offset: 24
  DW_CFA_advance_loc: 2 to 00000000004317f4
  DW_CFA_def_cfa_offset: 16
  DW_CFA_advance_loc: 2 to 00000000004317f6
  DW_CFA_def_cfa_offset: 8
  DW_CFA_advance_loc: 5 to 00000000004317fb
  DW_CFA_restore_state
  DW_CFA_advance_loc: 56 to 0000000000431833
  DW_CFA_remember_state
  DW_CFA_def_cfa_offset: 56
  DW_CFA_advance_loc: 8 to 000000000043183b
  DW_CFA_def_cfa_offset: 48
  DW_CFA_advance_loc: 1 to 000000000043183c
  DW_CFA_def_cfa_offset: 40
  DW_CFA_advance_loc: 2 to 000000000043183e
  DW_CFA_def_cfa_offset: 32
  DW_CFA_advance_loc: 2 to 0000000000431840
  DW_CFA_def_cfa_offset: 24
  DW_CFA_advance_loc: 2 to 0000000000431842
  DW_CFA_def_cfa_offset: 16
  DW_CFA_advance_loc: 2 to 0000000000431844
  DW_CFA_def_cfa_offset: 8
  DW_CFA_advance_loc: 5 to 0000000000431849
  DW_CFA_restore_state
  DW_CFA_advance_loc: 46 to 0000000000431877
  DW_CFA_remember_state
  DW_CFA_def_cfa_offset: 56
  DW_CFA_advance_loc: 8 to 000000000043187f
  DW_CFA_def_cfa_offset: 48
  DW_CFA_advance_loc: 1 to 0000000000431880
  DW_CFA_def_cfa_offset: 40
  DW_CFA_advance_loc: 2 to 0000000000431882
  DW_CFA_def_cfa_offset: 32
  DW_CFA_advance_loc: 2 to 0000000000431884
  DW_CFA_def_cfa_offset: 24
  DW_CFA_advance_loc: 2 to 0000000000431886
  DW_CFA_def_cfa_offset: 16
  DW_CFA_advance_loc: 2 to 0000000000431888
  DW_CFA_def_cfa_offset: 8
  DW_CFA_advance_loc: 5 to 000000000043188d
  DW_CFA_restore_state
  DW_CFA_advance_loc: 56 to 00000000004318c5
  DW_CFA_remember_state
  DW_CFA_def_cfa_offset: 56
  DW_CFA_advance_loc: 8 to 00000000004318cd
  DW_CFA_def_cfa_offset: 48
  DW_CFA_advance_loc: 1 to 00000000004318ce
  DW_CFA_def_cfa_offset: 40
  DW_CFA_advance_loc: 2 to 00000000004318d0
  DW_CFA_def_cfa_offset: 32
  DW_CFA_advance_loc: 2 to 00000000004318d2
  DW_CFA_def_cfa_offset: 24
  DW_CFA_advance_loc: 2 to 00000000004318d4
  DW_CFA_def_cfa_offset: 16
  DW_CFA_advance_loc: 2 to 00000000004318d6
  DW_CFA_def_cfa_offset: 8
  DW_CFA_advance_loc: 5 to 00000000004318db
  DW_CFA_restore_state
  DW_CFA_advance_loc: 46 to 0000000000431909
  DW_CFA_remember_state
  DW_CFA_def_cfa_offset: 56
  DW_CFA_advance_loc: 8 to 0000000000431911
  DW_CFA_def_cfa_offset: 48
  DW_CFA_advance_loc: 1 to 0000000000431912
  DW_CFA_def_cfa_offset: 40
  DW_CFA_advance_loc: 2 to 0000000000431914
  DW_CFA_def_cfa_offset: 32
  DW_CFA_advance_loc: 2 to 0000000000431916
  DW_CFA_def_cfa_offset: 24
  DW_CFA_advance_loc: 2 to 0000000000431918
  DW_CFA_def_cfa_offset: 16
  DW_CFA_advance_loc: 2 to 000000000043191a
  DW_CFA_def_cfa_offset: 8
  DW_CFA_advance_loc: 5 to 000000000043191f
  DW_CFA_restore_state
  DW_CFA_advance_loc: 56 to 0000000000431957
  DW_CFA_remember_state
  DW_CFA_def_cfa_offset: 56
  DW_CFA_advance_loc: 8 to 000000000043195f
  DW_CFA_def_cfa_offset: 48
  DW_CFA_advance_loc: 1 to 0000000000431960
  DW_CFA_def_cfa_offset: 40
  DW_CFA_advance_loc: 2 to 0000000000431962
  DW_CFA_def_cfa_offset: 32
  DW_CFA_advance_loc: 2 to 0000000000431964
  DW_CFA_def_cfa_offset: 24
  DW_CFA_advance_loc: 2 to 0000000000431966
  DW_CFA_def_cfa_offset: 16
  DW_CFA_advance_loc: 2 to 0000000000431968
  DW_CFA_def_cfa_offset: 8
  DW_CFA_advance_loc: 5 to 000000000043196d
  DW_CFA_restore_state
  DW_CFA_advance_loc1: 127 to 00000000004319ec
  DW_CFA_remember_state
  DW_CFA_def_cfa_offset: 56
  DW_CFA_advance_loc: 8 to 00000000004319f4
  DW_CFA_def_cfa_offset: 48
  DW_CFA_advance_loc: 1 to 00000000004319f5
  DW_CFA_def_cfa_offset: 40
  DW_CFA_advance_loc: 2 to 00000000004319f7
  DW_CFA_def_cfa_offset: 32
  DW_CFA_advance_loc: 2 to 00000000004319f9
  DW_CFA_def_cfa_offset: 24
  DW_CFA_advance_loc: 2 to 00000000004319fb
  DW_CFA_def_cfa_offset: 16
  DW_CFA_advance_loc: 2 to 00000000004319fd
  DW_CFA_def_cfa_offset: 8
  DW_CFA_advance_loc: 5 to 0000000000431a02
  DW_CFA_restore_state
  DW_CFA_advance_loc: 46 to 0000000000431a30
  DW_CFA_remember_state
  DW_CFA_def_cfa_offset: 56
  DW_CFA_advance_loc: 8 to 0000000000431a38
  DW_CFA_def_cfa_offset: 48
  DW_CFA_advance_loc: 1 to 0000000000431a39
  DW_CFA_def_cfa_offset: 40
  DW_CFA_advance_loc: 2 to 0000000000431a3b
  DW_CFA_def_cfa_offset: 32
  DW_CFA_advance_loc: 2 to 0000000000431a3d
  DW_CFA_def_cfa_offset: 24
  DW_CFA_advance_loc: 2 to 0000000000431a3f
  DW_CFA_def_cfa_offset: 16
  DW_CFA_advance_loc: 2 to 0000000000431a41
  DW_CFA_def_cfa_offset: 8
  DW_CFA_advance_loc: 5 to 0000000000431a46
  DW_CFA_restore_state
  DW_CFA_advance_loc: 46 to 0000000000431a74
  DW_CFA_remember_state
  DW_CFA_def_cfa_offset: 56
  DW_CFA_advance_loc: 8 to 0000000000431a7c
  DW_CFA_def_cfa_offset: 48
  DW_CFA_advance_loc: 1 to 0000000000431a7d
  DW_CFA_def_cfa_offset: 40
  DW_CFA_advance_loc: 2 to 0000000000431a7f
  DW_CFA_def_cfa_offset: 32
  DW_CFA_advance_loc: 2 to 0000000000431a81
  DW_CFA_def_cfa_offset: 24
  DW_CFA_advance_loc: 2 to 0000000000431a83
  DW_CFA_def_cfa_offset: 16
  DW_CFA_advance_loc: 2 to 0000000000431a85
  DW_CFA_def_cfa_offset: 8
  DW_CFA_advance_loc: 5 to 0000000000431a8a
  DW_CFA_restore_state
  DW_CFA_advance_loc: 61 to 0000000000431ac7
  DW_CFA_remember_state
  DW_CFA_def_cfa_offset: 56
  DW_CFA_advance_loc: 8 to 0000000000431acf
  DW_CFA_def_cfa_offset: 48
  DW_CFA_advance_loc: 1 to 0000000000431ad0
  DW_CFA_def_cfa_offset: 40
  DW_CFA_advance_loc: 2 to 0000000000431ad2
  DW_CFA_def_cfa_offset: 32
  DW_CFA_advance_loc: 2 to 0000000000431ad4
  DW_CFA_def_cfa_offset: 24
  DW_CFA_advance_loc: 2 to 0000000000431ad6
  DW_CFA_def_cfa_offset: 16
  DW_CFA_advance_loc: 2 to 0000000000431ad8
  DW_CFA_def_cfa_offset: 8
  DW_CFA_advance_loc: 5 to 0000000000431add
  DW_CFA_restore_state
  DW_CFA_advance_loc: 46 to 0000000000431b0b
  DW_CFA_remember_state
  DW_CFA_def_cfa_offset: 56
  DW_CFA_advance_loc: 8 to 0000000000431b13
  DW_CFA_def_cfa_offset: 48
  DW_CFA_advance_loc: 1 to 0000000000431b14
  DW_CFA_def_cfa_offset: 40
  DW_CFA_advance_loc: 2 to 0000000000431b16
  DW_CFA_def_cfa_offset: 32
  DW_CFA_advance_loc: 2 to 0000000000431b18
  DW_CFA_def_cfa_offset: 24
  DW_CFA_advance_loc: 2 to 0000000000431b1a
  DW_CFA_def_cfa_offset: 16
  DW_CFA_advance_loc: 2 to 0000000000431b1c
  DW_CFA_def_cfa_offset: 8
  DW_CFA_advance_loc: 5 to 0000000000431b21
  DW_CFA_restore_state
  DW_CFA_advance_loc: 56 to 0000000000431b59
  DW_CFA_remember_state
  DW_CFA_def_cfa_offset: 56
  DW_CFA_advance_loc: 8 to 0000000000431b61
  DW_CFA_def_cfa_offset: 48
  DW_CFA_advance_loc: 1 to 0000000000431b62
  DW_CFA_def_cfa_offset: 40
  DW_CFA_advance_loc: 2 to 0000000000431b64
  DW_CFA_def_cfa_offset: 32
  DW_CFA_advance_loc: 2 to 0000000000431b66
  DW_CFA_def_cfa_offset: 24
  DW_CFA_advance_loc: 2 to 0000000000431b68
  DW_CFA_def_cfa_offset: 16
  DW_CFA_advance_loc: 2 to 0000000000431b6a
  DW_CFA_def_cfa_offset: 8
  DW_CFA_advance_loc: 5 to 0000000000431b6f
  DW_CFA_restore_state
  DW_CFA_advance_loc: 46 to 0000000000431b9d
  DW_CFA_remember_state
  DW_CFA_def_cfa_offset: 56
  DW_CFA_advance_loc: 8 to 0000000000431ba5
  DW_CFA_def_cfa_offset: 48
  DW_CFA_advance_loc: 1 to 0000000000431ba6
  DW_CFA_def_cfa_offset: 40
  DW_CFA_advance_loc: 2 to 0000000000431ba8
  DW_CFA_def_cfa_offset: 32
  DW_CFA_advance_loc: 2 to 0000000000431baa
  DW_CFA_def_cfa_offset: 24
  DW_CFA_advance_loc: 2 to 0000000000431bac
  DW_CFA_def_cfa_offset: 16
  DW_CFA_advance_loc: 2 to 0000000000431bae
  DW_CFA_def_cfa_offset: 8
  DW_CFA_advance_loc: 5 to 0000000000431bb3
  DW_CFA_restore_state
  DW_CFA_advance_loc: 56 to 0000000000431beb
  DW_CFA_remember_state
  DW_CFA_def_cfa_offset: 56
  DW_CFA_advance_loc: 8 to 0000000000431bf3
  DW_CFA_def_cfa_offset: 48
  DW_CFA_advance_loc: 1 to 0000000000431bf4
  DW_CFA_def_cfa_offset: 40
  DW_CFA_advance_loc: 2 to 0000000000431bf6
  DW_CFA_def_cfa_offset: 32
  DW_CFA_advance_loc: 2 to 0000000000431bf8
  DW_CFA_def_cfa_offset: 24
  DW_CFA_advance_loc: 2 to 0000000000431bfa
  DW_CFA_def_cfa_offset: 16
  DW_CFA_advance_loc: 2 to 0000000000431bfc
  DW_CFA_def_cfa_offset: 8
  DW_CFA_advance_loc: 5 to 0000000000431c01
  DW_CFA_restore_state
  DW_CFA_advance_loc: 46 to 0000000000431c2f
  DW_CFA_remember_state
  DW_CFA_def_cfa_offset: 56
  DW_CFA_advance_loc: 8 to 0000000000431c37
  DW_CFA_def_cfa_offset: 48
  DW_CFA_advance_loc: 1 to 0000000000431c38
  DW_CFA_def_cfa_offset: 40
  DW_CFA_advance_loc: 2 to 0000000000431c3a
  DW_CFA_def_cfa_offset: 32
  DW_CFA_advance_loc: 2 to 0000000000431c3c
  DW_CFA_def_cfa_offset: 24
  DW_CFA_advance_loc: 2 to 0000000000431c3e
  DW_CFA_def_cfa_offset: 16
  DW_CFA_advance_loc: 2 to 0000000000431c40
  DW_CFA_def_cfa_offset: 8
  DW_CFA_advance_loc: 5 to 0000000000431c45
  DW_CFA_restore_state
  DW_CFA_advance_loc: 56 to 0000000000431c7d
  DW_CFA_remember_state
  DW_CFA_def_cfa_offset: 56
  DW_CFA_advance_loc: 8 to 0000000000431c85
  DW_CFA_def_cfa_offset: 48
  DW_CFA_advance_loc: 1 to 0000000000431c86
  DW_CFA_def_cfa_offset: 40
  DW_CFA_advance_loc: 2 to 0000000000431c88
  DW_CFA_def_cfa_offset: 32
  DW_CFA_advance_loc: 2 to 0000000000431c8a
  DW_CFA_def_cfa_offset: 24
  DW_CFA_advance_loc: 2 to 0000000000431c8c
  DW_CFA_def_cfa_offset: 16
  DW_CFA_advance_loc: 2 to 0000000000431c8e
  DW_CFA_def_cfa_offset: 8
  DW_CFA_advance_loc: 5 to 0000000000431c93
  DW_CFA_restore_state
  DW_CFA_advance_loc: 46 to 0000000000431cc1
  DW_CFA_remember_state
  DW_CFA_def_cfa_offset: 56
  DW_CFA_advance_loc: 8 to 0000000000431cc9
  DW_CFA_def_cfa_offset: 48
  DW_CFA_advance_loc: 1 to 0000000000431cca
  DW_CFA_def_cfa_offset: 40
  DW_CFA_advance_loc: 2 to 0000000000431ccc
  DW_CFA_def_cfa_offset: 32
  DW_CFA_advance_loc: 2 to 0000000000431cce
  DW_CFA_def_cfa_offset: 24
  DW_CFA_advance_loc: 2 to 0000000000431cd0
  DW_CFA_def_cfa_offset: 16
  DW_CFA_advance_loc: 2 to 0000000000431cd2
  DW_CFA_def_cfa_offset: 8
  DW_CFA_advance_loc: 5 to 0000000000431cd7
  DW_CFA_restore_state
  DW_CFA_advance_loc: 56 to 0000000000431d0f
  DW_CFA_remember_state
  DW_CFA_def_cfa_offset: 56
  DW_CFA_advance_loc: 8 to 0000000000431d17
  DW_CFA_def_cfa_offset: 48
  DW_CFA_advance_loc: 1 to 0000000000431d18
  DW_CFA_def_cfa_offset: 40
  DW_CFA_advance_loc: 2 to 0000000000431d1a
  DW_CFA_def_cfa_offset: 32
  DW_CFA_advance_loc: 2 to 0000000000431d1c
  DW_CFA_def_cfa_offset: 24
  DW_CFA_advance_loc: 2 to 0000000000431d1e
  DW_CFA_def_cfa_offset: 16
  DW_CFA_advance_loc: 2 to 0000000000431d20
  DW_CFA_def_cfa_offset: 8
  DW_CFA_advance_loc: 5 to 0000000000431d25
  DW_CFA_restore_state
  DW_CFA_advance_loc: 46 to 0000000000431d53
  DW_CFA_remember_state
  DW_CFA_def_cfa_offset: 56
  DW_CFA_advance_loc: 8 to 0000000000431d5b
  DW_CFA_def_cfa_offset: 48
  DW_CFA_advance_loc: 1 to 0000000000431d5c
  DW_CFA_def_cfa_offset: 40
  DW_CFA_advance_loc: 2 to 0000000000431d5e
  DW_CFA_def_cfa_offset: 32
  DW_CFA_advance_loc: 2 to 0000000000431d60
  DW_CFA_def_cfa_offset: 24
  DW_CFA_advance_loc: 2 to 0000000000431d62
  DW_CFA_def_cfa_offset: 16
  DW_CFA_advance_loc: 2 to 0000000000431d64
  DW_CFA_def_cfa_offset: 8
  DW_CFA_advance_loc: 5 to 0000000000431d69
  DW_CFA_restore_state
  DW_CFA_advance_loc: 56 to 0000000000431da1
  DW_CFA_remember_state
  DW_CFA_def_cfa_offset: 56
  DW_CFA_advance_loc: 8 to 0000000000431da9
  DW_CFA_def_cfa_offset: 48
  DW_CFA_advance_loc: 1 to 0000000000431daa
  DW_CFA_def_cfa_offset: 40
  DW_CFA_advance_loc: 2 to 0000000000431dac
  DW_CFA_def_cfa_offset: 32
  DW_CFA_advance_loc: 2 to 0000000000431dae
  DW_CFA_def_cfa_offset: 24
  DW_CFA_advance_loc: 2 to 0000000000431db0
  DW_CFA_def_cfa_offset: 16
  DW_CFA_advance_loc: 2 to 0000000000431db2
  DW_CFA_def_cfa_offset: 8
  DW_CFA_advance_loc: 5 to 0000000000431db7
  DW_CFA_restore_state
  DW_CFA_advance_loc: 46 to 0000000000431de5
  DW_CFA_remember_state
  DW_CFA_def_cfa_offset: 56
  DW_CFA_advance_loc: 8 to 0000000000431ded
  DW_CFA_def_cfa_offset: 48
  DW_CFA_advance_loc: 1 to 0000000000431dee
  DW_CFA_def_cfa_offset: 40
  DW_CFA_advance_loc: 2 to 0000000000431df0
  DW_CFA_def_cfa_offset: 32
  DW_CFA_advance_loc: 2 to 0000000000431df2
  DW_CFA_def_cfa_offset: 24
  DW_CFA_advance_loc: 2 to 0000000000431df4
  DW_CFA_def_cfa_offset: 16
  DW_CFA_advance_loc: 2 to 0000000000431df6
  DW_CFA_def_cfa_offset: 8
  DW_CFA_advance_loc: 5 to 0000000000431dfb
  DW_CFA_restore_state
  DW_CFA_advance_loc: 56 to 0000000000431e33
  DW_CFA_remember_state
  DW_CFA_def_cfa_offset: 56
  DW_CFA_advance_loc: 8 to 0000000000431e3b
  DW_CFA_def_cfa_offset: 48
  DW_CFA_advance_loc: 1 to 0000000000431e3c
  DW_CFA_def_cfa_offset: 40
  DW_CFA_advance_loc: 2 to 0000000000431e3e
  DW_CFA_def_cfa_offset: 32
  DW_CFA_advance_loc: 2 to 0000000000431e40
  DW_CFA_def_cfa_offset: 24
  DW_CFA_advance_loc: 2 to 0000000000431e42
  DW_CFA_def_cfa_offset: 16
  DW_CFA_advance_loc: 2 to 0000000000431e44
  DW_CFA_def_cfa_offset: 8
  DW_CFA_advance_loc: 5 to 0000000000431e49
  DW_CFA_restore_state
  DW_CFA_advance_loc: 46 to 0000000000431e77
  DW_CFA_remember_state
  DW_CFA_def_cfa_offset: 56
  DW_CFA_advance_loc: 8 to 0000000000431e7f
  DW_CFA_def_cfa_offset: 48
  DW_CFA_advance_loc: 1 to 0000000000431e80
  DW_CFA_def_cfa_offset: 40
  DW_CFA_advance_loc: 2 to 0000000000431e82
  DW_CFA_def_cfa_offset: 32
  DW_CFA_advance_loc: 2 to 0000000000431e84
  DW_CFA_def_cfa_offset: 24
  DW_CFA_advance_loc: 2 to 0000000000431e86
  DW_CFA_def_cfa_offset: 16
  DW_CFA_advance_loc: 2 to 0000000000431e88
  DW_CFA_def_cfa_offset: 8
  DW_CFA_advance_loc: 5 to 0000000000431e8d
  DW_CFA_restore_state
  DW_CFA_advance_loc: 56 to 0000000000431ec5
  DW_CFA_remember_state
  DW_CFA_def_cfa_offset: 56
  DW_CFA_advance_loc: 8 to 0000000000431ecd
  DW_CFA_def_cfa_offset: 48
  DW_CFA_advance_loc: 1 to 0000000000431ece
  DW_CFA_def_cfa_offset: 40
  DW_CFA_advance_loc: 2 to 0000000000431ed0
  DW_CFA_def_cfa_offset: 32
  DW_CFA_advance_loc: 2 to 0000000000431ed2
  DW_CFA_def_cfa_offset: 24
  DW_CFA_advance_loc: 2 to 0000000000431ed4
  DW_CFA_def_cfa_offset: 16
  DW_CFA_advance_loc: 2 to 0000000000431ed6
  DW_CFA_def_cfa_offset: 8
  DW_CFA_advance_loc: 5 to 0000000000431edb
  DW_CFA_restore_state
  DW_CFA_advance_loc: 46 to 0000000000431f09
  DW_CFA_remember_state
  DW_CFA_def_cfa_offset: 56
  DW_CFA_advance_loc: 8 to 0000000000431f11
  DW_CFA_def_cfa_offset: 48
  DW_CFA_advance_loc: 1 to 0000000000431f12
  DW_CFA_def_cfa_offset: 40
  DW_CFA_advance_loc: 2 to 0000000000431f14
  DW_CFA_def_cfa_offset: 32
  DW_CFA_advance_loc: 2 to 0000000000431f16
  DW_CFA_def_cfa_offset: 24
  DW_CFA_advance_loc: 2 to 0000000000431f18
  DW_CFA_def_cfa_offset: 16
  DW_CFA_advance_loc: 2 to 0000000000431f1a
  DW_CFA_def_cfa_offset: 8
  DW_CFA_advance_loc: 5 to 0000000000431f1f
  DW_CFA_restore_state
  DW_CFA_advance_loc: 56 to 0000000000431f57
  DW_CFA_remember_state
  DW_CFA_def_cfa_offset: 56
  DW_CFA_advance_loc: 8 to 0000000000431f5f
  DW_CFA_def_cfa_offset: 48
  DW_CFA_advance_loc: 1 to 0000000000431f60
  DW_CFA_def_cfa_offset: 40
  DW_CFA_advance_loc: 2 to 0000000000431f62
  DW_CFA_def_cfa_offset: 32
  DW_CFA_advance_loc: 2 to 0000000000431f64
  DW_CFA_def_cfa_offset: 24
  DW_CFA_advance_loc: 2 to 0000000000431f66
  DW_CFA_def_cfa_offset: 16
  DW_CFA_advance_loc: 2 to 0000000000431f68
  DW_CFA_def_cfa_offset: 8
  DW_CFA_advance_loc: 5 to 0000000000431f6d
  DW_CFA_restore_state
  DW_CFA_advance_loc: 46 to 0000000000431f9b
  DW_CFA_remember_state
  DW_CFA_def_cfa_offset: 56
  DW_CFA_advance_loc: 8 to 0000000000431fa3
  DW_CFA_def_cfa_offset: 48
  DW_CFA_advance_loc: 1 to 0000000000431fa4
  DW_CFA_def_cfa_offset: 40
  DW_CFA_advance_loc: 2 to 0000000000431fa6
  DW_CFA_def_cfa_offset: 32
  DW_CFA_advance_loc: 2 to 0000000000431fa8
  DW_CFA_def_cfa_offset: 24
  DW_CFA_advance_loc: 2 to 0000000000431faa
  DW_CFA_def_cfa_offset: 16
  DW_CFA_advance_loc: 2 to 0000000000431fac
  DW_CFA_def_cfa_offset: 8
  DW_CFA_advance_loc: 5 to 0000000000431fb1
  DW_CFA_restore_state
  DW_CFA_advance_loc: 56 to 0000000000431fe9
  DW_CFA_remember_state
  DW_CFA_def_cfa_offset: 56
  DW_CFA_advance_loc: 8 to 0000000000431ff1
  DW_CFA_def_cfa_offset: 48
  DW_CFA_advance_loc: 1 to 0000000000431ff2
  DW_CFA_def_cfa_offset: 40
  DW_CFA_advance_loc: 2 to 0000000000431ff4
  DW_CFA_def_cfa_offset: 32
  DW_CFA_advance_loc: 2 to 0000000000431ff6
  DW_CFA_def_cfa_offset: 24
  DW_CFA_advance_loc: 2 to 0000000000431ff8
  DW_CFA_def_cfa_offset: 16
  DW_CFA_advance_loc: 2 to 0000000000431ffa
  DW_CFA_def_cfa_offset: 8
  DW_CFA_advance_loc: 5 to 0000000000431fff
  DW_CFA_restore_state
  DW_CFA_advance_loc: 46 to 000000000043202d
  DW_CFA_remember_state
  DW_CFA_def_cfa_offset: 56
  DW_CFA_advance_loc: 8 to 0000000000432035
  DW_CFA_def_cfa_offset: 48
  DW_CFA_advance_loc: 1 to 0000000000432036
  DW_CFA_def_cfa_offset: 40
  DW_CFA_advance_loc: 2 to 0000000000432038
  DW_CFA_def_cfa_offset: 32
  DW_CFA_advance_loc: 2 to 000000000043203a
  DW_CFA_def_cfa_offset: 24
  DW_CFA_advance_loc: 2 to 000000000043203c
  DW_CFA_def_cfa_offset: 16
  DW_CFA_advance_loc: 2 to 000000000043203e
  DW_CFA_def_cfa_offset: 8
  DW_CFA_advance_loc: 5 to 0000000000432043
  DW_CFA_restore_state
  DW_CFA_advance_loc: 56 to 000000000043207b
  DW_CFA_remember_state
  DW_CFA_def_cfa_offset: 56
  DW_CFA_advance_loc: 8 to 0000000000432083
  DW_CFA_def_cfa_offset: 48
  DW_CFA_advance_loc: 1 to 0000000000432084
  DW_CFA_def_cfa_offset: 40
  DW_CFA_advance_loc: 2 to 0000000000432086
  DW_CFA_def_cfa_offset: 32
  DW_CFA_advance_loc: 2 to 0000000000432088
  DW_CFA_def_cfa_offset: 24
  DW_CFA_advance_loc: 2 to 000000000043208a
  DW_CFA_def_cfa_offset: 16
  DW_CFA_advance_loc: 2 to 000000000043208c
  DW_CFA_def_cfa_offset: 8
  DW_CFA_advance_loc: 5 to 0000000000432091
  DW_CFA_restore_state
  DW_CFA_advance_loc: 46 to 00000000004320bf
  DW_CFA_remember_state
  DW_CFA_def_cfa_offset: 56
  DW_CFA_advance_loc: 8 to 00000000004320c7
  DW_CFA_def_cfa_offset: 48
  DW_CFA_advance_loc: 1 to 00000000004320c8
  DW_CFA_def_cfa_offset: 40
  DW_CFA_advance_loc: 2 to 00000000004320ca
  DW_CFA_def_cfa_offset: 32
  DW_CFA_advance_loc: 2 to 00000000004320cc
  DW_CFA_def_cfa_offset: 24
  DW_CFA_advance_loc: 2 to 00000000004320ce
  DW_CFA_def_cfa_offset: 16
  DW_CFA_advance_loc: 2 to 00000000004320d0
  DW_CFA_def_cfa_offset: 8
  DW_CFA_advance_loc: 5 to 00000000004320d5
  DW_CFA_restore_state
  DW_CFA_advance_loc: 56 to 000000000043210d
  DW_CFA_remember_state
  DW_CFA_def_cfa_offset: 56
  DW_CFA_advance_loc: 8 to 0000000000432115
  DW_CFA_def_cfa_offset: 48
  DW_CFA_advance_loc: 1 to 0000000000432116
  DW_CFA_def_cfa_offset: 40
  DW_CFA_advance_loc: 2 to 0000000000432118
  DW_CFA_def_cfa_offset: 32
  DW_CFA_advance_loc: 2 to 000000000043211a
  DW_CFA_def_cfa_offset: 24
  DW_CFA_advance_loc: 2 to 000000000043211c
  DW_CFA_def_cfa_offset: 16
  DW_CFA_advance_loc: 2 to 000000000043211e
  DW_CFA_def_cfa_offset: 8
  DW_CFA_advance_loc: 5 to 0000000000432123
  DW_CFA_restore_state
  DW_CFA_advance_loc: 46 to 0000000000432151
  DW_CFA_remember_state
  DW_CFA_def_cfa_offset: 56
  DW_CFA_advance_loc: 8 to 0000000000432159
  DW_CFA_def_cfa_offset: 48
  DW_CFA_advance_loc: 1 to 000000000043215a
  DW_CFA_def_cfa_offset: 40
  DW_CFA_advance_loc: 2 to 000000000043215c
  DW_CFA_def_cfa_offset: 32
  DW_CFA_advance_loc: 2 to 000000000043215e
  DW_CFA_def_cfa_offset: 24
  DW_CFA_advance_loc: 2 to 0000000000432160
  DW_CFA_def_cfa_offset: 16
  DW_CFA_advance_loc: 2 to 0000000000432162
  DW_CFA_def_cfa_offset: 8
  DW_CFA_advance_loc: 5 to 0000000000432167
  DW_CFA_restore_state
  DW_CFA_advance_loc: 56 to 000000000043219f
  DW_CFA_remember_state
  DW_CFA_def_cfa_offset: 56
  DW_CFA_advance_loc: 8 to 00000000004321a7
  DW_CFA_def_cfa_offset: 48
  DW_CFA_advance_loc: 1 to 00000000004321a8
  DW_CFA_def_cfa_offset: 40
  DW_CFA_advance_loc: 2 to 00000000004321aa
  DW_CFA_def_cfa_offset: 32
  DW_CFA_advance_loc: 2 to 00000000004321ac
  DW_CFA_def_cfa_offset: 24
  DW_CFA_advance_loc: 2 to 00000000004321ae
  DW_CFA_def_cfa_offset: 16
  DW_CFA_advance_loc: 2 to 00000000004321b0
  DW_CFA_def_cfa_offset: 8
  DW_CFA_advance_loc: 5 to 00000000004321b5
  DW_CFA_restore_state
  DW_CFA_advance_loc: 46 to 00000000004321e3
  DW_CFA_remember_state
  DW_CFA_def_cfa_offset: 56
  DW_CFA_advance_loc: 8 to 00000000004321eb
  DW_CFA_def_cfa_offset: 48
  DW_CFA_advance_loc: 1 to 00000000004321ec
  DW_CFA_def_cfa_offset: 40
  DW_CFA_advance_loc: 2 to 00000000004321ee
  DW_CFA_def_cfa_offset: 32
  DW_CFA_advance_loc: 2 to 00000000004321f0
  DW_CFA_def_cfa_offset: 24
  DW_CFA_advance_loc: 2 to 00000000004321f2
  DW_CFA_def_cfa_offset: 16
  DW_CFA_advance_loc: 2 to 00000000004321f4
  DW_CFA_def_cfa_offset: 8
  DW_CFA_advance_loc: 5 to 00000000004321f9
  DW_CFA_restore_state
  DW_CFA_advance_loc: 56 to 0000000000432231
  DW_CFA_remember_state
  DW_CFA_def_cfa_offset: 56
  DW_CFA_advance_loc: 8 to 0000000000432239
  DW_CFA_def_cfa_offset: 48
  DW_CFA_advance_loc: 1 to 000000000043223a
  DW_CFA_def_cfa_offset: 40
  DW_CFA_advance_loc: 2 to 000000000043223c
  DW_CFA_def_cfa_offset: 32
  DW_CFA_advance_loc: 2 to 000000000043223e
  DW_CFA_def_cfa_offset: 24
  DW_CFA_advance_loc: 2 to 0000000000432240
  DW_CFA_def_cfa_offset: 16
  DW_CFA_advance_loc: 2 to 0000000000432242
  DW_CFA_def_cfa_offset: 8
  DW_CFA_advance_loc: 5 to 0000000000432247
  DW_CFA_restore_state
  DW_CFA_advance_loc: 46 to 0000000000432275
  DW_CFA_remember_state
  DW_CFA_def_cfa_offset: 56
  DW_CFA_advance_loc: 8 to 000000000043227d
  DW_CFA_def_cfa_offset: 48
  DW_CFA_advance_loc: 1 to 000000000043227e
  DW_CFA_def_cfa_offset: 40
  DW_CFA_advance_loc: 2 to 0000000000432280
  DW_CFA_def_cfa_offset: 32
  DW_CFA_advance_loc: 2 to 0000000000432282
  DW_CFA_def_cfa_offset: 24
  DW_CFA_advance_loc: 2 to 0000000000432284
  DW_CFA_def_cfa_offset: 16
  DW_CFA_advance_loc: 2 to 0000000000432286
  DW_CFA_def_cfa_offset: 8
  DW_CFA_advance_loc: 5 to 000000000043228b
  DW_CFA_restore_state
  DW_CFA_advance_loc: 56 to 00000000004322c3
  DW_CFA_remember_state
  DW_CFA_def_cfa_offset: 56
  DW_CFA_advance_loc: 8 to 00000000004322cb
  DW_CFA_def_cfa_offset: 48
  DW_CFA_advance_loc: 1 to 00000000004322cc
  DW_CFA_def_cfa_offset: 40
  DW_CFA_advance_loc: 2 to 00000000004322ce
  DW_CFA_def_cfa_offset: 32
  DW_CFA_advance_loc: 2 to 00000000004322d0
  DW_CFA_def_cfa_offset: 24
  DW_CFA_advance_loc: 2 to 00000000004322d2
  DW_CFA_def_cfa_offset: 16
  DW_CFA_advance_loc: 2 to 00000000004322d4
  DW_CFA_def_cfa_offset: 8
  DW_CFA_advance_loc: 5 to 00000000004322d9
  DW_CFA_restore_state
  DW_CFA_advance_loc: 46 to 0000000000432307
  DW_CFA_remember_state
  DW_CFA_def_cfa_offset: 56
  DW_CFA_advance_loc: 8 to 000000000043230f
  DW_CFA_def_cfa_offset: 48
  DW_CFA_advance_loc: 1 to 0000000000432310
  DW_CFA_def_cfa_offset: 40
  DW_CFA_advance_loc: 2 to 0000000000432312
  DW_CFA_def_cfa_offset: 32
  DW_CFA_advance_loc: 2 to 0000000000432314
  DW_CFA_def_cfa_offset: 24
  DW_CFA_advance_loc: 2 to 0000000000432316
  DW_CFA_def_cfa_offset: 16
  DW_CFA_advance_loc: 2 to 0000000000432318
  DW_CFA_def_cfa_offset: 8
  DW_CFA_advance_loc: 5 to 000000000043231d
  DW_CFA_restore_state
  DW_CFA_advance_loc: 56 to 0000000000432355
  DW_CFA_remember_state
  DW_CFA_def_cfa_offset: 56
  DW_CFA_advance_loc: 8 to 000000000043235d
  DW_CFA_def_cfa_offset: 48
  DW_CFA_advance_loc: 1 to 000000000043235e
  DW_CFA_def_cfa_offset: 40
  DW_CFA_advance_loc: 2 to 0000000000432360
  DW_CFA_def_cfa_offset: 32
  DW_CFA_advance_loc: 2 to 0000000000432362
  DW_CFA_def_cfa_offset: 24
  DW_CFA_advance_loc: 2 to 0000000000432364
  DW_CFA_def_cfa_offset: 16
  DW_CFA_advance_loc: 2 to 0000000000432366
  DW_CFA_def_cfa_offset: 8
  DW_CFA_advance_loc: 5 to 000000000043236b
  DW_CFA_restore_state
  DW_CFA_advance_loc: 46 to 0000000000432399
  DW_CFA_remember_state
  DW_CFA_def_cfa_offset: 56
  DW_CFA_advance_loc: 8 to 00000000004323a1
  DW_CFA_def_cfa_offset: 48
  DW_CFA_advance_loc: 1 to 00000000004323a2
  DW_CFA_def_cfa_offset: 40
  DW_CFA_advance_loc: 2 to 00000000004323a4
  DW_CFA_def_cfa_offset: 32
  DW_CFA_advance_loc: 2 to 00000000004323a6
  DW_CFA_def_cfa_offset: 24
  DW_CFA_advance_loc: 2 to 00000000004323a8
  DW_CFA_def_cfa_offset: 16
  DW_CFA_advance_loc: 2 to 00000000004323aa
  DW_CFA_def_cfa_offset: 8
  DW_CFA_advance_loc: 5 to 00000000004323af
  DW_CFA_restore_state
  DW_CFA_advance_loc: 56 to 00000000004323e7
  DW_CFA_remember_state
  DW_CFA_def_cfa_offset: 56
  DW_CFA_advance_loc: 8 to 00000000004323ef
  DW_CFA_def_cfa_offset: 48
  DW_CFA_advance_loc: 1 to 00000000004323f0
  DW_CFA_def_cfa_offset: 40
  DW_CFA_advance_loc: 2 to 00000000004323f2
  DW_CFA_def_cfa_offset: 32
  DW_CFA_advance_loc: 2 to 00000000004323f4
  DW_CFA_def_cfa_offset: 24
  DW_CFA_advance_loc: 2 to 00000000004323f6
  DW_CFA_def_cfa_offset: 16
  DW_CFA_advance_loc: 2 to 00000000004323f8
  DW_CFA_def_cfa_offset: 8
  DW_CFA_advance_loc: 5 to 00000000004323fd
  DW_CFA_restore_state
  DW_CFA_advance_loc: 46 to 000000000043242b
  DW_CFA_remember_state
  DW_CFA_def_cfa_offset: 56
  DW_CFA_advance_loc: 8 to 0000000000432433
  DW_CFA_def_cfa_offset: 48
  DW_CFA_advance_loc: 1 to 0000000000432434
  DW_CFA_def_cfa_offset: 40
  DW_CFA_advance_loc: 2 to 0000000000432436
  DW_CFA_def_cfa_offset: 32
  DW_CFA_advance_loc: 2 to 0000000000432438
  DW_CFA_def_cfa_offset: 24
  DW_CFA_advance_loc: 2 to 000000000043243a
  DW_CFA_def_cfa_offset: 16
  DW_CFA_advance_loc: 2 to 000000000043243c
  DW_CFA_def_cfa_offset: 8
  DW_CFA_advance_loc: 5 to 0000000000432441
  DW_CFA_restore_state
  DW_CFA_advance_loc: 56 to 0000000000432479
  DW_CFA_remember_state
  DW_CFA_def_cfa_offset: 56
  DW_CFA_advance_loc: 8 to 0000000000432481
  DW_CFA_def_cfa_offset: 48
  DW_CFA_advance_loc: 1 to 0000000000432482
  DW_CFA_def_cfa_offset: 40
  DW_CFA_advance_loc: 2 to 0000000000432484
  DW_CFA_def_cfa_offset: 32
  DW_CFA_advance_loc: 2 to 0000000000432486
  DW_CFA_def_cfa_offset: 24
  DW_CFA_advance_loc: 2 to 0000000000432488
  DW_CFA_def_cfa_offset: 16
  DW_CFA_advance_loc: 2 to 000000000043248a
  DW_CFA_def_cfa_offset: 8
  DW_CFA_advance_loc: 5 to 000000000043248f
  DW_CFA_restore_state
  DW_CFA_advance_loc: 46 to 00000000004324bd
  DW_CFA_remember_state
  DW_CFA_def_cfa_offset: 56
  DW_CFA_advance_loc: 8 to 00000000004324c5
  DW_CFA_def_cfa_offset: 48
  DW_CFA_advance_loc: 1 to 00000000004324c6
  DW_CFA_def_cfa_offset: 40
  DW_CFA_advance_loc: 2 to 00000000004324c8
  DW_CFA_def_cfa_offset: 32
  DW_CFA_advance_loc: 2 to 00000000004324ca
  DW_CFA_def_cfa_offset: 24
  DW_CFA_advance_loc: 2 to 00000000004324cc
  DW_CFA_def_cfa_offset: 16
  DW_CFA_advance_loc: 2 to 00000000004324ce
  DW_CFA_def_cfa_offset: 8
  DW_CFA_advance_loc: 5 to 00000000004324d3
  DW_CFA_restore_state
  DW_CFA_advance_loc: 56 to 000000000043250b
  DW_CFA_remember_state
  DW_CFA_def_cfa_offset: 56
  DW_CFA_advance_loc: 8 to 0000000000432513
  DW_CFA_def_cfa_offset: 48
  DW_CFA_advance_loc: 1 to 0000000000432514
  DW_CFA_def_cfa_offset: 40
  DW_CFA_advance_loc: 2 to 0000000000432516
  DW_CFA_def_cfa_offset: 32
  DW_CFA_advance_loc: 2 to 0000000000432518
  DW_CFA_def_cfa_offset: 24
  DW_CFA_advance_loc: 2 to 000000000043251a
  DW_CFA_def_cfa_offset: 16
  DW_CFA_advance_loc: 2 to 000000000043251c
  DW_CFA_def_cfa_offset: 8
  DW_CFA_advance_loc: 5 to 0000000000432521
  DW_CFA_restore_state
  DW_CFA_advance_loc: 46 to 000000000043254f
  DW_CFA_remember_state
  DW_CFA_def_cfa_offset: 56
  DW_CFA_advance_loc: 8 to 0000000000432557
  DW_CFA_def_cfa_offset: 48
  DW_CFA_advance_loc: 1 to 0000000000432558
  DW_CFA_def_cfa_offset: 40
  DW_CFA_advance_loc: 2 to 000000000043255a
  DW_CFA_def_cfa_offset: 32
  DW_CFA_advance_loc: 2 to 000000000043255c
  DW_CFA_def_cfa_offset: 24
  DW_CFA_advance_loc: 2 to 000000000043255e
  DW_CFA_def_cfa_offset: 16
  DW_CFA_advance_loc: 2 to 0000000000432560
  DW_CFA_def_cfa_offset: 8
  DW_CFA_advance_loc: 5 to 0000000000432565
  DW_CFA_restore_state
  DW_CFA_advance_loc: 56 to 000000000043259d
  DW_CFA_remember_state
  DW_CFA_def_cfa_offset: 56
  DW_CFA_advance_loc: 8 to 00000000004325a5
  DW_CFA_def_cfa_offset: 48
  DW_CFA_advance_loc: 1 to 00000000004325a6
  DW_CFA_def_cfa_offset: 40
  DW_CFA_advance_loc: 2 to 00000000004325a8
  DW_CFA_def_cfa_offset: 32
  DW_CFA_advance_loc: 2 to 00000000004325aa
  DW_CFA_def_cfa_offset: 24
  DW_CFA_advance_loc: 2 to 00000000004325ac
  DW_CFA_def_cfa_offset: 16
  DW_CFA_advance_loc: 2 to 00000000004325ae
  DW_CFA_def_cfa_offset: 8
  DW_CFA_advance_loc: 5 to 00000000004325b3
  DW_CFA_restore_state
  DW_CFA_advance_loc: 46 to 00000000004325e1
  DW_CFA_remember_state
  DW_CFA_def_cfa_offset: 56
  DW_CFA_advance_loc: 8 to 00000000004325e9
  DW_CFA_def_cfa_offset: 48
  DW_CFA_advance_loc: 1 to 00000000004325ea
  DW_CFA_def_cfa_offset: 40
  DW_CFA_advance_loc: 2 to 00000000004325ec
  DW_CFA_def_cfa_offset: 32
  DW_CFA_advance_loc: 2 to 00000000004325ee
  DW_CFA_def_cfa_offset: 24
  DW_CFA_advance_loc: 2 to 00000000004325f0
  DW_CFA_def_cfa_offset: 16
  DW_CFA_advance_loc: 2 to 00000000004325f2
  DW_CFA_def_cfa_offset: 8
  DW_CFA_advance_loc: 5 to 00000000004325f7
  DW_CFA_restore_state
  DW_CFA_advance_loc: 56 to 000000000043262f
  DW_CFA_remember_state
  DW_CFA_def_cfa_offset: 56
  DW_CFA_advance_loc: 8 to 0000000000432637
  DW_CFA_def_cfa_offset: 48
  DW_CFA_advance_loc: 1 to 0000000000432638
  DW_CFA_def_cfa_offset: 40
  DW_CFA_advance_loc: 2 to 000000000043263a
  DW_CFA_def_cfa_offset: 32
  DW_CFA_advance_loc: 2 to 000000000043263c
  DW_CFA_def_cfa_offset: 24
  DW_CFA_advance_loc: 2 to 000000000043263e
  DW_CFA_def_cfa_offset: 16
  DW_CFA_advance_loc: 2 to 0000000000432640
  DW_CFA_def_cfa_offset: 8
  DW_CFA_advance_loc: 5 to 0000000000432645
  DW_CFA_restore_state
  DW_CFA_advance_loc: 46 to 0000000000432673
  DW_CFA_remember_state
  DW_CFA_def_cfa_offset: 56
  DW_CFA_advance_loc: 8 to 000000000043267b
  DW_CFA_def_cfa_offset: 48
  DW_CFA_advance_loc: 1 to 000000000043267c
  DW_CFA_def_cfa_offset: 40
  DW_CFA_advance_loc: 2 to 000000000043267e
  DW_CFA_def_cfa_offset: 32
  DW_CFA_advance_loc: 2 to 0000000000432680
  DW_CFA_def_cfa_offset: 24
  DW_CFA_advance_loc: 2 to 0000000000432682
  DW_CFA_def_cfa_offset: 16
  DW_CFA_advance_loc: 2 to 0000000000432684
  DW_CFA_def_cfa_offset: 8
  DW_CFA_advance_loc: 5 to 0000000000432689
  DW_CFA_restore_state
  DW_CFA_advance_loc: 56 to 00000000004326c1
  DW_CFA_remember_state
  DW_CFA_def_cfa_offset: 56
  DW_CFA_advance_loc: 8 to 00000000004326c9
  DW_CFA_def_cfa_offset: 48
  DW_CFA_advance_loc: 1 to 00000000004326ca
  DW_CFA_def_cfa_offset: 40
  DW_CFA_advance_loc: 2 to 00000000004326cc
  DW_CFA_def_cfa_offset: 32
  DW_CFA_advance_loc: 2 to 00000000004326ce
  DW_CFA_def_cfa_offset: 24
  DW_CFA_advance_loc: 2 to 00000000004326d0
  DW_CFA_def_cfa_offset: 16
  DW_CFA_advance_loc: 2 to 00000000004326d2
  DW_CFA_def_cfa_offset: 8
  DW_CFA_advance_loc: 5 to 00000000004326d7
  DW_CFA_restore_state
  DW_CFA_advance_loc: 46 to 0000000000432705
  DW_CFA_remember_state
  DW_CFA_def_cfa_offset: 56
  DW_CFA_advance_loc: 8 to 000000000043270d
  DW_CFA_def_cfa_offset: 48
  DW_CFA_advance_loc: 1 to 000000000043270e
  DW_CFA_def_cfa_offset: 40
  DW_CFA_advance_loc: 2 to 0000000000432710
  DW_CFA_def_cfa_offset: 32
  DW_CFA_advance_loc: 2 to 0000000000432712
  DW_CFA_def_cfa_offset: 24
  DW_CFA_advance_loc: 2 to 0000000000432714
  DW_CFA_def_cfa_offset: 16
  DW_CFA_advance_loc: 2 to 0000000000432716
  DW_CFA_def_cfa_offset: 8
  DW_CFA_advance_loc: 5 to 000000000043271b
  DW_CFA_restore_state
  DW_CFA_advance_loc: 56 to 0000000000432753
  DW_CFA_remember_state
  DW_CFA_def_cfa_offset: 56
  DW_CFA_advance_loc: 8 to 000000000043275b
  DW_CFA_def_cfa_offset: 48
  DW_CFA_advance_loc: 1 to 000000000043275c
  DW_CFA_def_cfa_offset: 40
  DW_CFA_advance_loc: 2 to 000000000043275e
  DW_CFA_def_cfa_offset: 32
  DW_CFA_advance_loc: 2 to 0000000000432760
  DW_CFA_def_cfa_offset: 24
  DW_CFA_advance_loc: 2 to 0000000000432762
  DW_CFA_def_cfa_offset: 16
  DW_CFA_advance_loc: 2 to 0000000000432764
  DW_CFA_def_cfa_offset: 8
  DW_CFA_advance_loc: 5 to 0000000000432769
  DW_CFA_restore_state
  DW_CFA_advance_loc: 46 to 0000000000432797
  DW_CFA_remember_state
  DW_CFA_def_cfa_offset: 56
  DW_CFA_advance_loc: 8 to 000000000043279f
  DW_CFA_def_cfa_offset: 48
  DW_CFA_advance_loc: 1 to 00000000004327a0
  DW_CFA_def_cfa_offset: 40
  DW_CFA_advance_loc: 2 to 00000000004327a2
  DW_CFA_def_cfa_offset: 32
  DW_CFA_advance_loc: 2 to 00000000004327a4
  DW_CFA_def_cfa_offset: 24
  DW_CFA_advance_loc: 2 to 00000000004327a6
  DW_CFA_def_cfa_offset: 16
  DW_CFA_advance_loc: 2 to 00000000004327a8
  DW_CFA_def_cfa_offset: 8
  DW_CFA_advance_loc: 5 to 00000000004327ad
  DW_CFA_restore_state
  DW_CFA_advance_loc: 56 to 00000000004327e5
  DW_CFA_remember_state
  DW_CFA_def_cfa_offset: 56
  DW_CFA_advance_loc: 8 to 00000000004327ed
  DW_CFA_def_cfa_offset: 48
  DW_CFA_advance_loc: 1 to 00000000004327ee
  DW_CFA_def_cfa_offset: 40
  DW_CFA_advance_loc: 2 to 00000000004327f0
  DW_CFA_def_cfa_offset: 32
  DW_CFA_advance_loc: 2 to 00000000004327f2
  DW_CFA_def_cfa_offset: 24
  DW_CFA_advance_loc: 2 to 00000000004327f4
  DW_CFA_def_cfa_offset: 16
  DW_CFA_advance_loc: 2 to 00000000004327f6
  DW_CFA_def_cfa_offset: 8
  DW_CFA_advance_loc: 5 to 00000000004327fb
  DW_CFA_restore_state
  DW_CFA_advance_loc: 46 to 0000000000432829
  DW_CFA_remember_state
  DW_CFA_def_cfa_offset: 56
  DW_CFA_advance_loc: 8 to 0000000000432831
  DW_CFA_def_cfa_offset: 48
  DW_CFA_advance_loc: 1 to 0000000000432832
  DW_CFA_def_cfa_offset: 40
  DW_CFA_advance_loc: 2 to 0000000000432834
  DW_CFA_def_cfa_offset: 32
  DW_CFA_advance_loc: 2 to 0000000000432836
  DW_CFA_def_cfa_offset: 24
  DW_CFA_advance_loc: 2 to 0000000000432838
  DW_CFA_def_cfa_offset: 16
  DW_CFA_advance_loc: 2 to 000000000043283a
  DW_CFA_def_cfa_offset: 8
  DW_CFA_advance_loc: 5 to 000000000043283f
  DW_CFA_restore_state
  DW_CFA_advance_loc: 56 to 0000000000432877
  DW_CFA_remember_state
  DW_CFA_def_cfa_offset: 56
  DW_CFA_advance_loc: 8 to 000000000043287f
  DW_CFA_def_cfa_offset: 48
  DW_CFA_advance_loc: 1 to 0000000000432880
  DW_CFA_def_cfa_offset: 40
  DW_CFA_advance_loc: 2 to 0000000000432882
  DW_CFA_def_cfa_offset: 32
  DW_CFA_advance_loc: 2 to 0000000000432884
  DW_CFA_def_cfa_offset: 24
  DW_CFA_advance_loc: 2 to 0000000000432886
  DW_CFA_def_cfa_offset: 16
  DW_CFA_advance_loc: 2 to 0000000000432888
  DW_CFA_def_cfa_offset: 8
  DW_CFA_advance_loc: 5 to 000000000043288d
  DW_CFA_restore_state
  DW_CFA_advance_loc: 46 to 00000000004328bb
  DW_CFA_remember_state
  DW_CFA_def_cfa_offset: 56
  DW_CFA_advance_loc: 8 to 00000000004328c3
  DW_CFA_def_cfa_offset: 48
  DW_CFA_advance_loc: 1 to 00000000004328c4
  DW_CFA_def_cfa_offset: 40
  DW_CFA_advance_loc: 2 to 00000000004328c6
  DW_CFA_def_cfa_offset: 32
  DW_CFA_advance_loc: 2 to 00000000004328c8
  DW_CFA_def_cfa_offset: 24
  DW_CFA_advance_loc: 2 to 00000000004328ca
  DW_CFA_def_cfa_offset: 16
  DW_CFA_advance_loc: 2 to 00000000004328cc
  DW_CFA_def_cfa_offset: 8
  DW_CFA_advance_loc: 5 to 00000000004328d1
  DW_CFA_restore_state
  DW_CFA_advance_loc: 56 to 0000000000432909
  DW_CFA_remember_state
  DW_CFA_def_cfa_offset: 56
  DW_CFA_advance_loc: 8 to 0000000000432911
  DW_CFA_def_cfa_offset: 48
  DW_CFA_advance_loc: 1 to 0000000000432912
  DW_CFA_def_cfa_offset: 40
  DW_CFA_advance_loc: 2 to 0000000000432914
  DW_CFA_def_cfa_offset: 32
  DW_CFA_advance_loc: 2 to 0000000000432916
  DW_CFA_def_cfa_offset: 24
  DW_CFA_advance_loc: 2 to 0000000000432918
  DW_CFA_def_cfa_offset: 16
  DW_CFA_advance_loc: 2 to 000000000043291a
  DW_CFA_def_cfa_offset: 8
  DW_CFA_advance_loc: 5 to 000000000043291f
  DW_CFA_restore_state
  DW_CFA_advance_loc: 46 to 000000000043294d
  DW_CFA_remember_state
  DW_CFA_def_cfa_offset: 56
  DW_CFA_advance_loc: 8 to 0000000000432955
  DW_CFA_def_cfa_offset: 48
  DW_CFA_advance_loc: 1 to 0000000000432956
  DW_CFA_def_cfa_offset: 40
  DW_CFA_advance_loc: 2 to 0000000000432958
  DW_CFA_def_cfa_offset: 32
  DW_CFA_advance_loc: 2 to 000000000043295a
  DW_CFA_def_cfa_offset: 24
  DW_CFA_advance_loc: 2 to 000000000043295c
  DW_CFA_def_cfa_offset: 16
  DW_CFA_advance_loc: 2 to 000000000043295e
  DW_CFA_def_cfa_offset: 8
  DW_CFA_advance_loc: 5 to 0000000000432963
  DW_CFA_restore_state
  DW_CFA_advance_loc: 56 to 000000000043299b
  DW_CFA_remember_state
  DW_CFA_def_cfa_offset: 56
  DW_CFA_advance_loc: 8 to 00000000004329a3
  DW_CFA_def_cfa_offset: 48
  DW_CFA_advance_loc: 1 to 00000000004329a4
  DW_CFA_def_cfa_offset: 40
  DW_CFA_advance_loc: 2 to 00000000004329a6
  DW_CFA_def_cfa_offset: 32
  DW_CFA_advance_loc: 2 to 00000000004329a8
  DW_CFA_def_cfa_offset: 24
  DW_CFA_advance_loc: 2 to 00000000004329aa
  DW_CFA_def_cfa_offset: 16
  DW_CFA_advance_loc: 2 to 00000000004329ac
  DW_CFA_def_cfa_offset: 8
  DW_CFA_advance_loc: 5 to 00000000004329b1
  DW_CFA_restore_state
  DW_CFA_advance_loc: 46 to 00000000004329df
  DW_CFA_remember_state
  DW_CFA_def_cfa_offset: 56
  DW_CFA_advance_loc: 8 to 00000000004329e7
  DW_CFA_def_cfa_offset: 48
  DW_CFA_advance_loc: 1 to 00000000004329e8
  DW_CFA_def_cfa_offset: 40
  DW_CFA_advance_loc: 2 to 00000000004329ea
  DW_CFA_def_cfa_offset: 32
  DW_CFA_advance_loc: 2 to 00000000004329ec
  DW_CFA_def_cfa_offset: 24
  DW_CFA_advance_loc: 2 to 00000000004329ee
  DW_CFA_def_cfa_offset: 16
  DW_CFA_advance_loc: 2 to 00000000004329f0
  DW_CFA_def_cfa_offset: 8
  DW_CFA_advance_loc: 5 to 00000000004329f5
  DW_CFA_restore_state
  DW_CFA_advance_loc: 56 to 0000000000432a2d
  DW_CFA_remember_state
  DW_CFA_def_cfa_offset: 56
  DW_CFA_advance_loc: 8 to 0000000000432a35
  DW_CFA_def_cfa_offset: 48
  DW_CFA_advance_loc: 1 to 0000000000432a36
  DW_CFA_def_cfa_offset: 40
  DW_CFA_advance_loc: 2 to 0000000000432a38
  DW_CFA_def_cfa_offset: 32
  DW_CFA_advance_loc: 2 to 0000000000432a3a
  DW_CFA_def_cfa_offset: 24
  DW_CFA_advance_loc: 2 to 0000000000432a3c
  DW_CFA_def_cfa_offset: 16
  DW_CFA_advance_loc: 2 to 0000000000432a3e
  DW_CFA_def_cfa_offset: 8
  DW_CFA_advance_loc: 5 to 0000000000432a43
  DW_CFA_restore_state
  DW_CFA_advance_loc: 46 to 0000000000432a71
  DW_CFA_remember_state
  DW_CFA_def_cfa_offset: 56
  DW_CFA_advance_loc: 8 to 0000000000432a79
  DW_CFA_def_cfa_offset: 48
  DW_CFA_advance_loc: 1 to 0000000000432a7a
  DW_CFA_def_cfa_offset: 40
  DW_CFA_advance_loc: 2 to 0000000000432a7c
  DW_CFA_def_cfa_offset: 32
  DW_CFA_advance_loc: 2 to 0000000000432a7e
  DW_CFA_def_cfa_offset: 24
  DW_CFA_advance_loc: 2 to 0000000000432a80
  DW_CFA_def_cfa_offset: 16
  DW_CFA_advance_loc: 2 to 0000000000432a82
  DW_CFA_def_cfa_offset: 8
  DW_CFA_advance_loc: 5 to 0000000000432a87
  DW_CFA_restore_state
  DW_CFA_advance_loc: 56 to 0000000000432abf
  DW_CFA_remember_state
  DW_CFA_def_cfa_offset: 56
  DW_CFA_advance_loc: 8 to 0000000000432ac7
  DW_CFA_def_cfa_offset: 48
  DW_CFA_advance_loc: 1 to 0000000000432ac8
  DW_CFA_def_cfa_offset: 40
  DW_CFA_advance_loc: 2 to 0000000000432aca
  DW_CFA_def_cfa_offset: 32
  DW_CFA_advance_loc: 2 to 0000000000432acc
  DW_CFA_def_cfa_offset: 24
  DW_CFA_advance_loc: 2 to 0000000000432ace
  DW_CFA_def_cfa_offset: 16
  DW_CFA_advance_loc: 2 to 0000000000432ad0
  DW_CFA_def_cfa_offset: 8
  DW_CFA_advance_loc: 5 to 0000000000432ad5
  DW_CFA_restore_state
  DW_CFA_advance_loc: 46 to 0000000000432b03
  DW_CFA_remember_state
  DW_CFA_def_cfa_offset: 56
  DW_CFA_advance_loc: 8 to 0000000000432b0b
  DW_CFA_def_cfa_offset: 48
  DW_CFA_advance_loc: 1 to 0000000000432b0c
  DW_CFA_def_cfa_offset: 40
  DW_CFA_advance_loc: 2 to 0000000000432b0e
  DW_CFA_def_cfa_offset: 32
  DW_CFA_advance_loc: 2 to 0000000000432b10
  DW_CFA_def_cfa_offset: 24
  DW_CFA_advance_loc: 2 to 0000000000432b12
  DW_CFA_def_cfa_offset: 16
  DW_CFA_advance_loc: 2 to 0000000000432b14
  DW_CFA_def_cfa_offset: 8
  DW_CFA_advance_loc: 5 to 0000000000432b19
  DW_CFA_restore_state
  DW_CFA_advance_loc: 56 to 0000000000432b51
  DW_CFA_remember_state
  DW_CFA_def_cfa_offset: 56
  DW_CFA_advance_loc: 8 to 0000000000432b59
  DW_CFA_def_cfa_offset: 48
  DW_CFA_advance_loc: 1 to 0000000000432b5a
  DW_CFA_def_cfa_offset: 40
  DW_CFA_advance_loc: 2 to 0000000000432b5c
  DW_CFA_def_cfa_offset: 32
  DW_CFA_advance_loc: 2 to 0000000000432b5e
  DW_CFA_def_cfa_offset: 24
  DW_CFA_advance_loc: 2 to 0000000000432b60
  DW_CFA_def_cfa_offset: 16
  DW_CFA_advance_loc: 2 to 0000000000432b62
  DW_CFA_def_cfa_offset: 8
  DW_CFA_advance_loc: 5 to 0000000000432b67
  DW_CFA_restore_state
  DW_CFA_advance_loc: 46 to 0000000000432b95
  DW_CFA_remember_state
  DW_CFA_def_cfa_offset: 56
  DW_CFA_advance_loc: 8 to 0000000000432b9d
  DW_CFA_def_cfa_offset: 48
  DW_CFA_advance_loc: 1 to 0000000000432b9e
  DW_CFA_def_cfa_offset: 40
  DW_CFA_advance_loc: 2 to 0000000000432ba0
  DW_CFA_def_cfa_offset: 32
  DW_CFA_advance_loc: 2 to 0000000000432ba2
  DW_CFA_def_cfa_offset: 24
  DW_CFA_advance_loc: 2 to 0000000000432ba4
  DW_CFA_def_cfa_offset: 16
  DW_CFA_advance_loc: 2 to 0000000000432ba6
  DW_CFA_def_cfa_offset: 8
  DW_CFA_advance_loc: 5 to 0000000000432bab
  DW_CFA_restore_state
  DW_CFA_advance_loc: 56 to 0000000000432be3
  DW_CFA_remember_state
  DW_CFA_def_cfa_offset: 56
  DW_CFA_advance_loc: 8 to 0000000000432beb
  DW_CFA_def_cfa_offset: 48
  DW_CFA_advance_loc: 1 to 0000000000432bec
  DW_CFA_def_cfa_offset: 40
  DW_CFA_advance_loc: 2 to 0000000000432bee
  DW_CFA_def_cfa_offset: 32
  DW_CFA_advance_loc: 2 to 0000000000432bf0
  DW_CFA_def_cfa_offset: 24
  DW_CFA_advance_loc: 2 to 0000000000432bf2
  DW_CFA_def_cfa_offset: 16
  DW_CFA_advance_loc: 2 to 0000000000432bf4
  DW_CFA_def_cfa_offset: 8
  DW_CFA_advance_loc: 5 to 0000000000432bf9
  DW_CFA_restore_state
  DW_CFA_advance_loc: 46 to 0000000000432c27
  DW_CFA_remember_state
  DW_CFA_def_cfa_offset: 56
  DW_CFA_advance_loc: 8 to 0000000000432c2f
  DW_CFA_def_cfa_offset: 48
  DW_CFA_advance_loc: 1 to 0000000000432c30
  DW_CFA_def_cfa_offset: 40
  DW_CFA_advance_loc: 2 to 0000000000432c32
  DW_CFA_def_cfa_offset: 32
  DW_CFA_advance_loc: 2 to 0000000000432c34
  DW_CFA_def_cfa_offset: 24
  DW_CFA_advance_loc: 2 to 0000000000432c36
  DW_CFA_def_cfa_offset: 16
  DW_CFA_advance_loc: 2 to 0000000000432c38
  DW_CFA_def_cfa_offset: 8
  DW_CFA_advance_loc: 5 to 0000000000432c3d
  DW_CFA_restore_state
  DW_CFA_advance_loc: 56 to 0000000000432c75
  DW_CFA_remember_state
  DW_CFA_def_cfa_offset: 56
  DW_CFA_advance_loc: 8 to 0000000000432c7d
  DW_CFA_def_cfa_offset: 48
  DW_CFA_advance_loc: 1 to 0000000000432c7e
  DW_CFA_def_cfa_offset: 40
  DW_CFA_advance_loc: 2 to 0000000000432c80
  DW_CFA_def_cfa_offset: 32
  DW_CFA_advance_loc: 2 to 0000000000432c82
  DW_CFA_def_cfa_offset: 24
  DW_CFA_advance_loc: 2 to 0000000000432c84
  DW_CFA_def_cfa_offset: 16
  DW_CFA_advance_loc: 2 to 0000000000432c86
  DW_CFA_def_cfa_offset: 8
  DW_CFA_advance_loc: 5 to 0000000000432c8b
  DW_CFA_restore_state
  DW_CFA_advance_loc: 46 to 0000000000432cb9
  DW_CFA_remember_state
  DW_CFA_def_cfa_offset: 56
  DW_CFA_advance_loc: 8 to 0000000000432cc1
  DW_CFA_def_cfa_offset: 48
  DW_CFA_advance_loc: 1 to 0000000000432cc2
  DW_CFA_def_cfa_offset: 40
  DW_CFA_advance_loc: 2 to 0000000000432cc4
  DW_CFA_def_cfa_offset: 32
  DW_CFA_advance_loc: 2 to 0000000000432cc6
  DW_CFA_def_cfa_offset: 24
  DW_CFA_advance_loc: 2 to 0000000000432cc8
  DW_CFA_def_cfa_offset: 16
  DW_CFA_advance_loc: 2 to 0000000000432cca
  DW_CFA_def_cfa_offset: 8
  DW_CFA_advance_loc: 5 to 0000000000432ccf
  DW_CFA_restore_state
  DW_CFA_advance_loc: 56 to 0000000000432d07
  DW_CFA_remember_state
  DW_CFA_def_cfa_offset: 56
  DW_CFA_advance_loc: 8 to 0000000000432d0f
  DW_CFA_def_cfa_offset: 48
  DW_CFA_advance_loc: 1 to 0000000000432d10
  DW_CFA_def_cfa_offset: 40
  DW_CFA_advance_loc: 2 to 0000000000432d12
  DW_CFA_def_cfa_offset: 32
  DW_CFA_advance_loc: 2 to 0000000000432d14
  DW_CFA_def_cfa_offset: 24
  DW_CFA_advance_loc: 2 to 0000000000432d16
  DW_CFA_def_cfa_offset: 16
  DW_CFA_advance_loc: 2 to 0000000000432d18
  DW_CFA_def_cfa_offset: 8
  DW_CFA_advance_loc: 5 to 0000000000432d1d
  DW_CFA_restore_state
  DW_CFA_advance_loc: 46 to 0000000000432d4b
  DW_CFA_remember_state
  DW_CFA_def_cfa_offset: 56
  DW_CFA_advance_loc: 8 to 0000000000432d53
  DW_CFA_def_cfa_offset: 48
  DW_CFA_advance_loc: 1 to 0000000000432d54
  DW_CFA_def_cfa_offset: 40
  DW_CFA_advance_loc: 2 to 0000000000432d56
  DW_CFA_def_cfa_offset: 32
  DW_CFA_advance_loc: 2 to 0000000000432d58
  DW_CFA_def_cfa_offset: 24
  DW_CFA_advance_loc: 2 to 0000000000432d5a
  DW_CFA_def_cfa_offset: 16
  DW_CFA_advance_loc: 2 to 0000000000432d5c
  DW_CFA_def_cfa_offset: 8
  DW_CFA_advance_loc: 5 to 0000000000432d61
  DW_CFA_restore_state
  DW_CFA_advance_loc1: 65 to 0000000000432da2
  DW_CFA_remember_state
  DW_CFA_def_cfa_offset: 56
  DW_CFA_advance_loc: 8 to 0000000000432daa
  DW_CFA_def_cfa_offset: 48
  DW_CFA_advance_loc: 1 to 0000000000432dab
  DW_CFA_def_cfa_offset: 40
  DW_CFA_advance_loc: 2 to 0000000000432dad
  DW_CFA_def_cfa_offset: 32
  DW_CFA_advance_loc: 2 to 0000000000432daf
  DW_CFA_def_cfa_offset: 24
  DW_CFA_advance_loc: 2 to 0000000000432db1
  DW_CFA_def_cfa_offset: 16
  DW_CFA_advance_loc: 2 to 0000000000432db3
  DW_CFA_def_cfa_offset: 8
  DW_CFA_advance_loc: 5 to 0000000000432db8
  DW_CFA_restore_state
  DW_CFA_advance_loc: 50 to 0000000000432dea
  DW_CFA_remember_state
  DW_CFA_def_cfa_offset: 56
  DW_CFA_advance_loc: 8 to 0000000000432df2
  DW_CFA_def_cfa_offset: 48
  DW_CFA_advance_loc: 1 to 0000000000432df3
  DW_CFA_def_cfa_offset: 40
  DW_CFA_advance_loc: 2 to 0000000000432df5
  DW_CFA_def_cfa_offset: 32
  DW_CFA_advance_loc: 2 to 0000000000432df7
  DW_CFA_def_cfa_offset: 24
  DW_CFA_advance_loc: 2 to 0000000000432df9
  DW_CFA_def_cfa_offset: 16
  DW_CFA_advance_loc: 2 to 0000000000432dfb
  DW_CFA_def_cfa_offset: 8
  DW_CFA_advance_loc: 5 to 0000000000432e00
  DW_CFA_restore_state
  DW_CFA_advance_loc: 50 to 0000000000432e32
  DW_CFA_remember_state
  DW_CFA_def_cfa_offset: 56
  DW_CFA_advance_loc: 8 to 0000000000432e3a
  DW_CFA_def_cfa_offset: 48
  DW_CFA_advance_loc: 1 to 0000000000432e3b
  DW_CFA_def_cfa_offset: 40
  DW_CFA_advance_loc: 2 to 0000000000432e3d
  DW_CFA_def_cfa_offset: 32
  DW_CFA_advance_loc: 2 to 0000000000432e3f
  DW_CFA_def_cfa_offset: 24
  DW_CFA_advance_loc: 2 to 0000000000432e41
  DW_CFA_def_cfa_offset: 16
  DW_CFA_advance_loc: 2 to 0000000000432e43
  DW_CFA_def_cfa_offset: 8
  DW_CFA_advance_loc: 5 to 0000000000432e48
  DW_CFA_restore_state
  DW_CFA_advance_loc: 46 to 0000000000432e76
  DW_CFA_remember_state
  DW_CFA_def_cfa_offset: 56
  DW_CFA_advance_loc: 8 to 0000000000432e7e
  DW_CFA_def_cfa_offset: 48
  DW_CFA_advance_loc: 1 to 0000000000432e7f
  DW_CFA_def_cfa_offset: 40
  DW_CFA_advance_loc: 2 to 0000000000432e81
  DW_CFA_def_cfa_offset: 32
  DW_CFA_advance_loc: 2 to 0000000000432e83
  DW_CFA_def_cfa_offset: 24
  DW_CFA_advance_loc: 2 to 0000000000432e85
  DW_CFA_def_cfa_offset: 16
  DW_CFA_advance_loc: 2 to 0000000000432e87
  DW_CFA_def_cfa_offset: 8
  DW_CFA_advance_loc: 5 to 0000000000432e8c
  DW_CFA_restore_state
  DW_CFA_advance_loc: 46 to 0000000000432eba
  DW_CFA_remember_state
  DW_CFA_def_cfa_offset: 56
  DW_CFA_advance_loc: 8 to 0000000000432ec2
  DW_CFA_def_cfa_offset: 48
  DW_CFA_advance_loc: 1 to 0000000000432ec3
  DW_CFA_def_cfa_offset: 40
  DW_CFA_advance_loc: 2 to 0000000000432ec5
  DW_CFA_def_cfa_offset: 32
  DW_CFA_advance_loc: 2 to 0000000000432ec7
  DW_CFA_def_cfa_offset: 24
  DW_CFA_advance_loc: 2 to 0000000000432ec9
  DW_CFA_def_cfa_offset: 16
  DW_CFA_advance_loc: 2 to 0000000000432ecb
  DW_CFA_def_cfa_offset: 8
  DW_CFA_advance_loc: 5 to 0000000000432ed0
  DW_CFA_restore_state
  DW_CFA_advance_loc1: 71 to 0000000000432f17
  DW_CFA_remember_state
  DW_CFA_def_cfa_offset: 56
  DW_CFA_advance_loc: 8 to 0000000000432f1f
  DW_CFA_def_cfa_offset: 48
  DW_CFA_advance_loc: 1 to 0000000000432f20
  DW_CFA_def_cfa_offset: 40
  DW_CFA_advance_loc: 2 to 0000000000432f22
  DW_CFA_def_cfa_offset: 32
  DW_CFA_advance_loc: 2 to 0000000000432f24
  DW_CFA_def_cfa_offset: 24
  DW_CFA_advance_loc: 2 to 0000000000432f26
  DW_CFA_def_cfa_offset: 16
  DW_CFA_advance_loc: 2 to 0000000000432f28
  DW_CFA_def_cfa_offset: 8
  DW_CFA_advance_loc: 5 to 0000000000432f2d
  DW_CFA_restore_state
  DW_CFA_advance_loc: 46 to 0000000000432f5b
  DW_CFA_remember_state
  DW_CFA_def_cfa_offset: 56
  DW_CFA_advance_loc: 8 to 0000000000432f63
  DW_CFA_def_cfa_offset: 48
  DW_CFA_advance_loc: 1 to 0000000000432f64
  DW_CFA_def_cfa_offset: 40
  DW_CFA_advance_loc: 2 to 0000000000432f66
  DW_CFA_def_cfa_offset: 32
  DW_CFA_advance_loc: 2 to 0000000000432f68
  DW_CFA_def_cfa_offset: 24
  DW_CFA_advance_loc: 2 to 0000000000432f6a
  DW_CFA_def_cfa_offset: 16
  DW_CFA_advance_loc: 2 to 0000000000432f6c
  DW_CFA_def_cfa_offset: 8
  DW_CFA_advance_loc: 5 to 0000000000432f71
  DW_CFA_restore_state
  DW_CFA_advance_loc: 56 to 0000000000432fa9
  DW_CFA_remember_state
  DW_CFA_def_cfa_offset: 56
  DW_CFA_advance_loc: 8 to 0000000000432fb1
  DW_CFA_def_cfa_offset: 48
  DW_CFA_advance_loc: 1 to 0000000000432fb2
  DW_CFA_def_cfa_offset: 40
  DW_CFA_advance_loc: 2 to 0000000000432fb4
  DW_CFA_def_cfa_offset: 32
  DW_CFA_advance_loc: 2 to 0000000000432fb6
  DW_CFA_def_cfa_offset: 24
  DW_CFA_advance_loc: 2 to 0000000000432fb8
  DW_CFA_def_cfa_offset: 16
  DW_CFA_advance_loc: 2 to 0000000000432fba
  DW_CFA_def_cfa_offset: 8
  DW_CFA_advance_loc: 5 to 0000000000432fbf
  DW_CFA_restore_state
  DW_CFA_advance_loc: 46 to 0000000000432fed
  DW_CFA_remember_state
  DW_CFA_def_cfa_offset: 56
  DW_CFA_advance_loc: 8 to 0000000000432ff5
  DW_CFA_def_cfa_offset: 48
  DW_CFA_advance_loc: 1 to 0000000000432ff6
  DW_CFA_def_cfa_offset: 40
  DW_CFA_advance_loc: 2 to 0000000000432ff8
  DW_CFA_def_cfa_offset: 32
  DW_CFA_advance_loc: 2 to 0000000000432ffa
  DW_CFA_def_cfa_offset: 24
  DW_CFA_advance_loc: 2 to 0000000000432ffc
  DW_CFA_def_cfa_offset: 16
  DW_CFA_advance_loc: 2 to 0000000000432ffe
  DW_CFA_def_cfa_offset: 8
  DW_CFA_advance_loc: 5 to 0000000000433003
  DW_CFA_restore_state
  DW_CFA_advance_loc: 56 to 000000000043303b
  DW_CFA_remember_state
  DW_CFA_def_cfa_offset: 56
  DW_CFA_advance_loc: 8 to 0000000000433043
  DW_CFA_def_cfa_offset: 48
  DW_CFA_advance_loc: 1 to 0000000000433044
  DW_CFA_def_cfa_offset: 40
  DW_CFA_advance_loc: 2 to 0000000000433046
  DW_CFA_def_cfa_offset: 32
  DW_CFA_advance_loc: 2 to 0000000000433048
  DW_CFA_def_cfa_offset: 24
  DW_CFA_advance_loc: 2 to 000000000043304a
  DW_CFA_def_cfa_offset: 16
  DW_CFA_advance_loc: 2 to 000000000043304c
  DW_CFA_def_cfa_offset: 8
  DW_CFA_advance_loc: 5 to 0000000000433051
  DW_CFA_restore_state
  DW_CFA_advance_loc: 46 to 000000000043307f
  DW_CFA_remember_state
  DW_CFA_def_cfa_offset: 56
  DW_CFA_advance_loc: 8 to 0000000000433087
  DW_CFA_def_cfa_offset: 48
  DW_CFA_advance_loc: 1 to 0000000000433088
  DW_CFA_def_cfa_offset: 40
  DW_CFA_advance_loc: 2 to 000000000043308a
  DW_CFA_def_cfa_offset: 32
  DW_CFA_advance_loc: 2 to 000000000043308c
  DW_CFA_def_cfa_offset: 24
  DW_CFA_advance_loc: 2 to 000000000043308e
  DW_CFA_def_cfa_offset: 16
  DW_CFA_advance_loc: 2 to 0000000000433090
  DW_CFA_def_cfa_offset: 8
  DW_CFA_advance_loc: 5 to 0000000000433095
  DW_CFA_restore_state
  DW_CFA_advance_loc: 56 to 00000000004330cd
  DW_CFA_remember_state
  DW_CFA_def_cfa_offset: 56
  DW_CFA_advance_loc: 8 to 00000000004330d5
  DW_CFA_def_cfa_offset: 48
  DW_CFA_advance_loc: 1 to 00000000004330d6
  DW_CFA_def_cfa_offset: 40
  DW_CFA_advance_loc: 2 to 00000000004330d8
  DW_CFA_def_cfa_offset: 32
  DW_CFA_advance_loc: 2 to 00000000004330da
  DW_CFA_def_cfa_offset: 24
  DW_CFA_advance_loc: 2 to 00000000004330dc
  DW_CFA_def_cfa_offset: 16
  DW_CFA_advance_loc: 2 to 00000000004330de
  DW_CFA_def_cfa_offset: 8
  DW_CFA_advance_loc: 5 to 00000000004330e3
  DW_CFA_restore_state
  DW_CFA_advance_loc: 46 to 0000000000433111
  DW_CFA_remember_state
  DW_CFA_def_cfa_offset: 56
  DW_CFA_advance_loc: 8 to 0000000000433119
  DW_CFA_def_cfa_offset: 48
  DW_CFA_advance_loc: 1 to 000000000043311a
  DW_CFA_def_cfa_offset: 40
  DW_CFA_advance_loc: 2 to 000000000043311c
  DW_CFA_def_cfa_offset: 32
  DW_CFA_advance_loc: 2 to 000000000043311e
  DW_CFA_def_cfa_offset: 24
  DW_CFA_advance_loc: 2 to 0000000000433120
  DW_CFA_def_cfa_offset: 16
  DW_CFA_advance_loc: 2 to 0000000000433122
  DW_CFA_def_cfa_offset: 8
  DW_CFA_advance_loc: 5 to 0000000000433127
  DW_CFA_restore_state
  DW_CFA_advance_loc: 56 to 000000000043315f
  DW_CFA_remember_state
  DW_CFA_def_cfa_offset: 56
  DW_CFA_advance_loc: 8 to 0000000000433167
  DW_CFA_def_cfa_offset: 48
  DW_CFA_advance_loc: 1 to 0000000000433168
  DW_CFA_def_cfa_offset: 40
  DW_CFA_advance_loc: 2 to 000000000043316a
  DW_CFA_def_cfa_offset: 32
  DW_CFA_advance_loc: 2 to 000000000043316c
  DW_CFA_def_cfa_offset: 24
  DW_CFA_advance_loc: 2 to 000000000043316e
  DW_CFA_def_cfa_offset: 16
  DW_CFA_advance_loc: 2 to 0000000000433170
  DW_CFA_def_cfa_offset: 8
  DW_CFA_advance_loc: 5 to 0000000000433175
  DW_CFA_restore_state
  DW_CFA_advance_loc: 46 to 00000000004331a3
  DW_CFA_remember_state
  DW_CFA_def_cfa_offset: 56
  DW_CFA_advance_loc: 8 to 00000000004331ab
  DW_CFA_def_cfa_offset: 48
  DW_CFA_advance_loc: 1 to 00000000004331ac
  DW_CFA_def_cfa_offset: 40
  DW_CFA_advance_loc: 2 to 00000000004331ae
  DW_CFA_def_cfa_offset: 32
  DW_CFA_advance_loc: 2 to 00000000004331b0
  DW_CFA_def_cfa_offset: 24
  DW_CFA_advance_loc: 2 to 00000000004331b2
  DW_CFA_def_cfa_offset: 16
  DW_CFA_advance_loc: 2 to 00000000004331b4
  DW_CFA_def_cfa_offset: 8
  DW_CFA_advance_loc: 5 to 00000000004331b9
  DW_CFA_restore_state
  DW_CFA_advance_loc: 56 to 00000000004331f1
  DW_CFA_remember_state
  DW_CFA_def_cfa_offset: 56
  DW_CFA_advance_loc: 8 to 00000000004331f9
  DW_CFA_def_cfa_offset: 48
  DW_CFA_advance_loc: 1 to 00000000004331fa
  DW_CFA_def_cfa_offset: 40
  DW_CFA_advance_loc: 2 to 00000000004331fc
  DW_CFA_def_cfa_offset: 32
  DW_CFA_advance_loc: 2 to 00000000004331fe
  DW_CFA_def_cfa_offset: 24
  DW_CFA_advance_loc: 2 to 0000000000433200
  DW_CFA_def_cfa_offset: 16
  DW_CFA_advance_loc: 2 to 0000000000433202
  DW_CFA_def_cfa_offset: 8
  DW_CFA_advance_loc: 5 to 0000000000433207
  DW_CFA_restore_state
  DW_CFA_advance_loc: 46 to 0000000000433235
  DW_CFA_remember_state
  DW_CFA_def_cfa_offset: 56
  DW_CFA_advance_loc: 8 to 000000000043323d
  DW_CFA_def_cfa_offset: 48
  DW_CFA_advance_loc: 1 to 000000000043323e
  DW_CFA_def_cfa_offset: 40
  DW_CFA_advance_loc: 2 to 0000000000433240
  DW_CFA_def_cfa_offset: 32
  DW_CFA_advance_loc: 2 to 0000000000433242
  DW_CFA_def_cfa_offset: 24
  DW_CFA_advance_loc: 2 to 0000000000433244
  DW_CFA_def_cfa_offset: 16
  DW_CFA_advance_loc: 2 to 0000000000433246
  DW_CFA_def_cfa_offset: 8
  DW_CFA_advance_loc: 5 to 000000000043324b
  DW_CFA_restore_state
  DW_CFA_advance_loc: 56 to 0000000000433283
  DW_CFA_remember_state
  DW_CFA_def_cfa_offset: 56
  DW_CFA_advance_loc: 8 to 000000000043328b
  DW_CFA_def_cfa_offset: 48
  DW_CFA_advance_loc: 1 to 000000000043328c
  DW_CFA_def_cfa_offset: 40
  DW_CFA_advance_loc: 2 to 000000000043328e
  DW_CFA_def_cfa_offset: 32
  DW_CFA_advance_loc: 2 to 0000000000433290
  DW_CFA_def_cfa_offset: 24
  DW_CFA_advance_loc: 2 to 0000000000433292
  DW_CFA_def_cfa_offset: 16
  DW_CFA_advance_loc: 2 to 0000000000433294
  DW_CFA_def_cfa_offset: 8
  DW_CFA_advance_loc: 5 to 0000000000433299
  DW_CFA_restore_state
  DW_CFA_advance_loc: 46 to 00000000004332c7
  DW_CFA_remember_state
  DW_CFA_def_cfa_offset: 56
  DW_CFA_advance_loc: 8 to 00000000004332cf
  DW_CFA_def_cfa_offset: 48
  DW_CFA_advance_loc: 1 to 00000000004332d0
  DW_CFA_def_cfa_offset: 40
  DW_CFA_advance_loc: 2 to 00000000004332d2
  DW_CFA_def_cfa_offset: 32
  DW_CFA_advance_loc: 2 to 00000000004332d4
  DW_CFA_def_cfa_offset: 24
  DW_CFA_advance_loc: 2 to 00000000004332d6
  DW_CFA_def_cfa_offset: 16
  DW_CFA_advance_loc: 2 to 00000000004332d8
  DW_CFA_def_cfa_offset: 8
  DW_CFA_advance_loc: 5 to 00000000004332dd
  DW_CFA_restore_state
  DW_CFA_advance_loc: 56 to 0000000000433315
  DW_CFA_remember_state
  DW_CFA_def_cfa_offset: 56
  DW_CFA_advance_loc: 8 to 000000000043331d
  DW_CFA_def_cfa_offset: 48
  DW_CFA_advance_loc: 1 to 000000000043331e
  DW_CFA_def_cfa_offset: 40
  DW_CFA_advance_loc: 2 to 0000000000433320
  DW_CFA_def_cfa_offset: 32
  DW_CFA_advance_loc: 2 to 0000000000433322
  DW_CFA_def_cfa_offset: 24
  DW_CFA_advance_loc: 2 to 0000000000433324
  DW_CFA_def_cfa_offset: 16
  DW_CFA_advance_loc: 2 to 0000000000433326
  DW_CFA_def_cfa_offset: 8
  DW_CFA_advance_loc: 5 to 000000000043332b
  DW_CFA_restore_state
  DW_CFA_advance_loc: 46 to 0000000000433359
  DW_CFA_remember_state
  DW_CFA_def_cfa_offset: 56
  DW_CFA_advance_loc: 8 to 0000000000433361
  DW_CFA_def_cfa_offset: 48
  DW_CFA_advance_loc: 1 to 0000000000433362
  DW_CFA_def_cfa_offset: 40
  DW_CFA_advance_loc: 2 to 0000000000433364
  DW_CFA_def_cfa_offset: 32
  DW_CFA_advance_loc: 2 to 0000000000433366
  DW_CFA_def_cfa_offset: 24
  DW_CFA_advance_loc: 2 to 0000000000433368
  DW_CFA_def_cfa_offset: 16
  DW_CFA_advance_loc: 2 to 000000000043336a
  DW_CFA_def_cfa_offset: 8
  DW_CFA_advance_loc: 5 to 000000000043336f
  DW_CFA_restore_state
  DW_CFA_advance_loc: 56 to 00000000004333a7
  DW_CFA_remember_state
  DW_CFA_def_cfa_offset: 56
  DW_CFA_advance_loc: 8 to 00000000004333af
  DW_CFA_def_cfa_offset: 48
  DW_CFA_advance_loc: 1 to 00000000004333b0
  DW_CFA_def_cfa_offset: 40
  DW_CFA_advance_loc: 2 to 00000000004333b2
  DW_CFA_def_cfa_offset: 32
  DW_CFA_advance_loc: 2 to 00000000004333b4
  DW_CFA_def_cfa_offset: 24
  DW_CFA_advance_loc: 2 to 00000000004333b6
  DW_CFA_def_cfa_offset: 16
  DW_CFA_advance_loc: 2 to 00000000004333b8
  DW_CFA_def_cfa_offset: 8
  DW_CFA_advance_loc: 5 to 00000000004333bd
  DW_CFA_restore_state
  DW_CFA_advance_loc: 46 to 00000000004333eb
  DW_CFA_remember_state
  DW_CFA_def_cfa_offset: 56
  DW_CFA_advance_loc: 8 to 00000000004333f3
  DW_CFA_def_cfa_offset: 48
  DW_CFA_advance_loc: 1 to 00000000004333f4
  DW_CFA_def_cfa_offset: 40
  DW_CFA_advance_loc: 2 to 00000000004333f6
  DW_CFA_def_cfa_offset: 32
  DW_CFA_advance_loc: 2 to 00000000004333f8
  DW_CFA_def_cfa_offset: 24
  DW_CFA_advance_loc: 2 to 00000000004333fa
  DW_CFA_def_cfa_offset: 16
  DW_CFA_advance_loc: 2 to 00000000004333fc
  DW_CFA_def_cfa_offset: 8
  DW_CFA_advance_loc: 5 to 0000000000433401
  DW_CFA_restore_state
  DW_CFA_advance_loc: 56 to 0000000000433439
  DW_CFA_remember_state
  DW_CFA_def_cfa_offset: 56
  DW_CFA_advance_loc: 8 to 0000000000433441
  DW_CFA_def_cfa_offset: 48
  DW_CFA_advance_loc: 1 to 0000000000433442
  DW_CFA_def_cfa_offset: 40
  DW_CFA_advance_loc: 2 to 0000000000433444
  DW_CFA_def_cfa_offset: 32
  DW_CFA_advance_loc: 2 to 0000000000433446
  DW_CFA_def_cfa_offset: 24
  DW_CFA_advance_loc: 2 to 0000000000433448
  DW_CFA_def_cfa_offset: 16
  DW_CFA_advance_loc: 2 to 000000000043344a
  DW_CFA_def_cfa_offset: 8
  DW_CFA_advance_loc: 5 to 000000000043344f
  DW_CFA_restore_state
  DW_CFA_advance_loc: 46 to 000000000043347d
  DW_CFA_remember_state
  DW_CFA_def_cfa_offset: 56
  DW_CFA_advance_loc: 8 to 0000000000433485
  DW_CFA_def_cfa_offset: 48
  DW_CFA_advance_loc: 1 to 0000000000433486
  DW_CFA_def_cfa_offset: 40
  DW_CFA_advance_loc: 2 to 0000000000433488
  DW_CFA_def_cfa_offset: 32
  DW_CFA_advance_loc: 2 to 000000000043348a
  DW_CFA_def_cfa_offset: 24
  DW_CFA_advance_loc: 2 to 000000000043348c
  DW_CFA_def_cfa_offset: 16
  DW_CFA_advance_loc: 2 to 000000000043348e
  DW_CFA_def_cfa_offset: 8
  DW_CFA_advance_loc: 5 to 0000000000433493
  DW_CFA_restore_state
  DW_CFA_advance_loc: 56 to 00000000004334cb
  DW_CFA_remember_state
  DW_CFA_def_cfa_offset: 56
  DW_CFA_advance_loc: 8 to 00000000004334d3
  DW_CFA_def_cfa_offset: 48
  DW_CFA_advance_loc: 1 to 00000000004334d4
  DW_CFA_def_cfa_offset: 40
  DW_CFA_advance_loc: 2 to 00000000004334d6
  DW_CFA_def_cfa_offset: 32
  DW_CFA_advance_loc: 2 to 00000000004334d8
  DW_CFA_def_cfa_offset: 24
  DW_CFA_advance_loc: 2 to 00000000004334da
  DW_CFA_def_cfa_offset: 16
  DW_CFA_advance_loc: 2 to 00000000004334dc
  DW_CFA_def_cfa_offset: 8
  DW_CFA_advance_loc: 5 to 00000000004334e1
  DW_CFA_restore_state
  DW_CFA_advance_loc: 46 to 000000000043350f
  DW_CFA_remember_state
  DW_CFA_def_cfa_offset: 56
  DW_CFA_advance_loc: 8 to 0000000000433517
  DW_CFA_def_cfa_offset: 48
  DW_CFA_advance_loc: 1 to 0000000000433518
  DW_CFA_def_cfa_offset: 40
  DW_CFA_advance_loc: 2 to 000000000043351a
  DW_CFA_def_cfa_offset: 32
  DW_CFA_advance_loc: 2 to 000000000043351c
  DW_CFA_def_cfa_offset: 24
  DW_CFA_advance_loc: 2 to 000000000043351e
  DW_CFA_def_cfa_offset: 16
  DW_CFA_advance_loc: 2 to 0000000000433520
  DW_CFA_def_cfa_offset: 8
  DW_CFA_advance_loc: 5 to 0000000000433525
  DW_CFA_restore_state
  DW_CFA_advance_loc: 56 to 000000000043355d
  DW_CFA_remember_state
  DW_CFA_def_cfa_offset: 56
  DW_CFA_advance_loc: 8 to 0000000000433565
  DW_CFA_def_cfa_offset: 48
  DW_CFA_advance_loc: 1 to 0000000000433566
  DW_CFA_def_cfa_offset: 40
  DW_CFA_advance_loc: 2 to 0000000000433568
  DW_CFA_def_cfa_offset: 32
  DW_CFA_advance_loc: 2 to 000000000043356a
  DW_CFA_def_cfa_offset: 24
  DW_CFA_advance_loc: 2 to 000000000043356c
  DW_CFA_def_cfa_offset: 16
  DW_CFA_advance_loc: 2 to 000000000043356e
  DW_CFA_def_cfa_offset: 8
  DW_CFA_advance_loc: 5 to 0000000000433573
  DW_CFA_restore_state
  DW_CFA_advance_loc: 46 to 00000000004335a1
  DW_CFA_remember_state
  DW_CFA_def_cfa_offset: 56
  DW_CFA_advance_loc: 8 to 00000000004335a9
  DW_CFA_def_cfa_offset: 48
  DW_CFA_advance_loc: 1 to 00000000004335aa
  DW_CFA_def_cfa_offset: 40
  DW_CFA_advance_loc: 2 to 00000000004335ac
  DW_CFA_def_cfa_offset: 32
  DW_CFA_advance_loc: 2 to 00000000004335ae
  DW_CFA_def_cfa_offset: 24
  DW_CFA_advance_loc: 2 to 00000000004335b0
  DW_CFA_def_cfa_offset: 16
  DW_CFA_advance_loc: 2 to 00000000004335b2
  DW_CFA_def_cfa_offset: 8
  DW_CFA_advance_loc: 5 to 00000000004335b7
  DW_CFA_restore_state
  DW_CFA_advance_loc: 56 to 00000000004335ef
  DW_CFA_remember_state
  DW_CFA_def_cfa_offset: 56
  DW_CFA_advance_loc: 8 to 00000000004335f7
  DW_CFA_def_cfa_offset: 48
  DW_CFA_advance_loc: 1 to 00000000004335f8
  DW_CFA_def_cfa_offset: 40
  DW_CFA_advance_loc: 2 to 00000000004335fa
  DW_CFA_def_cfa_offset: 32
  DW_CFA_advance_loc: 2 to 00000000004335fc
  DW_CFA_def_cfa_offset: 24
  DW_CFA_advance_loc: 2 to 00000000004335fe
  DW_CFA_def_cfa_offset: 16
  DW_CFA_advance_loc: 2 to 0000000000433600
  DW_CFA_def_cfa_offset: 8
  DW_CFA_advance_loc: 5 to 0000000000433605
  DW_CFA_restore_state
  DW_CFA_advance_loc: 46 to 0000000000433633
  DW_CFA_remember_state
  DW_CFA_def_cfa_offset: 56
  DW_CFA_advance_loc: 8 to 000000000043363b
  DW_CFA_def_cfa_offset: 48
  DW_CFA_advance_loc: 1 to 000000000043363c
  DW_CFA_def_cfa_offset: 40
  DW_CFA_advance_loc: 2 to 000000000043363e
  DW_CFA_def_cfa_offset: 32
  DW_CFA_advance_loc: 2 to 0000000000433640
  DW_CFA_def_cfa_offset: 24
  DW_CFA_advance_loc: 2 to 0000000000433642
  DW_CFA_def_cfa_offset: 16
  DW_CFA_advance_loc: 2 to 0000000000433644
  DW_CFA_def_cfa_offset: 8
  DW_CFA_advance_loc: 5 to 0000000000433649
  DW_CFA_restore_state
  DW_CFA_advance_loc: 56 to 0000000000433681
  DW_CFA_remember_state
  DW_CFA_def_cfa_offset: 56
  DW_CFA_advance_loc: 8 to 0000000000433689
  DW_CFA_def_cfa_offset: 48
  DW_CFA_advance_loc: 1 to 000000000043368a
  DW_CFA_def_cfa_offset: 40
  DW_CFA_advance_loc: 2 to 000000000043368c
  DW_CFA_def_cfa_offset: 32
  DW_CFA_advance_loc: 2 to 000000000043368e
  DW_CFA_def_cfa_offset: 24
  DW_CFA_advance_loc: 2 to 0000000000433690
  DW_CFA_def_cfa_offset: 16
  DW_CFA_advance_loc: 2 to 0000000000433692
  DW_CFA_def_cfa_offset: 8
  DW_CFA_advance_loc: 5 to 0000000000433697
  DW_CFA_restore_state
  DW_CFA_advance_loc: 46 to 00000000004336c5
  DW_CFA_remember_state
  DW_CFA_def_cfa_offset: 56
  DW_CFA_advance_loc: 8 to 00000000004336cd
  DW_CFA_def_cfa_offset: 48
  DW_CFA_advance_loc: 1 to 00000000004336ce
  DW_CFA_def_cfa_offset: 40
  DW_CFA_advance_loc: 2 to 00000000004336d0
  DW_CFA_def_cfa_offset: 32
  DW_CFA_advance_loc: 2 to 00000000004336d2
  DW_CFA_def_cfa_offset: 24
  DW_CFA_advance_loc: 2 to 00000000004336d4
  DW_CFA_def_cfa_offset: 16
  DW_CFA_advance_loc: 2 to 00000000004336d6
  DW_CFA_def_cfa_offset: 8
  DW_CFA_advance_loc: 5 to 00000000004336db
  DW_CFA_restore_state
  DW_CFA_advance_loc: 56 to 0000000000433713
  DW_CFA_remember_state
  DW_CFA_def_cfa_offset: 56
  DW_CFA_advance_loc: 8 to 000000000043371b
  DW_CFA_def_cfa_offset: 48
  DW_CFA_advance_loc: 1 to 000000000043371c
  DW_CFA_def_cfa_offset: 40
  DW_CFA_advance_loc: 2 to 000000000043371e
  DW_CFA_def_cfa_offset: 32
  DW_CFA_advance_loc: 2 to 0000000000433720
  DW_CFA_def_cfa_offset: 24
  DW_CFA_advance_loc: 2 to 0000000000433722
  DW_CFA_def_cfa_offset: 16
  DW_CFA_advance_loc: 2 to 0000000000433724
  DW_CFA_def_cfa_offset: 8
  DW_CFA_advance_loc: 5 to 0000000000433729
  DW_CFA_restore_state
  DW_CFA_advance_loc: 46 to 0000000000433757
  DW_CFA_remember_state
  DW_CFA_def_cfa_offset: 56
  DW_CFA_advance_loc: 8 to 000000000043375f
  DW_CFA_def_cfa_offset: 48
  DW_CFA_advance_loc: 1 to 0000000000433760
  DW_CFA_def_cfa_offset: 40
  DW_CFA_advance_loc: 2 to 0000000000433762
  DW_CFA_def_cfa_offset: 32
  DW_CFA_advance_loc: 2 to 0000000000433764
  DW_CFA_def_cfa_offset: 24
  DW_CFA_advance_loc: 2 to 0000000000433766
  DW_CFA_def_cfa_offset: 16
  DW_CFA_advance_loc: 2 to 0000000000433768
  DW_CFA_def_cfa_offset: 8
  DW_CFA_advance_loc: 5 to 000000000043376d
  DW_CFA_restore_state
  DW_CFA_advance_loc: 56 to 00000000004337a5
  DW_CFA_remember_state
  DW_CFA_def_cfa_offset: 56
  DW_CFA_advance_loc: 8 to 00000000004337ad
  DW_CFA_def_cfa_offset: 48
  DW_CFA_advance_loc: 1 to 00000000004337ae
  DW_CFA_def_cfa_offset: 40
  DW_CFA_advance_loc: 2 to 00000000004337b0
  DW_CFA_def_cfa_offset: 32
  DW_CFA_advance_loc: 2 to 00000000004337b2
  DW_CFA_def_cfa_offset: 24
  DW_CFA_advance_loc: 2 to 00000000004337b4
  DW_CFA_def_cfa_offset: 16
  DW_CFA_advance_loc: 2 to 00000000004337b6
  DW_CFA_def_cfa_offset: 8
  DW_CFA_advance_loc: 5 to 00000000004337bb
  DW_CFA_restore_state
  DW_CFA_advance_loc: 46 to 00000000004337e9
  DW_CFA_remember_state
  DW_CFA_def_cfa_offset: 56
  DW_CFA_advance_loc: 8 to 00000000004337f1
  DW_CFA_def_cfa_offset: 48
  DW_CFA_advance_loc: 1 to 00000000004337f2
  DW_CFA_def_cfa_offset: 40
  DW_CFA_advance_loc: 2 to 00000000004337f4
  DW_CFA_def_cfa_offset: 32
  DW_CFA_advance_loc: 2 to 00000000004337f6
  DW_CFA_def_cfa_offset: 24
  DW_CFA_advance_loc: 2 to 00000000004337f8
  DW_CFA_def_cfa_offset: 16
  DW_CFA_advance_loc: 2 to 00000000004337fa
  DW_CFA_def_cfa_offset: 8
  DW_CFA_advance_loc: 5 to 00000000004337ff
  DW_CFA_restore_state
  DW_CFA_advance_loc: 56 to 0000000000433837
  DW_CFA_remember_state
  DW_CFA_def_cfa_offset: 56
  DW_CFA_advance_loc: 8 to 000000000043383f
  DW_CFA_def_cfa_offset: 48
  DW_CFA_advance_loc: 1 to 0000000000433840
  DW_CFA_def_cfa_offset: 40
  DW_CFA_advance_loc: 2 to 0000000000433842
  DW_CFA_def_cfa_offset: 32
  DW_CFA_advance_loc: 2 to 0000000000433844
  DW_CFA_def_cfa_offset: 24
  DW_CFA_advance_loc: 2 to 0000000000433846
  DW_CFA_def_cfa_offset: 16
  DW_CFA_advance_loc: 2 to 0000000000433848
  DW_CFA_def_cfa_offset: 8
  DW_CFA_advance_loc: 5 to 000000000043384d
  DW_CFA_restore_state
  DW_CFA_advance_loc: 46 to 000000000043387b
  DW_CFA_remember_state
  DW_CFA_def_cfa_offset: 56
  DW_CFA_advance_loc: 8 to 0000000000433883
  DW_CFA_def_cfa_offset: 48
  DW_CFA_advance_loc: 1 to 0000000000433884
  DW_CFA_def_cfa_offset: 40
  DW_CFA_advance_loc: 2 to 0000000000433886
  DW_CFA_def_cfa_offset: 32
  DW_CFA_advance_loc: 2 to 0000000000433888
  DW_CFA_def_cfa_offset: 24
  DW_CFA_advance_loc: 2 to 000000000043388a
  DW_CFA_def_cfa_offset: 16
  DW_CFA_advance_loc: 2 to 000000000043388c
  DW_CFA_def_cfa_offset: 8
  DW_CFA_advance_loc: 5 to 0000000000433891
  DW_CFA_restore_state
  DW_CFA_advance_loc: 56 to 00000000004338c9
  DW_CFA_remember_state
  DW_CFA_def_cfa_offset: 56
  DW_CFA_advance_loc: 8 to 00000000004338d1
  DW_CFA_def_cfa_offset: 48
  DW_CFA_advance_loc: 1 to 00000000004338d2
  DW_CFA_def_cfa_offset: 40
  DW_CFA_advance_loc: 2 to 00000000004338d4
  DW_CFA_def_cfa_offset: 32
  DW_CFA_advance_loc: 2 to 00000000004338d6
  DW_CFA_def_cfa_offset: 24
  DW_CFA_advance_loc: 2 to 00000000004338d8
  DW_CFA_def_cfa_offset: 16
  DW_CFA_advance_loc: 2 to 00000000004338da
  DW_CFA_def_cfa_offset: 8
  DW_CFA_advance_loc: 5 to 00000000004338df
  DW_CFA_restore_state
  DW_CFA_advance_loc: 46 to 000000000043390d
  DW_CFA_remember_state
  DW_CFA_def_cfa_offset: 56
  DW_CFA_advance_loc: 8 to 0000000000433915
  DW_CFA_def_cfa_offset: 48
  DW_CFA_advance_loc: 1 to 0000000000433916
  DW_CFA_def_cfa_offset: 40
  DW_CFA_advance_loc: 2 to 0000000000433918
  DW_CFA_def_cfa_offset: 32
  DW_CFA_advance_loc: 2 to 000000000043391a
  DW_CFA_def_cfa_offset: 24
  DW_CFA_advance_loc: 2 to 000000000043391c
  DW_CFA_def_cfa_offset: 16
  DW_CFA_advance_loc: 2 to 000000000043391e
  DW_CFA_def_cfa_offset: 8
  DW_CFA_advance_loc: 5 to 0000000000433923
  DW_CFA_restore_state
  DW_CFA_advance_loc: 56 to 000000000043395b
  DW_CFA_remember_state
  DW_CFA_def_cfa_offset: 56
  DW_CFA_advance_loc: 8 to 0000000000433963
  DW_CFA_def_cfa_offset: 48
  DW_CFA_advance_loc: 1 to 0000000000433964
  DW_CFA_def_cfa_offset: 40
  DW_CFA_advance_loc: 2 to 0000000000433966
  DW_CFA_def_cfa_offset: 32
  DW_CFA_advance_loc: 2 to 0000000000433968
  DW_CFA_def_cfa_offset: 24
  DW_CFA_advance_loc: 2 to 000000000043396a
  DW_CFA_def_cfa_offset: 16
  DW_CFA_advance_loc: 2 to 000000000043396c
  DW_CFA_def_cfa_offset: 8
  DW_CFA_advance_loc: 5 to 0000000000433971
  DW_CFA_restore_state
  DW_CFA_advance_loc: 46 to 000000000043399f
  DW_CFA_remember_state
  DW_CFA_def_cfa_offset: 56
  DW_CFA_advance_loc: 8 to 00000000004339a7
  DW_CFA_def_cfa_offset: 48
  DW_CFA_advance_loc: 1 to 00000000004339a8
  DW_CFA_def_cfa_offset: 40
  DW_CFA_advance_loc: 2 to 00000000004339aa
  DW_CFA_def_cfa_offset: 32
  DW_CFA_advance_loc: 2 to 00000000004339ac
  DW_CFA_def_cfa_offset: 24
  DW_CFA_advance_loc: 2 to 00000000004339ae
  DW_CFA_def_cfa_offset: 16
  DW_CFA_advance_loc: 2 to 00000000004339b0
  DW_CFA_def_cfa_offset: 8
  DW_CFA_advance_loc: 5 to 00000000004339b5
  DW_CFA_restore_state
  DW_CFA_advance_loc: 56 to 00000000004339ed
  DW_CFA_remember_state
  DW_CFA_def_cfa_offset: 56
  DW_CFA_advance_loc: 8 to 00000000004339f5
  DW_CFA_def_cfa_offset: 48
  DW_CFA_advance_loc: 1 to 00000000004339f6
  DW_CFA_def_cfa_offset: 40
  DW_CFA_advance_loc: 2 to 00000000004339f8
  DW_CFA_def_cfa_offset: 32
  DW_CFA_advance_loc: 2 to 00000000004339fa
  DW_CFA_def_cfa_offset: 24
  DW_CFA_advance_loc: 2 to 00000000004339fc
  DW_CFA_def_cfa_offset: 16
  DW_CFA_advance_loc: 2 to 00000000004339fe
  DW_CFA_def_cfa_offset: 8
  DW_CFA_advance_loc: 5 to 0000000000433a03
  DW_CFA_restore_state
  DW_CFA_advance_loc: 46 to 0000000000433a31
  DW_CFA_remember_state
  DW_CFA_def_cfa_offset: 56
  DW_CFA_advance_loc: 8 to 0000000000433a39
  DW_CFA_def_cfa_offset: 48
  DW_CFA_advance_loc: 1 to 0000000000433a3a
  DW_CFA_def_cfa_offset: 40
  DW_CFA_advance_loc: 2 to 0000000000433a3c
  DW_CFA_def_cfa_offset: 32
  DW_CFA_advance_loc: 2 to 0000000000433a3e
  DW_CFA_def_cfa_offset: 24
  DW_CFA_advance_loc: 2 to 0000000000433a40
  DW_CFA_def_cfa_offset: 16
  DW_CFA_advance_loc: 2 to 0000000000433a42
  DW_CFA_def_cfa_offset: 8
  DW_CFA_advance_loc: 5 to 0000000000433a47
  DW_CFA_restore_state
  DW_CFA_advance_loc: 56 to 0000000000433a7f
  DW_CFA_remember_state
  DW_CFA_def_cfa_offset: 56
  DW_CFA_advance_loc: 8 to 0000000000433a87
  DW_CFA_def_cfa_offset: 48
  DW_CFA_advance_loc: 1 to 0000000000433a88
  DW_CFA_def_cfa_offset: 40
  DW_CFA_advance_loc: 2 to 0000000000433a8a
  DW_CFA_def_cfa_offset: 32
  DW_CFA_advance_loc: 2 to 0000000000433a8c
  DW_CFA_def_cfa_offset: 24
  DW_CFA_advance_loc: 2 to 0000000000433a8e
  DW_CFA_def_cfa_offset: 16
  DW_CFA_advance_loc: 2 to 0000000000433a90
  DW_CFA_def_cfa_offset: 8
  DW_CFA_advance_loc: 5 to 0000000000433a95
  DW_CFA_restore_state
  DW_CFA_advance_loc: 46 to 0000000000433ac3
  DW_CFA_remember_state
  DW_CFA_def_cfa_offset: 56
  DW_CFA_advance_loc: 8 to 0000000000433acb
  DW_CFA_def_cfa_offset: 48
  DW_CFA_advance_loc: 1 to 0000000000433acc
  DW_CFA_def_cfa_offset: 40
  DW_CFA_advance_loc: 2 to 0000000000433ace
  DW_CFA_def_cfa_offset: 32
  DW_CFA_advance_loc: 2 to 0000000000433ad0
  DW_CFA_def_cfa_offset: 24
  DW_CFA_advance_loc: 2 to 0000000000433ad2
  DW_CFA_def_cfa_offset: 16
  DW_CFA_advance_loc: 2 to 0000000000433ad4
  DW_CFA_def_cfa_offset: 8
  DW_CFA_advance_loc: 5 to 0000000000433ad9
  DW_CFA_restore_state
  DW_CFA_advance_loc: 56 to 0000000000433b11
  DW_CFA_remember_state
  DW_CFA_def_cfa_offset: 56
  DW_CFA_advance_loc: 8 to 0000000000433b19
  DW_CFA_def_cfa_offset: 48
  DW_CFA_advance_loc: 1 to 0000000000433b1a
  DW_CFA_def_cfa_offset: 40
  DW_CFA_advance_loc: 2 to 0000000000433b1c
  DW_CFA_def_cfa_offset: 32
  DW_CFA_advance_loc: 2 to 0000000000433b1e
  DW_CFA_def_cfa_offset: 24
  DW_CFA_advance_loc: 2 to 0000000000433b20
  DW_CFA_def_cfa_offset: 16
  DW_CFA_advance_loc: 2 to 0000000000433b22
  DW_CFA_def_cfa_offset: 8
  DW_CFA_advance_loc: 5 to 0000000000433b27
  DW_CFA_restore_state
  DW_CFA_advance_loc: 46 to 0000000000433b55
  DW_CFA_remember_state
  DW_CFA_def_cfa_offset: 56
  DW_CFA_advance_loc: 8 to 0000000000433b5d
  DW_CFA_def_cfa_offset: 48
  DW_CFA_advance_loc: 1 to 0000000000433b5e
  DW_CFA_def_cfa_offset: 40
  DW_CFA_advance_loc: 2 to 0000000000433b60
  DW_CFA_def_cfa_offset: 32
  DW_CFA_advance_loc: 2 to 0000000000433b62
  DW_CFA_def_cfa_offset: 24
  DW_CFA_advance_loc: 2 to 0000000000433b64
  DW_CFA_def_cfa_offset: 16
  DW_CFA_advance_loc: 2 to 0000000000433b66
  DW_CFA_def_cfa_offset: 8
  DW_CFA_advance_loc: 5 to 0000000000433b6b
  DW_CFA_restore_state
  DW_CFA_advance_loc: 56 to 0000000000433ba3
  DW_CFA_remember_state
  DW_CFA_def_cfa_offset: 56
  DW_CFA_advance_loc: 8 to 0000000000433bab
  DW_CFA_def_cfa_offset: 48
  DW_CFA_advance_loc: 1 to 0000000000433bac
  DW_CFA_def_cfa_offset: 40
  DW_CFA_advance_loc: 2 to 0000000000433bae
  DW_CFA_def_cfa_offset: 32
  DW_CFA_advance_loc: 2 to 0000000000433bb0
  DW_CFA_def_cfa_offset: 24
  DW_CFA_advance_loc: 2 to 0000000000433bb2
  DW_CFA_def_cfa_offset: 16
  DW_CFA_advance_loc: 2 to 0000000000433bb4
  DW_CFA_def_cfa_offset: 8
  DW_CFA_advance_loc: 5 to 0000000000433bb9
  DW_CFA_restore_state
  DW_CFA_advance_loc: 46 to 0000000000433be7
  DW_CFA_remember_state
  DW_CFA_def_cfa_offset: 56
  DW_CFA_advance_loc: 8 to 0000000000433bef
  DW_CFA_def_cfa_offset: 48
  DW_CFA_advance_loc: 1 to 0000000000433bf0
  DW_CFA_def_cfa_offset: 40
  DW_CFA_advance_loc: 2 to 0000000000433bf2
  DW_CFA_def_cfa_offset: 32
  DW_CFA_advance_loc: 2 to 0000000000433bf4
  DW_CFA_def_cfa_offset: 24
  DW_CFA_advance_loc: 2 to 0000000000433bf6
  DW_CFA_def_cfa_offset: 16
  DW_CFA_advance_loc: 2 to 0000000000433bf8
  DW_CFA_def_cfa_offset: 8
  DW_CFA_advance_loc: 5 to 0000000000433bfd
  DW_CFA_restore_state
  DW_CFA_advance_loc: 56 to 0000000000433c35
  DW_CFA_remember_state
  DW_CFA_def_cfa_offset: 56
  DW_CFA_advance_loc: 8 to 0000000000433c3d
  DW_CFA_def_cfa_offset: 48
  DW_CFA_advance_loc: 1 to 0000000000433c3e
  DW_CFA_def_cfa_offset: 40
  DW_CFA_advance_loc: 2 to 0000000000433c40
  DW_CFA_def_cfa_offset: 32
  DW_CFA_advance_loc: 2 to 0000000000433c42
  DW_CFA_def_cfa_offset: 24
  DW_CFA_advance_loc: 2 to 0000000000433c44
  DW_CFA_def_cfa_offset: 16
  DW_CFA_advance_loc: 2 to 0000000000433c46
  DW_CFA_def_cfa_offset: 8
  DW_CFA_advance_loc: 5 to 0000000000433c4b
  DW_CFA_restore_state
  DW_CFA_advance_loc: 46 to 0000000000433c79
  DW_CFA_remember_state
  DW_CFA_def_cfa_offset: 56
  DW_CFA_advance_loc: 8 to 0000000000433c81
  DW_CFA_def_cfa_offset: 48
  DW_CFA_advance_loc: 1 to 0000000000433c82
  DW_CFA_def_cfa_offset: 40
  DW_CFA_advance_loc: 2 to 0000000000433c84
  DW_CFA_def_cfa_offset: 32
  DW_CFA_advance_loc: 2 to 0000000000433c86
  DW_CFA_def_cfa_offset: 24
  DW_CFA_advance_loc: 2 to 0000000000433c88
  DW_CFA_def_cfa_offset: 16
  DW_CFA_advance_loc: 2 to 0000000000433c8a
  DW_CFA_def_cfa_offset: 8
  DW_CFA_advance_loc: 5 to 0000000000433c8f
  DW_CFA_restore_state
  DW_CFA_advance_loc: 56 to 0000000000433cc7
  DW_CFA_remember_state
  DW_CFA_def_cfa_offset: 56
  DW_CFA_advance_loc: 8 to 0000000000433ccf
  DW_CFA_def_cfa_offset: 48
  DW_CFA_advance_loc: 1 to 0000000000433cd0
  DW_CFA_def_cfa_offset: 40
  DW_CFA_advance_loc: 2 to 0000000000433cd2
  DW_CFA_def_cfa_offset: 32
  DW_CFA_advance_loc: 2 to 0000000000433cd4
  DW_CFA_def_cfa_offset: 24
  DW_CFA_advance_loc: 2 to 0000000000433cd6
  DW_CFA_def_cfa_offset: 16
  DW_CFA_advance_loc: 2 to 0000000000433cd8
  DW_CFA_def_cfa_offset: 8
  DW_CFA_advance_loc: 5 to 0000000000433cdd
  DW_CFA_restore_state
  DW_CFA_advance_loc: 46 to 0000000000433d0b
  DW_CFA_remember_state
  DW_CFA_def_cfa_offset: 56
  DW_CFA_advance_loc: 8 to 0000000000433d13
  DW_CFA_def_cfa_offset: 48
  DW_CFA_advance_loc: 1 to 0000000000433d14
  DW_CFA_def_cfa_offset: 40
  DW_CFA_advance_loc: 2 to 0000000000433d16
  DW_CFA_def_cfa_offset: 32
  DW_CFA_advance_loc: 2 to 0000000000433d18
  DW_CFA_def_cfa_offset: 24
  DW_CFA_advance_loc: 2 to 0000000000433d1a
  DW_CFA_def_cfa_offset: 16
  DW_CFA_advance_loc: 2 to 0000000000433d1c
  DW_CFA_def_cfa_offset: 8
  DW_CFA_advance_loc: 5 to 0000000000433d21
  DW_CFA_restore_state
  DW_CFA_advance_loc: 56 to 0000000000433d59
  DW_CFA_remember_state
  DW_CFA_def_cfa_offset: 56
  DW_CFA_advance_loc: 8 to 0000000000433d61
  DW_CFA_def_cfa_offset: 48
  DW_CFA_advance_loc: 1 to 0000000000433d62
  DW_CFA_def_cfa_offset: 40
  DW_CFA_advance_loc: 2 to 0000000000433d64
  DW_CFA_def_cfa_offset: 32
  DW_CFA_advance_loc: 2 to 0000000000433d66
  DW_CFA_def_cfa_offset: 24
  DW_CFA_advance_loc: 2 to 0000000000433d68
  DW_CFA_def_cfa_offset: 16
  DW_CFA_advance_loc: 2 to 0000000000433d6a
  DW_CFA_def_cfa_offset: 8
  DW_CFA_advance_loc: 5 to 0000000000433d6f
  DW_CFA_restore_state
  DW_CFA_advance_loc: 46 to 0000000000433d9d
  DW_CFA_remember_state
  DW_CFA_def_cfa_offset: 56
  DW_CFA_advance_loc: 8 to 0000000000433da5
  DW_CFA_def_cfa_offset: 48
  DW_CFA_advance_loc: 1 to 0000000000433da6
  DW_CFA_def_cfa_offset: 40
  DW_CFA_advance_loc: 2 to 0000000000433da8
  DW_CFA_def_cfa_offset: 32
  DW_CFA_advance_loc: 2 to 0000000000433daa
  DW_CFA_def_cfa_offset: 24
  DW_CFA_advance_loc: 2 to 0000000000433dac
  DW_CFA_def_cfa_offset: 16
  DW_CFA_advance_loc: 2 to 0000000000433dae
  DW_CFA_def_cfa_offset: 8
  DW_CFA_advance_loc: 5 to 0000000000433db3
  DW_CFA_restore_state
  DW_CFA_advance_loc: 56 to 0000000000433deb
  DW_CFA_remember_state
  DW_CFA_def_cfa_offset: 56
  DW_CFA_advance_loc: 8 to 0000000000433df3
  DW_CFA_def_cfa_offset: 48
  DW_CFA_advance_loc: 1 to 0000000000433df4
  DW_CFA_def_cfa_offset: 40
  DW_CFA_advance_loc: 2 to 0000000000433df6
  DW_CFA_def_cfa_offset: 32
  DW_CFA_advance_loc: 2 to 0000000000433df8
  DW_CFA_def_cfa_offset: 24
  DW_CFA_advance_loc: 2 to 0000000000433dfa
  DW_CFA_def_cfa_offset: 16
  DW_CFA_advance_loc: 2 to 0000000000433dfc
  DW_CFA_def_cfa_offset: 8
  DW_CFA_advance_loc: 5 to 0000000000433e01
  DW_CFA_restore_state
  DW_CFA_advance_loc: 46 to 0000000000433e2f
  DW_CFA_remember_state
  DW_CFA_def_cfa_offset: 56
  DW_CFA_advance_loc: 8 to 0000000000433e37
  DW_CFA_def_cfa_offset: 48
  DW_CFA_advance_loc: 1 to 0000000000433e38
  DW_CFA_def_cfa_offset: 40
  DW_CFA_advance_loc: 2 to 0000000000433e3a
  DW_CFA_def_cfa_offset: 32
  DW_CFA_advance_loc: 2 to 0000000000433e3c
  DW_CFA_def_cfa_offset: 24
  DW_CFA_advance_loc: 2 to 0000000000433e3e
  DW_CFA_def_cfa_offset: 16
  DW_CFA_advance_loc: 2 to 0000000000433e40
  DW_CFA_def_cfa_offset: 8
  DW_CFA_advance_loc: 5 to 0000000000433e45
  DW_CFA_restore_state
  DW_CFA_advance_loc: 56 to 0000000000433e7d
  DW_CFA_remember_state
  DW_CFA_def_cfa_offset: 56
  DW_CFA_advance_loc: 8 to 0000000000433e85
  DW_CFA_def_cfa_offset: 48
  DW_CFA_advance_loc: 1 to 0000000000433e86
  DW_CFA_def_cfa_offset: 40
  DW_CFA_advance_loc: 2 to 0000000000433e88
  DW_CFA_def_cfa_offset: 32
  DW_CFA_advance_loc: 2 to 0000000000433e8a
  DW_CFA_def_cfa_offset: 24
  DW_CFA_advance_loc: 2 to 0000000000433e8c
  DW_CFA_def_cfa_offset: 16
  DW_CFA_advance_loc: 2 to 0000000000433e8e
  DW_CFA_def_cfa_offset: 8
  DW_CFA_advance_loc: 5 to 0000000000433e93
  DW_CFA_restore_state
  DW_CFA_advance_loc: 46 to 0000000000433ec1
  DW_CFA_remember_state
  DW_CFA_def_cfa_offset: 56
  DW_CFA_advance_loc: 8 to 0000000000433ec9
  DW_CFA_def_cfa_offset: 48
  DW_CFA_advance_loc: 1 to 0000000000433eca
  DW_CFA_def_cfa_offset: 40
  DW_CFA_advance_loc: 2 to 0000000000433ecc
  DW_CFA_def_cfa_offset: 32
  DW_CFA_advance_loc: 2 to 0000000000433ece
  DW_CFA_def_cfa_offset: 24
  DW_CFA_advance_loc: 2 to 0000000000433ed0
  DW_CFA_def_cfa_offset: 16
  DW_CFA_advance_loc: 2 to 0000000000433ed2
  DW_CFA_def_cfa_offset: 8
  DW_CFA_advance_loc: 5 to 0000000000433ed7
  DW_CFA_restore_state
  DW_CFA_advance_loc: 56 to 0000000000433f0f
  DW_CFA_remember_state
  DW_CFA_def_cfa_offset: 56
  DW_CFA_advance_loc: 8 to 0000000000433f17
  DW_CFA_def_cfa_offset: 48
  DW_CFA_advance_loc: 1 to 0000000000433f18
  DW_CFA_def_cfa_offset: 40
  DW_CFA_advance_loc: 2 to 0000000000433f1a
  DW_CFA_def_cfa_offset: 32
  DW_CFA_advance_loc: 2 to 0000000000433f1c
  DW_CFA_def_cfa_offset: 24
  DW_CFA_advance_loc: 2 to 0000000000433f1e
  DW_CFA_def_cfa_offset: 16
  DW_CFA_advance_loc: 2 to 0000000000433f20
  DW_CFA_def_cfa_offset: 8
  DW_CFA_advance_loc: 5 to 0000000000433f25
  DW_CFA_restore_state
  DW_CFA_advance_loc: 46 to 0000000000433f53
  DW_CFA_remember_state
  DW_CFA_def_cfa_offset: 56
  DW_CFA_advance_loc: 8 to 0000000000433f5b
  DW_CFA_def_cfa_offset: 48
  DW_CFA_advance_loc: 1 to 0000000000433f5c
  DW_CFA_def_cfa_offset: 40
  DW_CFA_advance_loc: 2 to 0000000000433f5e
  DW_CFA_def_cfa_offset: 32
  DW_CFA_advance_loc: 2 to 0000000000433f60
  DW_CFA_def_cfa_offset: 24
  DW_CFA_advance_loc: 2 to 0000000000433f62
  DW_CFA_def_cfa_offset: 16
  DW_CFA_advance_loc: 2 to 0000000000433f64
  DW_CFA_def_cfa_offset: 8
  DW_CFA_advance_loc: 5 to 0000000000433f69
  DW_CFA_restore_state
  DW_CFA_advance_loc: 56 to 0000000000433fa1
  DW_CFA_remember_state
  DW_CFA_def_cfa_offset: 56
  DW_CFA_advance_loc: 8 to 0000000000433fa9
  DW_CFA_def_cfa_offset: 48
  DW_CFA_advance_loc: 1 to 0000000000433faa
  DW_CFA_def_cfa_offset: 40
  DW_CFA_advance_loc: 2 to 0000000000433fac
  DW_CFA_def_cfa_offset: 32
  DW_CFA_advance_loc: 2 to 0000000000433fae
  DW_CFA_def_cfa_offset: 24
  DW_CFA_advance_loc: 2 to 0000000000433fb0
  DW_CFA_def_cfa_offset: 16
  DW_CFA_advance_loc: 2 to 0000000000433fb2
  DW_CFA_def_cfa_offset: 8
  DW_CFA_advance_loc: 5 to 0000000000433fb7
  DW_CFA_restore_state
  DW_CFA_advance_loc: 46 to 0000000000433fe5
  DW_CFA_remember_state
  DW_CFA_def_cfa_offset: 56
  DW_CFA_advance_loc: 8 to 0000000000433fed
  DW_CFA_def_cfa_offset: 48
  DW_CFA_advance_loc: 1 to 0000000000433fee
  DW_CFA_def_cfa_offset: 40
  DW_CFA_advance_loc: 2 to 0000000000433ff0
  DW_CFA_def_cfa_offset: 32
  DW_CFA_advance_loc: 2 to 0000000000433ff2
  DW_CFA_def_cfa_offset: 24
  DW_CFA_advance_loc: 2 to 0000000000433ff4
  DW_CFA_def_cfa_offset: 16
  DW_CFA_advance_loc: 2 to 0000000000433ff6
  DW_CFA_def_cfa_offset: 8
  DW_CFA_advance_loc: 5 to 0000000000433ffb
  DW_CFA_restore_state
  DW_CFA_advance_loc: 56 to 0000000000434033
  DW_CFA_remember_state
  DW_CFA_def_cfa_offset: 56
  DW_CFA_advance_loc: 8 to 000000000043403b
  DW_CFA_def_cfa_offset: 48
  DW_CFA_advance_loc: 1 to 000000000043403c
  DW_CFA_def_cfa_offset: 40
  DW_CFA_advance_loc: 2 to 000000000043403e
  DW_CFA_def_cfa_offset: 32
  DW_CFA_advance_loc: 2 to 0000000000434040
  DW_CFA_def_cfa_offset: 24
  DW_CFA_advance_loc: 2 to 0000000000434042
  DW_CFA_def_cfa_offset: 16
  DW_CFA_advance_loc: 2 to 0000000000434044
  DW_CFA_def_cfa_offset: 8
  DW_CFA_advance_loc: 5 to 0000000000434049
  DW_CFA_restore_state
  DW_CFA_advance_loc: 46 to 0000000000434077
  DW_CFA_remember_state
  DW_CFA_def_cfa_offset: 56
  DW_CFA_advance_loc: 8 to 000000000043407f
  DW_CFA_def_cfa_offset: 48
  DW_CFA_advance_loc: 1 to 0000000000434080
  DW_CFA_def_cfa_offset: 40
  DW_CFA_advance_loc: 2 to 0000000000434082
  DW_CFA_def_cfa_offset: 32
  DW_CFA_advance_loc: 2 to 0000000000434084
  DW_CFA_def_cfa_offset: 24
  DW_CFA_advance_loc: 2 to 0000000000434086
  DW_CFA_def_cfa_offset: 16
  DW_CFA_advance_loc: 2 to 0000000000434088
  DW_CFA_def_cfa_offset: 8
  DW_CFA_advance_loc: 5 to 000000000043408d
  DW_CFA_restore_state
  DW_CFA_advance_loc: 56 to 00000000004340c5
  DW_CFA_remember_state
  DW_CFA_def_cfa_offset: 56
  DW_CFA_advance_loc: 8 to 00000000004340cd
  DW_CFA_def_cfa_offset: 48
  DW_CFA_advance_loc: 1 to 00000000004340ce
  DW_CFA_def_cfa_offset: 40
  DW_CFA_advance_loc: 2 to 00000000004340d0
  DW_CFA_def_cfa_offset: 32
  DW_CFA_advance_loc: 2 to 00000000004340d2
  DW_CFA_def_cfa_offset: 24
  DW_CFA_advance_loc: 2 to 00000000004340d4
  DW_CFA_def_cfa_offset: 16
  DW_CFA_advance_loc: 2 to 00000000004340d6
  DW_CFA_def_cfa_offset: 8
  DW_CFA_advance_loc: 5 to 00000000004340db
  DW_CFA_restore_state
  DW_CFA_advance_loc: 46 to 0000000000434109
  DW_CFA_remember_state
  DW_CFA_def_cfa_offset: 56
  DW_CFA_advance_loc: 8 to 0000000000434111
  DW_CFA_def_cfa_offset: 48
  DW_CFA_advance_loc: 1 to 0000000000434112
  DW_CFA_def_cfa_offset: 40
  DW_CFA_advance_loc: 2 to 0000000000434114
  DW_CFA_def_cfa_offset: 32
  DW_CFA_advance_loc: 2 to 0000000000434116
  DW_CFA_def_cfa_offset: 24
  DW_CFA_advance_loc: 2 to 0000000000434118
  DW_CFA_def_cfa_offset: 16
  DW_CFA_advance_loc: 2 to 000000000043411a
  DW_CFA_def_cfa_offset: 8
  DW_CFA_advance_loc: 5 to 000000000043411f
  DW_CFA_restore_state
  DW_CFA_advance_loc: 56 to 0000000000434157
  DW_CFA_remember_state
  DW_CFA_def_cfa_offset: 56
  DW_CFA_advance_loc: 8 to 000000000043415f
  DW_CFA_def_cfa_offset: 48
  DW_CFA_advance_loc: 1 to 0000000000434160
  DW_CFA_def_cfa_offset: 40
  DW_CFA_advance_loc: 2 to 0000000000434162
  DW_CFA_def_cfa_offset: 32
  DW_CFA_advance_loc: 2 to 0000000000434164
  DW_CFA_def_cfa_offset: 24
  DW_CFA_advance_loc: 2 to 0000000000434166
  DW_CFA_def_cfa_offset: 16
  DW_CFA_advance_loc: 2 to 0000000000434168
  DW_CFA_def_cfa_offset: 8
  DW_CFA_advance_loc: 5 to 000000000043416d
  DW_CFA_restore_state
  DW_CFA_advance_loc: 46 to 000000000043419b
  DW_CFA_remember_state
  DW_CFA_def_cfa_offset: 56
  DW_CFA_advance_loc: 8 to 00000000004341a3
  DW_CFA_def_cfa_offset: 48
  DW_CFA_advance_loc: 1 to 00000000004341a4
  DW_CFA_def_cfa_offset: 40
  DW_CFA_advance_loc: 2 to 00000000004341a6
  DW_CFA_def_cfa_offset: 32
  DW_CFA_advance_loc: 2 to 00000000004341a8
  DW_CFA_def_cfa_offset: 24
  DW_CFA_advance_loc: 2 to 00000000004341aa
  DW_CFA_def_cfa_offset: 16
  DW_CFA_advance_loc: 2 to 00000000004341ac
  DW_CFA_def_cfa_offset: 8
  DW_CFA_advance_loc: 5 to 00000000004341b1
  DW_CFA_restore_state
  DW_CFA_advance_loc: 56 to 00000000004341e9
  DW_CFA_remember_state
  DW_CFA_def_cfa_offset: 56
  DW_CFA_advance_loc: 8 to 00000000004341f1
  DW_CFA_def_cfa_offset: 48
  DW_CFA_advance_loc: 1 to 00000000004341f2
  DW_CFA_def_cfa_offset: 40
  DW_CFA_advance_loc: 2 to 00000000004341f4
  DW_CFA_def_cfa_offset: 32
  DW_CFA_advance_loc: 2 to 00000000004341f6
  DW_CFA_def_cfa_offset: 24
  DW_CFA_advance_loc: 2 to 00000000004341f8
  DW_CFA_def_cfa_offset: 16
  DW_CFA_advance_loc: 2 to 00000000004341fa
  DW_CFA_def_cfa_offset: 8
  DW_CFA_advance_loc: 5 to 00000000004341ff
  DW_CFA_restore_state
  DW_CFA_advance_loc: 46 to 000000000043422d
  DW_CFA_remember_state
  DW_CFA_def_cfa_offset: 56
  DW_CFA_advance_loc: 8 to 0000000000434235
  DW_CFA_def_cfa_offset: 48
  DW_CFA_advance_loc: 1 to 0000000000434236
  DW_CFA_def_cfa_offset: 40
  DW_CFA_advance_loc: 2 to 0000000000434238
  DW_CFA_def_cfa_offset: 32
  DW_CFA_advance_loc: 2 to 000000000043423a
  DW_CFA_def_cfa_offset: 24
  DW_CFA_advance_loc: 2 to 000000000043423c
  DW_CFA_def_cfa_offset: 16
  DW_CFA_advance_loc: 2 to 000000000043423e
  DW_CFA_def_cfa_offset: 8
  DW_CFA_advance_loc: 5 to 0000000000434243
  DW_CFA_restore_state
  DW_CFA_advance_loc: 56 to 000000000043427b
  DW_CFA_remember_state
  DW_CFA_def_cfa_offset: 56
  DW_CFA_advance_loc: 8 to 0000000000434283
  DW_CFA_def_cfa_offset: 48
  DW_CFA_advance_loc: 1 to 0000000000434284
  DW_CFA_def_cfa_offset: 40
  DW_CFA_advance_loc: 2 to 0000000000434286
  DW_CFA_def_cfa_offset: 32
  DW_CFA_advance_loc: 2 to 0000000000434288
  DW_CFA_def_cfa_offset: 24
  DW_CFA_advance_loc: 2 to 000000000043428a
  DW_CFA_def_cfa_offset: 16
  DW_CFA_advance_loc: 2 to 000000000043428c
  DW_CFA_def_cfa_offset: 8
  DW_CFA_advance_loc: 5 to 0000000000434291
  DW_CFA_restore_state
  DW_CFA_advance_loc: 46 to 00000000004342bf
  DW_CFA_remember_state
  DW_CFA_def_cfa_offset: 56
  DW_CFA_advance_loc: 8 to 00000000004342c7
  DW_CFA_def_cfa_offset: 48
  DW_CFA_advance_loc: 1 to 00000000004342c8
  DW_CFA_def_cfa_offset: 40
  DW_CFA_advance_loc: 2 to 00000000004342ca
  DW_CFA_def_cfa_offset: 32
  DW_CFA_advance_loc: 2 to 00000000004342cc
  DW_CFA_def_cfa_offset: 24
  DW_CFA_advance_loc: 2 to 00000000004342ce
  DW_CFA_def_cfa_offset: 16
  DW_CFA_advance_loc: 2 to 00000000004342d0
  DW_CFA_def_cfa_offset: 8
  DW_CFA_advance_loc: 5 to 00000000004342d5
  DW_CFA_restore_state
  DW_CFA_advance_loc: 56 to 000000000043430d
  DW_CFA_remember_state
  DW_CFA_def_cfa_offset: 56
  DW_CFA_advance_loc: 8 to 0000000000434315
  DW_CFA_def_cfa_offset: 48
  DW_CFA_advance_loc: 1 to 0000000000434316
  DW_CFA_def_cfa_offset: 40
  DW_CFA_advance_loc: 2 to 0000000000434318
  DW_CFA_def_cfa_offset: 32
  DW_CFA_advance_loc: 2 to 000000000043431a
  DW_CFA_def_cfa_offset: 24
  DW_CFA_advance_loc: 2 to 000000000043431c
  DW_CFA_def_cfa_offset: 16
  DW_CFA_advance_loc: 2 to 000000000043431e
  DW_CFA_def_cfa_offset: 8
  DW_CFA_advance_loc: 5 to 0000000000434323
  DW_CFA_restore_state
  DW_CFA_advance_loc: 46 to 0000000000434351
  DW_CFA_remember_state
  DW_CFA_def_cfa_offset: 56
  DW_CFA_advance_loc: 8 to 0000000000434359
  DW_CFA_def_cfa_offset: 48
  DW_CFA_advance_loc: 1 to 000000000043435a
  DW_CFA_def_cfa_offset: 40
  DW_CFA_advance_loc: 2 to 000000000043435c
  DW_CFA_def_cfa_offset: 32
  DW_CFA_advance_loc: 2 to 000000000043435e
  DW_CFA_def_cfa_offset: 24
  DW_CFA_advance_loc: 2 to 0000000000434360
  DW_CFA_def_cfa_offset: 16
  DW_CFA_advance_loc: 2 to 0000000000434362
  DW_CFA_def_cfa_offset: 8
  DW_CFA_advance_loc: 5 to 0000000000434367
  DW_CFA_restore_state
  DW_CFA_advance_loc: 56 to 000000000043439f
  DW_CFA_remember_state
  DW_CFA_def_cfa_offset: 56
  DW_CFA_advance_loc: 8 to 00000000004343a7
  DW_CFA_def_cfa_offset: 48
  DW_CFA_advance_loc: 1 to 00000000004343a8
  DW_CFA_def_cfa_offset: 40
  DW_CFA_advance_loc: 2 to 00000000004343aa
  DW_CFA_def_cfa_offset: 32
  DW_CFA_advance_loc: 2 to 00000000004343ac
  DW_CFA_def_cfa_offset: 24
  DW_CFA_advance_loc: 2 to 00000000004343ae
  DW_CFA_def_cfa_offset: 16
  DW_CFA_advance_loc: 2 to 00000000004343b0
  DW_CFA_def_cfa_offset: 8
  DW_CFA_advance_loc: 5 to 00000000004343b5
  DW_CFA_restore_state
  DW_CFA_advance_loc: 46 to 00000000004343e3
  DW_CFA_remember_state
  DW_CFA_def_cfa_offset: 56
  DW_CFA_advance_loc: 8 to 00000000004343eb
  DW_CFA_def_cfa_offset: 48
  DW_CFA_advance_loc: 1 to 00000000004343ec
  DW_CFA_def_cfa_offset: 40
  DW_CFA_advance_loc: 2 to 00000000004343ee
  DW_CFA_def_cfa_offset: 32
  DW_CFA_advance_loc: 2 to 00000000004343f0
  DW_CFA_def_cfa_offset: 24
  DW_CFA_advance_loc: 2 to 00000000004343f2
  DW_CFA_def_cfa_offset: 16
  DW_CFA_advance_loc: 2 to 00000000004343f4
  DW_CFA_def_cfa_offset: 8
  DW_CFA_advance_loc: 5 to 00000000004343f9
  DW_CFA_restore_state
  DW_CFA_advance_loc: 56 to 0000000000434431
  DW_CFA_remember_state
  DW_CFA_def_cfa_offset: 56
  DW_CFA_advance_loc: 8 to 0000000000434439
  DW_CFA_def_cfa_offset: 48
  DW_CFA_advance_loc: 1 to 000000000043443a
  DW_CFA_def_cfa_offset: 40
  DW_CFA_advance_loc: 2 to 000000000043443c
  DW_CFA_def_cfa_offset: 32
  DW_CFA_advance_loc: 2 to 000000000043443e
  DW_CFA_def_cfa_offset: 24
  DW_CFA_advance_loc: 2 to 0000000000434440
  DW_CFA_def_cfa_offset: 16
  DW_CFA_advance_loc: 2 to 0000000000434442
  DW_CFA_def_cfa_offset: 8
  DW_CFA_advance_loc: 5 to 0000000000434447
  DW_CFA_restore_state
  DW_CFA_advance_loc: 46 to 0000000000434475
  DW_CFA_remember_state
  DW_CFA_def_cfa_offset: 56
  DW_CFA_advance_loc: 8 to 000000000043447d
  DW_CFA_def_cfa_offset: 48
  DW_CFA_advance_loc: 1 to 000000000043447e
  DW_CFA_def_cfa_offset: 40
  DW_CFA_advance_loc: 2 to 0000000000434480
  DW_CFA_def_cfa_offset: 32
  DW_CFA_advance_loc: 2 to 0000000000434482
  DW_CFA_def_cfa_offset: 24
  DW_CFA_advance_loc: 2 to 0000000000434484
  DW_CFA_def_cfa_offset: 16
  DW_CFA_advance_loc: 2 to 0000000000434486
  DW_CFA_def_cfa_offset: 8
  DW_CFA_advance_loc: 5 to 000000000043448b
  DW_CFA_restore_state
  DW_CFA_advance_loc: 56 to 00000000004344c3
  DW_CFA_remember_state
  DW_CFA_def_cfa_offset: 56
  DW_CFA_advance_loc: 8 to 00000000004344cb
  DW_CFA_def_cfa_offset: 48
  DW_CFA_advance_loc: 1 to 00000000004344cc
  DW_CFA_def_cfa_offset: 40
  DW_CFA_advance_loc: 2 to 00000000004344ce
  DW_CFA_def_cfa_offset: 32
  DW_CFA_advance_loc: 2 to 00000000004344d0
  DW_CFA_def_cfa_offset: 24
  DW_CFA_advance_loc: 2 to 00000000004344d2
  DW_CFA_def_cfa_offset: 16
  DW_CFA_advance_loc: 2 to 00000000004344d4
  DW_CFA_def_cfa_offset: 8
  DW_CFA_advance_loc: 5 to 00000000004344d9
  DW_CFA_restore_state
  DW_CFA_advance_loc: 46 to 0000000000434507
  DW_CFA_remember_state
  DW_CFA_def_cfa_offset: 56
  DW_CFA_advance_loc: 8 to 000000000043450f
  DW_CFA_def_cfa_offset: 48
  DW_CFA_advance_loc: 1 to 0000000000434510
  DW_CFA_def_cfa_offset: 40
  DW_CFA_advance_loc: 2 to 0000000000434512
  DW_CFA_def_cfa_offset: 32
  DW_CFA_advance_loc: 2 to 0000000000434514
  DW_CFA_def_cfa_offset: 24
  DW_CFA_advance_loc: 2 to 0000000000434516
  DW_CFA_def_cfa_offset: 16
  DW_CFA_advance_loc: 2 to 0000000000434518
  DW_CFA_def_cfa_offset: 8
  DW_CFA_advance_loc: 5 to 000000000043451d
  DW_CFA_restore_state
  DW_CFA_advance_loc: 56 to 0000000000434555
  DW_CFA_remember_state
  DW_CFA_def_cfa_offset: 56
  DW_CFA_advance_loc: 8 to 000000000043455d
  DW_CFA_def_cfa_offset: 48
  DW_CFA_advance_loc: 1 to 000000000043455e
  DW_CFA_def_cfa_offset: 40
  DW_CFA_advance_loc: 2 to 0000000000434560
  DW_CFA_def_cfa_offset: 32
  DW_CFA_advance_loc: 2 to 0000000000434562
  DW_CFA_def_cfa_offset: 24
  DW_CFA_advance_loc: 2 to 0000000000434564
  DW_CFA_def_cfa_offset: 16
  DW_CFA_advance_loc: 2 to 0000000000434566
  DW_CFA_def_cfa_offset: 8
  DW_CFA_advance_loc: 5 to 000000000043456b
  DW_CFA_restore_state
  DW_CFA_advance_loc: 46 to 0000000000434599
  DW_CFA_remember_state
  DW_CFA_def_cfa_offset: 56
  DW_CFA_advance_loc: 8 to 00000000004345a1
  DW_CFA_def_cfa_offset: 48
  DW_CFA_advance_loc: 1 to 00000000004345a2
  DW_CFA_def_cfa_offset: 40
  DW_CFA_advance_loc: 2 to 00000000004345a4
  DW_CFA_def_cfa_offset: 32
  DW_CFA_advance_loc: 2 to 00000000004345a6
  DW_CFA_def_cfa_offset: 24
  DW_CFA_advance_loc: 2 to 00000000004345a8
  DW_CFA_def_cfa_offset: 16
  DW_CFA_advance_loc: 2 to 00000000004345aa
  DW_CFA_def_cfa_offset: 8
  DW_CFA_advance_loc: 5 to 00000000004345af
  DW_CFA_restore_state
  DW_CFA_advance_loc: 56 to 00000000004345e7
  DW_CFA_remember_state
  DW_CFA_def_cfa_offset: 56
  DW_CFA_advance_loc: 8 to 00000000004345ef
  DW_CFA_def_cfa_offset: 48
  DW_CFA_advance_loc: 1 to 00000000004345f0
  DW_CFA_def_cfa_offset: 40
  DW_CFA_advance_loc: 2 to 00000000004345f2
  DW_CFA_def_cfa_offset: 32
  DW_CFA_advance_loc: 2 to 00000000004345f4
  DW_CFA_def_cfa_offset: 24
  DW_CFA_advance_loc: 2 to 00000000004345f6
  DW_CFA_def_cfa_offset: 16
  DW_CFA_advance_loc: 2 to 00000000004345f8
  DW_CFA_def_cfa_offset: 8
  DW_CFA_advance_loc: 5 to 00000000004345fd
  DW_CFA_restore_state
  DW_CFA_advance_loc: 46 to 000000000043462b
  DW_CFA_remember_state
  DW_CFA_def_cfa_offset: 56
  DW_CFA_advance_loc: 8 to 0000000000434633
  DW_CFA_def_cfa_offset: 48
  DW_CFA_advance_loc: 1 to 0000000000434634
  DW_CFA_def_cfa_offset: 40
  DW_CFA_advance_loc: 2 to 0000000000434636
  DW_CFA_def_cfa_offset: 32
  DW_CFA_advance_loc: 2 to 0000000000434638
  DW_CFA_def_cfa_offset: 24
  DW_CFA_advance_loc: 2 to 000000000043463a
  DW_CFA_def_cfa_offset: 16
  DW_CFA_advance_loc: 2 to 000000000043463c
  DW_CFA_def_cfa_offset: 8
  DW_CFA_advance_loc: 5 to 0000000000434641
  DW_CFA_restore_state
  DW_CFA_advance_loc: 56 to 0000000000434679
  DW_CFA_remember_state
  DW_CFA_def_cfa_offset: 56
  DW_CFA_advance_loc: 8 to 0000000000434681
  DW_CFA_def_cfa_offset: 48
  DW_CFA_advance_loc: 1 to 0000000000434682
  DW_CFA_def_cfa_offset: 40
  DW_CFA_advance_loc: 2 to 0000000000434684
  DW_CFA_def_cfa_offset: 32
  DW_CFA_advance_loc: 2 to 0000000000434686
  DW_CFA_def_cfa_offset: 24
  DW_CFA_advance_loc: 2 to 0000000000434688
  DW_CFA_def_cfa_offset: 16
  DW_CFA_advance_loc: 2 to 000000000043468a
  DW_CFA_def_cfa_offset: 8
  DW_CFA_advance_loc: 5 to 000000000043468f
  DW_CFA_restore_state
  DW_CFA_advance_loc: 46 to 00000000004346bd
  DW_CFA_remember_state
  DW_CFA_def_cfa_offset: 56
  DW_CFA_advance_loc: 8 to 00000000004346c5
  DW_CFA_def_cfa_offset: 48
  DW_CFA_advance_loc: 1 to 00000000004346c6
  DW_CFA_def_cfa_offset: 40
  DW_CFA_advance_loc: 2 to 00000000004346c8
  DW_CFA_def_cfa_offset: 32
  DW_CFA_advance_loc: 2 to 00000000004346ca
  DW_CFA_def_cfa_offset: 24
  DW_CFA_advance_loc: 2 to 00000000004346cc
  DW_CFA_def_cfa_offset: 16
  DW_CFA_advance_loc: 2 to 00000000004346ce
  DW_CFA_def_cfa_offset: 8
  DW_CFA_advance_loc: 5 to 00000000004346d3
  DW_CFA_restore_state
  DW_CFA_advance_loc: 56 to 000000000043470b
  DW_CFA_remember_state
  DW_CFA_def_cfa_offset: 56
  DW_CFA_advance_loc: 8 to 0000000000434713
  DW_CFA_def_cfa_offset: 48
  DW_CFA_advance_loc: 1 to 0000000000434714
  DW_CFA_def_cfa_offset: 40
  DW_CFA_advance_loc: 2 to 0000000000434716
  DW_CFA_def_cfa_offset: 32
  DW_CFA_advance_loc: 2 to 0000000000434718
  DW_CFA_def_cfa_offset: 24
  DW_CFA_advance_loc: 2 to 000000000043471a
  DW_CFA_def_cfa_offset: 16
  DW_CFA_advance_loc: 2 to 000000000043471c
  DW_CFA_def_cfa_offset: 8
  DW_CFA_advance_loc: 5 to 0000000000434721
  DW_CFA_restore_state
  DW_CFA_advance_loc: 46 to 000000000043474f
  DW_CFA_remember_state
  DW_CFA_def_cfa_offset: 56
  DW_CFA_advance_loc: 8 to 0000000000434757
  DW_CFA_def_cfa_offset: 48
  DW_CFA_advance_loc: 1 to 0000000000434758
  DW_CFA_def_cfa_offset: 40
  DW_CFA_advance_loc: 2 to 000000000043475a
  DW_CFA_def_cfa_offset: 32
  DW_CFA_advance_loc: 2 to 000000000043475c
  DW_CFA_def_cfa_offset: 24
  DW_CFA_advance_loc: 2 to 000000000043475e
  DW_CFA_def_cfa_offset: 16
  DW_CFA_advance_loc: 2 to 0000000000434760
  DW_CFA_def_cfa_offset: 8
  DW_CFA_advance_loc: 5 to 0000000000434765
  DW_CFA_restore_state
  DW_CFA_advance_loc: 56 to 000000000043479d
  DW_CFA_remember_state
  DW_CFA_def_cfa_offset: 56
  DW_CFA_advance_loc: 8 to 00000000004347a5
  DW_CFA_def_cfa_offset: 48
  DW_CFA_advance_loc: 1 to 00000000004347a6
  DW_CFA_def_cfa_offset: 40
  DW_CFA_advance_loc: 2 to 00000000004347a8
  DW_CFA_def_cfa_offset: 32
  DW_CFA_advance_loc: 2 to 00000000004347aa
  DW_CFA_def_cfa_offset: 24
  DW_CFA_advance_loc: 2 to 00000000004347ac
  DW_CFA_def_cfa_offset: 16
  DW_CFA_advance_loc: 2 to 00000000004347ae
  DW_CFA_def_cfa_offset: 8
  DW_CFA_advance_loc: 5 to 00000000004347b3
  DW_CFA_restore_state
  DW_CFA_advance_loc: 46 to 00000000004347e1
  DW_CFA_remember_state
  DW_CFA_def_cfa_offset: 56
  DW_CFA_advance_loc: 8 to 00000000004347e9
  DW_CFA_def_cfa_offset: 48
  DW_CFA_advance_loc: 1 to 00000000004347ea
  DW_CFA_def_cfa_offset: 40
  DW_CFA_advance_loc: 2 to 00000000004347ec
  DW_CFA_def_cfa_offset: 32
  DW_CFA_advance_loc: 2 to 00000000004347ee
  DW_CFA_def_cfa_offset: 24
  DW_CFA_advance_loc: 2 to 00000000004347f0
  DW_CFA_def_cfa_offset: 16
  DW_CFA_advance_loc: 2 to 00000000004347f2
  DW_CFA_def_cfa_offset: 8
  DW_CFA_advance_loc: 5 to 00000000004347f7
  DW_CFA_restore_state
  DW_CFA_advance_loc: 56 to 000000000043482f
  DW_CFA_remember_state
  DW_CFA_def_cfa_offset: 56
  DW_CFA_advance_loc: 8 to 0000000000434837
  DW_CFA_def_cfa_offset: 48
  DW_CFA_advance_loc: 1 to 0000000000434838
  DW_CFA_def_cfa_offset: 40
  DW_CFA_advance_loc: 2 to 000000000043483a
  DW_CFA_def_cfa_offset: 32
  DW_CFA_advance_loc: 2 to 000000000043483c
  DW_CFA_def_cfa_offset: 24
  DW_CFA_advance_loc: 2 to 000000000043483e
  DW_CFA_def_cfa_offset: 16
  DW_CFA_advance_loc: 2 to 0000000000434840
  DW_CFA_def_cfa_offset: 8
  DW_CFA_advance_loc: 5 to 0000000000434845
  DW_CFA_restore_state
  DW_CFA_advance_loc: 46 to 0000000000434873
  DW_CFA_remember_state
  DW_CFA_def_cfa_offset: 56
  DW_CFA_advance_loc: 8 to 000000000043487b
  DW_CFA_def_cfa_offset: 48
  DW_CFA_advance_loc: 1 to 000000000043487c
  DW_CFA_def_cfa_offset: 40
  DW_CFA_advance_loc: 2 to 000000000043487e
  DW_CFA_def_cfa_offset: 32
  DW_CFA_advance_loc: 2 to 0000000000434880
  DW_CFA_def_cfa_offset: 24
  DW_CFA_advance_loc: 2 to 0000000000434882
  DW_CFA_def_cfa_offset: 16
  DW_CFA_advance_loc: 2 to 0000000000434884
  DW_CFA_def_cfa_offset: 8
  DW_CFA_advance_loc: 5 to 0000000000434889
  DW_CFA_restore_state
  DW_CFA_advance_loc: 56 to 00000000004348c1
  DW_CFA_remember_state
  DW_CFA_def_cfa_offset: 56
  DW_CFA_advance_loc: 8 to 00000000004348c9
  DW_CFA_def_cfa_offset: 48
  DW_CFA_advance_loc: 1 to 00000000004348ca
  DW_CFA_def_cfa_offset: 40
  DW_CFA_advance_loc: 2 to 00000000004348cc
  DW_CFA_def_cfa_offset: 32
